	.arch armv6k
	.eabi_attribute 28, 1
	.eabi_attribute 20, 1
	.eabi_attribute 21, 1
	.eabi_attribute 23, 3
	.eabi_attribute 24, 1
	.eabi_attribute 25, 1
	.eabi_attribute 26, 1
	.eabi_attribute 30, 2
	.eabi_attribute 34, 1
	.eabi_attribute 18, 4
	.file	"Block.c"
	.text
.Ltext0:
	.cfi_sections	.debug_frame
	.section	.rodata.str1.4,"aMS",%progbits,1
	.align	2
.LC1:
	.ascii	"romfs:/assets/textures/blocks/stone.png\000"
	.align	2
.LC2:
	.ascii	"romfs:/assets/textures/blocks/dirt.png\000"
	.align	2
.LC3:
	.ascii	"romfs:/assets/textures/blocks/cobblestone.png\000"
	.align	2
.LC4:
	.ascii	"romfs:/assets/textures/blocks/grass_side.png\000"
	.align	2
.LC5:
	.ascii	"romfs:/assets/textures/blocks/grass_top.png\000"
	.align	2
.LC6:
	.ascii	"romfs:/assets/textures/blocks/stonebrick.png\000"
	.align	2
.LC7:
	.ascii	"romfs:/assets/textures/blocks/sand.png\000"
	.align	2
.LC8:
	.ascii	"romfs:/assets/textures/blocks/log_oak.png\000"
	.align	2
.LC9:
	.ascii	"romfs:/assets/textures/blocks/log_oak_top.png\000"
	.align	2
.LC10:
	.ascii	"romfs:/assets/textures/blocks/leaves_oak.png\000"
	.align	2
.LC11:
	.ascii	"romfs:/assets/textures/blocks/glass.png\000"
	.align	2
.LC12:
	.ascii	"romfs:/assets/textures/blocks/brick.png\000"
	.align	2
.LC13:
	.ascii	"romfs:/assets/textures/blocks/planks_oak.png\000"
	.align	2
.LC14:
	.ascii	"romfs:/assets/textures/blocks/wool.png\000"
	.align	2
.LC15:
	.ascii	"romfs:/assets/textures/blocks/bedrock.png\000"
	.align	2
.LC16:
	.ascii	"romfs:/assets/textures/blocks/gravel.png\000"
	.align	2
.LC17:
	.ascii	"romfs:/assets/textures/blocks/coarse_dirt.png\000"
	.align	2
.LC18:
	.ascii	"romfs:/assets/textures/blocks/door_top.png\000"
	.align	2
.LC19:
	.ascii	"romfs:/assets/textures/blocks/door_bottom.png\000"
	.align	2
.LC20:
	.ascii	"romfs:/assets/textures/blocks/snow_grass_side.png\000"
	.align	2
.LC21:
	.ascii	"romfs:/assets/textures/blocks/snow.png\000"
	.align	2
.LC22:
	.ascii	"romfs:/assets/textures/blocks/obsidian.png\000"
	.align	2
.LC23:
	.ascii	"romfs:/assets/textures/blocks/sandstone_side.png\000"
	.align	2
.LC24:
	.ascii	"romfs:/assets/textures/blocks/sandstone_top.png\000"
	.align	2
.LC25:
	.ascii	"romfs:/assets/textures/blocks/sandstone_bottom.png\000"
	.align	2
.LC26:
	.ascii	"romfs:/assets/textures/blocks/netherrack.png\000"
	.align	2
.LC27:
	.ascii	"romfs:/assets/textures/blocks/smooth_stone.png\000"
	.align	2
.LC28:
	.ascii	"romfs:/assets/textures/blocks/lava.png\000"
	.align	2
.LC29:
	.ascii	"romfs:/assets/textures/blocks/water.png\000"
	.align	2
.LC30:
	.ascii	"romfs:/assets/textures/blocks/grass_path_side.png\000"
	.align	2
.LC31:
	.ascii	"romfs:/assets/textures/blocks/grass_path_top.png\000"
	.align	2
.LC32:
	.ascii	"romfs:/assets/textures/blocks/crafting_table_side.p"
	.ascii	"ng\000"
	.align	2
.LC33:
	.ascii	"romfs:/assets/textures/blocks/crafting_table_top.pn"
	.ascii	"g\000"
	.align	2
.LC34:
	.ascii	"romfs:/assets/textures/blocks/iron_ore.png\000"
	.align	2
.LC35:
	.ascii	"romfs:/assets/textures/blocks/iron_block.png\000"
	.align	2
.LC36:
	.ascii	"romfs:/assets/textures/blocks/diamond_ore.png\000"
	.align	2
.LC37:
	.ascii	"romfs:/assets/textures/blocks/diamond_block.png\000"
	.align	2
.LC38:
	.ascii	"romfs:/assets/textures/blocks/gold_ore.png\000"
	.align	2
.LC39:
	.ascii	"romfs:/assets/textures/blocks/gold_block.png\000"
	.align	2
.LC40:
	.ascii	"romfs:/assets/textures/blocks/coal_ore.png\000"
	.align	2
.LC41:
	.ascii	"romfs:/assets/textures/blocks/coal_block.png\000"
	.align	2
.LC42:
	.ascii	"romfs:/assets/textures/blocks/emerald_ore.png\000"
	.align	2
.LC43:
	.ascii	"romfs:/assets/textures/blocks/emerald_block.png\000"
	.align	2
.LC44:
	.ascii	"romfs:/assets/textures/blocks/furnace_side.png\000"
	.align	2
.LC45:
	.ascii	"romfs:/assets/textures/blocks/furnace_front.png\000"
	.align	2
.LC46:
	.ascii	"romfs:/assets/textures/blocks/furnace_top.png\000"
	.section	.text.Block_Init,"ax",%progbits
	.align	2
	.global	Block_Init
	.syntax unified
	.arm
	.fpu vfp
	.type	Block_Init, %function
Block_Init:
.LFB121:
	.file 1 "/home/tobi/Dokumente/Craftus-Next/source/blocks/Block.c"
	.loc 1 80 19 view -0
	.cfi_startproc
	@ args = 0, pretend = 0, frame = 8
	@ frame_needed = 0, uses_anonymous_args = 0
	.loc 1 81 2 view .LVU1
	.loc 1 80 19 is_stmt 0 view .LVU2
	push	{r4, r5, lr}
	.cfi_def_cfa_offset 12
	.cfi_offset 4, -12
	.cfi_offset 5, -8
	.cfi_offset 14, -4
	sub	sp, sp, #12
	.cfi_def_cfa_offset 24
	.loc 1 83 15 view .LVU3
	mov	r4, sp
	.loc 1 81 2 view .LVU4
	ldr	r5, .L4
	mov	r2, #46
	mov	r0, r5
	ldr	r1, .L4+4
	bl	Texture_MapInit
.LVL0:
	.loc 1 83 2 is_stmt 1 view .LVU5
	.loc 1 83 15 is_stmt 0 view .LVU6
	mov	r1, r5
	mov	r0, r4
	ldr	r2, .L4+8
	bl	Texture_MapGetIcon
.LVL1:
	ldm	r4, {r0, r1}
	add	r3, r5, #536
	stm	r3, {r0, r1}
	.loc 1 83 106 view .LVU7
	ldr	r2, .L4+12
	mov	r1, r5
	mov	r0, r4
	bl	Texture_MapGetIcon
.LVL2:
	ldm	r4, {r0, r1}
	add	r3, r5, #544
	stm	r3, {r0, r1}
	.loc 1 83 203 view .LVU8
	ldr	r2, .L4+16
	mov	r1, r5
	mov	r0, r4
	bl	Texture_MapGetIcon
.LVL3:
	ldm	r4, {r0, r1}
	add	r3, r5, #552
	stm	r3, {r0, r1}
	.loc 1 83 306 view .LVU9
	ldr	r2, .L4+20
	mov	r1, r5
	mov	r0, r4
	bl	Texture_MapGetIcon
.LVL4:
	ldm	r4, {r0, r1}
	add	r3, r5, #560
	stm	r3, {r0, r1}
	.loc 1 83 407 view .LVU10
	ldr	r2, .L4+24
	mov	r1, r5
	mov	r0, r4
	bl	Texture_MapGetIcon
.LVL5:
	ldm	r4, {r0, r1}
	add	r3, r5, #568
	stm	r3, {r0, r1}
	.loc 1 83 507 view .LVU11
	ldr	r2, .L4+28
	mov	r1, r5
	mov	r0, r4
	bl	Texture_MapGetIcon
.LVL6:
	ldm	r4, {r0, r1}
	add	r3, r5, #576
	stm	r3, {r0, r1}
	.loc 1 83 603 view .LVU12
	ldr	r2, .L4+32
	mov	r1, r5
	mov	r0, r4
	bl	Texture_MapGetIcon
.LVL7:
	ldm	r4, {r0, r1}
	add	r3, r5, #584
	stm	r3, {r0, r1}
	.loc 1 83 700 view .LVU13
	ldr	r2, .L4+36
	mov	r1, r5
	mov	r0, r4
	bl	Texture_MapGetIcon
.LVL8:
	ldm	r4, {r0, r1}
	add	r3, r5, #592
	stm	r3, {r0, r1}
	.loc 1 83 799 view .LVU14
	ldr	r2, .L4+40
	mov	r1, r5
	mov	r0, r4
	bl	Texture_MapGetIcon
.LVL9:
	ldm	r4, {r0, r1}
	add	r3, r5, #600
	stm	r3, {r0, r1}
	.loc 1 83 902 view .LVU15
	ldr	r2, .L4+44
	mov	r1, r5
	mov	r0, r4
	bl	Texture_MapGetIcon
.LVL10:
	ldm	r4, {r0, r1}
	add	r3, r5, #608
	stm	r3, {r0, r1}
	.loc 1 83 998 view .LVU16
	ldr	r2, .L4+48
	mov	r1, r5
	mov	r0, r4
	bl	Texture_MapGetIcon
.LVL11:
	ldm	r4, {r0, r1}
	add	r3, r5, #616
	stm	r3, {r0, r1}
	.loc 1 83 1090 view .LVU17
	ldr	r2, .L4+52
	mov	r1, r5
	mov	r0, r4
	bl	Texture_MapGetIcon
.LVL12:
	ldm	r4, {r0, r1}
	add	r3, r5, #624
	stm	r3, {r0, r1}
	.loc 1 83 1186 view .LVU18
	ldr	r2, .L4+56
	mov	r1, r5
	mov	r0, r4
	bl	Texture_MapGetIcon
.LVL13:
	ldm	r4, {r0, r1}
	add	r3, r5, #632
	stm	r3, {r0, r1}
	.loc 1 83 1281 view .LVU19
	ldr	r2, .L4+60
	mov	r1, r5
	mov	r0, r4
	bl	Texture_MapGetIcon
.LVL14:
	ldm	r4, {r0, r1}
	add	r3, r5, #640
	stm	r3, {r0, r1}
	.loc 1 83 1374 view .LVU20
	ldr	r2, .L4+64
	mov	r1, r5
	mov	r0, r4
	bl	Texture_MapGetIcon
.LVL15:
	ldm	r4, {r0, r1}
	add	r3, r5, #648
	stm	r3, {r0, r1}
	.loc 1 83 1469 view .LVU21
	ldr	r2, .L4+68
	mov	r1, r5
	mov	r0, r4
	bl	Texture_MapGetIcon
.LVL16:
	ldm	r4, {r0, r1}
	add	r3, r5, #656
	stm	r3, {r0, r1}
	.loc 1 83 1563 view .LVU22
	ldr	r2, .L4+72
	mov	r1, r5
	mov	r0, r4
	bl	Texture_MapGetIcon
.LVL17:
	ldm	r4, {r0, r1}
	add	r3, r5, #664
	stm	r3, {r0, r1}
	.loc 1 83 1664 view .LVU23
	ldr	r2, .L4+76
	mov	r1, r5
	mov	r0, r4
	bl	Texture_MapGetIcon
.LVL18:
	ldm	r4, {r0, r1}
	add	r3, r5, #672
	stm	r3, {r0, r1}
	.loc 1 83 1765 view .LVU24
	ldr	r2, .L4+80
	mov	r1, r5
	mov	r0, r4
	bl	Texture_MapGetIcon
.LVL19:
	ldm	r4, {r0, r1}
	add	r3, r5, #680
	stm	r3, {r0, r1}
	.loc 1 83 1873 view .LVU25
	ldr	r2, .L4+84
	mov	r1, r5
	mov	r0, r4
	bl	Texture_MapGetIcon
.LVL20:
	ldm	r4, {r0, r1}
	add	r3, r5, #688
	stm	r3, {r0, r1}
	.loc 1 83 1974 view .LVU26
	ldr	r2, .L4+88
	mov	r1, r5
	mov	r0, r4
	bl	Texture_MapGetIcon
.LVL21:
	ldm	r4, {r0, r1}
	add	r3, r5, #696
	stm	r3, {r0, r1}
	.loc 1 83 2067 view .LVU27
	ldr	r2, .L4+92
	mov	r1, r5
	mov	r0, r4
	bl	Texture_MapGetIcon
.LVL22:
	ldm	r4, {r0, r1}
	add	r3, r5, #704
	stm	r3, {r0, r1}
	.loc 1 83 2171 view .LVU28
	ldr	r2, .L4+96
	mov	r1, r5
	mov	r0, r4
	bl	Texture_MapGetIcon
.LVL23:
	ldm	r4, {r0, r1}
	add	r3, r5, #720
	stm	r3, {r0, r1}
	.loc 1 83 2280 view .LVU29
	ldr	r2, .L4+100
	mov	r1, r5
	mov	r0, r4
	bl	Texture_MapGetIcon
.LVL24:
	ldm	r4, {r0, r1}
	add	r3, r5, #728
	stm	r3, {r0, r1}
	.loc 1 83 2391 view .LVU30
	ldr	r2, .L4+104
	mov	r1, r5
	mov	r0, r4
	bl	Texture_MapGetIcon
.LVL25:
	ldm	r4, {r0, r1}
	add	r3, r5, #736
	stm	r3, {r0, r1}
	.loc 1 83 2499 view .LVU31
	ldr	r2, .L4+108
	mov	r1, r5
	mov	r0, r4
	bl	Texture_MapGetIcon
.LVL26:
	ldm	r4, {r0, r1}
	add	r3, r5, #712
	stm	r3, {r0, r1}
	.loc 1 83 2603 view .LVU32
	ldr	r2, .L4+112
	mov	r1, r5
	mov	r0, r4
	bl	Texture_MapGetIcon
.LVL27:
	ldm	r4, {r0, r1}
	add	r3, r5, #744
	stm	r3, {r0, r1}
	.loc 1 83 2701 view .LVU33
	ldr	r2, .L4+116
	mov	r1, r5
	mov	r0, r4
	bl	Texture_MapGetIcon
.LVL28:
	ldm	r4, {r0, r1}
	add	r3, r5, #784
	stm	r3, {r0, r1}
	.loc 1 83 2792 view .LVU34
	ldr	r2, .L4+120
	mov	r1, r5
	mov	r0, r4
	bl	Texture_MapGetIcon
.LVL29:
	ldm	r4, {r0, r1}
	add	r3, r5, #792
	stm	r3, {r0, r1}
	.loc 1 83 2894 view .LVU35
	ldr	r2, .L4+124
	mov	r1, r5
	mov	r0, r4
	bl	Texture_MapGetIcon
.LVL30:
	ldm	r4, {r0, r1}
	add	r3, r5, #752
	stm	r3, {r0, r1}
	.loc 1 83 3004 view .LVU36
	ldr	r2, .L4+128
	mov	r1, r5
	mov	r0, r4
	bl	Texture_MapGetIcon
.LVL31:
	ldm	r4, {r0, r1}
	add	r3, r5, #760
	stm	r3, {r0, r1}
	.loc 1 83 3119 view .LVU37
	ldr	r2, .L4+132
	mov	r1, r5
	mov	r0, r4
	bl	Texture_MapGetIcon
.LVL32:
	ldm	r4, {r0, r1}
	add	r3, r5, #768
	stm	r3, {r0, r1}
	.loc 1 83 3238 view .LVU38
	ldr	r2, .L4+136
	mov	r1, r5
	mov	r0, r4
	bl	Texture_MapGetIcon
.LVL33:
	ldm	r4, {r0, r1}
	add	r3, r5, #776
	stm	r3, {r0, r1}
	.loc 1 83 3346 view .LVU39
	ldr	r2, .L4+140
	mov	r1, r5
	mov	r0, r4
	bl	Texture_MapGetIcon
.LVL34:
	ldm	r4, {r0, r1}
	add	r3, r5, #800
	stm	r3, {r0, r1}
	.loc 1 83 3445 view .LVU40
	ldr	r2, .L4+144
	mov	r1, r5
	mov	r0, r4
	bl	Texture_MapGetIcon
.LVL35:
	ldm	r4, {r0, r1}
	add	r3, r5, #808
	stm	r3, {r0, r1}
	.loc 1 83 3547 view .LVU41
	ldr	r2, .L4+148
	mov	r1, r5
	mov	r0, r4
	bl	Texture_MapGetIcon
.LVL36:
	ldm	r4, {r0, r1}
	add	r3, r5, #832
	stm	r3, {r0, r1}
	.loc 1 83 3652 view .LVU42
	ldr	r2, .L4+152
	mov	r1, r5
	mov	r0, r4
	bl	Texture_MapGetIcon
.LVL37:
	ldm	r4, {r0, r1}
	add	r3, r5, #840
	stm	r3, {r0, r1}
	.loc 1 83 3755 view .LVU43
	ldr	r2, .L4+156
	mov	r1, r5
	mov	r0, r4
	bl	Texture_MapGetIcon
.LVL38:
	ldm	r4, {r0, r1}
	add	r3, r5, #824
	stm	r3, {r0, r1}
	.loc 1 83 3854 view .LVU44
	ldr	r2, .L4+160
	mov	r1, r5
	mov	r0, r4
	bl	Texture_MapGetIcon
.LVL39:
	ldm	r4, {r0, r1}
	add	r3, r5, #816
	stm	r3, {r0, r1}
	.loc 1 83 3953 view .LVU45
	ldr	r2, .L4+164
	mov	r1, r5
	mov	r0, r4
	bl	Texture_MapGetIcon
.LVL40:
	ldm	r4, {r0, r1}
	add	r3, r5, #872
	stm	r3, {r0, r1}
	.loc 1 83 4052 view .LVU46
	ldr	r2, .L4+168
	mov	r1, r5
	mov	r0, r4
	bl	Texture_MapGetIcon
.LVL41:
	ldm	r4, {r0, r1}
	add	r3, r5, #864
	stm	r3, {r0, r1}
	.loc 1 83 0 view .LVU47
	ldr	r2, .L4+172
	mov	r1, r5
	mov	r0, r4
	bl	Texture_MapGetIcon
.LVL42:
	ldm	r4, {r0, r1}
	add	r3, r5, #856
	stm	r3, {r0, r1}
	ldr	r2, .L4+176
	mov	r1, r5
	mov	r0, r4
	bl	Texture_MapGetIcon
.LVL43:
	ldm	r4, {r0, r1}
	add	r3, r5, #848
	stm	r3, {r0, r1}
	ldr	r2, .L4+180
	mov	r1, r5
	mov	r0, r4
	bl	Texture_MapGetIcon
.LVL44:
	ldm	r4, {r0, r1}
	add	r3, r5, #888
	stm	r3, {r0, r1}
	ldr	r2, .L4+184
	mov	r1, r5
	mov	r0, r4
	bl	Texture_MapGetIcon
.LVL45:
	ldm	r4, {r0, r1}
	add	r3, r5, #880
	stm	r3, {r0, r1}
	ldr	r2, .L4+188
	mov	r1, r5
	mov	r0, r4
	bl	Texture_MapGetIcon
.LVL46:
	ldm	r4, {r0, r1}
	add	r5, r5, #896
	stm	r5, {r0, r1}
	.loc 1 85 1 view .LVU48
	add	sp, sp, #12
	.cfi_def_cfa_offset 12
	@ sp needed
	pop	{r4, r5, pc}
.L5:
	.align	2
.L4:
	.word	.LANCHOR1
	.word	.LANCHOR0
	.word	.LC1
	.word	.LC2
	.word	.LC3
	.word	.LC4
	.word	.LC5
	.word	.LC6
	.word	.LC7
	.word	.LC8
	.word	.LC9
	.word	.LC10
	.word	.LC11
	.word	.LC12
	.word	.LC13
	.word	.LC14
	.word	.LC15
	.word	.LC16
	.word	.LC17
	.word	.LC18
	.word	.LC19
	.word	.LC20
	.word	.LC21
	.word	.LC22
	.word	.LC23
	.word	.LC24
	.word	.LC25
	.word	.LC26
	.word	.LC27
	.word	.LC28
	.word	.LC29
	.word	.LC30
	.word	.LC31
	.word	.LC32
	.word	.LC33
	.word	.LC34
	.word	.LC35
	.word	.LC36
	.word	.LC37
	.word	.LC38
	.word	.LC39
	.word	.LC40
	.word	.LC41
	.word	.LC42
	.word	.LC43
	.word	.LC44
	.word	.LC45
	.word	.LC46
	.cfi_endproc
.LFE121:
	.size	Block_Init, .-Block_Init
	.section	.text.Block_Deinit,"ax",%progbits
	.align	2
	.global	Block_Deinit
	.syntax unified
	.arm
	.fpu vfp
	.type	Block_Deinit, %function
Block_Deinit:
.LFB122:
	.loc 1 86 21 is_stmt 1 view -0
	.cfi_startproc
	@ args = 0, pretend = 0, frame = 0
	@ frame_needed = 0, uses_anonymous_args = 0
	@ link register save eliminated.
	.loc 1 86 23 view .LVU50
	ldr	r0, .L7
	b	C3D_TexDelete
.LVL47:
.L8:
	.align	2
.L7:
	.word	.LANCHOR1
	.cfi_endproc
.LFE122:
	.size	Block_Deinit, .-Block_Deinit
	.section	.text.Block_GetTextureMap,"ax",%progbits
	.align	2
	.global	Block_GetTextureMap
	.syntax unified
	.arm
	.fpu vfp
	.type	Block_GetTextureMap, %function
Block_GetTextureMap:
.LFB123:
	.loc 1 88 29 view -0
	.cfi_startproc
	@ args = 0, pretend = 0, frame = 0
	@ frame_needed = 0, uses_anonymous_args = 0
	@ link register save eliminated.
	.loc 1 88 31 view .LVU52
	.loc 1 88 59 is_stmt 0 view .LVU53
	ldr	r0, .L10
	bx	lr
.L11:
	.align	2
.L10:
	.word	.LANCHOR1
	.cfi_endproc
.LFE123:
	.size	Block_GetTextureMap, .-Block_GetTextureMap
	.section	.text.Block_GetTexture,"ax",%progbits
	.align	2
	.global	Block_GetTexture
	.syntax unified
	.arm
	.fpu vfp
	.type	Block_GetTexture, %function
Block_GetTexture:
.LVL48:
.LFB124:
	.loc 1 90 92 is_stmt 1 view -0
	.cfi_startproc
	@ args = 0, pretend = 0, frame = 0
	@ frame_needed = 0, uses_anonymous_args = 0
	@ link register save eliminated.
	.loc 1 91 2 view .LVU55
	.loc 1 92 2 view .LVU56
	cmp	r0, #38
	ldrls	pc, [pc, r0, asl #2]
	b	.L69
.L15:
	.word	.L12
	.word	.L52
	.word	.L64
	.word	.L50
	.word	.L49
	.word	.L48
	.word	.L47
	.word	.L46
	.word	.L45
	.word	.L44
	.word	.L43
	.word	.L42
	.word	.L61
	.word	.L40
	.word	.L39
	.word	.L38
	.word	.L37
	.word	.L36
	.word	.L35
	.word	.L34
	.word	.L33
	.word	.L32
	.word	.L31
	.word	.L30
	.word	.L29
	.word	.L28
	.word	.L27
	.word	.L26
	.word	.L25
	.word	.L24
	.word	.L23
	.word	.L22
	.word	.L21
	.word	.L20
	.word	.L19
	.word	.L18
	.word	.L17
	.word	.L16
	.word	.L14
.L64:
	.loc 1 224 6 view .LVU57
.LVL49:
	.loc 1 224 8 is_stmt 0 view .LVU58
	ldr	r2, .L76
.LVL50:
	.loc 1 224 8 view .LVU59
	ldrsh	r1, [r2, #12]
.LVL51:
	.loc 1 224 8 view .LVU60
	ldrsh	r2, [r2, #14]
.LVL52:
	.loc 1 225 6 is_stmt 1 view .LVU61
.L13:
	.loc 1 279 2 discriminator 1 view .LVU62
	.loc 1 279 12 is_stmt 0 discriminator 1 view .LVU63
	strh	r1, [r3]	@ movhi
	.loc 1 280 2 is_stmt 1 discriminator 1 view .LVU64
	.loc 1 280 12 is_stmt 0 discriminator 1 view .LVU65
	strh	r2, [r3, #2]	@ movhi
.LVL53:
.L12:
	.loc 1 281 1 view .LVU66
	bx	lr
.LVL54:
.L34:
	.loc 1 167 6 is_stmt 1 view .LVU67
	.loc 1 167 8 is_stmt 0 view .LVU68
	ldr	r2, .L76
.LVL55:
	.loc 1 167 8 view .LVU69
	ldrsh	r1, [r2, #164]
.LVL56:
	.loc 1 167 8 view .LVU70
	ldrsh	r2, [r2, #166]
.LVL57:
	.loc 1 168 6 is_stmt 1 view .LVU71
	b	.L13
.LVL58:
.L61:
	.loc 1 205 6 view .LVU72
	.loc 1 205 8 is_stmt 0 view .LVU73
	ldr	r2, .L76
.LVL59:
	.loc 1 205 8 view .LVU74
	ldrsh	r1, [r2, #100]
.LVL60:
	.loc 1 205 8 view .LVU75
	ldrsh	r2, [r2, #102]
.LVL61:
	.loc 1 206 6 is_stmt 1 view .LVU76
	b	.L13
.LVL62:
.L46:
	.loc 1 129 4 view .LVU77
	.loc 1 129 6 is_stmt 0 view .LVU78
	ldr	r2, .L76
.LVL63:
	.loc 1 129 6 view .LVU79
	ldrsh	r1, [r2, #124]
.LVL64:
	.loc 1 129 6 view .LVU80
	ldrsh	r2, [r2, #126]
.LVL65:
	.loc 1 130 4 is_stmt 1 view .LVU81
	b	.L13
.LVL66:
.L47:
	.loc 1 118 4 view .LVU82
	.loc 1 124 8 is_stmt 0 view .LVU83
	ldr	r2, .L76
.LVL67:
	.loc 1 124 8 view .LVU84
	sub	r1, r1, #2
.LVL68:
	.loc 1 124 8 view .LVU85
	cmp	r1, #1
	.loc 1 121 6 is_stmt 1 view .LVU86
.LVL69:
	.loc 1 121 8 is_stmt 0 view .LVU87
	ldrshls	r1, [r2, #68]
.LVL70:
	.loc 1 124 8 view .LVU88
	ldrshhi	r1, [r2, #60]
.LVL71:
	.loc 1 121 8 view .LVU89
	ldrshls	r2, [r2, #70]
.LVL72:
	.loc 1 122 6 is_stmt 1 view .LVU90
	.loc 1 124 6 view .LVU91
	.loc 1 124 8 is_stmt 0 view .LVU92
	ldrshhi	r2, [r2, #62]
.LVL73:
	.loc 1 125 6 is_stmt 1 view .LVU93
	b	.L13
.LVL74:
.L48:
	.loc 1 132 4 view .LVU94
	.loc 1 132 6 is_stmt 0 view .LVU95
	ldr	r2, .L76
.LVL75:
	.loc 1 132 6 view .LVU96
	ldrsh	r1, [r2, #52]
.LVL76:
	.loc 1 132 6 view .LVU97
	ldrsh	r2, [r2, #54]
.LVL77:
	.loc 1 133 4 is_stmt 1 view .LVU98
	b	.L13
.LVL78:
.L49:
	.loc 1 115 4 view .LVU99
	.loc 1 115 6 is_stmt 0 view .LVU100
	ldr	r2, .L76
.LVL79:
	.loc 1 115 6 view .LVU101
	ldrsh	r1, [r2, #20]
.LVL80:
	.loc 1 115 6 view .LVU102
	ldrsh	r2, [r2, #22]
.LVL81:
	.loc 1 116 4 is_stmt 1 view .LVU103
	b	.L13
.LVL82:
.L45:
	.loc 1 135 4 view .LVU104
	.loc 1 135 6 is_stmt 0 view .LVU105
	ldr	r2, .L76
.LVL83:
	.loc 1 135 6 view .LVU106
	ldrsh	r1, [r2, #76]
.LVL84:
	.loc 1 135 6 view .LVU107
	ldrsh	r2, [r2, #78]
.LVL85:
	.loc 1 136 4 is_stmt 1 view .LVU108
	b	.L13
.LVL86:
.L24:
	.loc 1 244 4 view .LVU109
	.loc 1 244 5 is_stmt 0 view .LVU110
	ldr	r2, .L76+4
.LVL87:
	.loc 1 244 5 view .LVU111
	ldrsh	r1, [r2]
.LVL88:
	.loc 1 244 5 view .LVU112
	ldrsh	r2, [r2, #2]
.LVL89:
	.loc 1 245 4 is_stmt 1 view .LVU113
	b	.L13
.LVL90:
.L25:
	.loc 1 250 4 view .LVU114
	.loc 1 250 5 is_stmt 0 view .LVU115
	ldr	r2, .L76+8
.LVL91:
	.loc 1 250 5 view .LVU116
	ldrsh	r1, [r2]
.LVL92:
	.loc 1 250 5 view .LVU117
	ldrsh	r2, [r2, #2]
.LVL93:
	.loc 1 251 4 is_stmt 1 view .LVU118
	b	.L13
.LVL94:
.L16:
	.loc 1 259 4 view .LVU119
	.loc 1 259 5 is_stmt 0 view .LVU120
	ldr	r2, .L76+12
.LVL95:
	.loc 1 259 5 view .LVU121
	ldrsh	r1, [r2]
.LVL96:
	.loc 1 259 5 view .LVU122
	ldrsh	r2, [r2, #2]
.LVL97:
	.loc 1 260 4 is_stmt 1 view .LVU123
	b	.L13
.LVL98:
.L26:
	.loc 1 216 4 view .LVU124
	.loc 1 216 5 is_stmt 0 view .LVU125
	ldr	r2, .L76
.LVL99:
	.loc 1 216 5 view .LVU126
	ldrsh	r1, [r2, #252]
.LVL100:
	.loc 1 216 5 view .LVU127
	ldrsh	r2, [r2, #254]
.LVL101:
	.loc 1 217 4 is_stmt 1 view .LVU128
	b	.L13
.LVL102:
.L22:
	.loc 1 238 4 view .LVU129
	.loc 1 238 5 is_stmt 0 view .LVU130
	ldr	r2, .L76+16
.LVL103:
	.loc 1 238 5 view .LVU131
	ldrsh	r1, [r2]
.LVL104:
	.loc 1 238 5 view .LVU132
	ldrsh	r2, [r2, #2]
.LVL105:
	.loc 1 239 4 is_stmt 1 view .LVU133
	b	.L13
.LVL106:
.L23:
	.loc 1 256 4 view .LVU134
	.loc 1 256 5 is_stmt 0 view .LVU135
	ldr	r2, .L76+20
.LVL107:
	.loc 1 256 5 view .LVU136
	ldrsh	r1, [r2]
.LVL108:
	.loc 1 256 5 view .LVU137
	ldrsh	r2, [r2, #2]
.LVL109:
	.loc 1 257 4 is_stmt 1 view .LVU138
	b	.L13
.LVL110:
.L38:
	.loc 1 156 4 view .LVU139
	.loc 1 156 6 is_stmt 0 view .LVU140
	ldr	r2, .L76
.LVL111:
	.loc 1 156 6 view .LVU141
	ldrsh	r1, [r2, #132]
.LVL112:
	.loc 1 156 6 view .LVU142
	ldrsh	r2, [r2, #134]
.LVL113:
	.loc 1 157 4 is_stmt 1 view .LVU143
	b	.L13
.LVL114:
.L43:
	.loc 1 141 4 view .LVU144
	.loc 1 141 6 is_stmt 0 view .LVU145
	ldr	r2, .L76
.LVL115:
	.loc 1 141 6 view .LVU146
	ldrsh	r1, [r2, #44]
.LVL116:
	.loc 1 141 6 view .LVU147
	ldrsh	r2, [r2, #46]
.LVL117:
	.loc 1 142 4 is_stmt 1 view .LVU148
	b	.L13
.LVL118:
.L44:
	.loc 1 138 4 view .LVU149
	.loc 1 138 6 is_stmt 0 view .LVU150
	ldr	r2, .L76
.LVL119:
	.loc 1 138 6 view .LVU151
	ldrsh	r1, [r2, #84]
.LVL120:
	.loc 1 138 6 view .LVU152
	ldrsh	r2, [r2, #86]
.LVL121:
	.loc 1 139 4 is_stmt 1 view .LVU153
	b	.L13
.LVL122:
.L17:
	.loc 1 247 4 view .LVU154
	.loc 1 247 5 is_stmt 0 view .LVU155
	ldr	r2, .L76+24
.LVL123:
	.loc 1 247 5 view .LVU156
	ldrsh	r1, [r2]
.LVL124:
	.loc 1 247 5 view .LVU157
	ldrsh	r2, [r2, #2]
.LVL125:
	.loc 1 248 4 is_stmt 1 view .LVU158
	b	.L13
.LVL126:
.L18:
	.loc 1 241 4 view .LVU159
	.loc 1 241 5 is_stmt 0 view .LVU160
	ldr	r2, .L76+28
.LVL127:
	.loc 1 241 5 view .LVU161
	ldrsh	r1, [r2]
.LVL128:
	.loc 1 241 5 view .LVU162
	ldrsh	r2, [r2, #2]
.LVL129:
	.loc 1 242 4 is_stmt 1 view .LVU163
	b	.L13
.LVL130:
.L33:
	.loc 1 181 4 view .LVU164
	.loc 1 181 6 is_stmt 0 view .LVU165
	ldr	r2, .L76
.LVL131:
	.loc 1 181 6 view .LVU166
	ldrsh	r1, [r2, #172]
.LVL132:
	.loc 1 181 6 view .LVU167
	ldrsh	r2, [r2, #174]
.LVL133:
	.loc 1 182 4 is_stmt 1 view .LVU168
	b	.L13
.LVL134:
.L42:
	.loc 1 144 4 view .LVU169
	.loc 1 144 6 is_stmt 0 view .LVU170
	ldr	r2, .L76
.LVL135:
	.loc 1 144 6 view .LVU171
	ldrsh	r1, [r2, #92]
.LVL136:
	.loc 1 144 6 view .LVU172
	ldrsh	r2, [r2, #94]
.LVL137:
	.loc 1 145 4 is_stmt 1 view .LVU173
	b	.L13
.LVL138:
.L14:
	.loc 1 265 4 view .LVU174
	cmp	r1, #3
	beq	.L67
	cmp	r1, #5
	bne	.L68
	.loc 1 267 6 view .LVU175
.LVL139:
	.loc 1 267 8 is_stmt 0 view .LVU176
	ldr	r2, .L76+32
.LVL140:
	.loc 1 267 8 view .LVU177
	ldrsh	r1, [r2]
.LVL141:
	.loc 1 267 8 view .LVU178
	ldrsh	r2, [r2, #2]
.LVL142:
	.loc 1 268 6 is_stmt 1 view .LVU179
	b	.L13
.LVL143:
.L50:
	.loc 1 102 4 view .LVU180
	cmp	r1, #2
	beq	.L64
	.loc 1 110 8 is_stmt 0 view .LVU181
	ldr	r2, .L76
.LVL144:
	.loc 1 110 8 view .LVU182
	cmp	r1, #3
	.loc 1 104 6 is_stmt 1 view .LVU183
.LVL145:
	.loc 1 104 8 is_stmt 0 view .LVU184
	ldrsheq	r1, [r2, #36]
.LVL146:
	.loc 1 110 8 view .LVU185
	ldrshne	r1, [r2, #28]
.LVL147:
	.loc 1 104 8 view .LVU186
	ldrsheq	r2, [r2, #38]
.LVL148:
	.loc 1 105 6 is_stmt 1 view .LVU187
	.loc 1 110 6 view .LVU188
	.loc 1 110 8 is_stmt 0 view .LVU189
	ldrshne	r2, [r2, #30]
.LVL149:
	.loc 1 111 6 is_stmt 1 view .LVU190
	b	.L13
.LVL150:
.L52:
	.loc 1 99 4 view .LVU191
	.loc 1 99 6 is_stmt 0 view .LVU192
	ldr	r2, .L76
.LVL151:
	.loc 1 99 6 view .LVU193
	ldrsh	r1, [r2, #4]
.LVL152:
	.loc 1 99 6 view .LVU194
	ldrsh	r2, [r2, #6]
.LVL153:
	.loc 1 100 4 is_stmt 1 view .LVU195
	b	.L13
.LVL154:
.L19:
	.loc 1 253 4 view .LVU196
	.loc 1 253 5 is_stmt 0 view .LVU197
	ldr	r2, .L76+36
.LVL155:
	.loc 1 253 5 view .LVU198
	ldrsh	r1, [r2]
.LVL156:
	.loc 1 253 5 view .LVU199
	ldrsh	r2, [r2, #2]
.LVL157:
	.loc 1 254 4 is_stmt 1 view .LVU200
	b	.L13
.LVL158:
.L20:
	.loc 1 235 4 view .LVU201
	.loc 1 235 5 is_stmt 0 view .LVU202
	ldr	r2, .L76+40
.LVL159:
	.loc 1 235 5 view .LVU203
	ldrsh	r1, [r2]
.LVL160:
	.loc 1 235 5 view .LVU204
	ldrsh	r2, [r2, #2]
.LVL161:
	.loc 1 236 4 is_stmt 1 view .LVU205
	b	.L13
.LVL162:
.L21:
	.loc 1 262 4 view .LVU206
	.loc 1 262 5 is_stmt 0 view .LVU207
	ldr	r2, .L76+44
.LVL163:
	.loc 1 262 5 view .LVU208
	ldrsh	r1, [r2]
.LVL164:
	.loc 1 262 5 view .LVU209
	ldrsh	r2, [r2, #2]
.LVL165:
	.loc 1 263 4 is_stmt 1 view .LVU210
	b	.L13
.LVL166:
.L39:
	.loc 1 153 4 view .LVU211
	.loc 1 153 6 is_stmt 0 view .LVU212
	ldr	r2, .L76
.LVL167:
	.loc 1 153 6 view .LVU213
	ldrsh	r1, [r2, #116]
.LVL168:
	.loc 1 153 6 view .LVU214
	ldrsh	r2, [r2, #118]
.LVL169:
	.loc 1 154 4 is_stmt 1 view .LVU215
	b	.L13
.LVL170:
.L40:
	.loc 1 150 4 view .LVU216
	.loc 1 150 6 is_stmt 0 view .LVU217
	ldr	r2, .L76
.LVL171:
	.loc 1 150 6 view .LVU218
	ldrsh	r1, [r2, #108]
.LVL172:
	.loc 1 150 6 view .LVU219
	ldrsh	r2, [r2, #110]
.LVL173:
	.loc 1 151 4 is_stmt 1 view .LVU220
	b	.L13
.LVL174:
.L35:
	.loc 1 165 4 view .LVU221
	cmp	r1, #2
	beq	.L64
	cmp	r1, #3
	beq	.L34
	.loc 1 173 6 view .LVU222
.LVL175:
	.loc 1 173 8 is_stmt 0 view .LVU223
	ldr	r2, .L76
.LVL176:
	.loc 1 173 8 view .LVU224
	ldrsh	r1, [r2, #156]
.LVL177:
	.loc 1 173 8 view .LVU225
	ldrsh	r2, [r2, #158]
.LVL178:
	.loc 1 174 6 is_stmt 1 view .LVU226
	b	.L13
.LVL179:
.L36:
	.loc 1 162 4 view .LVU227
	.loc 1 162 6 is_stmt 0 view .LVU228
	ldr	r2, .L76
.LVL180:
	.loc 1 162 6 view .LVU229
	ldrsh	r1, [r2, #148]
.LVL181:
	.loc 1 162 6 view .LVU230
	ldrsh	r2, [r2, #150]
.LVL182:
	.loc 1 163 4 is_stmt 1 view .LVU231
	b	.L13
.LVL183:
.L37:
	.loc 1 159 4 view .LVU232
	.loc 1 159 6 is_stmt 0 view .LVU233
	ldr	r2, .L76
.LVL184:
	.loc 1 159 6 view .LVU234
	ldrsh	r1, [r2, #140]
.LVL185:
	.loc 1 159 6 view .LVU235
	ldrsh	r2, [r2, #142]
.LVL186:
	.loc 1 160 4 is_stmt 1 view .LVU236
	b	.L13
.LVL187:
.L27:
	.loc 1 219 4 view .LVU237
	.loc 1 219 5 is_stmt 0 view .LVU238
	ldr	r2, .L76+48
.LVL188:
	.loc 1 219 5 view .LVU239
	ldrsh	r1, [r2]
.LVL189:
	.loc 1 219 5 view .LVU240
	ldrsh	r2, [r2, #2]
.LVL190:
	.loc 1 220 4 is_stmt 1 view .LVU241
	b	.L13
.LVL191:
.L28:
	.loc 1 222 4 view .LVU242
	cmp	r1, #2
	beq	.L64
	cmp	r1, #3
	beq	.L65
	.loc 1 230 6 view .LVU243
.LVL192:
	.loc 1 230 8 is_stmt 0 view .LVU244
	ldr	r2, .L76
.LVL193:
	.loc 1 230 8 view .LVU245
	ldrsh	r1, [r2, #220]
.LVL194:
	.loc 1 230 8 view .LVU246
	ldrsh	r2, [r2, #222]
.LVL195:
	.loc 1 231 6 is_stmt 1 view .LVU247
	b	.L13
.LVL196:
.L29:
	.loc 1 203 4 view .LVU248
	cmp	r1, #2
	beq	.L61
	cmp	r1, #3
	beq	.L62
	.loc 1 211 6 view .LVU249
.LVL197:
	.loc 1 211 8 is_stmt 0 view .LVU250
	ldr	r2, .L76
.LVL198:
	.loc 1 211 8 view .LVU251
	ldrsh	r1, [r2, #236]
.LVL199:
	.loc 1 211 8 view .LVU252
	ldrsh	r2, [r2, #238]
.LVL200:
	.loc 1 212 6 is_stmt 1 view .LVU253
	b	.L13
.LVL201:
.L30:
	.loc 1 200 4 view .LVU254
	.loc 1 200 6 is_stmt 0 view .LVU255
	ldr	r2, .L76
.LVL202:
	.loc 1 200 6 view .LVU256
	ldrsh	r1, [r2, #212]
.LVL203:
	.loc 1 200 6 view .LVU257
	ldrsh	r2, [r2, #214]
.LVL204:
	.loc 1 201 4 is_stmt 1 view .LVU258
	b	.L13
.LVL205:
.L31:
	.loc 1 187 4 view .LVU259
	cmp	r1, #2
	beq	.L58
	cmp	r1, #3
	beq	.L59
	.loc 1 195 6 view .LVU260
.LVL206:
	.loc 1 195 8 is_stmt 0 view .LVU261
	ldr	r2, .L76
.LVL207:
	.loc 1 195 8 view .LVU262
	ldrsh	r1, [r2, #188]
.LVL208:
	.loc 1 195 8 view .LVU263
	ldrsh	r2, [r2, #190]
.LVL209:
	.loc 1 196 6 is_stmt 1 view .LVU264
	b	.L13
.LVL210:
.L32:
	.loc 1 184 4 view .LVU265
	.loc 1 184 6 is_stmt 0 view .LVU266
	ldr	r2, .L76
.LVL211:
	.loc 1 184 6 view .LVU267
	ldrsh	r1, [r2, #180]
.LVL212:
	.loc 1 184 6 view .LVU268
	ldrsh	r2, [r2, #182]
.LVL213:
	.loc 1 185 4 is_stmt 1 view .LVU269
	b	.L13
.LVL214:
.L65:
	.loc 1 227 6 view .LVU270
	.loc 1 227 8 is_stmt 0 view .LVU271
	ldr	r2, .L76
.LVL215:
	.loc 1 227 8 view .LVU272
	ldrsh	r1, [r2, #228]
.LVL216:
	.loc 1 227 8 view .LVU273
	ldrsh	r2, [r2, #230]
.LVL217:
	.loc 1 228 6 is_stmt 1 view .LVU274
	b	.L13
.LVL218:
.L62:
	.loc 1 208 6 view .LVU275
	.loc 1 208 8 is_stmt 0 view .LVU276
	ldr	r2, .L76
.LVL219:
	.loc 1 208 8 view .LVU277
	ldrsh	r1, [r2, #244]
.LVL220:
	.loc 1 208 8 view .LVU278
	ldrsh	r2, [r2, #246]
.LVL221:
	.loc 1 209 6 is_stmt 1 view .LVU279
	b	.L13
.LVL222:
.L68:
	.loc 1 273 6 view .LVU280
	.loc 1 273 8 is_stmt 0 view .LVU281
	ldr	r2, .L76+52
.LVL223:
	.loc 1 273 8 view .LVU282
	ldrsh	r1, [r2]
.LVL224:
	.loc 1 273 8 view .LVU283
	ldrsh	r2, [r2, #2]
.LVL225:
	.loc 1 274 6 is_stmt 1 view .LVU284
	b	.L13
.LVL226:
.L67:
	.loc 1 270 6 view .LVU285
	.loc 1 270 7 is_stmt 0 view .LVU286
	ldr	r2, .L76+56
.LVL227:
	.loc 1 270 7 view .LVU287
	ldrsh	r1, [r2]
.LVL228:
	.loc 1 270 7 view .LVU288
	ldrsh	r2, [r2, #2]
.LVL229:
	.loc 1 271 6 is_stmt 1 view .LVU289
	b	.L13
.LVL230:
.L59:
	.loc 1 192 6 view .LVU290
	.loc 1 192 8 is_stmt 0 view .LVU291
	ldr	r2, .L76
.LVL231:
	.loc 1 192 8 view .LVU292
	ldrsh	r1, [r2, #196]
.LVL232:
	.loc 1 192 8 view .LVU293
	ldrsh	r2, [r2, #198]
.LVL233:
	.loc 1 193 6 is_stmt 1 view .LVU294
	b	.L13
.LVL234:
.L58:
	.loc 1 189 6 view .LVU295
	.loc 1 189 8 is_stmt 0 view .LVU296
	ldr	r2, .L76
.LVL235:
	.loc 1 189 8 view .LVU297
	ldrsh	r1, [r2, #204]
.LVL236:
	.loc 1 189 8 view .LVU298
	ldrsh	r2, [r2, #206]
.LVL237:
	.loc 1 190 6 is_stmt 1 view .LVU299
	b	.L13
.LVL238:
.L69:
	.loc 1 92 2 is_stmt 0 view .LVU300
	mov	r2, #0
.LVL239:
	.loc 1 92 2 view .LVU301
	mov	r1, r2
.LVL240:
	.loc 1 92 2 view .LVU302
	b	.L13
.L77:
	.align	2
.L76:
	.word	.LANCHOR1+536
	.word	.LANCHOR1+876
	.word	.LANCHOR1+804
	.word	.LANCHOR1+852
	.word	.LANCHOR1+828
	.word	.LANCHOR1+836
	.word	.LANCHOR1+812
	.word	.LANCHOR1+868
	.word	.LANCHOR1+884
	.word	.LANCHOR1+844
	.word	.LANCHOR1+820
	.word	.LANCHOR1+860
	.word	.LANCHOR1+796
	.word	.LANCHOR1+892
	.word	.LANCHOR1+900
	.cfi_endproc
.LFE124:
	.size	Block_GetTexture, .-Block_GetTexture
	.section	.text.Block_GetColor,"ax",%progbits
	.align	2
	.global	Block_GetColor
	.syntax unified
	.arm
	.fpu vfp
	.type	Block_GetColor, %function
Block_GetColor:
.LVL241:
.LFB125:
	.loc 1 288 92 is_stmt 1 view -0
	.cfi_startproc
	@ args = 0, pretend = 0, frame = 64
	@ frame_needed = 0, uses_anonymous_args = 0
	.loc 1 289 2 view .LVU304
	.loc 1 289 28 is_stmt 0 view .LVU305
	cmp	r0, #3
	cmpeq	r2, #3
	moveq	r2, #1
.LVL242:
	.loc 1 289 28 view .LVU306
	movne	r2, #0
	.loc 1 289 59 view .LVU307
	cmp	r0, #8
	orreq	r2, r2, #1
	.loc 1 288 92 view .LVU308
	push	{r4, r5, lr}
	.cfi_def_cfa_offset 12
	.cfi_offset 4, -12
	.cfi_offset 5, -8
	.cfi_offset 14, -4
	.loc 1 289 59 view .LVU309
	cmp	r2, #0
	.loc 1 288 92 view .LVU310
	mov	r4, r3
	sub	sp, sp, #68
	.cfi_def_cfa_offset 80
	.loc 1 289 59 view .LVU311
	bne	.L84
	.loc 1 296 17 view .LVU312
	mov	ip, sp
	ldr	lr, .L86
	.loc 1 298 5 view .LVU313
	cmp	r0, #13
	mov	r5, r1
	.loc 1 296 2 is_stmt 1 view .LVU314
	.loc 1 296 17 is_stmt 0 view .LVU315
	ldmia	lr!, {r0, r1, r2, r3}
.LVL243:
	.loc 1 296 17 view .LVU316
	stmia	ip!, {r0, r1, r2, r3}
	ldmia	lr!, {r0, r1, r2, r3}
	stmia	ip!, {r0, r1, r2, r3}
	ldmia	lr!, {r0, r1, r2, r3}
	stmia	ip!, {r0, r1, r2, r3}
	ldm	lr, {r0, r1, r2, r3}
	stm	ip, {r0, r1, r2, r3}
	.loc 1 298 2 is_stmt 1 view .LVU317
	movne	r3, #255
	movne	r1, r3
	movne	r2, r3
	.loc 1 298 5 is_stmt 0 view .LVU318
	beq	.L85
.L81:
	.loc 1 299 14 view .LVU319
	strb	r3, [r4]
	.loc 1 300 14 view .LVU320
	strb	r1, [r4, #1]
	.loc 1 301 14 view .LVU321
	strb	r2, [r4, #2]
	.loc 1 307 1 view .LVU322
	add	sp, sp, #68
	.cfi_remember_state
	.cfi_def_cfa_offset 12
	@ sp needed
	pop	{r4, r5, pc}
.LVL244:
.L84:
	.cfi_restore_state
	.loc 1 290 3 is_stmt 1 view .LVU323
	.loc 1 290 14 is_stmt 0 view .LVU324
	mvn	r1, #115
.LVL245:
	.loc 1 291 14 view .LVU325
	mvn	r2, #41
	.loc 1 292 14 view .LVU326
	mov	r3, #123
.LVL246:
	.loc 1 290 14 view .LVU327
	strb	r1, [r4]
	.loc 1 291 3 is_stmt 1 view .LVU328
	.loc 1 291 14 is_stmt 0 view .LVU329
	strb	r2, [r4, #1]
	.loc 1 292 3 is_stmt 1 view .LVU330
	.loc 1 292 14 is_stmt 0 view .LVU331
	strb	r3, [r4, #2]
	.loc 1 293 3 is_stmt 1 view .LVU332
	.loc 1 307 1 is_stmt 0 view .LVU333
	add	sp, sp, #68
	.cfi_remember_state
	.cfi_def_cfa_offset 12
	@ sp needed
	pop	{r4, r5, pc}
.LVL247:
.L85:
	.cfi_restore_state
	.loc 1 299 3 is_stmt 1 view .LVU334
	.loc 1 299 22 is_stmt 0 view .LVU335
	add	r3, sp, #64
	add	r1, r3, r5, lsl #2
	ldr	r2, [r1, #-64]
	.loc 1 299 33 view .LVU336
	lsr	r3, r2, #16
	.loc 1 300 35 view .LVU337
	lsr	r1, r2, #8
	.loc 1 299 14 view .LVU338
	uxtb	r3, r3
	.loc 1 300 3 is_stmt 1 view .LVU339
	.loc 1 300 14 is_stmt 0 view .LVU340
	uxtb	r1, r1
	.loc 1 301 3 is_stmt 1 view .LVU341
	.loc 1 301 14 is_stmt 0 view .LVU342
	uxtb	r2, r2
	b	.L81
.L87:
	.align	2
.L86:
	.word	.LANCHOR2
	.cfi_endproc
.LFE125:
	.size	Block_GetColor, .-Block_GetColor
	.section	.text.Block_Opaque,"ax",%progbits
	.align	2
	.global	Block_Opaque
	.syntax unified
	.arm
	.fpu vfp
	.type	Block_Opaque, %function
Block_Opaque:
.LVL248:
.LFB126:
	.loc 1 309 49 is_stmt 1 view -0
	.cfi_startproc
	@ args = 0, pretend = 0, frame = 0
	@ frame_needed = 0, uses_anonymous_args = 0
	@ link register save eliminated.
	.loc 1 309 51 view .LVU344
	.loc 1 309 128 is_stmt 0 view .LVU345
	cmp	r0, #0
	cmpne	r0, #9
	movne	r3, #1
	moveq	r3, #0
	beq	.L89
	.loc 1 309 128 discriminator 1 view .LVU346
	sub	r0, r0, #16
.LVL249:
	.loc 1 309 128 discriminator 1 view .LVU347
	cmp	r0, #1
	movls	r3, #0
	movhi	r3, #1
.L89:
	.loc 1 309 159 discriminator 6 view .LVU348
	mov	r0, r3
	bx	lr
	.cfi_endproc
.LFE126:
	.size	Block_Opaque, .-Block_Opaque
	.global	BlockNames
	.section	.rodata.str1.4
	.align	2
.LC47:
	.ascii	"Air\000"
	.align	2
.LC48:
	.ascii	"Stone\000"
	.align	2
.LC49:
	.ascii	"Dirt\000"
	.align	2
.LC50:
	.ascii	"Grass\000"
	.align	2
.LC51:
	.ascii	"Cobblestone\000"
	.align	2
.LC52:
	.ascii	"Sand\000"
	.align	2
.LC53:
	.ascii	"Log\000"
	.align	2
.LC54:
	.ascii	"Leaves\000"
	.align	2
.LC55:
	.ascii	"Glass\000"
	.align	2
.LC56:
	.ascii	"Stone Bricks\000"
	.align	2
.LC57:
	.ascii	"Bricks\000"
	.align	2
.LC58:
	.ascii	"Planks\000"
	.align	2
.LC59:
	.ascii	"Wool\000"
	.align	2
.LC60:
	.ascii	"Bedrock\000"
	.align	2
.LC61:
	.ascii	"Gravel\000"
	.align	2
.LC62:
	.ascii	"Water\000"
	.align	2
.LC63:
	.ascii	"Coarse\000"
	.align	2
.LC64:
	.ascii	"Door_Top\000"
	.align	2
.LC65:
	.ascii	"Door_Bottom\000"
	.align	2
.LC66:
	.ascii	"Snow_Grass\000"
	.align	2
.LC67:
	.ascii	"Snow\000"
	.align	2
.LC68:
	.ascii	"Obsidian\000"
	.align	2
.LC69:
	.ascii	"Netherrack\000"
	.align	2
.LC70:
	.ascii	"Sandstone\000"
	.align	2
.LC71:
	.ascii	"Smooth_Stone\000"
	.align	2
.LC72:
	.ascii	"Crafting_Table\000"
	.align	2
.LC73:
	.ascii	"Grass_Path\000"
	.align	2
.LC74:
	.ascii	"Lava\000"
	.align	2
.LC75:
	.ascii	"Iron_Ore\000"
	.align	2
.LC76:
	.ascii	"Iron_Block\000"
	.align	2
.LC77:
	.ascii	"Coal_Ore\000"
	.align	2
.LC78:
	.ascii	"Coal_Block\000"
	.align	2
.LC79:
	.ascii	"Diamond_Ore\000"
	.align	2
.LC80:
	.ascii	"Diamond_Block\000"
	.align	2
.LC81:
	.ascii	"Gold_Ore\000"
	.align	2
.LC82:
	.ascii	"Gold_Block\000"
	.align	2
.LC83:
	.ascii	"Emerald_Ore\000"
	.align	2
.LC84:
	.ascii	"Emerald_Block\000"
	.global	block_texture_files
	.section	.rodata
	.align	2
	.set	.LANCHOR2,. + 0
.LC0:
	.word	16777215
	.word	14188339
	.word	11685080
	.word	6724056
	.word	15066419
	.word	8375321
	.word	15892389
	.word	5000268
	.word	10066329
	.word	5013401
	.word	8339378
	.word	3361970
	.word	6704179
	.word	6717235
	.word	10040115
	.word	1644825
	.data
	.align	2
	.set	.LANCHOR0,. + 0
	.type	block_texture_files, %object
	.size	block_texture_files, 184
block_texture_files:
	.word	.LC1
	.word	.LC2
	.word	.LC3
	.word	.LC4
	.word	.LC5
	.word	.LC6
	.word	.LC7
	.word	.LC8
	.word	.LC9
	.word	.LC10
	.word	.LC11
	.word	.LC12
	.word	.LC13
	.word	.LC14
	.word	.LC15
	.word	.LC16
	.word	.LC17
	.word	.LC18
	.word	.LC19
	.word	.LC20
	.word	.LC21
	.word	.LC22
	.word	.LC23
	.word	.LC24
	.word	.LC25
	.word	.LC26
	.word	.LC27
	.word	.LC28
	.word	.LC29
	.word	.LC30
	.word	.LC31
	.word	.LC32
	.word	.LC33
	.word	.LC34
	.word	.LC35
	.word	.LC36
	.word	.LC37
	.word	.LC38
	.word	.LC39
	.word	.LC40
	.word	.LC41
	.word	.LC42
	.word	.LC43
	.word	.LC44
	.word	.LC45
	.word	.LC46
	.type	BlockNames, %object
	.size	BlockNames, 156
BlockNames:
	.word	.LC47
	.word	.LC48
	.word	.LC49
	.word	.LC50
	.word	.LC51
	.word	.LC52
	.word	.LC53
	.word	.LC54
	.word	.LC55
	.word	.LC56
	.word	.LC57
	.word	.LC58
	.word	.LC59
	.word	.LC60
	.word	.LC61
	.word	.LC62
	.word	.LC63
	.word	.LC64
	.word	.LC65
	.word	.LC66
	.word	.LC67
	.word	.LC68
	.word	.LC69
	.word	.LC70
	.word	.LC71
	.word	.LC72
	.word	.LC73
	.word	.LC62
	.word	.LC74
	.word	.LC75
	.word	.LC76
	.word	.LC77
	.word	.LC78
	.word	.LC79
	.word	.LC80
	.word	.LC81
	.word	.LC82
	.word	.LC83
	.word	.LC84
	.bss
	.align	2
	.set	.LANCHOR1,. + 0
	.type	textureMap, %object
	.size	textureMap, 536
textureMap:
	.space	536
	.type	icon, %object
	.size	icon, 368
icon:
	.space	368
	.text
.Letext0:
	.file 2 "/opt/devkitpro/devkitARM/arm-none-eabi/include/machine/_default_types.h"
	.file 3 "/opt/devkitpro/devkitARM/arm-none-eabi/include/sys/_stdint.h"
	.file 4 "/home/tobi/Dokumente/Craftus-Next/include/world/Direction.h"
	.file 5 "/home/tobi/Dokumente/Craftus-Next/include/blocks/Block.h"
	.file 6 "/opt/devkitpro/devkitARM/lib/gcc/arm-none-eabi/11.2.0/include/stddef.h"
	.file 7 "/opt/devkitpro/libctru/include/3ds/types.h"
	.file 8 "/opt/devkitpro/libctru/include/3ds/services/csnd.h"
	.file 9 "/opt/devkitpro/libctru/include/3ds/services/ndm.h"
	.file 10 "/opt/devkitpro/libctru/include/3ds/gpu/enums.h"
	.file 11 "/opt/devkitpro/libctru/include/3ds/ndsp/channel.h"
	.file 12 "/opt/devkitpro/libctru/include/3ds/applets/error.h"
	.file 13 "/opt/devkitpro/libctru/include/c3d/texture.h"
	.file 14 "/home/tobi/Dokumente/Craftus-Next/include/rendering/TextureMap.h"