	.arch armv6k
	.eabi_attribute 28, 1
	.eabi_attribute 20, 1
	.eabi_attribute 21, 1
	.eabi_attribute 23, 3
	.eabi_attribute 24, 1
	.eabi_attribute 25, 1
	.eabi_attribute 26, 1
	.eabi_attribute 30, 2
	.eabi_attribute 34, 1
	.eabi_attribute 18, 4
	.file	"BlockEvent.c"
	.text
.Ltext0:
	.cfi_sections	.debug_frame
	.section	.text.BlockEvent_RandomTick,"ax",%progbits
	.align	2
	.global	BlockEvent_RandomTick
	.syntax unified
	.arm
	.fpu vfp
	.type	BlockEvent_RandomTick, %function
BlockEvent_RandomTick:
.LVL0:
.LFB124:
	.file 1 "/home/tobi/Dokumente/Craftus-Next/source/blocks/BlockEvent.c"
	.loc 1 3 83 view -0
	.cfi_startproc
	@ args = 4, pretend = 0, frame = 24
	@ frame_needed = 0, uses_anonymous_args = 0
	.loc 1 4 2 view .LVU1
	.loc 1 5 2 view .LVU2
.LBB60:
	.loc 1 5 7 view .LVU3
	.loc 1 5 20 view .LVU4
.LBE60:
	.loc 1 3 83 is_stmt 0 view .LVU5
	push	{r4, r5, r6, r7, r8, r9, r10, fp, lr}
	.cfi_def_cfa_offset 36
	.cfi_offset 4, -36
	.cfi_offset 5, -32
	.cfi_offset 6, -28
	.cfi_offset 7, -24
	.cfi_offset 8, -20
	.cfi_offset 9, -16
	.cfi_offset 10, -12
	.cfi_offset 11, -8
	.cfi_offset 14, -4
	mov	fp, #0
	sub	sp, sp, #28
	.cfi_def_cfa_offset 64
	add	r2, r2, #12
.LVL1:
	.loc 1 3 83 view .LVU6
	str	r2, [sp]
	.loc 1 3 83 view .LVU7
	mov	r10, r1
	mov	r2, fp
.LVL2:
	.loc 1 3 83 view .LVU8
	str	r3, [sp, #16]
.LBB188:
.LBB61:
.LBB62:
.LBB63:
.LBB64:
.LBB65:
.LBB66:
	.file 2 "/home/tobi/Dokumente/Craftus-Next/include/world/Chunk.h"
	.loc 2 103 2 view .LVU9
	add	r3, r1, #65536
.LVL3:
	.loc 2 103 2 view .LVU10
.LBE66:
.LBE65:
.LBE64:
.LBE63:
.LBE62:
.LBE61:
.LBE188:
	.loc 1 4 6 view .LVU11
	str	fp, [sp, #4]
.LBB189:
.LBB185:
.LBB179:
.LBB84:
.LBB81:
.LBB74:
.LBB67:
	.loc 2 103 2 view .LVU12
	str	r3, [sp, #20]
.LVL4:
.L2:
	.loc 2 103 2 view .LVU13
.LBE67:
.LBE74:
.LBE81:
.LBE84:
.LBE179:
	.loc 1 6 21 is_stmt 1 view .LVU14
	ldr	r3, [sp]
	ldr	r1, [sp, #4]
	ldr	r0, [sp, #64]
	sub	r9, r3, #12
	ldr	r3, [sp, #16]
	add	fp, r0, r1, lsl #2
	add	r3, r3, r1, lsl #2
.LVL5:
.L11:
.LBB180:
	.loc 1 7 4 view .LVU15
	.loc 1 8 14 is_stmt 0 view .LVU16
	ldr	r0, [r3], #4
	.loc 1 7 8 view .LVU17
	ldr	ip, [r9], #4
.LVL6:
	.loc 1 8 4 is_stmt 1 view .LVU18
	.loc 1 8 8 is_stmt 0 view .LVU19
	add	r0, r0, r2
.LVL7:
	.loc 1 9 4 is_stmt 1 view .LVU20
.LBB85:
.LBB86:
	.loc 2 107 27 is_stmt 0 view .LVU21
	cmp	r0, #0
	add	r4, r0, #15
	movge	r4, r0
	.loc 2 107 47 view .LVU22
	rsbs	r1, r0, #0
	.loc 2 107 27 view .LVU23
	asr	r4, r4, #4
	.loc 2 107 47 view .LVU24
	and	r1, r1, #15
	and	r6, r0, #15
	rsbpl	r6, r1, #0
	.loc 2 107 67 view .LVU25
	add	r1, r4, r4, lsl #8
	add	r1, r4, r1, lsl #1
	add	r1, r1, ip, lsl #4
.LBE86:
.LBE85:
	.loc 1 9 8 view .LVU26
	ldr	r7, [fp], #4
.LVL8:
	.loc 1 10 4 is_stmt 1 view .LVU27
.LBB91:
.LBI85:
	.loc 2 106 14 view .LVU28
.LBB87:
	.loc 2 107 2 view .LVU29
	.loc 2 107 2 is_stmt 0 view .LVU30
.LBE87:
.LBE91:
	.loc 1 11 4 is_stmt 1 view .LVU31
.LBB92:
.LBB88:
	.loc 2 107 67 is_stmt 0 view .LVU32
	add	r1, r1, r6
	add	r1, r10, r1, lsl #4
	add	r1, r1, r7
.LBE88:
.LBE92:
	.loc 1 11 4 view .LVU33
	ldrb	r1, [r1, #28]	@ zero_extendqisi2
.LBB93:
.LBB89:
	.loc 2 107 67 view .LVU34
	lsl	r5, ip, #4
.LBE89:
.LBE93:
	.loc 1 11 4 view .LVU35
	sub	r1, r1, #2
.LBB94:
.LBB90:
	.loc 2 107 67 view .LVU36
	lsl	r8, r4, #8
.LBE90:
.LBE94:
	.loc 1 11 4 view .LVU37
	cmp	r1, #23
	ldrls	pc, [pc, r1, asl #2]
	b	.L3
.L5:
	.word	.L8
	.word	.L6
	.word	.L3
	.word	.L3
	.word	.L3
	.word	.L3
	.word	.L3
	.word	.L3
	.word	.L3
	.word	.L3
	.word	.L3
	.word	.L3
	.word	.L3
	.word	.L3
	.word	.L3
	.word	.L3
	.word	.L6
	.word	.L3
	.word	.L3
	.word	.L3
	.word	.L3
	.word	.L3
	.word	.L3
	.word	.L4
.L6:
	.loc 1 24 6 is_stmt 1 view .LVU38
.LVL9:
.LBB95:
.LBI95:
	.loc 2 106 14 view .LVU39
.LBB96:
	.loc 2 107 2 view .LVU40
	.loc 2 107 27 is_stmt 0 view .LVU41
	adds	lr, r0, #1
.LVL10:
	.loc 2 107 27 view .LVU42
	addmi	r1, r0, #16
	movpl	r1, lr
	.loc 2 107 47 view .LVU43
	rsbs	r0, lr, #0
.LVL11:
	.loc 2 107 27 view .LVU44
	asr	r1, r1, #4
	.loc 2 107 47 view .LVU45
	and	r0, r0, #15
.LBE96:
.LBE95:
.LBB102:
.LBB103:
	.loc 2 95 74 view .LVU46
	add	ip, r1, r1, lsl #8
.LVL12:
	.loc 2 95 74 view .LVU47
.LBE103:
.LBE102:
.LBB108:
.LBB97:
	.loc 2 107 47 view .LVU48
	and	lr, lr, #15
.LVL13:
	.loc 2 107 47 view .LVU49
.LBE97:
.LBE108:
.LBB109:
.LBB104:
	.loc 2 95 74 view .LVU50
	add	r1, r1, ip, lsl #1
.LBE104:
.LBE109:
.LBB110:
.LBB98:
	.loc 2 107 47 view .LVU51
	rsbpl	lr, r0, #0
.LVL14:
	.loc 2 107 47 view .LVU52
.LBE98:
.LBE110:
.LBB111:
.LBI102:
	.loc 2 94 16 is_stmt 1 view .LVU53
.LBB105:
	.loc 2 95 2 view .LVU54
	.loc 2 95 74 is_stmt 0 view .LVU55
	add	r0, r5, lr
	lsl	ip, r1, #4
	add	ip, ip, r0, lsl #4
	add	ip, r10, ip
.LBE105:
.LBE111:
.LBB112:
.LBB99:
	.loc 2 107 67 view .LVU56
	add	r0, r5, r1
.LBE99:
.LBE112:
.LBB113:
.LBB106:
	.loc 2 95 74 view .LVU57
	add	ip, ip, r7
	str	r2, [sp, #12]
	str	r3, [sp, #8]
.LBE106:
.LBE113:
.LBB114:
.LBB100:
	.loc 2 107 67 view .LVU58
	add	r0, r0, lr
.LBE100:
.LBE114:
.LBB115:
.LBB107:
	.loc 2 95 74 view .LVU59
	add	ip, ip, #4096
	.loc 2 95 78 view .LVU60
	ldrb	r1, [ip, #28]	@ zero_extendqisi2
.LBE107:
.LBE115:
.LBB116:
.LBB101:
	.loc 2 107 67 view .LVU61
	add	r0, r10, r0, lsl #4
	add	r0, r0, r7
.LBE101:
.LBE116:
	.loc 1 24 10 view .LVU62
	ldrb	r0, [r0, #28]	@ zero_extendqisi2
	and	r1, r1, #15
	bl	Block_Opaque
.LVL15:
	.loc 1 24 9 view .LVU63
	cmp	r0, #0
	ldr	r3, [sp, #8]
	ldr	r2, [sp, #12]
	bne	.L29
.L3:
	.loc 1 36 4 is_stmt 1 discriminator 2 view .LVU64
	.loc 1 36 4 is_stmt 0 discriminator 2 view .LVU65
.LBE180:
	.loc 1 6 29 is_stmt 1 discriminator 2 view .LVU66
	.loc 1 6 21 discriminator 2 view .LVU67
	ldr	r1, [sp]
	cmp	r9, r1
	bne	.L11
.L30:
.LBB181:
	.loc 1 36 5 is_stmt 0 discriminator 2 view .LVU68
	ldr	r3, [sp, #4]
.LBE181:
.LBE185:
	.loc 1 5 20 discriminator 2 view .LVU69
	add	r2, r2, #16
.LBB186:
.LBB182:
	.loc 1 36 5 discriminator 2 view .LVU70
	add	r3, r3, #3
	str	r3, [sp, #4]
.LBE182:
.LBE186:
	.loc 1 5 39 is_stmt 1 discriminator 2 view .LVU71
.LVL16:
	.loc 1 5 20 discriminator 2 view .LVU72
	cmp	r3, #24
	add	r3, r9, #12
.LVL17:
	.loc 1 5 20 is_stmt 0 discriminator 2 view .LVU73
	str	r3, [sp]
	bne	.L2
.LBE189:
	.loc 1 39 1 view .LVU74
	add	sp, sp, #28
	.cfi_remember_state
	.cfi_def_cfa_offset 36
	@ sp needed
	pop	{r4, r5, r6, r7, r8, r9, r10, fp, pc}
.LVL18:
.L29:
	.cfi_restore_state
.LBB190:
.LBB187:
.LBB183:
	.loc 1 25 7 is_stmt 1 view .LVU75
.LBB117:
.LBI117:
	.loc 2 110 13 view .LVU76
.LBB118:
	.loc 2 111 2 view .LVU77
	.loc 2 112 2 view .LVU78
	.loc 2 112 47 is_stmt 0 view .LVU79
	add	r8, r8, r4
	add	r8, r4, r8, lsl #1
.LBB119:
.LBB120:
	.loc 2 101 8 view .LVU80
	lsl	r0, r8, #4
.LBE120:
.LBE119:
	.loc 2 112 47 view .LVU81
	add	r1, r5, r8
.LVL19:
.L25:
	.loc 2 112 47 view .LVU82
.LBE118:
.LBE117:
.LBB121:
.LBB82:
	mov	lr, #2
.LBB75:
.LBB68:
	.loc 2 101 8 view .LVU83
	add	ip, r5, r6
.LBE68:
.LBE75:
	.loc 2 112 47 view .LVU84
	add	r1, r1, r6
.LBB76:
.LBB69:
	.loc 2 101 8 view .LVU85
	add	ip, r0, ip, lsl #4
.LBE69:
.LBE76:
	.loc 2 112 47 view .LVU86
	add	r1, r10, r1, lsl #4
.LBB77:
.LBB70:
	.loc 2 101 8 view .LVU87
	add	ip, r10, ip
.LBE70:
.LBE77:
	.loc 2 112 47 view .LVU88
	add	r1, r1, r7
.LBB78:
.LBB71:
	.loc 2 101 8 view .LVU89
	add	ip, ip, r7
.L24:
	.loc 2 101 8 view .LVU90
.LBE71:
.LBE78:
	.loc 2 112 47 view .LVU91
	strb	lr, [r1, #28]
	.loc 2 113 2 is_stmt 1 view .LVU92
.LVL20:
.LBB79:
.LBI65:
	.loc 2 97 13 view .LVU93
.LBB72:
	.loc 2 98 2 view .LVU94
	.loc 2 99 2 view .LVU95
	.loc 2 100 2 view .LVU96
	.loc 2 101 2 view .LVU97
	.loc 2 101 8 is_stmt 0 view .LVU98
	add	r1, ip, #4096
	.loc 2 101 17 view .LVU99
	ldrb	ip, [r1, #28]	@ zero_extendqisi2
	.loc 2 102 2 view .LVU100
	add	r0, r10, r0
	.loc 2 101 17 view .LVU101
	bic	ip, ip, #15
	.loc 2 101 8 view .LVU102
	strb	ip, [r1, #28]
	.loc 2 102 2 is_stmt 1 view .LVU103
	add	r0, r0, #8192
	ldr	r1, [r0, #28]
	add	r1, r1, #1
	str	r1, [r0, #28]
	.loc 2 103 2 view .LVU104
	ldr	r0, [sp, #20]
	ldr	r1, [r0, #668]
	add	r1, r1, #1
	str	r1, [r0, #668]
.LVL21:
	.loc 2 103 2 is_stmt 0 view .LVU105
.LBE72:
.LBE79:
.LBE82:
.LBE121:
	.loc 1 36 4 is_stmt 1 view .LVU106
	.loc 1 36 4 is_stmt 0 view .LVU107
.LBE183:
	.loc 1 6 29 is_stmt 1 view .LVU108
	.loc 1 6 21 view .LVU109
	ldr	r1, [sp]
	cmp	r9, r1
	bne	.L11
	b	.L30
.LVL22:
.L4:
.LBB184:
	.loc 1 29 6 view .LVU110
.LBB122:
.LBI122:
	.loc 2 106 14 view .LVU111
.LBB123:
	.loc 2 107 2 view .LVU112
	.loc 2 107 27 is_stmt 0 view .LVU113
	adds	lr, r0, #1
.LVL23:
	.loc 2 107 27 view .LVU114
	addmi	r1, r0, #16
	movpl	r1, lr
	.loc 2 107 47 view .LVU115
	rsbs	r0, lr, #0
.LVL24:
	.loc 2 107 27 view .LVU116
	asr	r1, r1, #4
	.loc 2 107 47 view .LVU117
	and	r0, r0, #15
.LBE123:
.LBE122:
.LBB129:
.LBB130:
	.loc 2 95 74 view .LVU118
	add	ip, r1, r1, lsl #8
.LVL25:
	.loc 2 95 74 view .LVU119
.LBE130:
.LBE129:
.LBB135:
.LBB124:
	.loc 2 107 47 view .LVU120
	and	lr, lr, #15
.LVL26:
	.loc 2 107 47 view .LVU121
.LBE124:
.LBE135:
.LBB136:
.LBB131:
	.loc 2 95 74 view .LVU122
	add	r1, r1, ip, lsl #1
.LBE131:
.LBE136:
.LBB137:
.LBB125:
	.loc 2 107 47 view .LVU123
	rsbpl	lr, r0, #0
.LVL27:
	.loc 2 107 47 view .LVU124
.LBE125:
.LBE137:
.LBB138:
.LBI129:
	.loc 2 94 16 is_stmt 1 view .LVU125
.LBB132:
	.loc 2 95 2 view .LVU126
	.loc 2 95 74 is_stmt 0 view .LVU127
	add	r0, r5, lr
	lsl	ip, r1, #4
	add	ip, ip, r0, lsl #4
	add	ip, r10, ip
.LBE132:
.LBE138:
.LBB139:
.LBB126:
	.loc 2 107 67 view .LVU128
	add	r0, r5, r1
.LBE126:
.LBE139:
.LBB140:
.LBB133:
	.loc 2 95 74 view .LVU129
	add	ip, ip, r7
.LBE133:
.LBE140:
.LBB141:
.LBB127:
	.loc 2 107 67 view .LVU130
	add	r0, r0, lr
.LBE127:
.LBE141:
.LBB142:
.LBB134:
	.loc 2 95 74 view .LVU131
	add	ip, ip, #4096
	.loc 2 95 78 view .LVU132
	ldrb	r1, [ip, #28]	@ zero_extendqisi2
.LBE134:
.LBE142:
.LBB143:
.LBB128:
	.loc 2 107 67 view .LVU133
	add	r0, r10, r0, lsl #4
	add	r0, r0, r7
.LBE128:
.LBE143:
	.loc 1 29 10 view .LVU134
	ldrb	r0, [r0, #28]	@ zero_extendqisi2
	and	r1, r1, #15
	str	r2, [sp, #12]
	str	r3, [sp, #8]
	bl	Block_Opaque
.LVL28:
	.loc 1 29 9 view .LVU135
	cmp	r0, #0
	ldr	r3, [sp, #8]
	ldr	r2, [sp, #12]
	beq	.L3
	.loc 1 30 7 is_stmt 1 view .LVU136
.LVL29:
.LBB144:
.LBI63:
	.loc 2 110 13 view .LVU137
.LBB83:
	.loc 2 111 2 view .LVU138
	.loc 2 112 2 view .LVU139
	.loc 2 112 47 is_stmt 0 view .LVU140
	add	r8, r8, r4
	add	r4, r4, r8, lsl #1
.LBB80:
.LBB73:
	.loc 2 101 8 view .LVU141
	lsl	r0, r4, #4
.LBE73:
.LBE80:
	.loc 2 112 47 view .LVU142
	add	r1, r5, r4
	b	.L25
.LVL30:
.L8:
	.loc 2 112 47 view .LVU143
.LBE83:
.LBE144:
	.loc 1 13 6 is_stmt 1 view .LVU144
.LBB145:
.LBI145:
	.loc 2 106 14 view .LVU145
.LBB146:
	.loc 2 107 2 view .LVU146
	.loc 2 107 27 is_stmt 0 view .LVU147
	adds	lr, r0, #1
.LVL31:
	.loc 2 107 27 view .LVU148
	addmi	r1, r0, #16
	movpl	r1, lr
	.loc 2 107 47 view .LVU149
	rsbs	r0, lr, #0
.LVL32:
	.loc 2 107 27 view .LVU150
	asr	r1, r1, #4
	.loc 2 107 47 view .LVU151
	and	r0, r0, #15
.LBE146:
.LBE145:
.LBB152:
.LBB153:
	.loc 2 95 74 view .LVU152
	add	ip, r1, r1, lsl #8
.LVL33:
	.loc 2 95 74 view .LVU153
.LBE153:
.LBE152:
.LBB158:
.LBB147:
	.loc 2 107 47 view .LVU154
	and	lr, lr, #15
.LVL34:
	.loc 2 107 47 view .LVU155
.LBE147:
.LBE158:
.LBB159:
.LBB154:
	.loc 2 95 74 view .LVU156
	add	r1, r1, ip, lsl #1
.LBE154:
.LBE159:
.LBB160:
.LBB148:
	.loc 2 107 47 view .LVU157
	rsbpl	lr, r0, #0
.LVL35:
	.loc 2 107 47 view .LVU158
.LBE148:
.LBE160:
.LBB161:
.LBI152:
	.loc 2 94 16 is_stmt 1 view .LVU159
.LBB155:
	.loc 2 95 2 view .LVU160
	.loc 2 95 74 is_stmt 0 view .LVU161
	add	r0, r5, lr
	lsl	ip, r1, #4
	add	ip, ip, r0, lsl #4
	add	ip, r10, ip
.LBE155:
.LBE161:
.LBB162:
.LBB149:
	.loc 2 107 67 view .LVU162
	add	r0, r5, r1
.LBE149:
.LBE162:
.LBB163:
.LBB156:
	.loc 2 95 74 view .LVU163
	add	ip, ip, r7
.LBE156:
.LBE163:
.LBB164:
.LBB150:
	.loc 2 107 67 view .LVU164
	add	r0, r0, lr
.LBE150:
.LBE164:
.LBB165:
.LBB157:
	.loc 2 95 74 view .LVU165
	add	ip, ip, #4096
	.loc 2 95 78 view .LVU166
	ldrb	r1, [ip, #28]	@ zero_extendqisi2
.LBE157:
.LBE165:
.LBB166:
.LBB151:
	.loc 2 107 67 view .LVU167
	add	r0, r10, r0, lsl #4
	add	r0, r0, r7
.LBE151:
.LBE166:
	.loc 1 13 11 view .LVU168
	ldrb	r0, [r0, #28]	@ zero_extendqisi2
	and	r1, r1, #15
	str	r2, [sp, #12]
	str	r3, [sp, #8]
	bl	Block_Opaque
.LVL36:
	.loc 1 13 9 view .LVU169
	cmp	r0, #0
	ldr	r3, [sp, #8]
	ldr	r2, [sp, #12]
	bne	.L3
	.loc 1 15 7 is_stmt 1 view .LVU170
.LVL37:
.LBB167:
.LBI167:
	.loc 2 110 13 view .LVU171
.LBB168:
	.loc 2 111 2 view .LVU172
	.loc 2 112 2 view .LVU173
	.loc 2 112 47 is_stmt 0 view .LVU174
	add	r8, r8, r4
	add	r8, r4, r8, lsl #1
.LBB169:
.LBB170:
	.loc 2 101 8 view .LVU175
	lsl	r0, r8, #4
.LBE170:
.LBE169:
	.loc 2 112 47 view .LVU176
	add	r1, r5, r8
.LBB175:
.LBB171:
	.loc 2 101 8 view .LVU177
	add	ip, r5, r6
.LBE171:
.LBE175:
	.loc 2 112 47 view .LVU178
	add	r1, r1, r6
.LBB176:
.LBB172:
	.loc 2 101 8 view .LVU179
	add	ip, r0, ip, lsl #4
.LBE172:
.LBE176:
	.loc 2 112 47 view .LVU180
	add	r1, r10, r1, lsl #4
.LBB177:
.LBB173:
	.loc 2 101 8 view .LVU181
	add	ip, r10, ip
.LBE173:
.LBE177:
	.loc 2 112 47 view .LVU182
	mov	lr, #3
	add	r1, r1, r7
.LBB178:
.LBB174:
	.loc 2 101 8 view .LVU183
	add	ip, ip, r7
	b	.L24
.LBE174:
.LBE178:
.LBE168:
.LBE167:
.LBE184:
.LBE187:
.LBE190:
	.cfi_endproc
.LFE124:
	.size	BlockEvent_RandomTick, .-BlockEvent_RandomTick
	.text
.Letext0:
	.file 3 "/opt/devkitpro/devkitARM/arm-none-eabi/include/machine/_default_types.h"
	.file 4 "/opt/devkitpro/devkitARM/arm-none-eabi/include/sys/_stdint.h"
	.file 5 "/home/tobi/Dokumente/Craftus-Next/include/blocks/Block.h"
	.file 6 "/home/tobi/Dokumente/Craftus-Next/include/misc/Xorshift.h"
	.file 7 "/opt/devkitpro/devkitARM/lib/gcc/arm-none-eabi/11.2.0/include/stddef.h"
	.file 8 "/opt/devkitpro/devkitARM/arm-none-eabi/include/sys/lock.h"
	.file 9 "/home/tobi/Dokumente/Craftus-Next/include/rendering/VBOCache.h"
	.file 10 "/opt/devkitpro/libctru/include/3ds/synchronization.h"
	.file 11 "/home/tobi/Dokumente/Craftus-Next/include/world/WorkQueue.h"
	.file 12 "/home/tobi/Dokumente/Craftus-Next/include/world/World.h"
	.file 13 "/opt/devkitpro/libctru/include/3ds/types.h"