	.arch armv6k
	.eabi_attribute 28, 1
	.eabi_attribute 20, 1
	.eabi_attribute 21, 1
	.eabi_attribute 23, 3
	.eabi_attribute 24, 1
	.eabi_attribute 25, 1
	.eabi_attribute 26, 1
	.eabi_attribute 30, 2
	.eabi_attribute 34, 1
	.eabi_attribute 18, 4
	.file	"Camera.c"
	.text
.Ltext0:
	.cfi_sections	.debug_frame
	.section	.text.Camera_Init,"ax",%progbits
	.align	2
	.global	Camera_Init
	.syntax unified
	.arm
	.fpu vfp
	.type	Camera_Init, %function
Camera_Init:
.LVL0:
.LFB224:
	.file 1 "/home/tobi/Dokumente/Craftus-Next/source/rendering/Camera.c"
	.loc 1 7 31 view -0
	.cfi_startproc
	@ args = 0, pretend = 0, frame = 0
	@ frame_needed = 0, uses_anonymous_args = 0
	.loc 1 8 2 view .LVU1
.LBB217:
.LBB218:
.LBB219:
.LBB220:
.LBB221:
	.file 2 "/opt/devkitpro/libctru/include/c3d/maths.h"
	.loc 2 285 2 is_stmt 0 view .LVU2
	mov	r2, #64
.LBE221:
.LBE220:
.LBE219:
.LBE218:
.LBE217:
	.loc 1 7 31 view .LVU3
	push	{r4, lr}
	.cfi_def_cfa_offset 8
	.cfi_offset 4, -8
	.cfi_offset 14, -4
.LBB232:
.LBB229:
.LBB226:
.LBB224:
.LBB222:
	.loc 2 285 2 view .LVU4
	mov	r1, #0
.LBE222:
.LBE224:
.LBE226:
.LBE229:
.LBE232:
	.loc 1 7 31 view .LVU5
	mov	r4, r0
.LVL1:
.LBB233:
.LBI217:
	.loc 2 319 20 is_stmt 1 view .LVU6
	.loc 2 321 2 view .LVU7
.LBB230:
.LBI218:
	.loc 2 306 20 view .LVU8
.LBB227:
	.loc 2 308 2 view .LVU9
.LBB225:
.LBI220:
	.loc 2 283 20 view .LVU10
.LBB223:
	.loc 2 285 2 view .LVU11
	add	r0, r0, r2
.LVL2:
	.loc 2 285 2 is_stmt 0 view .LVU12
	bl	memset
.LVL3:
	.loc 2 285 2 view .LVU13
.LBE223:
.LBE225:
	.loc 2 309 2 is_stmt 1 view .LVU14
	.loc 2 309 14 is_stmt 0 view .LVU15
	mov	r3, #1065353216
.LBE227:
.LBE230:
.LBE233:
	.loc 1 10 11 view .LVU16
	vldr.32	s0, .L4
	.loc 1 11 12 view .LVU17
	vldr.32	s2, .L4+4
	.loc 1 11 29 view .LVU18
	vldr.32	s3, .L4+8
	.loc 1 13 2 view .LVU19
	mov	r0, r4
	.loc 1 10 11 view .LVU20
	vstr.32	s0, [r4, #392]
	.loc 1 11 12 view .LVU21
	vstr.32	s2, [r4, #384]
	.loc 1 11 29 view .LVU22
	vstr.32	s3, [r4, #388]
.LBB234:
.LBB231:
.LBB228:
	.loc 2 309 14 view .LVU23
	str	r3, [r4, #76]	@ float
	.loc 2 310 2 is_stmt 1 view .LVU24
	.loc 2 310 14 is_stmt 0 view .LVU25
	str	r3, [r4, #88]	@ float
	.loc 2 311 2 is_stmt 1 view .LVU26
	.loc 2 311 14 is_stmt 0 view .LVU27
	str	r3, [r4, #100]	@ float
	.loc 2 312 2 is_stmt 1 view .LVU28
	.loc 2 312 14 is_stmt 0 view .LVU29
	str	r3, [r4, #112]	@ float
.LVL4:
	.loc 2 312 14 view .LVU30
.LBE228:
.LBE231:
.LBE234:
	.loc 1 10 2 is_stmt 1 view .LVU31
	.loc 1 11 2 view .LVU32
	.loc 1 13 2 view .LVU33
	mov	r1, #0
	.loc 1 14 1 is_stmt 0 view .LVU34
	pop	{r4, lr}
	.cfi_restore 14
	.cfi_restore 4
	.cfi_def_cfa_offset 0
.LVL5:
	.loc 1 13 2 view .LVU35
	vldr.32	s1, .L4+12
	b	Mtx_PerspTilt
.LVL6:
.L5:
	.loc 1 13 2 view .LVU36
	.align	2
.L4:
	.word	1065749138
	.word	1045220557
	.word	1124073472
	.word	1070945621
	.cfi_endproc
.LFE224:
	.size	Camera_Init, .-Camera_Init
	.section	.text.Camera_Update,"ax",%progbits
	.align	2
	.global	Camera_Update
	.syntax unified
	.arm
	.fpu vfp
	.type	Camera_Update, %function
Camera_Update:
.LVL7:
.LFB225:
	.loc 1 16 60 is_stmt 1 view -0
	.cfi_startproc
	@ args = 0, pretend = 0, frame = 96
	@ frame_needed = 0, uses_anonymous_args = 0
	.loc 1 17 2 view .LVU38
	.loc 1 16 60 is_stmt 0 view .LVU39
	push	{r4, r5, r6, lr}
	.cfi_def_cfa_offset 16
	.cfi_offset 4, -16
	.cfi_offset 5, -12
	.cfi_offset 6, -8
	.cfi_offset 14, -4
	mov	r5, r1
	.loc 1 17 17 view .LVU40
	vldr.32	s14, [r0, #392]
	.loc 1 17 42 view .LVU41
	vldr.32	s12, [r5, #24]
	.loc 1 17 34 view .LVU42
	vldr.64	d5, .L38
	.loc 1 17 42 view .LVU43
	vcvt.f64.f32	d6, s12
	.loc 1 17 17 view .LVU44
	vcvt.f64.f32	d7, s14
	.loc 1 16 60 view .LVU45
	vpush.64	{d8, d9, d10, d11, d12, d13, d14, d15}
	.cfi_def_cfa_offset 80
	.cfi_offset 80, -80
	.cfi_offset 81, -76
	.cfi_offset 82, -72
	.cfi_offset 83, -68
	.cfi_offset 84, -64
	.cfi_offset 85, -60
	.cfi_offset 86, -56
	.cfi_offset 87, -52
	.cfi_offset 88, -48
	.cfi_offset 89, -44
	.cfi_offset 90, -40
	.cfi_offset 91, -36
	.cfi_offset 92, -32
	.cfi_offset 93, -28
	.cfi_offset 94, -24
	.cfi_offset 95, -20
	.loc 1 17 23 view .LVU46
	vmla.f64	d7, d6, d5
	.loc 1 18 2 view .LVU47
	vldr.32	s19, .L38+8
	.loc 1 16 60 view .LVU48
	sub	sp, sp, #96
	.cfi_def_cfa_offset 176
	.loc 1 16 60 view .LVU49
	vmov.f32	s4, s0
	.loc 1 18 2 view .LVU50
	vmov.f32	s5, s19
	vldr.32	s3, [r0, #388]
	vldr.32	s2, [r0, #384]
	vldr.32	s1, .L38+12
	vcvt.f32.f64	s0, d7
.LVL8:
	.loc 1 18 2 view .LVU51
	mov	r1, #0
.LVL9:
	.loc 1 16 60 view .LVU52
	mov	r4, r0
.LVL10:
	.loc 1 18 2 is_stmt 1 view .LVU53
	.loc 1 23 2 is_stmt 0 view .LVU54
	add	r6, r0, #64
	.loc 1 18 2 view .LVU55
	bl	Mtx_PerspStereoTilt
.LVL11:
	.loc 1 20 2 is_stmt 1 view .LVU56
	.loc 1 21 64 is_stmt 0 view .LVU57
	vldr.32	s0, [r5, #20]
	bl	sinf
.LVL12:
	.loc 1 21 52 view .LVU58
	vldr.32	s13, .L38+16
	vldr.32	s16, [r5, #4]
	.loc 1 21 86 view .LVU59
	vldr.32	s14, .L38+20
	.loc 1 21 52 view .LVU60
	vadd.f32	s16, s16, s13
	.loc 1 21 6 view .LVU61
	vldr.32	s15, [r5, #28]
	.loc 1 21 62 view .LVU62
	vmla.f32	s16, s0, s14
.LBB347:
.LBB348:
.LBB349:
.LBB350:
.LBB351:
	.loc 2 285 2 view .LVU63
	mov	r2, #64
	mov	r1, #0
	mov	r0, r6
.LBE351:
.LBE350:
.LBE349:
.LBE348:
.LBE347:
	.loc 1 21 6 view .LVU64
	vadd.f32	s16, s16, s15
	vldr.32	s18, [r5]
	vldr.32	s17, [r5, #8]
.LVL13:
	.loc 1 23 2 is_stmt 1 view .LVU65
.LBB358:
.LBI347:
	.loc 2 319 20 view .LVU66
	.loc 2 321 2 view .LVU67
.LBB356:
.LBI348:
	.loc 2 306 20 view .LVU68
.LBB354:
	.loc 2 308 2 view .LVU69
.LBB353:
.LBI350:
	.loc 2 283 20 view .LVU70
.LBB352:
	.loc 2 285 2 view .LVU71
	bl	memset
.LVL14:
	.loc 2 285 2 is_stmt 0 view .LVU72
.LBE352:
.LBE353:
	.loc 2 309 2 is_stmt 1 view .LVU73
.LBE354:
.LBE356:
.LBE358:
	.loc 1 24 2 is_stmt 0 view .LVU74
	vldr.32	s0, [r5, #12]
	mov	r1, #1
.LBB359:
.LBB357:
.LBB355:
	.loc 2 309 14 view .LVU75
	vstr.32	s19, [r4, #76]
	.loc 2 310 2 is_stmt 1 view .LVU76
	.loc 2 310 14 is_stmt 0 view .LVU77
	vstr.32	s19, [r4, #88]
	.loc 2 311 2 is_stmt 1 view .LVU78
	.loc 2 311 14 is_stmt 0 view .LVU79
	vstr.32	s19, [r4, #100]
	.loc 2 312 2 is_stmt 1 view .LVU80
	.loc 2 312 14 is_stmt 0 view .LVU81
	vstr.32	s19, [r4, #112]
.LVL15:
	.loc 2 312 14 view .LVU82
.LBE355:
.LBE357:
.LBE359:
	.loc 1 24 2 is_stmt 1 view .LVU83
	mov	r0, r6
	vneg.f32	s0, s0
	bl	Mtx_RotateX
.LVL16:
	.loc 1 25 2 view .LVU84
	vldr.32	s0, [r5, #16]
	mov	r1, #1
	mov	r0, r6
	vneg.f32	s0, s0
	bl	Mtx_RotateY
.LVL17:
	.loc 1 26 2 view .LVU85
	vneg.f32	s0, s18
	mov	r1, #1
	vneg.f32	s2, s17
	vneg.f32	s1, s16
	mov	r0, r6
	bl	Mtx_Translate
.LVL18:
	.loc 1 28 2 view .LVU86
	.loc 1 29 2 view .LVU87
	mov	r2, r6
	mov	r1, r4
	add	r0, sp, #32
	bl	Mtx_Multiply
.LVL19:
	.loc 1 30 2 view .LVU88
.LBB360:
.LBI360:
	.loc 2 293 20 view .LVU89
.LBB361:
	.loc 2 295 2 view .LVU90
	.loc 2 295 7 is_stmt 0 view .LVU91
	add	ip, sp, #32
	add	lr, r4, #128
.LVL20:
	.loc 2 295 7 view .LVU92
	ldmia	ip!, {r0, r1, r2, r3}
	stmia	lr!, {r0, r1, r2, r3}
.LVL21:
	.loc 2 295 7 view .LVU93
	ldmia	ip!, {r0, r1, r2, r3}
	stmia	lr!, {r0, r1, r2, r3}
.LVL22:
	.loc 2 295 7 view .LVU94
	ldmia	ip!, {r0, r1, r2, r3}
	stmia	lr!, {r0, r1, r2, r3}
.LVL23:
	.loc 2 295 7 view .LVU95
	ldm	ip, {r0, r1, r2, r3}
	stm	lr, {r0, r1, r2, r3}
.LVL24:
	.loc 2 295 7 view .LVU96
.LBE361:
.LBE360:
	.loc 1 32 2 is_stmt 1 view .LVU97
	.loc 1 32 11 is_stmt 0 view .LVU98
	vldr.32	s12, [sp, #32]
.LVL25:
	.loc 1 34 11 view .LVU99
	vldr.32	s26, [sp, #72]
	.loc 1 35 11 view .LVU100
	vldr.32	s19, [sp, #88]
	.loc 1 34 11 view .LVU101
	vldr.32	s20, [sp, #76]
.LBB362:
.LBB363:
	.loc 2 74 9 view .LVU102
	vsub.f32	s10, s19, s26
.LBE363:
.LBE362:
	.loc 1 35 11 view .LVU103
	vldr.32	s25, [sp, #92]
	.loc 1 34 11 view .LVU104
	vldr.32	s21, [sp, #68]
.LBB368:
.LBB364:
	.loc 2 74 9 view .LVU105
	vsub.f32	s11, s25, s20
.LBE364:
.LBE368:
	.loc 1 35 11 view .LVU106
	vldr.32	s24, [sp, #84]
.LBB369:
.LBB370:
.LBB371:
.LBB372:
.LBB373:
.LBB374:
	.loc 2 121 28 view .LVU107
	vmul.f32	s0, s10, s10
.LBE374:
.LBE373:
.LBE372:
.LBE371:
.LBE370:
.LBE369:
	.loc 1 34 11 view .LVU108
	vldr.32	s22, [sp, #64]
.LBB393:
.LBB365:
	.loc 2 74 9 view .LVU109
	vsub.f32	s9, s24, s21
.LBE365:
.LBE393:
	.loc 1 35 11 view .LVU110
	vldr.32	s23, [sp, #80]
.LBB394:
.LBB389:
.LBB385:
.LBB381:
.LBB378:
.LBB375:
	.loc 2 121 21 view .LVU111
	vmla.f32	s0, s11, s11
.LBE375:
.LBE378:
.LBE381:
.LBE385:
.LBE389:
.LBE394:
.LBB395:
.LBB366:
	.loc 2 74 9 view .LVU112
	vsub.f32	s8, s23, s22
.LBE366:
.LBE395:
.LBB396:
.LBB390:
.LBB386:
.LBB382:
.LBB379:
.LBB376:
	.loc 2 121 35 view .LVU113
	vmla.f32	s0, s9, s9
	.loc 2 121 49 view .LVU114
	vmla.f32	s0, s8, s8
	vcmp.f32	s0, #0
	vmrs	APSR_nzcv, FPSCR
.LBE376:
.LBE379:
.LBE382:
.LBE386:
.LBE390:
.LBE396:
	.loc 1 32 11 view .LVU115
	vldr.32	s13, [sp, #36]
.LVL26:
	.loc 1 32 11 view .LVU116
	vldr.32	s14, [sp, #40]
.LVL27:
	.loc 1 32 11 view .LVU117
	vldr.32	s31, [sp, #44]
.LVL28:
	.loc 1 33 2 is_stmt 1 view .LVU118
	.loc 1 33 11 is_stmt 0 view .LVU119
	vldr.32	s30, [sp, #48]
.LVL29:
	.loc 1 33 11 view .LVU120
	vldr.32	s29, [sp, #52]
.LVL30:
	.loc 1 33 11 view .LVU121
	vldr.32	s28, [sp, #56]
.LVL31:
	.loc 1 33 11 view .LVU122
	vldr.32	s27, [sp, #60]
.LVL32:
	.loc 1 34 2 is_stmt 1 view .LVU123
	.loc 1 35 2 view .LVU124
	.loc 1 37 2 view .LVU125
.LBB397:
.LBI362:
	.loc 2 71 24 view .LVU126
.LBB367:
	.loc 2 74 2 view .LVU127
	.loc 2 74 2 is_stmt 0 view .LVU128
.LBE367:
.LBE397:
.LBB398:
.LBI369:
	.loc 2 140 24 is_stmt 1 view .LVU129
.LBB391:
	.loc 2 143 2 view .LVU130
.LBB387:
.LBI371:
	.loc 2 129 21 view .LVU131
.LBB383:
	.loc 2 132 2 view .LVU132
.LBB380:
.LBI373:
	.loc 2 118 21 view .LVU133
.LBB377:
	.loc 2 121 2 view .LVU134
	.loc 2 121 2 is_stmt 0 view .LVU135
	bmi	.L31
.LBE377:
.LBE380:
	.loc 2 132 9 view .LVU136
	vsqrt.f32	s15, s0
.LVL33:
.L9:
	.loc 2 132 9 view .LVU137
.LBE383:
.LBE387:
	.loc 2 146 2 is_stmt 1 view .LVU138
	.loc 2 146 9 is_stmt 0 view .LVU139
	vdiv.f32	s7, s8, s15
	vdiv.f32	s8, s9, s15
	vdiv.f32	s9, s10, s15
	vdiv.f32	s10, s11, s15
.LBE391:
.LBE398:
	.loc 1 37 37 view .LVU140
	vstr.32	s10, [r4, #204]
	.loc 1 38 2 is_stmt 1 view .LVU141
.LVL34:
.LBB399:
.LBI399:
	.loc 2 59 24 view .LVU142
.LBB400:
	.loc 2 62 2 view .LVU143
	.loc 2 62 9 is_stmt 0 view .LVU144
	vadd.f32	s10, s14, s19
	vadd.f32	s11, s31, s25
.LBE400:
.LBE399:
.LBB403:
.LBB404:
.LBB405:
.LBB406:
.LBB407:
.LBB408:
	.loc 2 121 28 view .LVU145
	vmul.f32	s0, s10, s10
.LBE408:
.LBE407:
.LBE406:
.LBE405:
.LBE404:
.LBE403:
	.loc 1 37 37 view .LVU146
	vstr.32	s9, [r4, #200]
.LBB431:
.LBB425:
.LBB420:
.LBB415:
.LBB412:
.LBB409:
	.loc 2 121 21 view .LVU147
	vmla.f32	s0, s11, s11
.LBE409:
.LBE412:
.LBE415:
.LBE420:
.LBE425:
.LBE431:
.LBB432:
.LBB401:
	.loc 2 62 9 view .LVU148
	vadd.f32	s9, s13, s24
.LBE401:
.LBE432:
	.loc 1 37 37 view .LVU149
	vstr.32	s8, [r4, #196]
.LBB433:
.LBB426:
.LBB421:
.LBB416:
.LBB413:
.LBB410:
	.loc 2 121 35 view .LVU150
	vmla.f32	s0, s9, s9
.LBE410:
.LBE413:
.LBE416:
.LBE421:
.LBE426:
.LBE433:
.LBB434:
.LBB402:
	.loc 2 62 9 view .LVU151
	vadd.f32	s8, s12, s23
.LVL35:
	.loc 2 62 9 view .LVU152
.LBE402:
.LBE434:
.LBB435:
.LBI403:
	.loc 2 140 24 is_stmt 1 view .LVU153
.LBB427:
	.loc 2 143 2 view .LVU154
.LBB422:
.LBI405:
	.loc 2 129 21 view .LVU155
.LBB417:
	.loc 2 132 2 view .LVU156
.LBB414:
.LBI407:
	.loc 2 118 21 view .LVU157
.LBB411:
	.loc 2 121 2 view .LVU158
	.loc 2 121 49 is_stmt 0 view .LVU159
	vmla.f32	s0, s8, s8
.LVL36:
	.loc 2 121 49 view .LVU160
	vcmp.f32	s0, #0
	vmrs	APSR_nzcv, FPSCR
.LBE411:
.LBE414:
.LBE417:
.LBE422:
.LBE427:
.LBE435:
	.loc 1 37 37 view .LVU161
	vstr.32	s7, [r4, #192]
	bmi	.L32
.LBB436:
.LBB428:
.LBB423:
.LBB418:
	.loc 2 132 9 view .LVU162
	vsqrt.f32	s15, s0
.L12:
.LBE418:
.LBE423:
	.loc 2 146 2 is_stmt 1 view .LVU163
.LBE428:
.LBE436:
.LBB437:
.LBB438:
	.loc 2 74 9 is_stmt 0 view .LVU164
	vsub.f32	s14, s19, s14
	vsub.f32	s31, s25, s31
.LVL37:
	.loc 2 74 9 view .LVU165
.LBE438:
.LBE437:
.LBB442:
.LBB443:
.LBB444:
.LBB445:
.LBB446:
.LBB447:
	.loc 2 121 28 view .LVU166
	vmul.f32	s0, s14, s14
.LBE447:
.LBE446:
.LBE445:
.LBE444:
.LBE443:
.LBE442:
.LBB466:
.LBB439:
	.loc 2 74 9 view .LVU167
	vsub.f32	s13, s24, s13
.LBE439:
.LBE466:
.LBB467:
.LBB462:
.LBB458:
.LBB454:
.LBB451:
.LBB448:
	.loc 2 121 21 view .LVU168
	vmla.f32	s0, s31, s31
.LBE448:
.LBE451:
.LBE454:
.LBE458:
.LBE462:
.LBE467:
.LBB468:
.LBB440:
	.loc 2 74 9 view .LVU169
	vsub.f32	s12, s23, s12
.LBE440:
.LBE468:
.LBB469:
.LBB463:
.LBB459:
.LBB455:
.LBB452:
.LBB449:
	.loc 2 121 35 view .LVU170
	vmla.f32	s0, s13, s13
	.loc 2 121 49 view .LVU171
	vmla.f32	s0, s12, s12
	vcmp.f32	s0, #0
.LBE449:
.LBE452:
.LBE455:
.LBE459:
.LBE463:
.LBE469:
.LBB470:
.LBB429:
	.loc 2 146 9 view .LVU172
	vdiv.f32	s7, s8, s15
	vmrs	APSR_nzcv, FPSCR
	vdiv.f32	s8, s9, s15
	vdiv.f32	s9, s10, s15
	vdiv.f32	s10, s11, s15
.LBE429:
.LBE470:
	.loc 1 38 38 view .LVU173
	vstr.32	s7, [r4, #208]
	vstr.32	s8, [r4, #212]
	vstr.32	s9, [r4, #216]
	vstr.32	s10, [r4, #220]
	.loc 1 39 2 is_stmt 1 view .LVU174
.LVL38:
.LBB471:
.LBI437:
	.loc 2 71 24 view .LVU175
.LBB441:
	.loc 2 74 2 view .LVU176
	.loc 2 74 2 is_stmt 0 view .LVU177
.LBE441:
.LBE471:
.LBB472:
.LBI442:
	.loc 2 140 24 is_stmt 1 view .LVU178
.LBB464:
	.loc 2 143 2 view .LVU179
.LBB460:
.LBI444:
	.loc 2 129 21 view .LVU180
.LBB456:
	.loc 2 132 2 view .LVU181
.LBB453:
.LBI446:
	.loc 2 118 21 view .LVU182
.LBB450:
	.loc 2 121 2 view .LVU183
	.loc 2 121 2 is_stmt 0 view .LVU184
	bmi	.L33
.LBE450:
.LBE453:
	.loc 2 132 9 view .LVU185
	vsqrt.f32	s15, s0
.L15:
.LBE456:
.LBE460:
	.loc 2 146 2 is_stmt 1 view .LVU186
	.loc 2 146 9 is_stmt 0 view .LVU187
	vdiv.f32	s11, s12, s15
	vdiv.f32	s12, s13, s15
	vdiv.f32	s13, s14, s15
	vdiv.f32	s14, s31, s15
.LBE464:
.LBE472:
	.loc 1 39 37 view .LVU188
	vstr.32	s14, [r4, #236]
	.loc 1 40 2 is_stmt 1 view .LVU189
.LVL39:
.LBB473:
.LBI473:
	.loc 2 59 24 view .LVU190
.LBB474:
	.loc 2 62 2 view .LVU191
	.loc 2 62 9 is_stmt 0 view .LVU192
	vadd.f32	s14, s28, s19
	vadd.f32	s31, s27, s25
.LBE474:
.LBE473:
.LBB477:
.LBB478:
.LBB479:
.LBB480:
.LBB481:
.LBB482:
	.loc 2 121 28 view .LVU193
	vmul.f32	s0, s14, s14
.LBE482:
.LBE481:
.LBE480:
.LBE479:
.LBE478:
.LBE477:
	.loc 1 39 37 view .LVU194
	vstr.32	s13, [r4, #232]
.LBB505:
.LBB499:
.LBB494:
.LBB489:
.LBB486:
.LBB483:
	.loc 2 121 21 view .LVU195
	vmla.f32	s0, s31, s31
.LBE483:
.LBE486:
.LBE489:
.LBE494:
.LBE499:
.LBE505:
.LBB506:
.LBB475:
	.loc 2 62 9 view .LVU196
	vadd.f32	s13, s29, s24
.LBE475:
.LBE506:
	.loc 1 39 37 view .LVU197
	vstr.32	s12, [r4, #228]
.LBB507:
.LBB500:
.LBB495:
.LBB490:
.LBB487:
.LBB484:
	.loc 2 121 35 view .LVU198
	vmla.f32	s0, s13, s13
.LBE484:
.LBE487:
.LBE490:
.LBE495:
.LBE500:
.LBE507:
.LBB508:
.LBB476:
	.loc 2 62 9 view .LVU199
	vadd.f32	s12, s30, s23
.LVL40:
	.loc 2 62 9 view .LVU200
.LBE476:
.LBE508:
.LBB509:
.LBI477:
	.loc 2 140 24 is_stmt 1 view .LVU201
.LBB501:
	.loc 2 143 2 view .LVU202
.LBB496:
.LBI479:
	.loc 2 129 21 view .LVU203
.LBB491:
	.loc 2 132 2 view .LVU204
.LBB488:
.LBI481:
	.loc 2 118 21 view .LVU205
.LBB485:
	.loc 2 121 2 view .LVU206
	.loc 2 121 49 is_stmt 0 view .LVU207
	vmla.f32	s0, s12, s12
.LVL41:
	.loc 2 121 49 view .LVU208
	vcmp.f32	s0, #0
	vmrs	APSR_nzcv, FPSCR
.LBE485:
.LBE488:
.LBE491:
.LBE496:
.LBE501:
.LBE509:
	.loc 1 39 37 view .LVU209
	vstr.32	s11, [r4, #224]
	bmi	.L34
.LBB510:
.LBB502:
.LBB497:
.LBB492:
	.loc 2 132 9 view .LVU210
	vsqrt.f32	s15, s0
.L18:
.LBE492:
.LBE497:
	.loc 2 146 2 is_stmt 1 view .LVU211
.LBE502:
.LBE510:
.LBB511:
.LBB512:
	.loc 2 74 9 is_stmt 0 view .LVU212
	vsub.f32	s28, s19, s28
.LVL42:
	.loc 2 74 9 view .LVU213
	vsub.f32	s27, s25, s27
.LVL43:
	.loc 2 74 9 view .LVU214
.LBE512:
.LBE511:
.LBB516:
.LBB517:
.LBB518:
.LBB519:
.LBB520:
.LBB521:
	.loc 2 121 28 view .LVU215
	vmul.f32	s0, s28, s28
.LBE521:
.LBE520:
.LBE519:
.LBE518:
.LBE517:
.LBE516:
.LBB541:
.LBB513:
	.loc 2 74 9 view .LVU216
	vsub.f32	s29, s24, s29
.LVL44:
	.loc 2 74 9 view .LVU217
.LBE513:
.LBE541:
.LBB542:
.LBB536:
.LBB532:
.LBB528:
.LBB525:
.LBB522:
	.loc 2 121 21 view .LVU218
	vmla.f32	s0, s27, s27
.LBE522:
.LBE525:
.LBE528:
.LBE532:
.LBE536:
.LBE542:
.LBB543:
.LBB514:
	.loc 2 74 9 view .LVU219
	vsub.f32	s30, s23, s30
.LVL45:
	.loc 2 74 9 view .LVU220
.LBE514:
.LBE543:
.LBB544:
.LBB537:
.LBB533:
.LBB529:
.LBB526:
.LBB523:
	.loc 2 121 35 view .LVU221
	vmla.f32	s0, s29, s29
	.loc 2 121 49 view .LVU222
	vmla.f32	s0, s30, s30
	vcmp.f32	s0, #0
.LBE523:
.LBE526:
.LBE529:
.LBE533:
.LBE537:
.LBE544:
.LBB545:
.LBB503:
	.loc 2 146 9 view .LVU223
	vdiv.f32	s11, s12, s15
	vmrs	APSR_nzcv, FPSCR
	vdiv.f32	s12, s13, s15
	vdiv.f32	s13, s14, s15
	vdiv.f32	s14, s31, s15
.LBE503:
.LBE545:
	.loc 1 40 36 view .LVU224
	vstr.32	s11, [r4, #240]
	vstr.32	s12, [r4, #244]
	vstr.32	s13, [r4, #248]
	vstr.32	s14, [r4, #252]
	.loc 1 41 2 is_stmt 1 view .LVU225
.LVL46:
.LBB546:
.LBI511:
	.loc 2 71 24 view .LVU226
.LBB515:
	.loc 2 74 2 view .LVU227
	.loc 2 74 2 is_stmt 0 view .LVU228
.LBE515:
.LBE546:
.LBB547:
.LBI516:
	.loc 2 140 24 is_stmt 1 view .LVU229
.LBB538:
	.loc 2 143 2 view .LVU230
.LBB534:
.LBI518:
	.loc 2 129 21 view .LVU231
.LBB530:
	.loc 2 132 2 view .LVU232
.LBB527:
.LBI520:
	.loc 2 118 21 view .LVU233
.LBB524:
	.loc 2 121 2 view .LVU234
	.loc 2 121 2 is_stmt 0 view .LVU235
	bmi	.L35
.LBE524:
.LBE527:
	.loc 2 132 9 view .LVU236
	vsqrt.f32	s15, s0
.L21:
.LBE530:
.LBE534:
	.loc 2 146 2 is_stmt 1 view .LVU237
.LBE538:
.LBE547:
.LBB548:
.LBB549:
	.loc 2 62 9 is_stmt 0 view .LVU238
	vadd.f32	s19, s26, s19
.LVL47:
	.loc 2 62 9 view .LVU239
	vadd.f32	s20, s20, s25
.LVL48:
	.loc 2 62 9 view .LVU240
.LBE549:
.LBE548:
.LBB553:
.LBB554:
.LBB555:
.LBB556:
.LBB557:
.LBB558:
	.loc 2 121 28 view .LVU241
	vmul.f32	s0, s19, s19
.LBE558:
.LBE557:
.LBE556:
.LBE555:
.LBE554:
.LBE553:
.LBB578:
.LBB550:
	.loc 2 62 9 view .LVU242
	vadd.f32	s21, s21, s24
.LVL49:
	.loc 2 62 9 view .LVU243
.LBE550:
.LBE578:
.LBB579:
.LBB573:
.LBB569:
.LBB565:
.LBB562:
.LBB559:
	.loc 2 121 21 view .LVU244
	vmla.f32	s0, s20, s20
.LBE559:
.LBE562:
.LBE565:
.LBE569:
.LBE573:
.LBE579:
.LBB580:
.LBB551:
	.loc 2 62 9 view .LVU245
	vadd.f32	s22, s22, s23
.LVL50:
	.loc 2 62 9 view .LVU246
.LBE551:
.LBE580:
.LBB581:
.LBB574:
.LBB570:
.LBB566:
.LBB563:
.LBB560:
	.loc 2 121 35 view .LVU247
	vmla.f32	s0, s21, s21
	.loc 2 121 49 view .LVU248
	vmla.f32	s0, s22, s22
	vcmp.f32	s0, #0
.LBE560:
.LBE563:
.LBE566:
.LBE570:
.LBE574:
.LBE581:
.LBB582:
.LBB539:
	.loc 2 146 9 view .LVU249
	vdiv.f32	s11, s30, s15
	vdiv.f32	s12, s29, s15
	vdiv.f32	s13, s28, s15
	vdiv.f32	s14, s27, s15
	vmrs	APSR_nzcv, FPSCR
.LBE539:
.LBE582:
	.loc 1 41 39 view .LVU250
	vstr.32	s11, [r4, #256]
	vstr.32	s12, [r4, #260]
	vstr.32	s13, [r4, #264]
	vstr.32	s14, [r4, #268]
	.loc 1 42 2 is_stmt 1 view .LVU251
.LVL51:
.LBB583:
.LBI548:
	.loc 2 59 24 view .LVU252
.LBB552:
	.loc 2 62 2 view .LVU253
	.loc 2 62 2 is_stmt 0 view .LVU254
.LBE552:
.LBE583:
.LBB584:
.LBI553:
	.loc 2 140 24 is_stmt 1 view .LVU255
.LBB575:
	.loc 2 143 2 view .LVU256
.LBB571:
.LBI555:
	.loc 2 129 21 view .LVU257
.LBB567:
	.loc 2 132 2 view .LVU258
.LBB564:
.LBI557:
	.loc 2 118 21 view .LVU259
.LBB561:
	.loc 2 121 2 view .LVU260
	.loc 2 121 2 is_stmt 0 view .LVU261
	bmi	.L36
.LBE561:
.LBE564:
	.loc 2 132 9 view .LVU262
	vsqrt.f32	s15, s0
.L24:
.LBE567:
.LBE571:
	.loc 2 146 2 is_stmt 1 view .LVU263
.LBE575:
.LBE584:
	.loc 1 45 17 is_stmt 0 view .LVU264
	vldr.32	s24, [r5, #16]
.LVL52:
.LBB585:
.LBB576:
	.loc 2 146 9 view .LVU265
	vdiv.f32	s11, s22, s15
	vdiv.f32	s12, s21, s15
	vdiv.f32	s13, s19, s15
	vdiv.f32	s14, s20, s15
.LBE576:
.LBE585:
	.loc 1 44 9 view .LVU266
	vldr.32	s28, [r5, #44]
	vldr.32	s27, [r5, #48]
	vldr.32	s26, [r5, #52]
.LVL53:
	.loc 1 45 17 view .LVU267
	vmov.f32	s0, s24
	.loc 1 42 36 view .LVU268
	vstr.32	s11, [r4, #272]
	vstr.32	s12, [r4, #276]
	vstr.32	s13, [r4, #280]
	vstr.32	s14, [r4, #284]
	.loc 1 44 2 is_stmt 1 view .LVU269
.LVL54:
	.loc 1 45 2 view .LVU270
	.loc 1 45 17 is_stmt 0 view .LVU271
	bl	sinf
.LVL55:
	vmov.f32	s20, s0
	vmov.f32	s0, s24
	bl	cosf
.LVL56:
.LBB586:
.LBB587:
	.file 3 "/home/tobi/Dokumente/Craftus-Next/include/misc/VecMath.h"
	.loc 3 21 85 view .LVU272
	vldr.32	s15, .L38+24
.LBE587:
.LBE586:
	.loc 1 45 17 view .LVU273
	vmov.f32	s21, s0
.LVL57:
.LBB591:
.LBI586:
	.loc 3 21 15 is_stmt 1 view .LVU274
.LBB588:
	.loc 3 21 44 view .LVU275
.LBE588:
.LBE591:
	.loc 1 50 28 is_stmt 0 view .LVU276
	vldr.32	s23, .L38+28
.LVL58:
	.loc 1 50 28 view .LVU277
	vldr.32	s14, [r4, #392]
.LBB592:
.LBB589:
	.loc 3 21 97 view .LVU278
	vmul.f32	s22, s21, s15
.LBE589:
.LBE592:
	.loc 1 50 28 view .LVU279
	vmul.f32	s0, s14, s23
.LVL59:
.LBB593:
.LBB590:
	.loc 3 21 51 view .LVU280
	vsub.f32	s24, s15, s20
.LVL60:
	.loc 3 21 51 view .LVU281
	vnmls.f32	s22, s20, s15
.LVL61:
	.loc 3 21 51 view .LVU282
.LBE590:
.LBE593:
	.loc 1 46 2 is_stmt 1 view .LVU283
.LBB594:
.LBI594:
	.loc 3 21 15 view .LVU284
.LBB595:
	.loc 3 21 44 view .LVU285
.LBE595:
.LBE594:
	.loc 1 50 28 is_stmt 0 view .LVU286
	bl	tanf
.LVL62:
	.loc 1 52 33 view .LVU287
	vldr.32	s15, [r4, #384]
	.loc 1 50 8 view .LVU288
	vadd.f32	s12, s0, s0
.LBB602:
.LBB603:
	.loc 3 16 51 view .LVU289
	vmov.f32	s7, s18
	vmov.f32	s10, s16
	vmov.f32	s11, s17
.LBE603:
.LBE602:
	.loc 1 55 32 view .LVU290
	vldr.32	s14, [r4, #388]
.LBB606:
.LBB604:
	.loc 3 16 51 view .LVU291
	vmla.f32	s7, s15, s28
	vmla.f32	s10, s15, s27
	vmla.f32	s11, s15, s26
.LBE604:
.LBE606:
.LBB607:
.LBB596:
	.loc 3 21 74 view .LVU292
	vmul.f32	s20, s22, s26
.LBE596:
.LBE607:
	.loc 1 53 8 view .LVU293
	vldr.32	s13, .L38+12
	.loc 1 52 8 view .LVU294
	vmul.f32	s15, s15, s12
.LBB608:
.LBB609:
	.loc 3 16 51 view .LVU295
	vmla.f32	s18, s14, s28
.LVL63:
	.loc 3 16 51 view .LVU296
	vmla.f32	s16, s14, s27
.LVL64:
	.loc 3 16 51 view .LVU297
	vmla.f32	s17, s14, s26
.LVL65:
	.loc 3 16 51 view .LVU298
.LBE609:
.LBE608:
.LBB611:
.LBB597:
	.loc 3 21 51 view .LVU299
	vnmls.f32	s20, s24, s27
.LVL66:
	.loc 3 21 51 view .LVU300
.LBE597:
.LBE611:
	.loc 1 55 8 view .LVU301
	vmul.f32	s14, s14, s12
.LBB612:
.LBB598:
	.loc 3 21 97 view .LVU302
	vmul.f32	s19, s24, s28
.LBE598:
.LBE612:
	.loc 1 61 48 view .LVU303
	vmul.f32	s12, s15, s23
	.loc 1 53 8 view .LVU304
	vmul.f32	s15, s15, s13
.LBB613:
.LBB599:
	.loc 3 21 51 view .LVU305
	vnmls.f32	s19, s21, s26
.LVL67:
	.loc 3 21 51 view .LVU306
.LBE599:
.LBE613:
	.loc 1 61 48 view .LVU307
	vmul.f32	s15, s15, s23
.LBB614:
.LBB615:
	.loc 3 18 50 view .LVU308
	vmul.f32	s9, s12, s20
.LBE615:
.LBE614:
.LBB618:
.LBB600:
	.loc 3 21 120 view .LVU309
	vmul.f32	s25, s21, s27
.LVL68:
	.loc 3 21 120 view .LVU310
.LBE600:
.LBE618:
.LBB619:
.LBB620:
	.loc 3 18 50 view .LVU311
	vmul.f32	s3, s21, s15
.LBE620:
.LBE619:
.LBB624:
.LBB601:
	.loc 3 21 51 view .LVU312
	vnmls.f32	s25, s22, s28
.LVL69:
	.loc 3 21 51 view .LVU313
.LBE601:
.LBE624:
	.loc 1 48 2 is_stmt 1 view .LVU314
	.loc 1 50 2 view .LVU315
	.loc 1 52 2 view .LVU316
	.loc 1 53 2 view .LVU317
	.loc 1 55 2 view .LVU318
	.loc 1 56 2 view .LVU319
	.loc 1 58 2 view .LVU320
.LBB625:
.LBI625:
	.loc 3 18 15 view .LVU321
.LBB626:
	.loc 3 18 43 view .LVU322
	.loc 3 18 43 is_stmt 0 view .LVU323
.LBE626:
.LBE625:
.LBB627:
.LBI602:
	.loc 3 16 15 is_stmt 1 view .LVU324
.LBB605:
	.loc 3 16 44 view .LVU325
	.loc 3 16 44 is_stmt 0 view .LVU326
.LBE605:
.LBE627:
	.loc 1 59 2 is_stmt 1 view .LVU327
.LBB628:
.LBI628:
	.loc 3 18 15 view .LVU328
.LBB629:
	.loc 3 18 43 view .LVU329
	.loc 3 18 43 is_stmt 0 view .LVU330
.LBE629:
.LBE628:
.LBB630:
.LBI608:
	.loc 3 16 15 is_stmt 1 view .LVU331
.LBB610:
	.loc 3 16 44 view .LVU332
	.loc 3 16 44 is_stmt 0 view .LVU333
.LBE610:
.LBE630:
	.loc 1 61 2 is_stmt 1 view .LVU334
.LBB631:
.LBI614:
	.loc 3 18 15 view .LVU335
.LBB616:
	.loc 3 18 43 view .LVU336
	.loc 3 18 50 is_stmt 0 view .LVU337
	vmul.f32	s8, s12, s19
.LBE616:
.LBE631:
.LBB632:
.LBB633:
	.loc 3 17 51 view .LVU338
	vsub.f32	s5, s7, s9
.LBE633:
.LBE632:
.LBB637:
.LBB621:
	.loc 3 18 50 view .LVU339
	vmul.f32	s4, s15, s22
.LBE621:
.LBE637:
.LBB638:
.LBB634:
	.loc 3 17 51 view .LVU340
	vsub.f32	s6, s10, s8
.LBE634:
.LBE638:
.LBB639:
.LBB640:
	vsub.f32	s1, s5, s3
.LBE640:
.LBE639:
.LBB644:
.LBB617:
	.loc 3 18 50 view .LVU341
	vmul.f32	s12, s12, s25
.LVL70:
	.loc 3 18 50 view .LVU342
.LBE617:
.LBE644:
.LBB645:
.LBI632:
	.loc 3 17 15 is_stmt 1 view .LVU343
.LBB635:
	.loc 3 17 44 view .LVU344
.LBE635:
.LBE645:
.LBB646:
.LBB647:
	.loc 3 16 51 is_stmt 0 view .LVU345
	vadd.f32	s5, s3, s5
	b	.L39
.L40:
	.align	3
.L38:
	.word	-209982507
	.word	1070255849
	.word	1065353216
	.word	1070945621
	.word	1070805811
	.word	1036831949
	.word	0
	.word	1056964608
.L39:
.LBE647:
.LBE646:
	.loc 1 56 8 view .LVU346
	vmul.f32	s13, s14, s13
.LVL71:
	.loc 1 65 47 view .LVU347
	vmul.f32	s14, s14, s23
.LVL72:
.LBB651:
.LBB622:
	.loc 3 18 50 view .LVU348
	vmul.f32	s15, s15, s24
.LBE622:
.LBE651:
	.loc 1 65 47 view .LVU349
	vmul.f32	s13, s13, s23
.LVL73:
.LBB652:
.LBB653:
	.loc 3 18 50 view .LVU350
	vmul.f32	s19, s14, s19
.LVL74:
	.loc 3 18 50 view .LVU351
	vmul.f32	s20, s14, s20
.LVL75:
	.loc 3 18 50 view .LVU352
.LBE653:
.LBE652:
.LBB656:
.LBB657:
	.loc 3 16 51 view .LVU353
	vadd.f32	s9, s9, s7
.LVL76:
	.loc 3 16 51 view .LVU354
.LBE657:
.LBE656:
	.loc 1 62 49 view .LVU355
	vstr.32	s5, [r4, #300]
.LBB660:
.LBB636:
	.loc 3 17 51 view .LVU356
	vsub.f32	s7, s11, s12
.LVL77:
	.loc 3 17 51 view .LVU357
.LBE636:
.LBE660:
.LBB661:
.LBB641:
	vsub.f32	s5, s6, s4
.LBE641:
.LBE661:
.LBB662:
.LBB648:
	.loc 3 16 51 view .LVU358
	vadd.f32	s6, s4, s6
.LBE648:
.LBE662:
.LBB663:
.LBB664:
	.loc 3 18 50 view .LVU359
	vmul.f32	s21, s21, s13
.LVL78:
	.loc 3 18 50 view .LVU360
	vmul.f32	s22, s13, s22
.LVL79:
	.loc 3 18 50 view .LVU361
.LBE664:
.LBE663:
.LBB667:
.LBI619:
	.loc 3 18 15 is_stmt 1 view .LVU362
.LBB623:
	.loc 3 18 43 view .LVU363
	.loc 3 18 43 is_stmt 0 view .LVU364
.LBE623:
.LBE667:
.LBB668:
.LBI639:
	.loc 3 17 15 is_stmt 1 view .LVU365
.LBB642:
	.loc 3 17 44 view .LVU366
	.loc 3 17 44 is_stmt 0 view .LVU367
.LBE642:
.LBE668:
.LBB669:
.LBB670:
	.loc 3 17 51 view .LVU368
	vsub.f32	s2, s18, s20
.LBE670:
.LBE669:
.LBB674:
.LBB654:
	.loc 3 18 50 view .LVU369
	vmul.f32	s14, s14, s25
.LBE654:
.LBE674:
.LBB675:
.LBB658:
	.loc 3 16 51 view .LVU370
	vadd.f32	s8, s8, s10
	vadd.f32	s12, s12, s11
.LBE658:
.LBE675:
.LBB676:
.LBB671:
	.loc 3 17 51 view .LVU371
	vsub.f32	s10, s16, s19
.LVL80:
	.loc 3 17 51 view .LVU372
.LBE671:
.LBE676:
	.loc 1 62 49 view .LVU373
	vstr.32	s6, [r4, #304]
.LBB677:
.LBB643:
	.loc 3 17 51 view .LVU374
	vsub.f32	s6, s7, s15
.LBE643:
.LBE677:
.LBB678:
.LBB649:
	.loc 3 16 51 view .LVU375
	vadd.f32	s7, s15, s7
.LBE649:
.LBE678:
.LBB679:
.LBB665:
	.loc 3 18 50 view .LVU376
	vmul.f32	s13, s13, s24
.LBE665:
.LBE679:
.LBB680:
.LBB672:
	.loc 3 17 51 view .LVU377
	vsub.f32	s11, s17, s14
.LVL81:
	.loc 3 17 51 view .LVU378
.LBE672:
.LBE680:
.LBB681:
.LBB682:
	.loc 3 16 51 view .LVU379
	vadd.f32	s20, s20, s18
	vadd.f32	s16, s19, s16
.LVL82:
	.loc 3 16 51 view .LVU380
	vadd.f32	s14, s14, s17
.LBE682:
.LBE681:
	.loc 1 61 48 view .LVU381
	vstr.32	s6, [r4, #296]
	.loc 1 62 2 is_stmt 1 view .LVU382
.LVL83:
.LBB684:
.LBI646:
	.loc 3 16 15 view .LVU383
.LBB650:
	.loc 3 16 44 view .LVU384
	.loc 3 16 44 is_stmt 0 view .LVU385
.LBE650:
.LBE684:
	.loc 1 62 49 view .LVU386
	vstr.32	s7, [r4, #308]
	.loc 1 63 2 is_stmt 1 view .LVU387
.LVL84:
.LBB685:
.LBI656:
	.loc 3 16 15 view .LVU388
.LBB659:
	.loc 3 16 44 view .LVU389
	.loc 3 16 44 is_stmt 0 view .LVU390
.LBE659:
.LBE685:
.LBB686:
.LBI686:
	.loc 3 17 15 is_stmt 1 view .LVU391
.LBB687:
	.loc 3 17 44 view .LVU392
	.loc 3 17 44 is_stmt 0 view .LVU393
.LBE687:
.LBE686:
.LBB690:
.LBB691:
	.loc 3 17 51 view .LVU394
	vsub.f32	s6, s10, s22
.LBE691:
.LBE690:
.LBB695:
.LBB688:
	vsub.f32	s7, s9, s3
.LBE688:
.LBE695:
.LBB696:
.LBB697:
	.loc 3 16 51 view .LVU395
	vadd.f32	s9, s9, s3
	vadd.f32	s3, s8, s4
.LBE697:
.LBE696:
.LBB700:
.LBB689:
	.loc 3 17 51 view .LVU396
	vsub.f32	s8, s8, s4
	vsub.f32	s4, s12, s15
.LBE689:
.LBE700:
.LBB701:
.LBB698:
	.loc 3 16 51 view .LVU397
	vadd.f32	s12, s12, s15
.LBE698:
.LBE701:
.LBB702:
.LBB703:
	vadd.f32	s15, s21, s2
.LBE703:
.LBE702:
	.loc 1 61 48 view .LVU398
	vstr.32	s5, [r4, #292]
	.loc 1 66 48 view .LVU399
	vstr.32	s15, [r4, #348]
	.loc 1 65 47 view .LVU400
	vstr.32	s6, [r4, #340]
	.loc 1 63 45 view .LVU401
	vstr.32	s7, [r4, #312]
.LBB706:
.LBB692:
	.loc 3 17 51 view .LVU402
	vsub.f32	s6, s11, s13
.LBE692:
.LBE706:
	.loc 1 63 45 view .LVU403
	vstr.32	s8, [r4, #316]
.LBB707:
.LBB708:
	.loc 3 16 51 view .LVU404
	vadd.f32	s15, s14, s13
.LBE708:
.LBE707:
.LBB711:
.LBB712:
	.loc 3 17 51 view .LVU405
	vsub.f32	s8, s16, s22
.LBE712:
.LBE711:
.LBB716:
.LBB693:
	vsub.f32	s5, s2, s21
.LBE693:
.LBE716:
.LBB717:
.LBB704:
	.loc 3 16 51 view .LVU406
	vadd.f32	s10, s22, s10
	vadd.f32	s11, s13, s11
.LBE704:
.LBE717:
.LBB718:
.LBB713:
	.loc 3 17 51 view .LVU407
	vsub.f32	s7, s20, s21
.LBE713:
.LBE718:
.LBB719:
.LBB709:
	.loc 3 16 51 view .LVU408
	vadd.f32	s0, s20, s21
.LVL85:
	.loc 3 16 51 view .LVU409
	vadd.f32	s16, s16, s22
.LBE709:
.LBE719:
.LBB720:
.LBB714:
	.loc 3 17 51 view .LVU410
	vsub.f32	s14, s14, s13
.LBE714:
.LBE720:
	.loc 1 61 48 view .LVU411
	vstr.32	s1, [r4, #288]
	.loc 1 63 45 view .LVU412
	vstr.32	s4, [r4, #320]
	.loc 1 64 2 is_stmt 1 view .LVU413
.LVL86:
.LBB721:
.LBI696:
	.loc 3 16 15 view .LVU414
.LBB699:
	.loc 3 16 44 view .LVU415
	.loc 3 16 44 is_stmt 0 view .LVU416
.LBE699:
.LBE721:
	.loc 1 64 46 view .LVU417
	vstr.32	s9, [r4, #324]
	vstr.32	s3, [r4, #328]
	vstr.32	s12, [r4, #332]
	.loc 1 65 2 is_stmt 1 view .LVU418
.LVL87:
.LBB722:
.LBI652:
	.loc 3 18 15 view .LVU419
.LBB655:
	.loc 3 18 43 view .LVU420
	.loc 3 18 43 is_stmt 0 view .LVU421
.LBE655:
.LBE722:
.LBB723:
.LBI669:
	.loc 3 17 15 is_stmt 1 view .LVU422
.LBB673:
	.loc 3 17 44 view .LVU423
	.loc 3 17 44 is_stmt 0 view .LVU424
.LBE673:
.LBE723:
.LBB724:
.LBI663:
	.loc 3 18 15 is_stmt 1 view .LVU425
.LBB666:
	.loc 3 18 43 view .LVU426
	.loc 3 18 43 is_stmt 0 view .LVU427
.LBE666:
.LBE724:
.LBB725:
.LBI690:
	.loc 3 17 15 is_stmt 1 view .LVU428
.LBB694:
	.loc 3 17 44 view .LVU429
	.loc 3 17 44 is_stmt 0 view .LVU430
.LBE694:
.LBE725:
	.loc 1 65 47 view .LVU431
	vstr.32	s5, [r4, #336]
	.loc 1 66 48 view .LVU432
	vstr.32	s10, [r4, #352]
	.loc 1 65 47 view .LVU433
	vstr.32	s6, [r4, #344]
	.loc 1 66 2 is_stmt 1 view .LVU434
.LVL88:
.LBB726:
.LBI702:
	.loc 3 16 15 view .LVU435
.LBB705:
	.loc 3 16 44 view .LVU436
	.loc 3 16 44 is_stmt 0 view .LVU437
.LBE705:
.LBE726:
	.loc 1 66 48 view .LVU438
	vstr.32	s11, [r4, #356]
	.loc 1 67 2 is_stmt 1 view .LVU439
.LVL89:
.LBB727:
.LBI681:
	.loc 3 16 15 view .LVU440
.LBB683:
	.loc 3 16 44 view .LVU441
	.loc 3 16 44 is_stmt 0 view .LVU442
.LBE683:
.LBE727:
.LBB728:
.LBI711:
	.loc 3 17 15 is_stmt 1 view .LVU443
.LBB715:
	.loc 3 17 44 view .LVU444
	.loc 3 17 44 is_stmt 0 view .LVU445
.LBE715:
.LBE728:
	.loc 1 67 44 view .LVU446
	vstr.32	s7, [r4, #360]
	vstr.32	s8, [r4, #364]
	.loc 1 68 45 view .LVU447
	vstr.32	s0, [r4, #372]
	.loc 1 67 44 view .LVU448
	vstr.32	s14, [r4, #368]
	.loc 1 68 2 is_stmt 1 view .LVU449
.LVL90:
.LBB729:
.LBI707:
	.loc 3 16 15 view .LVU450
.LBB710:
	.loc 3 16 44 view .LVU451
	.loc 3 16 44 is_stmt 0 view .LVU452
.LBE710:
.LBE729:
	.loc 1 68 45 view .LVU453
	vstr.32	s16, [r4, #376]
	vstr.32	s15, [r4, #380]
.LVL91:
	.loc 1 69 1 view .LVU454
	add	sp, sp, #96
	.cfi_remember_state
	.cfi_def_cfa_offset 80
	@ sp needed
	vldm	sp!, {d8-d15}
	.cfi_restore 94
	.cfi_restore 95
	.cfi_restore 92
	.cfi_restore 93
	.cfi_restore 90
	.cfi_restore 91
	.cfi_restore 88
	.cfi_restore 89
	.cfi_restore 86
	.cfi_restore 87
	.cfi_restore 84
	.cfi_restore 85
	.cfi_restore 82
	.cfi_restore 83
	.cfi_restore 80
	.cfi_restore 81
	.cfi_def_cfa_offset 16
	pop	{r4, r5, r6, pc}
.LVL92:
.L31:
	.cfi_restore_state
	.loc 1 69 1 view .LVU455
	vstr.32	s8, [sp, #28]	@ int
	vstr.32	s9, [sp, #24]	@ int
	vstr.32	s10, [sp, #20]	@ int
	vstr.32	s11, [sp, #16]	@ int
	vstr.32	s14, [sp, #12]	@ int
	vstr.32	s13, [sp, #8]	@ int
	vstr.32	s12, [sp, #4]	@ int
.LBB730:
.LBB392:
.LBB388:
.LBB384:
	.loc 2 132 9 view .LVU456
	bl	sqrtf
.LVL93:
	.loc 2 132 9 view .LVU457
	vldr.32	s8, [sp, #28]	@ int
	vmov.f32	s15, s0
	vldr.32	s9, [sp, #24]	@ int
	vldr.32	s10, [sp, #20]	@ int
	vldr.32	s11, [sp, #16]	@ int
	vldr.32	s14, [sp, #12]	@ int
	vldr.32	s13, [sp, #8]	@ int
	vldr.32	s12, [sp, #4]	@ int
	b	.L9
.LVL94:
.L36:
	.loc 2 132 9 view .LVU458
.LBE384:
.LBE388:
.LBE392:
.LBE730:
.LBB731:
.LBB577:
.LBB572:
.LBB568:
	bl	sqrtf
.LVL95:
	vmov.f32	s15, s0
	b	.L24
.LVL96:
.L35:
	.loc 2 132 9 view .LVU459
.LBE568:
.LBE572:
.LBE577:
.LBE731:
.LBB732:
.LBB540:
.LBB535:
.LBB531:
	bl	sqrtf
.LVL97:
	vmov.f32	s15, s0
	b	.L21
.LVL98:
.L34:
	.loc 2 132 9 view .LVU460
	vstr.32	s12, [sp, #12]	@ int
	vstr.32	s13, [sp, #8]	@ int
	vstr.32	s14, [sp, #4]	@ int
.LBE531:
.LBE535:
.LBE540:
.LBE732:
.LBB733:
.LBB504:
.LBB498:
.LBB493:
	bl	sqrtf
.LVL99:
	vldr.32	s12, [sp, #12]	@ int
	vmov.f32	s15, s0
	vldr.32	s13, [sp, #8]	@ int
	vldr.32	s14, [sp, #4]	@ int
	b	.L18
.L33:
	.loc 2 132 9 view .LVU461
	vstr.32	s12, [sp, #12]	@ int
	vstr.32	s13, [sp, #8]	@ int
	vstr.32	s14, [sp, #4]	@ int
.LBE493:
.LBE498:
.LBE504:
.LBE733:
.LBB734:
.LBB465:
.LBB461:
.LBB457:
	bl	sqrtf
.LVL100:
	vldr.32	s12, [sp, #12]	@ int
	vmov.f32	s15, s0
	vldr.32	s13, [sp, #8]	@ int
	vldr.32	s14, [sp, #4]	@ int
	b	.L15
.LVL101:
.L32:
	.loc 2 132 9 view .LVU462
	vstr.32	s8, [sp, #28]	@ int
	vstr.32	s9, [sp, #24]	@ int
	vstr.32	s10, [sp, #20]	@ int
	vstr.32	s11, [sp, #16]	@ int
	vstr.32	s14, [sp, #12]	@ int
	vstr.32	s13, [sp, #8]	@ int
	vstr.32	s12, [sp, #4]	@ int
.LBE457:
.LBE461:
.LBE465:
.LBE734:
.LBB735:
.LBB430:
.LBB424:
.LBB419:
	bl	sqrtf
.LVL102:
	vldr.32	s8, [sp, #28]	@ int
	vmov.f32	s15, s0
	vldr.32	s9, [sp, #24]	@ int
	vldr.32	s10, [sp, #20]	@ int
	vldr.32	s11, [sp, #16]	@ int
	vldr.32	s14, [sp, #12]	@ int
	vldr.32	s13, [sp, #8]	@ int
	vldr.32	s12, [sp, #4]	@ int
	b	.L12
.LBE419:
.LBE424:
.LBE430:
.LBE735:
	.cfi_endproc
.LFE225:
	.size	Camera_Update, .-Camera_Update
	.section	.text.Camera_IsPointVisible,"ax",%progbits
	.align	2
	.global	Camera_IsPointVisible
	.syntax unified
	.arm
	.fpu vfp
	.type	Camera_IsPointVisible, %function
Camera_IsPointVisible:
.LVL103:
.LFB226:
	.loc 1 71 56 is_stmt 1 view -0
	.cfi_startproc
	@ args = 0, pretend = 0, frame = 16
	@ frame_needed = 0, uses_anonymous_args = 0
	@ link register save eliminated.
	.loc 1 71 56 is_stmt 0 view .LVU464
	sub	sp, sp, #16
	.cfi_def_cfa_offset 16
.LVL104:
	.loc 1 72 2 is_stmt 1 view .LVU465
	.loc 1 73 2 view .LVU466
.LBB736:
	.loc 1 73 7 view .LVU467
	.loc 1 73 20 view .LVU468
.LBE736:
	.loc 1 71 56 is_stmt 0 view .LVU469
	vstr.32	s0, [sp]
	vstr.32	s1, [sp, #4]
	vstr.32	s2, [sp, #8]
	vstr.32	s3, [sp, #12]
	add	r3, r0, #96
.LVL105:
.L43:
.LBB741:
	.loc 1 74 3 is_stmt 1 view .LVU470
.LBB737:
.LBI737:
	.loc 2 118 21 view .LVU471
.LBB738:
	.loc 2 121 2 view .LVU472
	.loc 2 121 2 is_stmt 0 view .LVU473
.LBE738:
.LBE737:
	.loc 1 73 44 is_stmt 1 view .LVU474
	.loc 1 73 20 view .LVU475
.LBB740:
.LBB739:
	.loc 2 121 28 is_stmt 0 view .LVU476
	vldr.32	s15, [r0, #200]
	.loc 2 121 14 view .LVU477
	vldr.32	s12, [r0, #204]
	.loc 2 121 28 view .LVU478
	vmul.f32	s15, s2, s15
	.loc 2 121 42 view .LVU479
	vldr.32	s13, [r0, #196]
	.loc 2 121 21 view .LVU480
	vmla.f32	s15, s3, s12
	.loc 2 121 49 view .LVU481
	vldr.32	s14, [r0, #192]
	.loc 2 121 35 view .LVU482
	vmla.f32	s15, s1, s13
	.loc 2 121 49 view .LVU483
	vadd.f32	s15, s15, s14
.LBE739:
.LBE740:
	.loc 1 74 6 view .LVU484
	vcmpe.f32	s15, #0
	vmrs	APSR_nzcv, FPSCR
	.loc 1 73 20 view .LVU485
	add	r0, r0, #16
	.loc 1 74 6 view .LVU486
	bmi	.L44
	.loc 1 73 20 discriminator 2 view .LVU487
	cmp	r3, r0
	bne	.L43
.LBE741:
	.loc 1 75 8 view .LVU488
	mov	r0, #1
	.loc 1 76 1 view .LVU489
	add	sp, sp, #16
	.cfi_remember_state
	.cfi_def_cfa_offset 0
	@ sp needed
	bx	lr
.L44:
	.cfi_restore_state
.LBB742:
	.loc 1 74 60 view .LVU490
	mov	r0, #0
.LBE742:
	.loc 1 76 1 view .LVU491
	add	sp, sp, #16
	.cfi_def_cfa_offset 0
	@ sp needed
	bx	lr
	.cfi_endproc
.LFE226:
	.size	Camera_IsPointVisible, .-Camera_IsPointVisible
	.section	.text.Camera_IsAABBVisible,"ax",%progbits
	.align	2
	.global	Camera_IsAABBVisible
	.syntax unified
	.arm
	.fpu vfp
	.type	Camera_IsAABBVisible, %function
Camera_IsAABBVisible:
.LVL106:
.LFB227:
	.loc 1 78 70 is_stmt 1 view -0
	.cfi_startproc
	@ args = 0, pretend = 0, frame = 32
	@ frame_needed = 0, uses_anonymous_args = 0
	.loc 1 79 2 view .LVU493
	.loc 1 80 2 view .LVU494
	.loc 1 78 70 is_stmt 0 view .LVU495
	str	lr, [sp, #-4]!
	.cfi_def_cfa_offset 4
	.cfi_offset 14, -4
	sub	sp, sp, #36
	.cfi_def_cfa_offset 40
	.loc 1 78 70 view .LVU496
	vstr.32	s0, [sp, #16]
	vstr.32	s5, [sp, #4]
	.loc 1 80 15 view .LVU497
	vadd.f32	s0, s1, s5
	.loc 1 78 70 view .LVU498
	vstr.32	s6, [sp, #8]
	.loc 1 80 15 view .LVU499
	vadd.f32	s5, s2, s6
	mov	lr, r0
	.loc 1 78 70 view .LVU500
	vstr.32	s1, [sp, #20]
	vstr.32	s2, [sp, #24]
	vstr.32	s3, [sp, #28]
	vstr.32	s4, [sp]
	.loc 1 80 15 view .LVU501
	mov	r3, r0
	vadd.f32	s6, s3, s7
.LVL107:
	.loc 1 81 2 is_stmt 1 view .LVU502
.LBB743:
	.loc 1 81 7 view .LVU503
	.loc 1 81 20 view .LVU504
.LBE743:
	.loc 1 78 70 is_stmt 0 view .LVU505
	vstr.32	s7, [sp, #12]
	add	r2, r0, #96
.LVL108:
.L49:
.LBB809:
.LBB744:
	.loc 1 82 3 is_stmt 1 view .LVU506
	.loc 1 83 3 view .LVU507
.LBE744:
	.loc 1 81 26 view .LVU508
	.loc 1 81 20 view .LVU509
	vldr.32	s10, [r3, #200]
	vldr.32	s8, [r3, #204]
	vldr.32	s15, [r3, #196]
.LBB805:
.LBB745:
.LBB746:
	.loc 2 121 28 is_stmt 0 view .LVU510
	vmul.f32	s13, s10, s2
	.loc 2 121 14 view .LVU511
	vmul.f32	s14, s3, s8
	.loc 2 121 42 view .LVU512
	vmul.f32	s12, s1, s15
	.loc 2 121 21 view .LVU513
	vadd.f32	s9, s14, s13
.LBE746:
.LBE745:
.LBB750:
.LBB751:
	.loc 2 121 14 view .LVU514
	vmul.f32	s8, s6, s8
	vldr.32	s11, [r3, #192]
.LVL109:
	.loc 2 121 14 view .LVU515
.LBE751:
.LBE750:
.LBB755:
.LBI745:
	.loc 2 118 21 is_stmt 1 view .LVU516
.LBB747:
	.loc 2 121 2 view .LVU517
.LBE747:
.LBE755:
.LBB756:
.LBB752:
	.loc 2 121 21 is_stmt 0 view .LVU518
	vadd.f32	s13, s8, s13
.LBE752:
.LBE756:
.LBB757:
.LBB748:
	.loc 2 121 35 view .LVU519
	vadd.f32	s4, s9, s12
.LBE748:
.LBE757:
.LBB758:
.LBB759:
	.loc 2 121 28 view .LVU520
	vmul.f32	s10, s5, s10
.LVL110:
	.loc 2 121 28 view .LVU521
.LBE759:
.LBE758:
	.loc 1 84 3 is_stmt 1 view .LVU522
.LBB764:
.LBI750:
	.loc 2 118 21 view .LVU523
.LBB753:
	.loc 2 121 2 view .LVU524
	.loc 2 121 35 is_stmt 0 view .LVU525
	vadd.f32	s7, s13, s12
.LBE753:
.LBE764:
.LBB765:
.LBB760:
	.loc 2 121 21 view .LVU526
	vadd.f32	s14, s10, s14
.LBE760:
.LBE765:
.LBB766:
.LBB749:
	.loc 2 121 49 view .LVU527
	vadd.f32	s4, s4, s11
.LBE749:
.LBE766:
.LBB767:
.LBB768:
	.loc 2 121 42 view .LVU528
	vmul.f32	s15, s0, s15
.LBE768:
.LBE767:
.LBB772:
.LBB773:
	.loc 2 121 21 view .LVU529
	vadd.f32	s10, s10, s8
.LBE773:
.LBE772:
	.loc 1 83 83 view .LVU530
	vcmpe.f32	s4, #0
.LBB777:
.LBB761:
	.loc 2 121 35 view .LVU531
	vadd.f32	s8, s14, s12
.LBE761:
.LBE777:
.LBB778:
.LBB754:
	.loc 2 121 49 view .LVU532
	vadd.f32	s7, s7, s11
.LBE754:
.LBE778:
	.loc 1 83 83 view .LVU533
	vmrs	APSR_nzcv, FPSCR
.LBB779:
.LBB769:
	.loc 2 121 35 view .LVU534
	vadd.f32	s9, s15, s9
.LVL111:
	.loc 2 121 35 view .LVU535
.LBE769:
.LBE779:
.LBB780:
.LBB774:
	vadd.f32	s12, s10, s12
.LVL112:
	.loc 2 121 35 view .LVU536
.LBE774:
.LBE780:
.LBB781:
.LBB782:
	vadd.f32	s13, s15, s13
.LBE782:
.LBE781:
.LBB785:
.LBB786:
	vadd.f32	s14, s15, s14
.LBE786:
.LBE785:
	.loc 1 84 83 view .LVU537
	vcmpe.f32	s7, #0
.LBB789:
.LBB790:
	.loc 2 121 35 view .LVU538
	vadd.f32	s15, s15, s10
.LBE790:
.LBE789:
.LBB793:
.LBB762:
	.loc 2 121 49 view .LVU539
	vadd.f32	s10, s8, s11
.LBE762:
.LBE793:
	.loc 1 83 83 view .LVU540
	movmi	r1, #1
	movpl	r1, #0
.LBB794:
.LBB775:
	.loc 2 121 49 view .LVU541
	vadd.f32	s12, s12, s11
.LBE775:
.LBE794:
	.loc 1 84 83 view .LVU542
	vmrs	APSR_nzcv, FPSCR
	.loc 1 85 83 view .LVU543
	vcmpe.f32	s10, #0
	.loc 1 84 83 view .LVU544
	movmi	ip, #1
	movpl	ip, #0
.LBB795:
.LBB770:
	.loc 2 121 49 view .LVU545
	vadd.f32	s9, s9, s11
.LBE770:
.LBE795:
	.loc 1 85 83 view .LVU546
	vmrs	APSR_nzcv, FPSCR
	.loc 1 86 83 view .LVU547
	vcmpe.f32	s12, #0
	.loc 1 84 7 view .LVU548
	add	r1, r1, ip
.LBB796:
.LBB783:
	.loc 2 121 49 view .LVU549
	vadd.f32	s13, s13, s11
.LBE783:
.LBE796:
	.loc 1 85 83 view .LVU550
	movmi	ip, #1
	movpl	ip, #0
	.loc 1 86 83 view .LVU551
	vmrs	APSR_nzcv, FPSCR
	.loc 1 87 83 view .LVU552
	vcmpe.f32	s9, #0
	.loc 1 85 7 view .LVU553
	add	ip, ip, r1
.LBB797:
.LBB787:
	.loc 2 121 49 view .LVU554
	vadd.f32	s14, s14, s11
.LVL113:
	.loc 2 121 49 view .LVU555
.LBE787:
.LBE797:
	.loc 1 85 3 is_stmt 1 view .LVU556
.LBB798:
.LBI758:
	.loc 2 118 21 view .LVU557
.LBB763:
	.loc 2 121 2 view .LVU558
	.loc 2 121 2 is_stmt 0 view .LVU559
.LBE763:
.LBE798:
	.loc 1 86 3 is_stmt 1 view .LVU560
.LBB799:
.LBI772:
	.loc 2 118 21 view .LVU561
.LBB776:
	.loc 2 121 2 view .LVU562
	.loc 2 121 2 is_stmt 0 view .LVU563
.LBE776:
.LBE799:
	.loc 1 86 83 view .LVU564
	movmi	r1, #1
	movpl	r1, #0
	.loc 1 87 83 view .LVU565
	vmrs	APSR_nzcv, FPSCR
	.loc 1 88 83 view .LVU566
	vcmpe.f32	s13, #0
	.loc 1 86 7 view .LVU567
	add	r1, r1, ip
.LVL114:
	.loc 1 87 3 is_stmt 1 view .LVU568
.LBB800:
.LBI767:
	.loc 2 118 21 view .LVU569
.LBB771:
	.loc 2 121 2 view .LVU570
	.loc 2 121 2 is_stmt 0 view .LVU571
.LBE771:
.LBE800:
.LBB801:
.LBB791:
	.loc 2 121 49 view .LVU572
	vadd.f32	s15, s15, s11
.LBE791:
.LBE801:
	.loc 1 87 83 view .LVU573
	movmi	ip, #1
	movpl	ip, #0
	.loc 1 88 83 view .LVU574
	vmrs	APSR_nzcv, FPSCR
	.loc 1 89 83 view .LVU575
	vcmpe.f32	s14, #0
	.loc 1 87 7 view .LVU576
	add	ip, ip, r1
.LVL115:
	.loc 1 88 3 is_stmt 1 view .LVU577
.LBB802:
.LBI781:
	.loc 2 118 21 view .LVU578
.LBB784:
	.loc 2 121 2 view .LVU579
	.loc 2 121 2 is_stmt 0 view .LVU580
.LBE784:
.LBE802:
	.loc 1 88 83 view .LVU581
	movmi	r1, #1
	movpl	r1, #0
	.loc 1 89 83 view .LVU582
	vmrs	APSR_nzcv, FPSCR
	.loc 1 90 83 view .LVU583
	vcmpe.f32	s15, #0
	.loc 1 88 7 view .LVU584
	add	r1, r1, ip
.LVL116:
	.loc 1 89 3 is_stmt 1 view .LVU585
.LBB803:
.LBI785:
	.loc 2 118 21 view .LVU586
.LBB788:
	.loc 2 121 2 view .LVU587
	.loc 2 121 2 is_stmt 0 view .LVU588
.LBE788:
.LBE803:
	.loc 1 89 83 view .LVU589
	movmi	ip, #1
	movpl	ip, #0
	.loc 1 90 83 view .LVU590
	vmrs	APSR_nzcv, FPSCR
	.loc 1 89 7 view .LVU591
	add	ip, ip, r1
.LVL117:
	.loc 1 90 3 is_stmt 1 view .LVU592
.LBB804:
.LBI789:
	.loc 2 118 21 view .LVU593
.LBB792:
	.loc 2 121 2 view .LVU594
	.loc 2 121 2 is_stmt 0 view .LVU595
.LBE792:
.LBE804:
	.loc 1 91 3 is_stmt 1 view .LVU596
	.loc 1 90 83 is_stmt 0 view .LVU597
	movmi	r1, #1
	movpl	r1, #0
	.loc 1 90 7 view .LVU598
	add	r1, r1, ip
	.loc 1 91 6 view .LVU599
	cmp	r1, #8
.LBE805:
	.loc 1 81 20 view .LVU600
	add	r3, r3, #16
.LVL118:
.LBB806:
	.loc 1 91 6 view .LVU601
	beq	.L60
.LBE806:
	.loc 1 81 20 discriminator 2 view .LVU602
	cmp	r2, r3
	bne	.L49
	mov	r3, r0
.LVL119:
	.loc 1 81 20 discriminator 2 view .LVU603
.LBE809:
	.loc 1 96 6 view .LVU604
	mov	r1, #0
.L50:
.LVL120:
.LBB810:
	.loc 1 97 30 is_stmt 1 discriminator 3 view .LVU605
	.loc 1 97 64 is_stmt 0 discriminator 3 view .LVU606
	vldr.32	s15, [r3, #288]
	vcmpe.f32	s6, s15
	vmrs	APSR_nzcv, FPSCR
	movmi	ip, #1
	movpl	ip, #0
	.loc 1 97 20 discriminator 3 view .LVU607
	add	r3, r3, #12
	cmp	r2, r3
	.loc 1 97 34 discriminator 3 view .LVU608
	add	r1, r1, ip
.LVL121:
	.loc 1 97 26 is_stmt 1 discriminator 3 view .LVU609
	.loc 1 97 20 discriminator 3 view .LVU610
	bne	.L50
.LBE810:
	.loc 1 98 2 view .LVU611
	.loc 1 98 5 is_stmt 0 view .LVU612
	cmp	r1, #8
	beq	.L60
	mov	r3, r0
	.loc 1 99 6 view .LVU613
	mov	r1, #0
.LVL122:
.L51:
.LBB811:
	.loc 1 100 30 is_stmt 1 discriminator 3 view .LVU614
	.loc 1 100 64 is_stmt 0 discriminator 3 view .LVU615
	vldr.32	s15, [r3, #288]
	vcmpe.f32	s15, s3
	vmrs	APSR_nzcv, FPSCR
	movmi	ip, #1
	movpl	ip, #0
	.loc 1 100 20 discriminator 3 view .LVU616
	add	r3, r3, #12
	cmp	r2, r3
	.loc 1 100 34 discriminator 3 view .LVU617
	add	r1, r1, ip
.LVL123:
	.loc 1 100 26 is_stmt 1 discriminator 3 view .LVU618
	.loc 1 100 20 discriminator 3 view .LVU619
	bne	.L51
.LBE811:
	.loc 1 101 2 view .LVU620
	.loc 1 101 5 is_stmt 0 view .LVU621
	cmp	r1, #8
	beq	.L60
	mov	r3, r0
	.loc 1 102 6 view .LVU622
	mov	r1, #0
.LVL124:
.L52:
.LBB812:
	.loc 1 103 30 is_stmt 1 discriminator 3 view .LVU623
	.loc 1 103 64 is_stmt 0 discriminator 3 view .LVU624
	vldr.32	s15, [r3, #292]
	vcmpe.f32	s5, s15
	vmrs	APSR_nzcv, FPSCR
	movmi	ip, #1
	movpl	ip, #0
	.loc 1 103 20 discriminator 3 view .LVU625
	add	r3, r3, #12
	cmp	r2, r3
	.loc 1 103 34 discriminator 3 view .LVU626
	add	r1, r1, ip
.LVL125:
	.loc 1 103 26 is_stmt 1 discriminator 3 view .LVU627
	.loc 1 103 20 discriminator 3 view .LVU628
	bne	.L52
.LBE812:
	.loc 1 104 2 view .LVU629
	.loc 1 104 5 is_stmt 0 view .LVU630
	cmp	r1, #8
	beq	.L60
	mov	r3, r0
	.loc 1 105 6 view .LVU631
	mov	r1, #0
.LVL126:
.L53:
.LBB813:
	.loc 1 106 30 is_stmt 1 discriminator 3 view .LVU632
	.loc 1 106 64 is_stmt 0 discriminator 3 view .LVU633
	vldr.32	s15, [r3, #292]
	vcmpe.f32	s15, s2
	vmrs	APSR_nzcv, FPSCR
	movmi	ip, #1
	movpl	ip, #0
	.loc 1 106 20 discriminator 3 view .LVU634
	add	r3, r3, #12
	cmp	r2, r3
	.loc 1 106 34 discriminator 3 view .LVU635
	add	r1, r1, ip
.LVL127:
	.loc 1 106 26 is_stmt 1 discriminator 3 view .LVU636
	.loc 1 106 20 discriminator 3 view .LVU637
	bne	.L53
.LBE813:
	.loc 1 107 2 view .LVU638
	.loc 1 107 5 is_stmt 0 view .LVU639
	cmp	r1, #8
	beq	.L60
	.loc 1 108 6 view .LVU640
	mov	r3, #0
.LVL128:
.L54:
.LBB814:
	.loc 1 109 30 is_stmt 1 discriminator 3 view .LVU641
	.loc 1 109 64 is_stmt 0 discriminator 3 view .LVU642
	vldr.32	s15, [r0, #296]
	vcmpe.f32	s0, s15
	vmrs	APSR_nzcv, FPSCR
	movmi	r1, #1
	movpl	r1, #0
	.loc 1 109 20 discriminator 3 view .LVU643
	add	r0, r0, #12
	cmp	r2, r0
	.loc 1 109 34 discriminator 3 view .LVU644
	add	r3, r3, r1
.LVL129:
	.loc 1 109 26 is_stmt 1 discriminator 3 view .LVU645
	.loc 1 109 20 discriminator 3 view .LVU646
	bne	.L54
.LBE814:
	.loc 1 110 2 view .LVU647
	.loc 1 110 5 is_stmt 0 view .LVU648
	cmp	r3, #8
.LBB815:
.LBB807:
	.loc 1 91 23 view .LVU649
	mov	r0, #0
.LBE807:
.LBE815:
	.loc 1 110 5 view .LVU650
	beq	.L48
.LVL130:
.L55:
.LBB816:
	.loc 1 112 30 is_stmt 1 discriminator 3 view .LVU651
	.loc 1 112 64 is_stmt 0 discriminator 3 view .LVU652
	vldr.32	s15, [lr, #296]
	vcmpe.f32	s15, s1
	vmrs	APSR_nzcv, FPSCR
	movmi	r3, #1
	movpl	r3, #0
	.loc 1 112 20 discriminator 3 view .LVU653
	add	lr, lr, #12
	cmp	r2, lr
	.loc 1 112 34 discriminator 3 view .LVU654
	add	r0, r0, r3
.LVL131:
	.loc 1 112 26 is_stmt 1 discriminator 3 view .LVU655
	.loc 1 112 20 discriminator 3 view .LVU656
	bne	.L55
.LBE816:
	.loc 1 113 2 view .LVU657
	.loc 1 113 5 is_stmt 0 view .LVU658
	subs	r0, r0, #8
.LVL132:
	.loc 1 113 5 view .LVU659
	movne	r0, #1
.LVL133:
	.loc 1 117 1 view .LVU660
	add	sp, sp, #36
	.cfi_remember_state
	.cfi_def_cfa_offset 4
	@ sp needed
	ldr	pc, [sp], #4
.LVL134:
.L60:
	.cfi_restore_state
.LBB817:
.LBB808:
	.loc 1 91 23 view .LVU661
	mov	r0, #0
.LVL135:
.L48:
	.loc 1 91 23 view .LVU662
.LBE808:
.LBE817:
	.loc 1 117 1 view .LVU663
	add	sp, sp, #36
	.cfi_def_cfa_offset 4
	@ sp needed
	ldr	pc, [sp], #4
	.cfi_endproc
.LFE227:
	.size	Camera_IsAABBVisible, .-Camera_IsAABBVisible
	.text
.Letext0:
	.file 4 "/opt/devkitpro/devkitARM/arm-none-eabi/include/machine/_default_types.h"
	.file 5 "/opt/devkitpro/devkitARM/arm-none-eabi/include/sys/_stdint.h"
	.file 6 "/home/tobi/Dokumente/Craftus-Next/include/world/Direction.h"
	.file 7 "/home/tobi/Dokumente/Craftus-Next/include/blocks/Block.h"
	.file 8 "/home/tobi/Dokumente/Craftus-Next/include/misc/Xorshift.h"
	.file 9 "/opt/devkitpro/devkitARM/lib/gcc/arm-none-eabi/11.2.0/include/stddef.h"
	.file 10 "/opt/devkitpro/devkitARM/arm-none-eabi/include/sys/lock.h"
	.file 11 "/home/tobi/Dokumente/Craftus-Next/include/rendering/VBOCache.h"
	.file 12 "/home/tobi/Dokumente/Craftus-Next/include/world/Chunk.h"
	.file 13 "/opt/devkitpro/libctru/include/3ds/synchronization.h"
	.file 14 "/home/tobi/Dokumente/Craftus-Next/include/world/WorkQueue.h"
	.file 15 "/home/tobi/Dokumente/Craftus-Next/include/world/World.h"
	.file 16 "/home/tobi/Dokumente/Craftus-Next/include/inventory/ItemStack.h"
	.file 17 "/home/tobi/Dokumente/Craftus-Next/include/misc/Raycast.h"
	.file 18 "/home/tobi/Dokumente/Craftus-Next/include/entity/Player.h"
	.file 19 "/opt/devkitpro/libctru/include/c3d/types.h"
	.file 20 "/home/tobi/Dokumente/Craftus-Next/include/rendering/Camera.h"
	.file 21 "/opt/devkitpro/devkitARM/arm-none-eabi/include/math.h"
	.file 22 "/opt/devkitpro/devkitARM/arm-none-eabi/include/string.h"
	.file 23 "/opt/devkitpro/libctru/include/3ds/types.h"
	.file 24 "<built-in>"