	.arch armv6k
	.eabi_attribute 28, 1
	.eabi_attribute 20, 1
	.eabi_attribute 21, 1
	.eabi_attribute 23, 3
	.eabi_attribute 24, 1
	.eabi_attribute 25, 1
	.eabi_attribute 26, 1
	.eabi_attribute 30, 2
	.eabi_attribute 34, 1
	.eabi_attribute 18, 4
	.file	"ChunkWorker.c"
	.text
.Ltext0:
	.cfi_sections	.debug_frame
	.section	.text.ChunkWorker_Mainloop,"ax",%progbits
	.align	2
	.global	ChunkWorker_Mainloop
	.syntax unified
	.arm
	.fpu vfp
	.type	ChunkWorker_Mainloop, %function
ChunkWorker_Mainloop:
.LVL0:
.LFB122:
	.file 1 "/home/tobi/Dokumente/Craftus-Next/source/world/ChunkWorker.c"
	.loc 1 61 40 view -0
	.cfi_startproc
	@ args = 0, pretend = 0, frame = 32
	@ frame_needed = 0, uses_anonymous_args = 0
	.loc 1 62 2 view .LVU1
	.loc 1 63 2 view .LVU2
	mov	r3, #0
	.loc 1 61 40 is_stmt 0 view .LVU3
	push	{r4, r5, r6, r7, r8, r9, r10, fp, lr}
	.cfi_def_cfa_offset 36
	.cfi_offset 4, -36
	.cfi_offset 5, -32
	.cfi_offset 6, -28
	.cfi_offset 7, -24
	.cfi_offset 8, -20
	.cfi_offset 9, -16
	.cfi_offset 10, -12
	.cfi_offset 11, -8
	.cfi_offset 14, -4
	mov	fp, r0
	sub	sp, sp, #44
	.cfi_def_cfa_offset 80
	.loc 1 63 2 view .LVU4
	str	r3, [sp, #16]
	str	r3, [sp, #20]
	str	r3, [sp, #24]
	.loc 1 64 2 is_stmt 1 view .LVU5
.LVL1:
	.loc 1 65 2 view .LVU6
.L2:
	.loc 1 65 37 view .LVU7
	ldr	r3, .L32
	ldr	r3, [r3]
	cmp	r3, fp
	beq	.L30
.L15:
	.loc 1 66 3 view .LVU8
	.loc 1 66 24 is_stmt 0 view .LVU9
	mov	r3, #0
	.loc 1 68 3 view .LVU10
	add	r0, fp, #16
	.loc 1 66 24 view .LVU11
	strb	r3, [fp, #88]
	.loc 1 68 3 is_stmt 1 view .LVU12
	str	r0, [sp, #12]
	bl	LightEvent_Wait
.LVL2:
	.loc 1 69 3 view .LVU13
	ldr	r0, [sp, #12]
	bl	LightEvent_Clear
.LVL3:
	.loc 1 71 3 view .LVU14
	.loc 1 71 24 is_stmt 0 view .LVU15
	mov	r3, #1
	.loc 1 73 3 view .LVU16
	add	r4, fp, #24
	mov	r0, r4
	.loc 1 71 24 view .LVU17
	strb	r3, [fp, #88]
	.loc 1 73 3 is_stmt 1 view .LVU18
	bl	LightLock_Lock
.LVL4:
	.loc 1 74 3 view .LVU19
.LBB2:
	.loc 1 74 8 view .LVU20
	.loc 1 74 17 is_stmt 0 view .LVU21
	ldr	r5, [fp, #8]
.LVL5:
	.loc 1 74 58 is_stmt 1 view .LVU22
	.loc 1 74 62 is_stmt 0 view .LVU23
	ldr	r2, [sp, #20]
	mov	r3, #12
	add	r2, r5, r2
	str	r2, [sp]
	add	r0, sp, #16
	add	r2, sp, #24
	add	r1, sp, #20
	bl	vec_reserve_po2_
.LVL6:
	.loc 1 74 61 view .LVU24
	subs	r3, r0, #0
	beq	.L3
.LVL7:
.L6:
	.loc 1 74 61 view .LVU25
.LBE2:
	.loc 1 74 6 is_stmt 1 view .LVU26
	.loc 1 75 3 view .LVU27
	.loc 1 75 40 is_stmt 0 view .LVU28
	mov	r3, #0
	.loc 1 76 3 view .LVU29
	mov	r0, r4
	.loc 1 75 40 view .LVU30
	str	r3, [fp, #8]
	.loc 1 76 3 is_stmt 1 view .LVU31
	bl	LightLock_Unlock
.LVL8:
	.loc 1 78 3 view .LVU32
	.loc 1 78 30 view .LVU33
	.loc 1 78 22 is_stmt 0 view .LVU34
	ldr	r3, [sp, #20]
	.loc 1 78 30 view .LVU35
	cmp	r3, #0
	ble	.L2
.LBB3:
.LBB4:
	.loc 1 84 7 view .LVU36
	add	r2, fp, #4
	str	fp, [sp, #12]
	add	r6, sp, #28
	mov	fp, r2
	b	.L4
.LVL9:
.L8:
	.loc 1 84 7 view .LVU37
.LBE4:
.LBE3:
	.loc 1 78 30 is_stmt 1 view .LVU38
	cmp	r3, #0
	ble	.L31
.L4:
.LBB6:
	.loc 1 79 4 view .LVU39
	.loc 1 79 44 is_stmt 0 view .LVU40
	sub	r3, r3, #1
	.loc 1 79 37 view .LVU41
	ldr	ip, [sp, #16]
	.loc 1 79 43 view .LVU42
	add	lr, r3, r3, lsl #1
	add	r2, ip, lr, lsl #2
	.loc 1 79 15 view .LVU43
	ldm	r2, {r0, r1, r2}
	mov	r7, r2
	stm	r6, {r0, r1, r2}
.LVL10:
	.loc 1 81 7 view .LVU44
	ldr	r2, [r1, #8]
	.loc 1 79 15 view .LVU45
	mov	r5, r1
.LVL11:
	.loc 1 81 4 is_stmt 1 view .LVU46
	.loc 1 81 7 is_stmt 0 view .LVU47
	cmp	r7, r2
	.loc 1 79 15 view .LVU48
	str	r3, [sp, #20]
.LVL12:
	.loc 1 81 7 view .LVU49
	bne	.L8
	.loc 1 79 15 view .LVU50
	ldrb	r9, [ip, lr, lsl #2]	@ zero_extendqisi2
.LVL13:
.LBB5:
	.loc 1 82 23 is_stmt 1 view .LVU51
	.loc 1 82 56 is_stmt 0 view .LVU52
	ldr	r3, [sp, #12]
	add	r8, r9, r9, lsl #1
	add	r8, r3, r8, lsl #2
	.loc 1 82 23 view .LVU53
	ldr	r3, [r8, #32]
	cmp	r3, #0
	.loc 1 82 14 view .LVU54
	movgt	r4, #0
	.loc 1 82 23 view .LVU55
	ble	.L13
.LVL14:
.L9:
	.loc 1 83 6 is_stmt 1 view .LVU56
	.loc 1 84 7 view .LVU57
	.loc 1 83 46 is_stmt 0 view .LVU58
	ldr	r3, [r8, #28]
	add	r2, r4, r4, lsl #1
	add	r1, r3, r2, lsl #2
	.loc 1 83 9 view .LVU59
	ldrb	r0, [r1, #8]	@ zero_extendqisi2
	.loc 1 82 66 view .LVU60
	add	r4, r4, #1
.LVL15:
	.loc 1 83 9 view .LVU61
	cmp	r0, #0
	beq	.L12
	.loc 1 84 7 view .LVU62
	ldr	r1, [r1, #4]
	.loc 1 84 46 view .LVU63
	ldr	r10, [r3, r2, lsl #2]
	.loc 1 84 7 view .LVU64
	strb	r9, [sp, #28]
	str	r5, [sp, #32]
	str	r7, [sp, #36]
	str	r1, [sp]
	mov	r0, fp
	ldm	r6, {r1, r2, r3}
	blx	r10
.LVL16:
.L12:
	.loc 1 86 6 is_stmt 1 discriminator 2 view .LVU65
	mov	r1, #0
	ldr	r0, .L32+4
	bl	svcSleepThread
.LVL17:
	.loc 1 82 66 discriminator 2 view .LVU66
	.loc 1 82 23 discriminator 2 view .LVU67
	ldr	r3, [r8, #32]
	cmp	r3, r4
	bgt	.L9
.LVL18:
.L13:
	.loc 1 82 23 is_stmt 0 discriminator 2 view .LVU68
.LBE5:
	.loc 1 89 5 is_stmt 1 view .LVU69
	.loc 1 100 5 is_stmt 0 view .LVU70
	ldr	r3, [r5]
	.loc 1 89 5 view .LVU71
	cmp	r9, #2
	.loc 1 100 5 view .LVU72
	sub	r3, r3, #1
	.loc 1 89 5 view .LVU73
	beq	.L17
	cmp	r9, #3
	beq	.L18
	.loc 1 100 5 is_stmt 1 view .LVU74
	.loc 1 101 8 is_stmt 0 view .LVU75
	cmp	r9, #4
	.loc 1 100 5 view .LVU76
	str	r3, [r5]
	.loc 1 101 5 is_stmt 1 view .LVU77
	.loc 1 101 46 view .LVU78
	ldreq	r3, [r5, #4]
	subeq	r3, r3, #1
	streq	r3, [r5, #4]
.L14:
	.loc 1 103 5 view .LVU79
	mov	r0, #1000
	mov	r1, #0
	bl	svcSleepThread
.LVL19:
.LBE6:
	.loc 1 78 22 is_stmt 0 view .LVU80
	ldr	r3, [sp, #20]
.LVL20:
	.loc 1 78 30 is_stmt 1 view .LVU81
	cmp	r3, #0
	bgt	.L4
.L31:
	.loc 1 65 37 is_stmt 0 view .LVU82
	ldr	r3, .L32
	ldr	fp, [sp, #12]
	.loc 1 65 37 is_stmt 1 view .LVU83
	ldr	r3, [r3]
	cmp	r3, fp
	bne	.L15
.L30:
	.loc 1 65 37 is_stmt 0 discriminator 1 view .LVU84
	ldr	r3, [fp, #8]
	cmp	r3, #0
	bgt	.L15
	.loc 1 107 2 is_stmt 1 view .LVU85
	.loc 1 107 4 is_stmt 0 view .LVU86
	ldr	r0, [sp, #16]
	bl	free
.LVL21:
	.loc 1 108 1 view .LVU87
	add	sp, sp, #44
	.cfi_remember_state
	.cfi_def_cfa_offset 36
	@ sp needed
	pop	{r4, r5, r6, r7, r8, r9, r10, fp, pc}
.LVL22:
.L18:
	.cfi_restore_state
.LBB7:
	.loc 1 89 5 view .LVU88
	mov	r2, #2
.L10:
	.loc 1 94 31 view .LVU89
	strb	r2, [r5, #12]
	.loc 1 100 5 is_stmt 1 view .LVU90
	str	r3, [r5]
	.loc 1 101 5 view .LVU91
	b	.L14
.L17:
	.loc 1 89 5 is_stmt 0 view .LVU92
	mov	r2, #1
	b	.L10
.LVL23:
.L3:
	.loc 1 89 5 view .LVU93
.LBE7:
.LBB8:
	.loc 1 74 259 is_stmt 1 view .LVU94
	cmp	r5, #0
	ble	.L6
	.loc 1 74 312 is_stmt 0 view .LVU95
	ldr	r2, [sp, #20]
	ldr	r6, [sp, #16]
	add	lr, r2, #1
	.loc 1 74 351 view .LVU96
	ldr	r7, [fp, #4]
	add	r2, r2, r2, lsl #1
	add	r5, lr, r5
.LVL24:
	.loc 1 74 351 view .LVU97
	add	r6, r6, r2, lsl #2
.LVL25:
.L7:
	.loc 1 74 275 is_stmt 1 discriminator 5 view .LVU98
	.loc 1 74 320 is_stmt 0 discriminator 5 view .LVU99
	str	lr, [sp, #20]
	.loc 1 74 259 discriminator 5 view .LVU100
	add	lr, lr, #1
	.loc 1 74 324 discriminator 5 view .LVU101
	add	ip, r6, r3
	add	r2, r7, r3
	.loc 1 74 259 discriminator 5 view .LVU102
	cmp	lr, r5
	.loc 1 74 324 discriminator 5 view .LVU103
	ldm	r2, {r0, r1, r2}
	add	r3, r3, #12
	.loc 1 74 269 is_stmt 1 discriminator 5 view .LVU104
	.loc 1 74 259 discriminator 5 view .LVU105
	.loc 1 74 324 is_stmt 0 discriminator 5 view .LVU106
	stm	ip, {r0, r1, r2}
	.loc 1 74 259 discriminator 5 view .LVU107
	bne	.L7
	b	.L6
.L33:
	.align	2
.L32:
	.word	.LANCHOR0
	.word	7000
.LBE8:
	.cfi_endproc
.LFE122:
	.size	ChunkWorker_Mainloop, .-ChunkWorker_Mainloop
	.section	.rodata.str1.4,"aMS",%progbits,1
	.align	2
.LC0:
	.ascii	"Couldn't set AppCpuTimeLimit\000"
	.align	2
.LC1:
	.ascii	"Couldn't create worker thread\000"
	.section	.text.ChunkWorker_Init,"ax",%progbits
	.align	2
	.global	ChunkWorker_Init
	.syntax unified
	.arm
	.fpu vfp
	.type	ChunkWorker_Init, %function
ChunkWorker_Init:
.LVL26:
.LFB117:
	.loc 1 7 49 is_stmt 1 view -0
	.cfi_startproc
	@ args = 0, pretend = 0, frame = 8
	@ frame_needed = 0, uses_anonymous_args = 0
	.loc 1 8 2 view .LVU109
	.loc 1 7 49 is_stmt 0 view .LVU110
	push	{r4, r5, lr}
	.cfi_def_cfa_offset 12
	.cfi_offset 4, -12
	.cfi_offset 5, -8
	.cfi_offset 14, -4
.LBB12:
.LBB13:
	.file 2 "/home/tobi/Dokumente/Craftus-Next/include/world/WorkQueue.h"
	.loc 2 36 2 view .LVU111
	mov	r3, #0
.LBE13:
.LBE12:
	.loc 1 7 49 view .LVU112
	mov	r5, r0
.LVL27:
.LBB16:
.LBI12:
	.loc 2 35 13 is_stmt 1 view .LVU113
.LBB14:
	.loc 2 36 2 view .LVU114
.LBE14:
.LBE16:
	.loc 1 7 49 is_stmt 0 view .LVU115
	sub	sp, sp, #20
	.cfi_def_cfa_offset 32
.LBB17:
.LBB15:
	.loc 2 36 2 view .LVU116
	str	r3, [r5, #4]	@ unaligned
	str	r3, [r5, #8]	@ unaligned
	str	r3, [r5, #12]	@ unaligned
	.loc 2 37 2 is_stmt 1 view .LVU117
	add	r0, r0, #24
.LVL28:
	.loc 2 37 2 is_stmt 0 view .LVU118
	bl	LightLock_Init
.LVL29:
	.loc 2 38 2 is_stmt 1 view .LVU119
	mov	r1, #1
	add	r0, r5, #16
	bl	LightEvent_Init
.LVL30:
	.loc 2 38 2 is_stmt 0 view .LVU120
.LBE15:
.LBE17:
	.loc 1 10 2 is_stmt 1 view .LVU121
	.loc 1 10 8 is_stmt 0 view .LVU122
	mov	r0, #30
	bl	APT_SetAppCpuTimeLimit
.LVL31:
	.loc 1 10 5 view .LVU123
	cmp	r0, #0
	blt	.L40
.L35:
.LBB18:
	.loc 1 14 50 discriminator 3 view .LVU124
	mov	r4, #0
	add	r3, r5, #28
	add	r2, r5, #88
.L36:
	.loc 1 14 50 is_stmt 1 discriminator 3 view .LVU125
	str	r4, [r3]	@ unaligned
	str	r4, [r3, #4]	@ unaligned
	str	r4, [r3, #8]	@ unaligned
	.loc 1 14 46 discriminator 3 view .LVU126
	.loc 1 14 20 discriminator 3 view .LVU127
	add	r3, r3, #12
	cmp	r3, r2
	bne	.L36
.LBE18:
	.loc 1 16 2 view .LVU128
	.loc 1 17 1 view .LVU129
	.loc 1 18 2 is_stmt 0 view .LVU130
	add	r0, sp, #11
	.loc 1 17 6 view .LVU131
	strb	r4, [sp, #11]
	.loc 1 18 2 is_stmt 1 view .LVU132
	bl	APT_CheckNew3DS
.LVL32:
	.loc 1 19 2 view .LVU133
	ldr	r1, .L42
	add	r0, sp, #12
	bl	svcGetThreadPriority
.LVL33:
	.loc 1 20 2 view .LVU134
	.loc 1 21 6 is_stmt 0 view .LVU135
	ldrb	r1, [sp, #11]	@ zero_extendqisi2
	.loc 1 21 80 view .LVU136
	ldr	r3, [sp, #12]
	.loc 1 21 6 view .LVU137
	add	r1, r1, #1
	stm	sp, {r1, r4}
	mov	r2, #16384
	mov	r1, r5
	ldr	r0, .L42+4
	sub	r3, r3, #1
	bl	threadCreate
.LVL34:
	.loc 1 22 5 view .LVU138
	cmp	r0, #0
	.loc 1 20 22 view .LVU139
	str	r0, [r5]
	.loc 1 22 2 is_stmt 1 view .LVU140
	.loc 1 22 5 is_stmt 0 view .LVU141
	beq	.L41
	.loc 1 26 2 is_stmt 1 view .LVU142
	.loc 1 26 23 is_stmt 0 view .LVU143
	mov	r3, #0
	strb	r3, [r5, #88]
	.loc 1 27 1 view .LVU144
	add	sp, sp, #20
	.cfi_remember_state
	.cfi_def_cfa_offset 12
	@ sp needed
	pop	{r4, r5, pc}
.LVL35:
.L40:
	.cfi_restore_state
	.loc 1 11 3 is_stmt 1 view .LVU145
	ldr	r0, .L42+8
	bl	Crash
.LVL36:
	b	.L35
.L41:
	.loc 1 23 3 view .LVU146
	ldr	r0, .L42+12
	bl	Crash
.LVL37:
	.loc 1 26 2 view .LVU147
	.loc 1 26 23 is_stmt 0 view .LVU148
	mov	r3, #0
	strb	r3, [r5, #88]
	.loc 1 27 1 view .LVU149
	add	sp, sp, #20
	.cfi_def_cfa_offset 12
	@ sp needed
	pop	{r4, r5, pc}
.LVL38:
.L43:
	.loc 1 27 1 view .LVU150
	.align	2
.L42:
	.word	-32768
	.word	ChunkWorker_Mainloop
	.word	.LC0
	.word	.LC1
	.cfi_endproc
.LFE117:
	.size	ChunkWorker_Init, .-ChunkWorker_Init
	.section	.text.ChunkWorker_Deinit,"ax",%progbits
	.align	2
	.global	ChunkWorker_Deinit
	.syntax unified
	.arm
	.fpu vfp
	.type	ChunkWorker_Deinit, %function
ChunkWorker_Deinit:
.LVL39:
.LFB118:
	.loc 1 30 51 is_stmt 1 view -0
	.cfi_startproc
	@ args = 0, pretend = 0, frame = 0
	@ frame_needed = 0, uses_anonymous_args = 0
	.loc 1 31 2 view .LVU152
	.loc 1 30 51 is_stmt 0 view .LVU153
	push	{r4, r5, r6, r7, r8, lr}
	.cfi_def_cfa_offset 24
	.cfi_offset 4, -24
	.cfi_offset 5, -20
	.cfi_offset 6, -16
	.cfi_offset 7, -12
	.cfi_offset 8, -8
	.cfi_offset 14, -4
	.loc 1 30 51 view .LVU154
	mov	r7, r0
.LBB22:
.LBB23:
	.loc 2 40 52 view .LVU155
	mov	r6, r7
	.loc 2 40 81 view .LVU156
	mov	r5, #0
.LBE23:
.LBE22:
	.loc 1 31 15 view .LVU157
	ldr	r3, .L49
	.loc 1 32 2 view .LVU158
	add	r0, r0, #16
.LVL40:
	.loc 1 31 15 view .LVU159
	str	r7, [r3]
	.loc 1 32 2 is_stmt 1 view .LVU160
	bl	LightEvent_Signal
.LVL41:
	.loc 1 33 2 view .LVU161
	mvn	r2, #0
	mvn	r3, #0
	ldr	r0, [r7]
	bl	threadJoin
.LVL42:
	.loc 1 35 2 view .LVU162
	ldr	r0, [r7]
	bl	threadFree
.LVL43:
	.loc 1 36 2 view .LVU163
.LBB25:
.LBI22:
	.loc 2 40 13 view .LVU164
.LBB24:
	.loc 2 40 50 view .LVU165
	.loc 2 40 52 is_stmt 0 view .LVU166
	ldr	r0, [r6, #4]!
.LVL44:
	.loc 2 40 52 view .LVU167
	bl	free
.LVL45:
	add	r4, r7, #28
	.loc 2 40 81 view .LVU168
	str	r5, [r7, #4]	@ unaligned
	add	r8, r7, #88
	str	r5, [r6, #4]	@ unaligned
	str	r5, [r6, #8]	@ unaligned
.LVL46:
	.loc 2 40 81 view .LVU169
.LBE24:
.LBE25:
.LBB26:
	.loc 1 38 20 is_stmt 1 view .LVU170
.L45:
	.loc 1 39 3 discriminator 3 view .LVU171
	.loc 1 39 5 is_stmt 0 discriminator 3 view .LVU172
	ldr	r0, [r4]
	.loc 1 38 20 discriminator 3 view .LVU173
	add	r4, r4, #12
	.loc 1 39 5 discriminator 3 view .LVU174
	bl	free
.LVL47:
	.loc 1 38 20 discriminator 3 view .LVU175
	cmp	r4, r8
	.loc 1 39 45 discriminator 3 view .LVU176
	str	r5, [r4, #-12]	@ unaligned
	str	r5, [r4, #-8]	@ unaligned
	str	r5, [r4, #-4]	@ unaligned
	.loc 1 38 46 is_stmt 1 discriminator 3 view .LVU177
	.loc 1 38 20 discriminator 3 view .LVU178
	bne	.L45
	pop	{r4, r5, r6, r7, r8, pc}
.L50:
	.align	2
.L49:
	.word	.LANCHOR0
.LBE26:
	.cfi_endproc
.LFE118:
	.size	ChunkWorker_Deinit, .-ChunkWorker_Deinit
	.section	.text.ChunkWorker_Finish,"ax",%progbits
	.align	2
	.global	ChunkWorker_Finish
	.syntax unified
	.arm
	.fpu vfp
	.type	ChunkWorker_Finish, %function
ChunkWorker_Finish:
.LVL48:
.LFB119:
	.loc 1 43 51 view -0
	.cfi_startproc
	@ args = 0, pretend = 0, frame = 0
	@ frame_needed = 0, uses_anonymous_args = 0
	.loc 1 44 2 view .LVU180
	.loc 1 43 51 is_stmt 0 view .LVU181
	push	{r4, r6, r7, lr}
	.cfi_def_cfa_offset 16
	.cfi_offset 4, -16
	.cfi_offset 6, -12
	.cfi_offset 7, -8
	.cfi_offset 14, -4
	.loc 1 43 51 view .LVU182
	mov	r4, r0
	.loc 1 44 2 view .LVU183
	add	r0, r0, #16
.LVL49:
	.loc 1 45 70 view .LVU184
	mov	r7, #0
	ldr	r6, .L56
	.loc 1 44 2 view .LVU185
	bl	LightEvent_Signal
.LVL50:
	.loc 1 45 2 is_stmt 1 view .LVU186
.L52:
	.loc 1 45 70 discriminator 1 view .LVU187
	.loc 1 45 30 discriminator 1 view .LVU188
	.loc 1 45 20 is_stmt 0 discriminator 1 view .LVU189
	ldrb	r3, [r4, #88]	@ zero_extendqisi2
	.loc 1 45 30 discriminator 1 view .LVU190
	cmp	r3, #0
	bne	.L53
	.loc 1 45 30 discriminator 3 view .LVU191
	ldr	r3, [r4, #8]
	cmp	r3, #0
	pople	{r4, r6, r7, pc}
.L53:
	.loc 1 45 70 discriminator 4 view .LVU192
	mov	r0, r6
	mov	r1, r7
	bl	svcSleepThread
.LVL51:
	b	.L52
.L57:
	.align	2
.L56:
	.word	1000000
	.cfi_endproc
.LFE119:
	.size	ChunkWorker_Finish, .-ChunkWorker_Finish
	.section	.text.ChunkWorker_AddHandler,"ax",%progbits
	.align	2
	.global	ChunkWorker_AddHandler
	.syntax unified
	.arm
	.fpu vfp
	.type	ChunkWorker_AddHandler, %function
ChunkWorker_AddHandler:
.LVL52:
.LFB120:
	.loc 1 48 95 is_stmt 1 view -0
	.cfi_startproc
	@ args = 12, pretend = 8, frame = 0
	@ frame_needed = 0, uses_anonymous_args = 0
	.loc 1 49 2 view .LVU194
	.loc 1 48 95 is_stmt 0 view .LVU195
	sub	sp, sp, #8
	.cfi_def_cfa_offset 8
	push	{r4, r5, r6, lr}
	.cfi_def_cfa_offset 24
	.cfi_offset 4, -24
	.cfi_offset 5, -20
	.cfi_offset 6, -16
	.cfi_offset 14, -12
	.loc 1 48 95 view .LVU196
	mov	r5, r0
	add	r1, r1, r1, lsl #1
.LVL53:
	.loc 1 48 95 view .LVU197
	lsl	r4, r1, #2
	add	r6, sp, #16
	stm	r6, {r2, r3}
	.loc 1 49 4 view .LVU198
	add	r1, r4, #32
	add	r2, r4, #36
	.loc 1 49 24 view .LVU199
	add	r0, r4, #28
.LVL54:
	.loc 1 49 4 view .LVU200
	mov	r3, #12
	add	r2, r5, r2
	add	r1, r5, r1
	add	r0, r5, r0
	bl	vec_expand_
.LVL55:
	.loc 1 49 195 view .LVU201
	cmp	r0, #0
	bne	.L58
	.loc 1 49 227 discriminator 1 view .LVU202
	add	r5, r5, r4
.LVL56:
	.loc 1 49 263 discriminator 1 view .LVU203
	ldr	r2, [r5, #32]
	.loc 1 49 227 discriminator 1 view .LVU204
	ldr	r3, [r5, #28]
	.loc 1 49 271 discriminator 1 view .LVU205
	add	r1, r2, #1
	.loc 1 49 275 discriminator 1 view .LVU206
	add	r2, r2, r2, lsl #1
	add	r3, r3, r2, lsl #2
	.loc 1 49 271 discriminator 1 view .LVU207
	str	r1, [r5, #32]
	.loc 1 49 275 discriminator 1 view .LVU208
	ldm	r6, {r0, r1, r2}
	stm	r3, {r0, r1, r2}
.L58:
	.loc 1 50 1 view .LVU209
	pop	{r4, r5, r6, lr}
	.cfi_restore 14
	.cfi_restore 6
	.cfi_restore 5
	.cfi_restore 4
	.cfi_def_cfa_offset 8
	add	sp, sp, #8
	.cfi_def_cfa_offset 0
	bx	lr
	.cfi_endproc
.LFE120:
	.size	ChunkWorker_AddHandler, .-ChunkWorker_AddHandler
	.section	.text.ChunkWorker_SetHandlerActive,"ax",%progbits
	.align	2
	.global	ChunkWorker_SetHandlerActive
	.syntax unified
	.arm
	.fpu vfp
	.type	ChunkWorker_SetHandlerActive, %function
ChunkWorker_SetHandlerActive:
.LVL57:
.LFB121:
	.loc 1 52 106 is_stmt 1 view -0
	.cfi_startproc
	@ args = 0, pretend = 0, frame = 0
	@ frame_needed = 0, uses_anonymous_args = 0
	.loc 1 53 2 view .LVU211
.LBB27:
	.loc 1 53 7 view .LVU212
	.loc 1 53 23 view .LVU213
	.loc 1 53 51 is_stmt 0 view .LVU214
	add	r1, r1, r1, lsl #1
.LVL58:
	.loc 1 53 51 view .LVU215
	add	r0, r0, r1, lsl #2
.LVL59:
	.loc 1 53 51 view .LVU216
.LBE27:
	.loc 1 52 106 view .LVU217
	str	lr, [sp, #-4]!
	.cfi_def_cfa_offset 4
	.cfi_offset 14, -4
.LBB28:
	.loc 1 53 51 view .LVU218
	ldr	lr, [r0, #32]
	.loc 1 53 23 view .LVU219
	cmp	lr, #0
	ldreq	pc, [sp], #4
	.loc 1 53 14 view .LVU220
	mov	ip, #0
	ldr	r1, [r0, #28]
	b	.L64
.LVL60:
.L63:
	.loc 1 53 23 discriminator 2 view .LVU221
	cmp	ip, lr
	add	r1, r1, #12
	ldreq	pc, [sp], #4
.LVL61:
.L64:
	.loc 1 54 3 is_stmt 1 view .LVU222
	.loc 1 53 61 view .LVU223
	.loc 1 54 6 is_stmt 0 view .LVU224
	ldr	r0, [r1, #4]
	.loc 1 53 61 view .LVU225
	add	ip, ip, #1
.LVL62:
	.loc 1 53 23 is_stmt 1 view .LVU226
	.loc 1 54 6 is_stmt 0 view .LVU227
	cmp	r0, r2
	bne	.L63
	.loc 1 55 4 is_stmt 1 view .LVU228
	.loc 1 55 46 is_stmt 0 view .LVU229
	strb	r3, [r1, #8]
	.loc 1 56 4 is_stmt 1 view .LVU230
	ldr	pc, [sp], #4
.LBE28:
	.cfi_endproc
.LFE121:
	.size	ChunkWorker_SetHandlerActive, .-ChunkWorker_SetHandlerActive
	.bss
	.align	2
	.set	.LANCHOR0,. + 0
	.type	workerToStop, %object
	.size	workerToStop, 4
workerToStop:
	.space	4
	.text
.Letext0:
	.file 3 "/opt/devkitpro/devkitARM/arm-none-eabi/include/machine/_default_types.h"
	.file 4 "/opt/devkitpro/devkitARM/arm-none-eabi/include/sys/_stdint.h"
	.file 5 "/opt/devkitpro/devkitARM/lib/gcc/arm-none-eabi/11.2.0/include/stddef.h"
	.file 6 "/opt/devkitpro/libctru/include/3ds/types.h"
	.file 7 "/opt/devkitpro/libctru/include/3ds/svc.h"
	.file 8 "/opt/devkitpro/devkitARM/arm-none-eabi/include/sys/lock.h"
	.file 9 "/opt/devkitpro/libctru/include/3ds/synchronization.h"
	.file 10 "/opt/devkitpro/libctru/include/3ds/thread.h"
	.file 11 "/opt/devkitpro/libctru/include/3ds/services/csnd.h"
	.file 12 "/opt/devkitpro/libctru/include/3ds/services/ndm.h"
	.file 13 "/opt/devkitpro/libctru/include/3ds/gpu/enums.h"
	.file 14 "/opt/devkitpro/libctru/include/3ds/ndsp/channel.h"
	.file 15 "/opt/devkitpro/libctru/include/3ds/applets/error.h"
	.file 16 "/home/tobi/Dokumente/Craftus-Next/include/blocks/Block.h"
	.file 17 "/home/tobi/Dokumente/Craftus-Next/include/rendering/VBOCache.h"
	.file 18 "/home/tobi/Dokumente/Craftus-Next/include/world/Chunk.h"
	.file 19 "/home/tobi/Dokumente/Craftus-Next/include/world/ChunkWorker.h"
	.file 20 "/home/tobi/Dokumente/Craftus-Next/dependencies/vec/vec.h"
	.file 21 "/opt/devkitpro/devkitARM/arm-none-eabi/include/stdlib.h"
	.file 22 "/opt/devkitpro/libctru/include/3ds/services/apt.h"
	.file 23 "/opt/devkitpro/devkitARM/arm-none-eabi/include/string.h"
	.file 24 "/home/tobi/Dokumente/Craftus-Next/include/misc/Crash.h"