	.arch armv6k
	.eabi_attribute 28, 1
	.eabi_attribute 20, 1
	.eabi_attribute 21, 1
	.eabi_attribute 23, 3
	.eabi_attribute 24, 1
	.eabi_attribute 25, 1
	.eabi_attribute 26, 1
	.eabi_attribute 30, 2
	.eabi_attribute 34, 1
	.eabi_attribute 18, 4
	.file	"Clouds.c"
	.text
.Ltext0:
	.cfi_sections	.debug_frame
	.section	.text.Clouds_Init,"ax",%progbits
	.align	2
	.global	Clouds_Init
	.syntax unified
	.arm
	.fpu vfp
	.type	Clouds_Init, %function
Clouds_Init:
.LFB206:
	.file 1 "/home/tobi/Dokumente/Craftus-Next/source/rendering/Clouds.c"
	.loc 1 24 20 view -0
	.cfi_startproc
	@ args = 0, pretend = 0, frame = 8
	@ frame_needed = 0, uses_anonymous_args = 0
	.loc 1 25 2 view .LVU1
	.loc 1 24 20 is_stmt 0 view .LVU2
	push	{r4, r5, r6, r7, r8, lr}
	.cfi_def_cfa_offset 24
	.cfi_offset 4, -24
	.cfi_offset 5, -20
	.cfi_offset 6, -16
	.cfi_offset 7, -12
	.cfi_offset 8, -8
	.cfi_offset 14, -4
	vpush.64	{d8, d9, d10, d11}
	.cfi_def_cfa_offset 56
	.cfi_offset 80, -56
	.cfi_offset 81, -52
	.cfi_offset 82, -48
	.cfi_offset 83, -44
	.cfi_offset 84, -40
	.cfi_offset 85, -36
	.cfi_offset 86, -32
	.cfi_offset 87, -28
	.loc 1 25 27 view .LVU3
	mov	r0, #4096
	.loc 1 24 20 view .LVU4
	sub	sp, sp, #8
	.cfi_def_cfa_offset 64
	.loc 1 25 27 view .LVU5
	bl	malloc
.LVL0:
.LBB30:
	.loc 1 26 11 view .LVU6
	mov	r6, #0
.LBB31:
.LBB32:
	.loc 1 28 18 view .LVU7
	vldr.32	s23, .L10
	vldr.32	s18, .L10+4
.LBB33:
	.loc 1 30 14 view .LVU8
	vldr.32	s22, .L10+8
.LBE33:
	.loc 1 32 29 view .LVU9
	vldr.32	s21, .L10+12
.LBE32:
.LBE31:
.LBE30:
	.loc 1 25 27 view .LVU10
	mov	r8, r0
.LVL1:
	.loc 1 26 2 is_stmt 1 view .LVU11
.LBB41:
	.loc 1 26 7 view .LVU12
	.loc 1 26 20 view .LVU13
	sub	r7, r0, #1
.LVL2:
.L2:
.LBB40:
	.loc 1 27 21 view .LVU14
.LBB37:
	.loc 1 28 18 is_stmt 0 view .LVU15
	vmov	s15, r6	@ int
	vcvt.f32.s32	s19, s15
	mov	r5, r7
.LBE37:
	.loc 1 27 12 view .LVU16
	mov	r4, #0
.LBB38:
	.loc 1 28 18 view .LVU17
	vmul.f32	s20, s19, s23
.LVL3:
.L4:
	.loc 1 28 4 is_stmt 1 view .LVU18
	.loc 1 28 18 is_stmt 0 view .LVU19
	vmov	s15, r4	@ int
	vcvt.f32.s32	s17, s15
	vmov.f32	s1, s20
	vmul.f32	s0, s17, s18
	bl	sino_2d
.LVL4:
.LBB34:
	.loc 1 30 14 view .LVU20
	vmul.f32	s17, s17, s22
	vmul.f32	s1, s19, s18
.LBE34:
	.loc 1 28 18 view .LVU21
	vmov.f32	s16, s0
.LVL5:
	.loc 1 29 4 is_stmt 1 view .LVU22
.LBB35:
	.loc 1 29 9 view .LVU23
	.loc 1 29 22 view .LVU24
	.loc 1 30 5 view .LVU25
	.loc 1 30 14 is_stmt 0 view .LVU26
	vmov.f32	s0, s17
.LVL6:
	.loc 1 30 14 view .LVU27
	vstr.32	s1, [sp, #4]	@ int
	bl	sino_2d
.LVL7:
	vmov.f32	s15, s0
	vldr.32	s1, [sp, #4]	@ int
	vmov.f32	s0, s17
	.loc 1 30 11 view .LVU28
	vadd.f32	s16, s16, s15
.LVL8:
	.loc 1 29 28 is_stmt 1 view .LVU29
	.loc 1 29 22 view .LVU30
	.loc 1 30 5 view .LVU31
	.loc 1 30 14 is_stmt 0 view .LVU32
	bl	sino_2d
.LVL9:
	.loc 1 29 28 is_stmt 1 view .LVU33
	.loc 1 29 22 view .LVU34
.LBE35:
	.loc 1 32 4 view .LVU35
.LBB36:
	.loc 1 30 11 is_stmt 0 view .LVU36
	vadd.f32	s16, s16, s0
.LVL10:
	.loc 1 30 11 view .LVU37
.LBE36:
	.loc 1 32 29 view .LVU38
	vdiv.f32	s15, s16, s21
	.loc 1 32 20 view .LVU39
	vcmpe.f32	s15, s18
	vmrs	APSR_nzcv, FPSCR
	movgt	r3, #255
	movle	r3, #240
.LBE38:
	.loc 1 27 28 view .LVU40
	add	r4, r4, #1
.LVL11:
	.loc 1 27 21 view .LVU41
	cmp	r4, #64
.LBB39:
	.loc 1 32 20 view .LVU42
	strb	r3, [r5, #1]!
.LBE39:
	.loc 1 27 28 is_stmt 1 view .LVU43
.LVL12:
	.loc 1 27 21 view .LVU44
	bne	.L4
.LBE40:
	.loc 1 26 27 discriminator 2 view .LVU45
	add	r6, r6, #1
.LVL13:
	.loc 1 26 20 discriminator 2 view .LVU46
	cmp	r6, #64
	add	r7, r7, #64
	bne	.L2
.LBE41:
	.loc 1 35 2 view .LVU47
.LBB42:
.LBI42:
	.file 2 "/opt/devkitpro/libctru/include/c3d/texture.h"
	.loc 2 94 19 view .LVU48
.LVL14:
.LBB43:
	.loc 2 96 2 view .LVU49
	.loc 2 96 9 is_stmt 0 view .LVU50
	ldr	r4, .L10+16
.LVL15:
	.loc 2 96 9 view .LVU51
	mov	r3, #144
	mov	r1, #0
	mov	r0, r4
	ldr	r2, .L10+20
	bl	C3D_TexInitWithParams
.LVL16:
	.loc 2 96 9 view .LVU52
.LBE43:
.LBE42:
	.loc 1 36 2 is_stmt 1 view .LVU53
.LBB44:
.LBI44:
	.loc 2 169 20 view .LVU54
.LBB45:
	.loc 2 171 2 view .LVU55
	.loc 2 172 2 view .LVU56
	.loc 2 171 13 is_stmt 0 view .LVU57
	ldr	r3, [r4, #12]
.LBE45:
.LBE44:
	.loc 1 37 2 view .LVU58
	mov	r2, r6
.LBB49:
.LBB46:
	.loc 2 171 13 view .LVU59
	bic	r3, r3, #13056
.LBE46:
.LBE49:
	.loc 1 37 2 view .LVU60
	ldr	r1, [r4]
.LBB50:
.LBB47:
	.loc 2 172 13 view .LVU61
	orr	r3, r3, #8704
.LBE47:
.LBE50:
	.loc 1 37 2 view .LVU62
	mov	r0, r8
.LBB51:
.LBB48:
	.loc 2 172 13 view .LVU63
	str	r3, [r4, #12]
.LVL17:
	.loc 2 172 13 view .LVU64
.LBE48:
.LBE51:
	.loc 1 37 2 is_stmt 1 view .LVU65
	bl	Texture_TileImage8
.LVL18:
	.loc 1 39 2 view .LVU66
	mov	r0, r8
	bl	free
.LVL19:
	.loc 1 41 2 view .LVU67
	.loc 1 41 13 is_stmt 0 view .LVU68
	mov	r0, #96
	bl	linearAlloc
.LVL20:
	.loc 1 42 2 view .LVU69
	mov	r2, #96
	ldr	r1, .L10+24
	.loc 1 41 11 view .LVU70
	str	r0, [r4, #24]
	.loc 1 42 2 is_stmt 1 view .LVU71
	.loc 1 43 1 is_stmt 0 view .LVU72
	add	sp, sp, #8
	.cfi_def_cfa_offset 56
	@ sp needed
	vldm	sp!, {d8-d11}
	.cfi_restore 86
	.cfi_restore 87
	.cfi_restore 84
	.cfi_restore 85
	.cfi_restore 82
	.cfi_restore 83
	.cfi_restore 80
	.cfi_restore 81
	.cfi_def_cfa_offset 24
.LVL21:
	.loc 1 43 1 view .LVU73
	pop	{r4, r5, r6, r7, r8, lr}
	.cfi_restore 14
	.cfi_restore 8
	.cfi_restore 7
	.cfi_restore 6
	.cfi_restore 5
	.cfi_restore 4
	.cfi_def_cfa_offset 0
.LVL22:
	.loc 1 42 2 view .LVU74
	b	memcpy
.LVL23:
.L11:
	.align	2
.L10:
	.word	1050253722
	.word	1045220557
	.word	1041865114
	.word	1077936128
	.word	.LANCHOR0
	.word	4194368
	.word	.LANCHOR1
	.cfi_endproc
.LFE206:
	.size	Clouds_Init, .-Clouds_Init
	.section	.text.Clouds_Deinit,"ax",%progbits
	.align	2
	.global	Clouds_Deinit
	.syntax unified
	.arm
	.fpu vfp
	.type	Clouds_Deinit, %function
Clouds_Deinit:
.LFB207:
	.loc 1 45 22 is_stmt 1 view -0
	.cfi_startproc
	@ args = 0, pretend = 0, frame = 0
	@ frame_needed = 0, uses_anonymous_args = 0
	.loc 1 46 2 view .LVU76
	.loc 1 45 22 is_stmt 0 view .LVU77
	push	{r4, lr}
	.cfi_def_cfa_offset 8
	.cfi_offset 4, -8
	.cfi_offset 14, -4
	.loc 1 46 2 view .LVU78
	ldr	r4, .L14
	mov	r0, r4
	bl	C3D_TexDelete
.LVL24:
	.loc 1 47 2 is_stmt 1 view .LVU79
	ldr	r0, [r4, #24]
	.loc 1 48 1 is_stmt 0 view .LVU80
	pop	{r4, lr}
	.cfi_restore 14
	.cfi_restore 4
	.cfi_def_cfa_offset 0
	.loc 1 47 2 view .LVU81
	b	linearFree
.LVL25:
.L15:
	.align	2
.L14:
	.word	.LANCHOR0
	.cfi_endproc
.LFE207:
	.size	Clouds_Deinit, .-Clouds_Deinit
	.section	.text.Clouds_Render,"ax",%progbits
	.align	2
	.global	Clouds_Render
	.syntax unified
	.arm
	.fpu vfp
	.type	Clouds_Render, %function
Clouds_Render:
.LVL26:
.LFB208:
	.loc 1 50 96 is_stmt 1 view -0
	.cfi_startproc
	@ args = 0, pretend = 0, frame = 136
	@ frame_needed = 0, uses_anonymous_args = 0
	.loc 1 51 2 view .LVU83
	.loc 1 52 2 view .LVU84
	.loc 1 50 96 is_stmt 0 view .LVU85
	push	{r4, r5, r6, lr}
	.cfi_def_cfa_offset 16
	.cfi_offset 4, -16
	.cfi_offset 5, -12
	.cfi_offset 6, -8
	.cfi_offset 14, -4
	sub	sp, sp, #144
	.cfi_def_cfa_offset 160
.LVL27:
.LBB70:
.LBI70:
	.file 3 "/opt/devkitpro/libctru/include/c3d/maths.h"
	.loc 3 319 20 is_stmt 1 view .LVU86
	.loc 3 321 2 view .LVU87
.LBB71:
.LBI71:
	.loc 3 306 20 view .LVU88
.LBB72:
	.loc 3 308 2 view .LVU89
.LBB73:
.LBI73:
	.loc 3 283 20 view .LVU90
.LBB74:
	.loc 3 285 2 view .LVU91
	mov	r2, #64
.LVL28:
	.loc 3 285 2 is_stmt 0 view .LVU92
.LBE74:
.LBE73:
.LBE72:
.LBE71:
.LBE70:
	.loc 1 50 96 view .LVU93
	mov	r5, r0
	mov	r6, r1
.LBB85:
.LBB82:
.LBB79:
.LBB77:
.LBB75:
	.loc 3 285 2 view .LVU94
	add	r0, sp, #16
	mov	r1, #0
.LVL29:
	.loc 3 285 2 view .LVU95
.LBE75:
.LBE77:
.LBE79:
.LBE82:
.LBE85:
	.loc 1 50 96 view .LVU96
	vstr.32	s0, [sp, #12]	@ int
	vstr.32	s1, [sp, #8]	@ int
.LBB86:
.LBB83:
.LBB80:
.LBB78:
.LBB76:
	.loc 3 285 2 view .LVU97
	bl	memset
.LVL30:
	.loc 3 285 2 view .LVU98
.LBE76:
.LBE78:
	.loc 3 309 2 is_stmt 1 view .LVU99
	.loc 3 309 14 is_stmt 0 view .LVU100
	mov	r3, #1065353216
.LBE80:
.LBE83:
.LBE86:
	.loc 1 53 2 view .LVU101
	mov	r1, #1
	vldr.32	s1, .L36+8
	vldr.32	s0, [sp, #12]	@ int
	vldr.32	s2, [sp, #8]	@ int
	add	r0, sp, #16
.LBB87:
.LBB84:
.LBB81:
	.loc 3 309 14 view .LVU102
	str	r3, [sp, #28]	@ float
	.loc 3 310 2 is_stmt 1 view .LVU103
	.loc 3 310 14 is_stmt 0 view .LVU104
	str	r3, [sp, #40]	@ float
	.loc 3 311 2 is_stmt 1 view .LVU105
	.loc 3 311 14 is_stmt 0 view .LVU106
	str	r3, [sp, #52]	@ float
	.loc 3 312 2 is_stmt 1 view .LVU107
	.loc 3 312 14 is_stmt 0 view .LVU108
	str	r3, [sp, #64]	@ float
.LVL31:
	.loc 3 312 14 view .LVU109
.LBE81:
.LBE84:
.LBE87:
	.loc 1 53 2 is_stmt 1 view .LVU110
	bl	Mtx_Translate
.LVL32:
	.loc 1 54 2 view .LVU111
	vldr.32	s2, .L36+8
	add	r0, sp, #16
	vmov.f32	s1, s2
	vmov.f32	s0, s2
	bl	Mtx_Scale
.LVL33:
	.loc 1 56 2 view .LVU112
	.loc 1 60 2 is_stmt 0 view .LVU113
	ldr	r4, .L36+12
	.loc 1 56 2 view .LVU114
	mov	r0, #0
	bl	C3D_CullFace
.LVL34:
	.loc 1 58 2 is_stmt 1 view .LVU115
	mov	r2, #0
	mov	r1, #6
	mov	r0, #1
	bl	C3D_AlphaTest
.LVL35:
	.loc 1 60 2 view .LVU116
	mov	r1, r4
	mov	r0, #0
	bl	C3D_TexBind
.LVL36:
	.loc 1 62 2 view .LVU117
	.loc 1 63 2 view .LVU118
	.loc 1 64 2 view .LVU119
	.loc 1 64 20 is_stmt 0 view .LVU120
	ldr	r0, [r4, #24]
	.loc 1 64 5 view .LVU121
	ldr	r3, .L36+16
	.loc 1 64 26 view .LVU122
	ldrsh	r2, [r0, #6]
	.loc 1 64 5 view .LVU123
	cmp	r2, r3
	addge	r1, r0, #96
	mov	r3, r0
	bge	.L18
.LBB88:
	.loc 1 69 23 view .LVU124
	ldr	ip, .L36+20
	add	r1, r0, #96
.L20:
	.loc 1 66 4 is_stmt 1 view .LVU125
	.loc 1 66 7 is_stmt 0 view .LVU126
	ldrsh	r2, [r3]
	.loc 1 65 21 view .LVU127
	add	r3, r3, #16
	.loc 1 69 23 view .LVU128
	cmn	r2, #1
	moveq	r2, #0
	movne	r2, ip
	.loc 1 65 21 view .LVU129
	cmp	r1, r3
	strh	r2, [r3, #-10]	@ movhi
	.loc 1 65 27 is_stmt 1 view .LVU130
	.loc 1 65 21 view .LVU131
	bne	.L20
.L21:
.LBE88:
	.loc 1 76 2 view .LVU132
	.loc 1 76 5 is_stmt 0 view .LVU133
	ldr	r3, .L36+24
	.loc 1 76 26 view .LVU134
	ldrsh	r2, [r0, #8]
	.loc 1 76 5 view .LVU135
	cmp	r2, r3
	mov	r3, r0
	ble	.L23
.LBB89:
	.loc 1 81 23 view .LVU136
	ldr	ip, .L36+28
.L25:
	.loc 1 78 4 is_stmt 1 view .LVU137
	.loc 1 78 7 is_stmt 0 view .LVU138
	ldrsh	r2, [r3, #4]
	.loc 1 77 21 view .LVU139
	add	r3, r3, #16
	.loc 1 81 23 view .LVU140
	cmp	r2, #1
	moveq	r2, ip
	movne	r2, #0
	.loc 1 77 21 view .LVU141
	cmp	r1, r3
	strh	r2, [r3, #-8]	@ movhi
	.loc 1 77 27 is_stmt 1 view .LVU142
	.loc 1 77 21 view .LVU143
	bne	.L25
.L26:
.LBE89:
	.loc 1 88 2 view .LVU144
	mov	r1, #96
	bl	GSPGPU_FlushDataCache
.LVL37:
	.loc 1 90 2 view .LVU145
	.loc 1 91 2 view .LVU146
	mov	r1, r6
	add	r2, sp, #16
	add	r0, sp, #80
	bl	Mtx_Multiply
.LVL38:
	.loc 1 93 2 view .LVU147
.LBB90:
.LBI90:
	.file 4 "/opt/devkitpro/libctru/include/c3d/uniforms.h"
	.loc 4 38 20 view .LVU148
	.loc 4 40 2 view .LVU149
.LBB91:
.LBI91:
	.loc 4 30 20 view .LVU150
.LBB92:
.LBB93:
.LBB94:
	.loc 4 18 16 view .LVU151
	.loc 4 19 3 view .LVU152
	.loc 4 19 31 is_stmt 0 view .LVU153
	mov	r2, #1
	ldr	r3, .L36+32
.LBE94:
.LBE93:
	.loc 4 35 10 view .LVU154
	ldr	lr, .L36+36
.LBB97:
.LBB95:
	.loc 4 19 31 view .LVU155
	strb	r2, [r3, r5]!
.LBE95:
.LBE97:
	.loc 4 35 10 view .LVU156
	add	ip, sp, #80
	add	lr, lr, r5, lsl #4
.LBB98:
.LBB96:
	.loc 4 18 26 is_stmt 1 view .LVU157
.LVL39:
	.loc 4 18 16 view .LVU158
	.loc 4 19 3 view .LVU159
	.loc 4 19 31 is_stmt 0 view .LVU160
	strb	r2, [r3, #1]
	.loc 4 18 26 is_stmt 1 view .LVU161
.LVL40:
	.loc 4 18 16 view .LVU162
	.loc 4 19 3 view .LVU163
	.loc 4 19 31 is_stmt 0 view .LVU164
	strb	r2, [r3, #2]
	.loc 4 18 26 is_stmt 1 view .LVU165
.LVL41:
	.loc 4 18 16 view .LVU166
	.loc 4 19 3 view .LVU167
	.loc 4 19 31 is_stmt 0 view .LVU168
	strb	r2, [r3, #3]
	.loc 4 18 26 is_stmt 1 view .LVU169
.LVL42:
	.loc 4 18 16 view .LVU170
	.loc 4 20 2 view .LVU171
	.loc 4 20 2 is_stmt 0 view .LVU172
.LBE96:
.LBE98:
	.loc 4 34 2 is_stmt 1 view .LVU173
	.loc 4 34 16 view .LVU174
	.loc 4 35 10 is_stmt 0 view .LVU175
	ldmia	ip!, {r0, r1, r2, r3}
	stmia	lr!, {r0, r1, r2, r3}
	ldmia	ip!, {r0, r1, r2, r3}
	stmia	lr!, {r0, r1, r2, r3}
	ldmia	ip!, {r0, r1, r2, r3}
	stmia	lr!, {r0, r1, r2, r3}
	ldm	ip, {r0, r1, r2, r3}
	stm	lr, {r0, r1, r2, r3}
.LVL43:
	.loc 4 35 10 view .LVU176
.LBE92:
.LBE91:
.LBE90:
	.loc 1 95 2 is_stmt 1 view .LVU177
	.loc 1 95 25 is_stmt 0 view .LVU178
	bl	C3D_GetBufInfo
.LVL44:
	mov	r5, r0
.LVL45:
	.loc 1 96 2 is_stmt 1 view .LVU179
	bl	BufInfo_Init
.LVL46:
	.loc 1 97 2 view .LVU180
	vldr.64	d7, .L36	@ int
	mov	r3, #4
	vstr.64	d7, [sp]	@ int
	ldr	r1, [r4, #24]
	mov	r2, #16
	mov	r0, r5
	bl	BufInfo_Add
.LVL47:
	.loc 1 99 2 view .LVU181
	mov	r1, #0
	mov	r2, #6
	mov	r0, r1
	bl	C3D_DrawArrays
.LVL48:
	.loc 1 101 2 view .LVU182
	mov	r0, #2
	bl	C3D_CullFace
.LVL49:
	.loc 1 103 2 view .LVU183
	mov	r2, #0
	mov	r1, #6
	mov	r0, r2
	bl	C3D_AlphaTest
.LVL50:
	.loc 1 104 1 is_stmt 0 view .LVU184
	add	sp, sp, #144
	.cfi_remember_state
	.cfi_def_cfa_offset 16
	@ sp needed
	pop	{r4, r5, r6, pc}
.LVL51:
.L34:
	.cfi_restore_state
.LBB99:
	.loc 1 73 22 view .LVU185
	ldrsh	r2, [r3, #6]
.L18:
	.loc 1 73 4 is_stmt 1 discriminator 3 view .LVU186
	.loc 1 73 22 is_stmt 0 discriminator 3 view .LVU187
	sub	r2, r2, #4
	strh	r2, [r3, #6]	@ movhi
	.loc 1 72 27 is_stmt 1 discriminator 3 view .LVU188
	.loc 1 72 21 discriminator 3 view .LVU189
	add	r3, r3, #16
	cmp	r3, r1
	bne	.L34
	b	.L21
.L35:
.LBE99:
.LBB100:
	.loc 1 85 22 is_stmt 0 view .LVU190
	ldrsh	r2, [r3, #8]
.L23:
	.loc 1 85 4 is_stmt 1 discriminator 3 view .LVU191
	.loc 1 85 22 is_stmt 0 discriminator 3 view .LVU192
	add	r2, r2, #6
	strh	r2, [r3, #8]	@ movhi
	.loc 1 84 27 is_stmt 1 discriminator 3 view .LVU193
	.loc 1 84 21 discriminator 3 view .LVU194
	add	r3, r3, #16
	cmp	r3, r1
	bne	.L35
	b	.L26
.L37:
	.align	3
.L36:
	.word	12816
	.word	0
	.word	1119092736
	.word	.LANCHOR0
	.word	-32763
	.word	32767
	.word	32761
	.word	-32767
	.word	C3D_FVUnifDirty
	.word	C3D_FVUnif
.LBE100:
	.cfi_endproc
.LFE208:
	.size	Clouds_Render, .-Clouds_Render
	.data
	.align	2
	.set	.LANCHOR1,. + 0
	.type	vertices, %object
	.size	vertices, 96
vertices:
	.short	-1
	.short	0
	.short	-1
	.short	0
	.short	0
	.ascii	"\377\377\377"
	.ascii	"\000\000\000"
	.short	1
	.short	0
	.short	-1
	.short	32767
	.short	0
	.ascii	"\377\377\377"
	.ascii	"\000\000\000"
	.short	1
	.short	0
	.short	1
	.short	32767
	.short	32767
	.ascii	"\377\377\377"
	.ascii	"\000\000\000"
	.short	1
	.short	0
	.short	1
	.short	32767
	.short	32767
	.ascii	"\377\377\377"
	.ascii	"\000\000\000"
	.short	-1
	.short	0
	.short	1
	.short	0
	.short	32767
	.ascii	"\377\377\377"
	.ascii	"\000\000\000"
	.short	-1
	.short	0
	.short	-1
	.short	0
	.short	0
	.ascii	"\377\377\377"
	.ascii	"\000\000\000"
	.bss
	.align	2
	.set	.LANCHOR0,. + 0
	.type	texture, %object
	.size	texture, 24
texture:
	.space	24
	.type	cloudVBO, %object
	.size	cloudVBO, 4
cloudVBO:
	.space	4
	.text
.Letext0:
	.file 5 "/opt/devkitpro/devkitARM/arm-none-eabi/include/machine/_default_types.h"
	.file 6 "/opt/devkitpro/devkitARM/arm-none-eabi/include/sys/_stdint.h"
	.file 7 "/opt/devkitpro/devkitARM/lib/gcc/arm-none-eabi/11.2.0/include/stddef.h"
	.file 8 "/opt/devkitpro/libctru/include/3ds/types.h"
	.file 9 "/opt/devkitpro/devkitARM/arm-none-eabi/include/sys/lock.h"
	.file 10 "/opt/devkitpro/libctru/include/3ds/synchronization.h"
	.file 11 "/opt/devkitpro/libctru/include/3ds/services/csnd.h"
	.file 12 "/opt/devkitpro/libctru/include/3ds/services/ndm.h"
	.file 13 "/opt/devkitpro/libctru/include/3ds/gpu/enums.h"
	.file 14 "/opt/devkitpro/libctru/include/3ds/ndsp/channel.h"
	.file 15 "/opt/devkitpro/libctru/include/3ds/applets/error.h"
	.file 16 "/opt/devkitpro/libctru/include/c3d/types.h"
	.file 17 "/opt/devkitpro/libctru/include/c3d/buffers.h"
	.file 18 "/home/tobi/Dokumente/Craftus-Next/include/blocks/Block.h"
	.file 19 "/home/tobi/Dokumente/Craftus-Next/include/misc/Xorshift.h"
	.file 20 "/home/tobi/Dokumente/Craftus-Next/include/rendering/VBOCache.h"
	.file 21 "/home/tobi/Dokumente/Craftus-Next/include/world/Chunk.h"
	.file 22 "/home/tobi/Dokumente/Craftus-Next/include/world/WorkQueue.h"
	.file 23 "/home/tobi/Dokumente/Craftus-Next/include/world/World.h"
	.file 24 "/home/tobi/Dokumente/Craftus-Next/include/rendering/VertexFmt.h"
	.file 25 "/home/tobi/Dokumente/Craftus-Next/dependencies/sino/sino.h"
	.file 26 "/opt/devkitpro/devkitARM/arm-none-eabi/include/string.h"
	.file 27 "/opt/devkitpro/libctru/include/c3d/base.h"
	.file 28 "/opt/devkitpro/libctru/include/3ds/services/gspgpu.h"
	.file 29 "/opt/devkitpro/libctru/include/c3d/effect.h"
	.file 30 "/opt/devkitpro/libctru/include/3ds/allocator/linear.h"
	.file 31 "/opt/devkitpro/devkitARM/arm-none-eabi/include/stdlib.h"
	.file 32 "/home/tobi/Dokumente/Craftus-Next/include/rendering/TextureMap.h"
	.file 33 "<built-in>"