	.arch armv6k
	.eabi_attribute 28, 1
	.eabi_attribute 20, 1
	.eabi_attribute 21, 1
	.eabi_attribute 23, 3
	.eabi_attribute 24, 1
	.eabi_attribute 25, 1
	.eabi_attribute 26, 1
	.eabi_attribute 30, 2
	.eabi_attribute 34, 1
	.eabi_attribute 18, 4
	.file	"Cursor.c"
	.text
.Ltext0:
	.cfi_sections	.debug_frame
	.section	.text.Cursor_Init,"ax",%progbits
	.align	2
	.global	Cursor_Init
	.syntax unified
	.arm
	.fpu vfp
	.type	Cursor_Init, %function
Cursor_Init:
.LFB206:
	.file 1 "/home/tobi/Dokumente/Craftus-Next/source/rendering/Cursor.c"
	.loc 1 11 20 view -0
	.cfi_startproc
	@ args = 0, pretend = 0, frame = 0
	@ frame_needed = 0, uses_anonymous_args = 0
	.loc 1 12 2 view .LVU1
	.loc 1 11 20 is_stmt 0 view .LVU2
	push	{r4, lr}
	.cfi_def_cfa_offset 8
	.cfi_offset 4, -8
	.cfi_offset 14, -4
	.loc 1 12 14 view .LVU3
	mov	r0, #576
	bl	linearAlloc
.LVL0:
	mov	r4, r0
	.loc 1 12 12 view .LVU4
	ldr	r3, .L7
	.loc 1 13 2 view .LVU5
	mov	r2, #576
	ldr	r1, .L7+4
	.loc 1 12 12 view .LVU6
	str	r0, [r3]
	.loc 1 13 2 is_stmt 1 view .LVU7
	bl	memcpy
.LVL1:
	.loc 1 15 2 view .LVU8
.LBB22:
	.loc 1 15 7 view .LVU9
	.loc 1 15 20 view .LVU10
	mov	r0, r4
	.loc 1 16 23 is_stmt 0 view .LVU11
	mvn	r3, #0
	add	r2, r4, #576
.LVL2:
.L2:
	.loc 1 16 3 is_stmt 1 discriminator 3 view .LVU12
	.loc 1 16 23 is_stmt 0 discriminator 3 view .LVU13
	strb	r3, [r0, #10]
	.loc 1 17 3 is_stmt 1 discriminator 3 view .LVU14
	.loc 1 17 23 is_stmt 0 discriminator 3 view .LVU15
	strb	r3, [r0, #11]
	.loc 1 18 3 is_stmt 1 discriminator 3 view .LVU16
	.loc 1 18 23 is_stmt 0 discriminator 3 view .LVU17
	strb	r3, [r0, #12]
	.loc 1 15 30 is_stmt 1 discriminator 3 view .LVU18
	.loc 1 15 20 discriminator 3 view .LVU19
	add	r0, r0, #16
	cmp	r0, r2
	bne	.L2
	pop	{r4, pc}
.L8:
	.align	2
.L7:
	.word	.LANCHOR0
	.word	cube_sides_lut
.LBE22:
	.cfi_endproc
.LFE206:
	.size	Cursor_Init, .-Cursor_Init
	.section	.text.Cursor_Deinit,"ax",%progbits
	.align	2
	.global	Cursor_Deinit
	.syntax unified
	.arm
	.fpu vfp
	.type	Cursor_Deinit, %function
Cursor_Deinit:
.LFB207:
	.loc 1 22 22 view -0
	.cfi_startproc
	@ args = 0, pretend = 0, frame = 0
	@ frame_needed = 0, uses_anonymous_args = 0
	@ link register save eliminated.
	.loc 1 22 24 view .LVU21
	ldr	r3, .L10
	ldr	r0, [r3]
	b	linearFree
.LVL3:
.L11:
	.align	2
.L10:
	.word	.LANCHOR0
	.cfi_endproc
.LFE207:
	.size	Cursor_Deinit, .-Cursor_Deinit
	.section	.text.Cursor_Draw,"ax",%progbits
	.align	2
	.global	Cursor_Draw
	.syntax unified
	.arm
	.fpu vfp
	.type	Cursor_Draw, %function
Cursor_Draw:
.LVL4:
.LFB208:
	.loc 1 24 116 view -0
	.cfi_startproc
	@ args = 12, pretend = 0, frame = 136
	@ frame_needed = 0, uses_anonymous_args = 0
	.loc 1 25 2 view .LVU23
	.loc 1 26 2 view .LVU24
	.loc 1 24 116 is_stmt 0 view .LVU25
	push	{r4, r5, r6, r7, r8, r9, r10, fp, lr}
	.cfi_def_cfa_offset 36
	.cfi_offset 4, -36
	.cfi_offset 5, -32
	.cfi_offset 6, -28
	.cfi_offset 7, -24
	.cfi_offset 8, -20
	.cfi_offset 9, -16
	.cfi_offset 10, -12
	.cfi_offset 11, -8
	.cfi_offset 14, -4
.LBB45:
	.loc 1 34 11 view .LVU26
	mov	r5, #0
.LBE45:
	.loc 1 24 116 view .LVU27
	mov	ip, r0
	sub	sp, sp, #148
	.cfi_def_cfa_offset 184
.LVL5:
.LBB50:
.LBI50:
	.file 2 "/opt/devkitpro/libctru/include/c3d/maths.h"
	.loc 2 319 20 is_stmt 1 view .LVU28
	.loc 2 321 2 view .LVU29
.LBB51:
.LBI51:
	.loc 2 306 20 view .LVU30
.LBB52:
	.loc 2 308 2 view .LVU31
.LBB53:
.LBI53:
	.loc 2 283 20 view .LVU32
.LBB54:
	.loc 2 285 2 view .LVU33
.LBE54:
.LBE53:
.LBE52:
.LBE51:
.LBE50:
	.loc 1 24 116 is_stmt 0 view .LVU34
	ldrb	lr, [sp, #192]	@ zero_extendqisi2
	ldr	r10, [sp, #188]
	mov	r6, r1
	mov	r8, r2
.LBB67:
.LBB63:
.LBB59:
.LBB57:
.LBB55:
	.loc 2 285 2 view .LVU35
	mov	r1, r5
.LVL6:
	.loc 2 285 2 view .LVU36
	mov	r2, #64
.LVL7:
	.loc 2 285 2 view .LVU37
	add	r0, sp, #16
.LBE55:
.LBE57:
.LBE59:
.LBE63:
.LBE67:
	.loc 1 24 116 view .LVU38
	mov	r7, r3
	str	lr, [sp, #12]
	str	ip, [sp, #8]
	ldr	r9, [sp, #184]
.LBB68:
.LBB64:
.LBB60:
.LBB58:
.LBB56:
	.loc 2 285 2 view .LVU39
	bl	memset
.LVL8:
	.loc 2 285 2 view .LVU40
.LBE56:
.LBE58:
	.loc 2 309 2 is_stmt 1 view .LVU41
.LBE60:
.LBE64:
.LBE68:
	.loc 1 27 2 is_stmt 0 view .LVU42
	vmov	s15, r10	@ int
	vcvt.f32.s32	s2, s15
	vmov	s15, r9	@ int
	vcvt.f32.s32	s1, s15
	vmov	s15, r7	@ int
.LBB69:
.LBB65:
.LBB61:
	.loc 2 309 14 view .LVU43
	mov	r3, #1065353216
.LBE61:
.LBE65:
.LBE69:
	.loc 1 32 9 view .LVU44
	mov	fp, r5
	.loc 1 27 2 view .LVU45
	mov	r1, #1
	vcvt.f32.s32	s0, s15
	add	r0, sp, #16
.LBB70:
.LBB66:
.LBB62:
	.loc 2 309 14 view .LVU46
	str	r3, [sp, #28]	@ float
	.loc 2 310 2 is_stmt 1 view .LVU47
	.loc 2 310 14 is_stmt 0 view .LVU48
	str	r3, [sp, #40]	@ float
	.loc 2 311 2 is_stmt 1 view .LVU49
	.loc 2 311 14 is_stmt 0 view .LVU50
	str	r3, [sp, #52]	@ float
	.loc 2 312 2 is_stmt 1 view .LVU51
	.loc 2 312 14 is_stmt 0 view .LVU52
	str	r3, [sp, #64]	@ float
.LVL9:
	.loc 2 312 14 view .LVU53
.LBE62:
.LBE66:
.LBE70:
	.loc 1 27 2 is_stmt 1 view .LVU54
	bl	Mtx_Translate
.LVL10:
	.loc 1 29 2 view .LVU55
	.loc 1 30 2 view .LVU56
	mov	r1, r6
	add	r2, sp, #16
	add	r0, sp, #80
	bl	Mtx_Multiply
.LVL11:
	.loc 1 32 2 view .LVU57
	.loc 1 33 2 view .LVU58
	.loc 1 33 15 is_stmt 0 view .LVU59
	ldr	r3, .L22+12
	ldr	r4, .L22+16
	ldr	r6, [r3]
.LVL12:
	.loc 1 34 2 is_stmt 1 view .LVU60
.LBB71:
	.loc 1 34 7 view .LVU61
	.loc 1 34 20 view .LVU62
.L16:
.LBB46:
	.loc 1 35 3 view .LVU63
	.loc 1 36 3 view .LVU64
	.loc 1 36 7 is_stmt 0 view .LVU65
	ldr	r3, [r4, #8]
	ldr	r2, [r4, #4]
	ldr	r1, [r4]
	mov	r0, r8
	add	r3, r10, r3
	add	r2, r9, r2
	add	r1, r7, r1
	bl	World_GetBlock
.LVL13:
	.loc 1 36 6 view .LVU66
	cmp	r0, #0
	beq	.L21
.LVL14:
.L13:
	.loc 1 36 6 view .LVU67
.LBE46:
	.loc 1 34 26 is_stmt 1 discriminator 2 view .LVU68
	add	r5, r5, #1
.LVL15:
	.loc 1 34 20 discriminator 2 view .LVU69
	cmp	r5, #6
	add	r4, r4, #12
.LVL16:
	.loc 1 34 20 is_stmt 0 discriminator 2 view .LVU70
	bne	.L16
	.loc 1 34 20 discriminator 2 view .LVU71
.LBE71:
	.loc 1 49 2 is_stmt 1 view .LVU72
.LVL17:
.LBB72:
.LBI72:
	.file 3 "/opt/devkitpro/libctru/include/c3d/uniforms.h"
	.loc 3 38 20 view .LVU73
	.loc 3 40 2 view .LVU74
.LBB73:
.LBI73:
	.loc 3 30 20 view .LVU75
.LBB74:
.LBB75:
.LBB76:
	.loc 3 18 16 view .LVU76
	.loc 3 19 3 view .LVU77
	.loc 3 19 31 is_stmt 0 view .LVU78
	mov	r6, #1
.LVL18:
	.loc 3 19 31 view .LVU79
.LBE76:
.LBE75:
.LBE74:
.LBE73:
.LBE72:
	.loc 1 51 2 view .LVU80
	mov	r4, #0
.LVL19:
	.loc 1 51 2 view .LVU81
	mov	r7, #7
.LVL20:
.LBB85:
.LBB84:
.LBB83:
	.loc 3 35 10 view .LVU82
	ldr	r2, [sp, #8]
.LBB80:
.LBB77:
	.loc 3 19 31 view .LVU83
	ldr	r3, .L22+20
.LBE77:
.LBE80:
	.loc 3 35 10 view .LVU84
	ldr	lr, .L22+24
.LBB81:
.LBB78:
	.loc 3 19 31 view .LVU85
	strb	r6, [r3, r2]!
	.loc 3 18 26 is_stmt 1 view .LVU86
.LVL21:
	.loc 3 18 16 view .LVU87
	.loc 3 19 3 view .LVU88
.LBE78:
.LBE81:
	.loc 3 35 10 is_stmt 0 view .LVU89
	add	ip, sp, #80
	add	lr, lr, r2, lsl #4
.LBB82:
.LBB79:
	.loc 3 19 31 view .LVU90
	strb	r6, [r3, #1]
	.loc 3 18 26 is_stmt 1 view .LVU91
.LVL22:
	.loc 3 18 16 view .LVU92
	.loc 3 19 3 view .LVU93
	.loc 3 19 31 is_stmt 0 view .LVU94
	strb	r6, [r3, #2]
	.loc 3 18 26 is_stmt 1 view .LVU95
.LVL23:
	.loc 3 18 16 view .LVU96
	.loc 3 19 3 view .LVU97
	.loc 3 19 31 is_stmt 0 view .LVU98
	strb	r6, [r3, #3]
	.loc 3 18 26 is_stmt 1 view .LVU99
.LVL24:
	.loc 3 18 16 view .LVU100
	.loc 3 20 2 view .LVU101
	.loc 3 20 2 is_stmt 0 view .LVU102
.LBE79:
.LBE82:
	.loc 3 34 2 is_stmt 1 view .LVU103
	.loc 3 34 16 view .LVU104
	.loc 3 35 10 is_stmt 0 view .LVU105
	ldmia	ip!, {r0, r1, r2, r3}
	stmia	lr!, {r0, r1, r2, r3}
	ldmia	ip!, {r0, r1, r2, r3}
	stmia	lr!, {r0, r1, r2, r3}
	ldmia	ip!, {r0, r1, r2, r3}
	stmia	lr!, {r0, r1, r2, r3}
	ldm	ip, {r0, r1, r2, r3}
	stm	lr, {r0, r1, r2, r3}
.LVL25:
	.loc 3 35 10 view .LVU106
.LBE83:
.LBE84:
.LBE85:
	.loc 1 51 2 is_stmt 1 view .LVU107
	mov	r2, r6
	mov	r1, r4
	mov	r3, r6
	mov	r0, r4
	stm	sp, {r4, r7}
	bl	C3D_AlphaBlend
.LVL26:
	.loc 1 53 2 view .LVU108
	vldr.32	s1, .L22
	vldr.32	s0, .L22+4
	mov	r0, r6
	bl	C3D_DepthMap
.LVL27:
	.loc 1 55 2 view .LVU109
	.loc 1 55 20 is_stmt 0 view .LVU110
	mov	r0, r4
	bl	C3D_GetTexEnv
.LVL28:
.LBB86:
.LBB87:
	.file 4 "/opt/devkitpro/libctru/include/c3d/texenv.h"
	.loc 4 38 13 view .LVU111
	mvn	r3, #0
.LVL29:
	.loc 4 38 13 view .LVU112
.LBE87:
.LBE86:
	.loc 1 56 2 is_stmt 1 view .LVU113
.LBB90:
.LBI86:
	.loc 4 31 20 view .LVU114
.LBB88:
	.loc 4 33 2 view .LVU115
	.loc 4 34 2 view .LVU116
	.loc 4 35 2 view .LVU117
	.loc 4 36 2 view .LVU118
	.loc 4 37 2 view .LVU119
	.loc 4 38 2 view .LVU120
	.loc 4 39 2 view .LVU121
	.loc 4 40 2 view .LVU122
	.loc 4 40 2 is_stmt 0 view .LVU123
.LBE88:
.LBE90:
	.loc 1 57 2 is_stmt 1 view .LVU124
.LBB91:
.LBI91:
	.loc 4 49 20 view .LVU125
.LBB92:
	.loc 4 54 2 view .LVU126
	.loc 4 55 2 view .LVU127
	.loc 4 56 3 view .LVU128
	.loc 4 57 2 view .LVU129
	.loc 4 58 3 view .LVU130
	.loc 4 56 15 is_stmt 0 view .LVU131
	str	r4, [r0]
.LBE92:
.LBE91:
.LBB93:
.LBB89:
	.loc 4 38 13 view .LVU132
	str	r3, [r0, #12]
	.loc 4 35 13 view .LVU133
	str	r4, [r0, #4]
	.loc 4 36 15 view .LVU134
	str	r4, [r0, #8]
	.loc 4 39 16 view .LVU135
	str	r4, [r0, #16]
.LVL30:
	.loc 4 39 16 view .LVU136
.LBE89:
.LBE93:
	.loc 1 58 2 is_stmt 1 view .LVU137
	.loc 1 60 2 view .LVU138
	.loc 1 60 25 is_stmt 0 view .LVU139
	bl	C3D_GetBufInfo
.LVL31:
	.loc 1 60 25 view .LVU140
	mov	r8, r0
.LVL32:
	.loc 1 61 2 is_stmt 1 view .LVU141
	.loc 1 62 2 is_stmt 0 view .LVU142
	mov	r9, #0
	.loc 1 61 2 view .LVU143
	bl	BufInfo_Init
.LVL33:
	.loc 1 62 2 is_stmt 1 view .LVU144
	mov	r0, r8
	ldr	r3, .L22+12
	ldr	r8, .L22+28
.LVL34:
	.loc 1 62 2 is_stmt 0 view .LVU145
	ldr	r1, [r3]
	mov	r2, #16
	mov	r3, #4
	strd	r8, [sp]
	bl	BufInfo_Add
.LVL35:
	.loc 1 64 2 is_stmt 1 view .LVU146
	mov	r2, fp
	mov	r1, r4
	mov	r0, r4
	bl	C3D_DrawArrays
.LVL36:
	.loc 1 66 2 view .LVU147
	mov	r3, r7
	mov	r2, r5
	mov	r0, r4
	mov	r1, r4
	stm	sp, {r5, r7}
	bl	C3D_AlphaBlend
.LVL37:
	.loc 1 68 2 view .LVU148
	vldr.32	s1, .L22+8
	vldr.32	s0, .L22+4
	mov	r0, r6
	bl	C3D_DepthMap
.LVL38:
	.loc 1 69 1 is_stmt 0 view .LVU149
	add	sp, sp, #148
	.cfi_remember_state
	.cfi_def_cfa_offset 36
	@ sp needed
	pop	{r4, r5, r6, r7, r8, r9, r10, fp, pc}
.LVL39:
.L21:
	.cfi_restore_state
.LBB94:
.LBB49:
.LBB47:
	.loc 1 37 4 is_stmt 1 view .LVU150
	ldr	r3, .L22+32
	add	r1, r5, r5, lsl #1
	mov	r2, #96
	mov	r0, r6
	add	r1, r3, r1, lsl #5
	bl	memcpy
.LVL40:
	.loc 1 38 4 view .LVU151
	.loc 1 38 12 is_stmt 0 view .LVU152
	ldr	r2, [sp, #12]
	mov	r3, r6
	cmp	r2, r5
	moveq	r2, #65
	movne	r2, #32
.LVL41:
	.loc 1 39 4 is_stmt 1 view .LVU153
.LBB48:
	.loc 1 39 9 view .LVU154
	.loc 1 39 22 view .LVU155
	add	r6, r6, #96
.LVL42:
.L15:
	.loc 1 40 5 discriminator 3 view .LVU156
	.loc 1 40 19 is_stmt 0 discriminator 3 view .LVU157
	strb	r2, [r3, #10]
	.loc 1 41 5 is_stmt 1 discriminator 3 view .LVU158
	.loc 1 41 19 is_stmt 0 discriminator 3 view .LVU159
	strb	r2, [r3, #11]
	.loc 1 42 5 is_stmt 1 discriminator 3 view .LVU160
	.loc 1 42 19 is_stmt 0 discriminator 3 view .LVU161
	strb	r2, [r3, #12]
	.loc 1 39 28 is_stmt 1 discriminator 3 view .LVU162
	.loc 1 39 22 discriminator 3 view .LVU163
	add	r3, r3, #16
	cmp	r6, r3
	bne	.L15
	.loc 1 39 22 is_stmt 0 discriminator 3 view .LVU164
.LBE48:
	.loc 1 44 4 is_stmt 1 view .LVU165
.LVL43:
	.loc 1 45 4 view .LVU166
	.loc 1 45 13 is_stmt 0 view .LVU167
	add	fp, fp, #6
.LVL44:
	.loc 1 45 13 view .LVU168
	b	.L13
.L23:
	.align	2
.L22:
	.word	981668463
	.word	-1082130432
	.word	0
	.word	.LANCHOR0
	.word	DirectionToOffset
	.word	C3D_FVUnifDirty
	.word	C3D_FVUnif
	.word	12816
	.word	cube_sides_lut
.LBE47:
.LBE49:
.LBE94:
	.cfi_endproc
.LFE208:
	.size	Cursor_Draw, .-Cursor_Draw
	.bss
	.align	2
	.set	.LANCHOR0,. + 0
	.type	cursorVBO, %object
	.size	cursorVBO, 4
cursorVBO:
	.space	4
	.text
.Letext0:
	.file 5 "/home/tobi/Dokumente/Craftus-Next/include/world/Direction.h"
	.file 6 "/opt/devkitpro/devkitARM/arm-none-eabi/include/machine/_default_types.h"
	.file 7 "/opt/devkitpro/devkitARM/arm-none-eabi/include/sys/_stdint.h"
	.file 8 "/home/tobi/Dokumente/Craftus-Next/include/blocks/Block.h"
	.file 9 "/home/tobi/Dokumente/Craftus-Next/include/misc/Xorshift.h"
	.file 10 "/opt/devkitpro/devkitARM/lib/gcc/arm-none-eabi/11.2.0/include/stddef.h"
	.file 11 "/opt/devkitpro/devkitARM/arm-none-eabi/include/sys/lock.h"
	.file 12 "/home/tobi/Dokumente/Craftus-Next/include/rendering/VBOCache.h"
	.file 13 "/home/tobi/Dokumente/Craftus-Next/include/world/Chunk.h"
	.file 14 "/opt/devkitpro/libctru/include/3ds/types.h"
	.file 15 "/opt/devkitpro/libctru/include/3ds/synchronization.h"
	.file 16 "/opt/devkitpro/libctru/include/3ds/services/csnd.h"
	.file 17 "/opt/devkitpro/libctru/include/3ds/services/ndm.h"
	.file 18 "/opt/devkitpro/libctru/include/3ds/gpu/enums.h"
	.file 19 "/opt/devkitpro/libctru/include/3ds/ndsp/channel.h"
	.file 20 "/opt/devkitpro/libctru/include/3ds/applets/error.h"
	.file 21 "/home/tobi/Dokumente/Craftus-Next/include/world/WorkQueue.h"
	.file 22 "/home/tobi/Dokumente/Craftus-Next/include/world/World.h"
	.file 23 "/opt/devkitpro/libctru/include/c3d/types.h"
	.file 24 "/opt/devkitpro/libctru/include/c3d/buffers.h"
	.file 25 "/home/tobi/Dokumente/Craftus-Next/include/rendering/VertexFmt.h"
	.file 26 "/opt/devkitpro/devkitARM/arm-none-eabi/include/string.h"
	.file 27 "/opt/devkitpro/libctru/include/c3d/base.h"
	.file 28 "/opt/devkitpro/libctru/include/c3d/effect.h"
	.file 29 "/opt/devkitpro/libctru/include/3ds/allocator/linear.h"
	.file 30 "<built-in>"