	.arch armv6k
	.eabi_attribute 28, 1
	.eabi_attribute 20, 1
	.eabi_attribute 21, 1
	.eabi_attribute 23, 3
	.eabi_attribute 24, 1
	.eabi_attribute 25, 1
	.eabi_attribute 26, 1
	.eabi_attribute 30, 2
	.eabi_attribute 34, 1
	.eabi_attribute 18, 4
	.file	"DefaultGen.c"
	.text
.Ltext0:
	.cfi_sections	.debug_frame
	.section	.text.DefaultGen_Init,"ax",%progbits
	.align	2
	.global	DefaultGen_Init
	.syntax unified
	.arm
	.fpu vfp
	.type	DefaultGen_Init, %function
DefaultGen_Init:
.LVL0:
.LFB124:
	.file 1 "/home/tobi/Dokumente/Craftus-Next/source/world/worldgen/DefaultGen.c"
	.loc 1 5 53 view -0
	.cfi_startproc
	@ args = 0, pretend = 0, frame = 0
	@ frame_needed = 0, uses_anonymous_args = 0
	@ link register save eliminated.
	.loc 1 5 55 view .LVU1
	.loc 1 5 66 is_stmt 0 view .LVU2
	str	r1, [r0]
	.loc 1 5 75 view .LVU3
	bx	lr
	.cfi_endproc
.LFE124:
	.size	DefaultGen_Init, .-DefaultGen_Init
	.section	.text.DefaultGen_Generate,"ax",%progbits
	.align	2
	.global	DefaultGen_Generate
	.syntax unified
	.arm
	.fpu vfp
	.type	DefaultGen_Generate, %function
DefaultGen_Generate:
.LVL1:
.LFB125:
	.loc 1 8 73 is_stmt 1 view -0
	.cfi_startproc
	@ args = 4, pretend = 0, frame = 16
	@ frame_needed = 0, uses_anonymous_args = 0
	.loc 1 8 73 is_stmt 0 view .LVU5
	push	{r4, r5, r6, r7, r8, r9, r10, fp, lr}
	.cfi_def_cfa_offset 36
	.cfi_offset 4, -36
	.cfi_offset 5, -32
	.cfi_offset 6, -28
	.cfi_offset 7, -24
	.cfi_offset 8, -20
	.cfi_offset 9, -16
	.cfi_offset 10, -12
	.cfi_offset 11, -8
	.cfi_offset 14, -4
	vpush.64	{d8, d9}
	.cfi_def_cfa_offset 52
	.cfi_offset 80, -52
	.cfi_offset 81, -48
	.cfi_offset 82, -44
	.cfi_offset 83, -40
	sub	sp, sp, #36
	.cfi_def_cfa_offset 88
	.loc 1 8 73 view .LVU6
	add	ip, sp, #20
	stm	ip, {r1, r2, r3}
.LBB21:
	.loc 1 9 11 view .LVU7
	mov	r3, #0
.LBB22:
.LBB23:
	.loc 1 16 23 view .LVU8
	vldr.32	s16, .L15
	.loc 1 16 93 view .LVU9
	vldr.32	s17, .L15+4
	mov	r4, r2
.LVL2:
	.loc 1 16 93 view .LVU10
.LBE23:
.LBE22:
.LBE21:
	.loc 1 9 2 is_stmt 1 view .LVU11
.LBB99:
	.loc 1 9 7 view .LVU12
	.loc 1 9 20 view .LVU13
.LBB97:
.LBB94:
.LBB24:
.LBB25:
.LBB26:
	.file 2 "/home/tobi/Dokumente/Craftus-Next/include/world/Chunk.h"
	.loc 2 112 47 is_stmt 0 view .LVU14
	mov	r7, #1
.LBE26:
.LBE25:
.LBE24:
.LBE94:
.LBE97:
.LBE99:
	.loc 1 8 73 view .LVU15
	vmov	s18, r0	@ int
.LBB100:
	.loc 1 9 11 view .LVU16
	str	r3, [sp, #16]
	add	r8, r2, #65536
.LVL3:
.L4:
.LBB98:
	.loc 1 10 21 is_stmt 1 view .LVU17
	.loc 1 10 12 is_stmt 0 view .LVU18
	mov	r5, #0
	ldr	r3, [sp, #16]
	lsl	r6, r3, #4
.LVL4:
.L9:
.LBB95:
	.loc 1 11 4 is_stmt 1 view .LVU19
	.loc 1 12 4 view .LVU20
	.loc 1 14 4 view .LVU21
	.loc 1 15 4 view .LVU22
	.loc 1 16 4 view .LVU23
	.loc 1 12 41 is_stmt 0 view .LVU24
	ldr	r2, [r4, #20]
	.loc 1 11 41 view .LVU25
	ldr	r3, [r4, #16]
	.loc 1 12 25 view .LVU26
	add	r2, r5, r2, lsl #4
	.loc 1 12 10 view .LVU27
	vmov	s15, r2	@ int
	.loc 1 11 25 view .LVU28
	ldr	r1, [sp, #16]
	.loc 1 12 10 view .LVU29
	vcvt.f32.s32	s1, s15
	.loc 1 11 25 view .LVU30
	add	r3, r1, r3, lsl #4
	.loc 1 11 10 view .LVU31
	vmov	s15, r3	@ int
	vcvt.f32.s32	s0, s15
	.loc 1 16 23 view .LVU32
	vmul.f32	s1, s1, s16
	vmul.f32	s0, s0, s16
	bl	sino_2d
.LVL5:
	.loc 1 16 93 view .LVU33
	vmul.f32	s0, s0, s17
	.loc 1 16 17 view .LVU34
	vcvt.s32.f32	s15, s0
	vmov	r9, s15	@ int
.LBB49:
	.loc 1 19 31 view .LVU35
	add	lr, r9, #61
	.loc 1 19 22 view .LVU36
	cmp	lr, #0
	ldrle	ip, [r8, #668]
.LBE49:
	.loc 1 16 8 view .LVU37
	add	r2, r9, #64
.LVL6:
	.loc 1 19 4 is_stmt 1 view .LVU38
.LBB50:
	.loc 1 19 9 view .LVU39
	.loc 1 19 22 view .LVU40
	ble	.L6
	.loc 1 19 13 is_stmt 0 view .LVU41
	mov	r0, #0
	ldr	ip, [r8, #668]
.LVL7:
.L7:
	.loc 1 20 5 is_stmt 1 view .LVU42
.LBB45:
.LBI25:
	.loc 2 110 13 view .LVU43
.LBB41:
	.loc 2 111 2 view .LVU44
	.loc 2 111 40 is_stmt 0 view .LVU45
	asr	r3, r0, #4
.LVL8:
	.loc 2 112 2 is_stmt 1 view .LVU46
	.loc 2 112 47 is_stmt 0 view .LVU47
	add	r1, r3, r3, lsl #8
	add	r3, r3, r1, lsl #1
.LVL9:
.LBB27:
.LBB28:
	.loc 2 101 8 view .LVU48
	lsl	r10, r3, #4
.LBE28:
.LBE27:
	.loc 2 112 23 view .LVU49
	and	r1, r0, #15
	.loc 2 112 47 view .LVU50
	add	r3, r6, r3
	add	r3, r3, r1
.LBB35:
.LBB29:
	.loc 2 101 8 view .LVU51
	add	r1, r6, r1
	add	r1, r10, r1, lsl #4
.LBE29:
.LBE35:
	.loc 2 112 47 view .LVU52
	add	fp, r4, r3, lsl #4
.LBB36:
.LBB30:
	.loc 2 101 8 view .LVU53
	add	r3, r4, r1
	add	r3, r3, r5
.LBE30:
.LBE36:
	.loc 2 112 47 view .LVU54
	add	r1, fp, r5
	strb	r7, [r1, #28]
	.loc 2 113 2 is_stmt 1 view .LVU55
.LVL10:
.LBB37:
.LBI27:
	.loc 2 97 13 view .LVU56
.LBB31:
	.loc 2 98 2 view .LVU57
	.loc 2 99 2 view .LVU58
	.loc 2 100 2 view .LVU59
	.loc 2 101 2 view .LVU60
	.loc 2 101 8 is_stmt 0 view .LVU61
	add	r3, r3, #4096
	.loc 2 101 17 view .LVU62
	ldrb	r1, [r3, #28]	@ zero_extendqisi2
	.loc 2 102 2 view .LVU63
	add	r10, r4, r10
	.loc 2 101 17 view .LVU64
	bic	r1, r1, #15
	.loc 2 102 2 view .LVU65
	add	r10, r10, #8192
	.loc 2 101 8 view .LVU66
	strb	r1, [r3, #28]
	.loc 2 102 2 is_stmt 1 view .LVU67
	ldr	r3, [r10, #28]
.LBE31:
.LBE37:
.LBE41:
.LBE45:
	.loc 1 19 37 is_stmt 0 view .LVU68
	add	r0, r0, #1
.LVL11:
.LBB46:
.LBB42:
.LBB38:
.LBB32:
	.loc 2 102 2 view .LVU69
	add	r3, r3, #1
.LBE32:
.LBE38:
.LBE42:
.LBE46:
	.loc 1 19 22 view .LVU70
	cmp	lr, r0
.LBB47:
.LBB43:
.LBB39:
.LBB33:
	.loc 2 102 2 view .LVU71
	str	r3, [r10, #28]
	.loc 2 103 2 is_stmt 1 view .LVU72
.LVL12:
	.loc 2 103 2 is_stmt 0 view .LVU73
.LBE33:
.LBE39:
.LBE43:
.LBE47:
	.loc 1 19 37 is_stmt 1 view .LVU74
	.loc 1 19 22 view .LVU75
	bne	.L7
.LBB48:
.LBB44:
.LBB40:
.LBB34:
	.loc 2 103 2 is_stmt 0 view .LVU76
	add	ip, ip, #61
	add	ip, ip, r9
.LVL13:
.L6:
	.loc 2 103 2 view .LVU77
.LBE34:
.LBE40:
.LBE44:
.LBE48:
.LBE50:
.LBB51:
	.loc 1 22 31 is_stmt 1 view .LVU78
.LBB52:
.LBB53:
	.loc 2 112 47 is_stmt 0 view .LVU79
	mov	r9, #2
.L8:
	.loc 2 112 47 view .LVU80
.LBE53:
.LBE52:
	.loc 1 23 5 is_stmt 1 view .LVU81
.LVL14:
.LBB71:
.LBI52:
	.loc 2 110 13 view .LVU82
.LBB68:
	.loc 2 111 2 view .LVU83
	.loc 2 111 40 is_stmt 0 view .LVU84
	cmp	lr, #0
	add	r3, lr, #15
	movge	r3, lr
	.loc 2 112 23 view .LVU85
	rsbs	r1, lr, #0
	and	r1, r1, #15
	.loc 2 111 40 view .LVU86
	asr	r3, r3, #4
.LVL15:
	.loc 2 112 2 is_stmt 1 view .LVU87
	.loc 2 112 23 is_stmt 0 view .LVU88
	and	r10, lr, #15
	rsbpl	r10, r1, #0
	.loc 2 112 47 view .LVU89
	add	r1, r3, r3, lsl #8
	add	r3, r3, r1, lsl #1
.LVL16:
.LBB54:
.LBB55:
	.loc 2 101 8 view .LVU90
	lsl	r1, r3, #4
	add	r0, r6, r10
.LBE55:
.LBE54:
	.loc 2 112 47 view .LVU91
	add	r3, r6, r3
.LBB62:
.LBB56:
	.loc 2 101 8 view .LVU92
	add	r0, r1, r0, lsl #4
.LBE56:
.LBE62:
	.loc 2 112 47 view .LVU93
	add	r3, r3, r10
	add	r3, r4, r3, lsl #4
.LBB63:
.LBB57:
	.loc 2 101 8 view .LVU94
	add	r0, r4, r0
.LBE57:
.LBE63:
	.loc 2 112 47 view .LVU95
	add	r3, r3, r5
.LBB64:
.LBB58:
	.loc 2 101 8 view .LVU96
	add	r0, r0, r5
.LBE58:
.LBE64:
	.loc 2 112 47 view .LVU97
	strb	r9, [r3, #28]
	.loc 2 113 2 is_stmt 1 view .LVU98
.LVL17:
.LBB65:
.LBI54:
	.loc 2 97 13 view .LVU99
.LBB59:
	.loc 2 98 2 view .LVU100
	.loc 2 99 2 view .LVU101
	.loc 2 100 2 view .LVU102
	.loc 2 101 2 view .LVU103
	.loc 2 101 8 is_stmt 0 view .LVU104
	add	r0, r0, #4096
	.loc 2 101 17 view .LVU105
	ldrb	r3, [r0, #28]	@ zero_extendqisi2
	.loc 2 102 2 view .LVU106
	add	r1, r4, r1
	.loc 2 101 17 view .LVU107
	bic	r3, r3, #15
	.loc 2 102 2 view .LVU108
	add	r1, r1, #8192
	.loc 2 101 8 view .LVU109
	strb	r3, [r0, #28]
	.loc 2 102 2 is_stmt 1 view .LVU110
	ldr	r3, [r1, #28]
.LBE59:
.LBE65:
.LBE68:
.LBE71:
	.loc 1 22 42 is_stmt 0 view .LVU111
	add	lr, lr, #1
.LVL18:
.LBB72:
.LBB69:
.LBB66:
.LBB60:
	.loc 2 102 2 view .LVU112
	add	r3, r3, #1
.LBE60:
.LBE66:
.LBE69:
.LBE72:
	.loc 1 22 31 view .LVU113
	cmp	r2, lr
.LBB73:
.LBB70:
.LBB67:
.LBB61:
	.loc 2 102 2 view .LVU114
	str	r3, [r1, #28]
	.loc 2 103 2 is_stmt 1 view .LVU115
.LVL19:
	.loc 2 103 2 is_stmt 0 view .LVU116
.LBE61:
.LBE67:
.LBE70:
.LBE73:
	.loc 1 22 42 is_stmt 1 view .LVU117
	.loc 1 22 31 view .LVU118
	bne	.L8
.LBE51:
	.loc 1 25 4 view .LVU119
.LVL20:
.LBB74:
.LBI74:
	.loc 2 110 13 view .LVU120
.LBB75:
	.loc 2 111 2 view .LVU121
	.loc 2 111 40 is_stmt 0 view .LVU122
	cmp	r2, #0
	add	r3, r2, #15
	movge	r3, r2
	.loc 2 112 47 view .LVU123
	mov	lr, #3
.LVL21:
	.loc 2 112 47 view .LVU124
.LBE75:
.LBE74:
.LBB87:
.LBB88:
	.loc 1 30 5 view .LVU125
	mov	r9, #7
	mov	r10, #5
.LBE88:
.LBE87:
.LBB91:
.LBB86:
	.loc 2 112 23 view .LVU126
	rsbs	r1, r2, #0
	.loc 2 111 40 view .LVU127
	asr	r3, r3, #4
.LVL22:
	.loc 2 112 2 is_stmt 1 view .LVU128
	.loc 2 112 23 is_stmt 0 view .LVU129
	and	r1, r1, #15
	.loc 2 112 47 view .LVU130
	add	fp, r3, r3, lsl #8
	.loc 2 112 23 view .LVU131
	and	r2, r2, #15
.LVL23:
	.loc 2 112 47 view .LVU132
	add	r3, r3, fp, lsl #1
.LVL24:
	.loc 2 112 23 view .LVU133
	rsbpl	r2, r1, #0
.LBB76:
.LBB77:
	.loc 2 101 8 view .LVU134
	lsl	fp, r3, #4
	add	r1, r6, r2
.LBE77:
.LBE76:
	.loc 2 112 47 view .LVU135
	add	r3, r6, r3
	add	r3, r3, r2
.LBB82:
.LBB78:
	.loc 2 101 8 view .LVU136
	add	r1, fp, r1, lsl #4
.LBE78:
.LBE82:
	.loc 2 112 47 view .LVU137
	add	r3, r4, r3, lsl #4
.LBB83:
.LBB79:
	.loc 2 101 8 view .LVU138
	add	r1, r4, r1
.LBE79:
.LBE83:
	.loc 2 112 47 view .LVU139
	add	r3, r3, r5
.LBB84:
.LBB80:
	.loc 2 101 8 view .LVU140
	add	r1, r1, r5
.LBE80:
.LBE84:
	.loc 2 112 47 view .LVU141
	strb	lr, [r3, #28]
	.loc 2 113 2 is_stmt 1 view .LVU142
.LVL25:
.LBB85:
.LBI76:
	.loc 2 97 13 view .LVU143
.LBB81:
	.loc 2 98 2 view .LVU144
	.loc 2 99 2 view .LVU145
	.loc 2 100 2 view .LVU146
	.loc 2 101 2 view .LVU147
	.loc 2 101 8 is_stmt 0 view .LVU148
	add	r3, r1, #4096
	.loc 2 101 17 view .LVU149
	ldrb	r2, [r3, #28]	@ zero_extendqisi2
	.loc 2 102 2 view .LVU150
	add	fp, r4, fp
	.loc 2 101 17 view .LVU151
	bic	r2, r2, #15
	.loc 2 101 8 view .LVU152
	strb	r2, [r3, #28]
	.loc 2 102 2 is_stmt 1 view .LVU153
	add	fp, fp, #8192
	ldr	r3, [fp, #28]
	.loc 2 103 2 is_stmt 0 view .LVU154
	add	ip, ip, #4
	.loc 2 102 2 view .LVU155
	add	r3, r3, #1
	str	r3, [fp, #28]
	.loc 2 103 2 is_stmt 1 view .LVU156
	str	ip, [r8, #668]
.LVL26:
	.loc 2 103 2 is_stmt 0 view .LVU157
.LBE81:
.LBE85:
.LBE86:
.LBE91:
.LBB92:
	.loc 1 26 22 is_stmt 1 view .LVU158
.LBB89:
	.loc 1 28 5 view .LVU159
	.loc 1 29 5 view .LVU160
	.loc 1 30 5 view .LVU161
	.loc 1 30 5 is_stmt 0 view .LVU162
	stm	sp, {r9, lr}
	str	r4, [sp, #24]
	str	r10, [sp, #8]
	add	r3, sp, #20
	vmov	r0, s18	@ int
	ldm	r3, {r1, r2, r3}
.LBE89:
.LBE92:
.LBE95:
	.loc 1 10 30 view .LVU163
	add	r5, r5, #1
.LVL27:
.LBB96:
.LBB93:
.LBB90:
	.loc 1 30 5 view .LVU164
	bl	TreeGen_GenTree
.LVL28:
	.loc 1 30 5 view .LVU165
.LBE90:
	.loc 1 26 28 is_stmt 1 view .LVU166
	.loc 1 26 22 view .LVU167
.LBE93:
.LBE96:
	.loc 1 10 30 view .LVU168
	.loc 1 10 21 view .LVU169
	cmp	r5, #16
	bne	.L9
	.loc 1 10 21 is_stmt 0 view .LVU170
.LBE98:
	.loc 1 9 29 is_stmt 1 discriminator 2 view .LVU171
	ldr	r3, [sp, #16]
	add	r3, r3, #1
	.loc 1 9 20 is_stmt 0 discriminator 2 view .LVU172
	cmp	r3, #16
	.loc 1 9 29 discriminator 2 view .LVU173
	str	r3, [sp, #16]
.LVL29:
	.loc 1 9 20 is_stmt 1 discriminator 2 view .LVU174
	bne	.L4
.LBE100:
	.loc 1 35 1 is_stmt 0 view .LVU175
	add	sp, sp, #36
	.cfi_def_cfa_offset 52
	@ sp needed
	vldm	sp!, {d8-d9}
	.cfi_restore 82
	.cfi_restore 83
	.cfi_restore 80
	.cfi_restore 81
	.cfi_def_cfa_offset 36
.LVL30:
	.loc 1 35 1 view .LVU176
	pop	{r4, r5, r6, r7, r8, r9, r10, fp, pc}
.LVL31:
.L16:
	.loc 1 35 1 view .LVU177
	.align	2
.L15:
	.word	1023410176
	.word	1090519040
	.cfi_endproc
.LFE125:
	.size	DefaultGen_Generate, .-DefaultGen_Generate
	.text
.Letext0:
	.file 3 "/opt/devkitpro/devkitARM/arm-none-eabi/include/machine/_default_types.h"
	.file 4 "/opt/devkitpro/devkitARM/arm-none-eabi/include/sys/_stdint.h"
	.file 5 "/home/tobi/Dokumente/Craftus-Next/include/blocks/Block.h"
	.file 6 "/home/tobi/Dokumente/Craftus-Next/include/misc/Xorshift.h"
	.file 7 "/opt/devkitpro/devkitARM/lib/gcc/arm-none-eabi/11.2.0/include/stddef.h"
	.file 8 "/opt/devkitpro/devkitARM/arm-none-eabi/include/sys/lock.h"
	.file 9 "/home/tobi/Dokumente/Craftus-Next/include/rendering/VBOCache.h"
	.file 10 "/opt/devkitpro/libctru/include/3ds/synchronization.h"
	.file 11 "/home/tobi/Dokumente/Craftus-Next/include/world/WorkQueue.h"
	.file 12 "/home/tobi/Dokumente/Craftus-Next/include/world/World.h"
	.file 13 "/home/tobi/Dokumente/Craftus-Next/include/world/worldgen/DefaultGen.h"
	.file 14 "/home/tobi/Dokumente/Craftus-Next/dependencies/sino/sino.h"
	.file 15 "/home/tobi/Dokumente/Craftus-Next/include/world/worldgen/structures/TreeGen.h"
	.file 16 "/opt/devkitpro/libctru/include/3ds/types.h"