	.arch armv6k
	.eabi_attribute 28, 1
	.eabi_attribute 20, 1
	.eabi_attribute 21, 1
	.eabi_attribute 23, 3
	.eabi_attribute 24, 1
	.eabi_attribute 25, 1
	.eabi_attribute 26, 1
	.eabi_attribute 30, 2
	.eabi_attribute 34, 1
	.eabi_attribute 18, 4
	.file	"Gui.c"
	.text
.Ltext0:
	.cfi_sections	.debug_frame
	.section	.text.Gui_Init,"ax",%progbits
	.align	2
	.global	Gui_Init
	.syntax unified
	.arm
	.fpu vfp
	.type	Gui_Init, %function
Gui_Init:
.LFB206:
	.file 1 "/home/tobi/Dokumente/Craftus-Next/source/gui/Gui.c"
	.loc 1 23 17 view -0
	.cfi_startproc
	@ args = 0, pretend = 0, frame = 0
	@ frame_needed = 0, uses_anonymous_args = 0
	@ link register save eliminated.
	.loc 1 24 2 view .LVU1
	mov	r3, #0
	.loc 1 27 11 is_stmt 0 view .LVU2
	mov	ip, #2
	.loc 1 28 11 view .LVU3
	mov	r0, #3
	.loc 1 24 2 view .LVU4
	ldr	r2, .L3
	str	r3, [r2]
	str	r3, [r2, #4]
	str	r3, [r2, #8]
	str	r3, [r2, #12]
	str	r3, [r2, #16]
	str	r3, [r2, #20]
	.loc 1 25 2 is_stmt 1 view .LVU5
	str	r3, [r2, #24]
	.loc 1 27 11 is_stmt 0 view .LVU6
	str	ip, [r2, #48]
	.loc 1 28 11 view .LVU7
	str	r0, [r2, #52]
	.loc 1 25 2 view .LVU8
	str	r3, [r2, #28]
	str	r3, [r2, #32]
	str	r3, [r2, #36]
	str	r3, [r2, #40]
	str	r3, [r2, #44]
	.loc 1 27 2 is_stmt 1 view .LVU9
	.loc 1 28 2 view .LVU10
	.loc 1 29 1 is_stmt 0 view .LVU11
	bx	lr
.L4:
	.align	2
.L3:
	.word	.LANCHOR0
	.cfi_endproc
.LFE206:
	.size	Gui_Init, .-Gui_Init
	.section	.text.Gui_Deinit,"ax",%progbits
	.align	2
	.global	Gui_Deinit
	.syntax unified
	.arm
	.fpu vfp
	.type	Gui_Deinit, %function
Gui_Deinit:
.LFB208:
	.loc 1 33 19 is_stmt 1 view -0
	.cfi_startproc
	@ args = 0, pretend = 0, frame = 0
	@ frame_needed = 0, uses_anonymous_args = 0
	@ link register save eliminated.
	.loc 1 33 20 view .LVU13
	bx	lr
	.cfi_endproc
.LFE208:
	.size	Gui_Deinit, .-Gui_Deinit
	.section	.text.Gui_Frame,"ax",%progbits
	.align	2
	.global	Gui_Frame
	.syntax unified
	.arm
	.fpu vfp
	.type	Gui_Frame, %function
Gui_Frame:
.LFB209:
	.loc 1 35 18 view -0
	.cfi_startproc
	@ args = 0, pretend = 0, frame = 0
	@ frame_needed = 0, uses_anonymous_args = 0
	@ link register save eliminated.
	.loc 1 36 2 view .LVU15
	.loc 1 36 12 is_stmt 0 view .LVU16
	mov	r2, #0
	ldr	r3, .L7
	str	r2, [r3, #56]
	.loc 1 37 2 is_stmt 1 view .LVU17
	.loc 1 37 12 is_stmt 0 view .LVU18
	str	r2, [r3, #60]
	.loc 1 38 2 is_stmt 1 view .LVU19
	.loc 1 38 10 is_stmt 0 view .LVU20
	str	r2, [r3, #64]
	.loc 1 39 2 is_stmt 1 view .LVU21
	.loc 1 39 10 is_stmt 0 view .LVU22
	str	r2, [r3, #68]
	.loc 1 40 1 view .LVU23
	bx	lr
.L8:
	.align	2
.L7:
	.word	.LANCHOR0
	.cfi_endproc
.LFE209:
	.size	Gui_Frame, .-Gui_Frame
	.section	.text.Gui_Offset,"ax",%progbits
	.align	2
	.global	Gui_Offset
	.syntax unified
	.arm
	.fpu vfp
	.type	Gui_Offset, %function
Gui_Offset:
.LVL0:
.LFB210:
	.loc 1 42 31 is_stmt 1 view -0
	.cfi_startproc
	@ args = 0, pretend = 0, frame = 0
	@ frame_needed = 0, uses_anonymous_args = 0
	@ link register save eliminated.
	.loc 1 43 2 view .LVU25
	.loc 1 43 10 is_stmt 0 view .LVU26
	ldr	r3, .L10
	.loc 1 44 10 view .LVU27
	strd	r0, [r3, #64]
	.loc 1 45 1 view .LVU28
	bx	lr
.L11:
	.align	2
.L10:
	.word	.LANCHOR0
	.cfi_endproc
.LFE210:
	.size	Gui_Offset, .-Gui_Offset
	.section	.text.Gui_RelativeWidth,"ax",%progbits
	.align	2
	.global	Gui_RelativeWidth
	.syntax unified
	.arm
	.fpu vfp
	.type	Gui_RelativeWidth, %function
Gui_RelativeWidth:
.LVL1:
.LFB211:
	.loc 1 47 32 is_stmt 1 view -0
	.cfi_startproc
	@ args = 0, pretend = 0, frame = 0
	@ frame_needed = 0, uses_anonymous_args = 0
	.loc 1 47 34 view .LVU30
	.loc 1 47 32 is_stmt 0 view .LVU31
	push	{r4, lr}
	.cfi_def_cfa_offset 8
	.cfi_offset 4, -8
	.cfi_offset 14, -4
	vpush.64	{d8}
	.cfi_def_cfa_offset 16
	.cfi_offset 80, -16
	.cfi_offset 81, -12
	.loc 1 47 32 view .LVU32
	vmov.f32	s16, s0
	.loc 1 47 41 view .LVU33
	bl	SpriteBatch_GetWidth
.LVL2:
	.loc 1 47 64 view .LVU34
	vmov	s15, r0	@ int
	vcvt.f32.s32	s15, s15
	vmul.f32	s0, s15, s16
	.loc 1 47 69 view .LVU35
	vldm	sp!, {d8}
	.cfi_restore 80
	.cfi_restore 81
	.cfi_def_cfa_offset 8
.LVL3:
	.loc 1 47 69 view .LVU36
	vcvt.s32.f32	s15, s0
	vmov	r0, s15	@ int
	pop	{r4, pc}
	.cfi_endproc
.LFE211:
	.size	Gui_RelativeWidth, .-Gui_RelativeWidth
	.section	.text.Gui_RelativeHeight,"ax",%progbits
	.align	2
	.global	Gui_RelativeHeight
	.syntax unified
	.arm
	.fpu vfp
	.type	Gui_RelativeHeight, %function
Gui_RelativeHeight:
.LVL4:
.LFB212:
	.loc 1 48 33 is_stmt 1 view -0
	.cfi_startproc
	@ args = 0, pretend = 0, frame = 0
	@ frame_needed = 0, uses_anonymous_args = 0
	.loc 1 48 35 view .LVU38
	.loc 1 48 33 is_stmt 0 view .LVU39
	push	{r4, lr}
	.cfi_def_cfa_offset 8
	.cfi_offset 4, -8
	.cfi_offset 14, -4
	vpush.64	{d8}
	.cfi_def_cfa_offset 16
	.cfi_offset 80, -16
	.cfi_offset 81, -12
	.loc 1 48 33 view .LVU40
	vmov.f32	s16, s0
	.loc 1 48 42 view .LVU41
	bl	SpriteBatch_GetHeight
.LVL5:
	.loc 1 48 66 view .LVU42
	vmov	s15, r0	@ int
	vcvt.f32.s32	s15, s15
	vmul.f32	s0, s15, s16
	.loc 1 48 71 view .LVU43
	vldm	sp!, {d8}
	.cfi_restore 80
	.cfi_restore 81
	.cfi_def_cfa_offset 8
.LVL6:
	.loc 1 48 71 view .LVU44
	vcvt.s32.f32	s15, s0
	vmov	r0, s15	@ int
	pop	{r4, pc}
	.cfi_endproc
.LFE212:
	.size	Gui_RelativeHeight, .-Gui_RelativeHeight
	.section	.text.Gui_BeginRowCenter,"ax",%progbits
	.align	2
	.global	Gui_BeginRowCenter
	.syntax unified
	.arm
	.fpu vfp
	.type	Gui_BeginRowCenter, %function
Gui_BeginRowCenter:
.LVL7:
.LFB213:
	.loc 1 50 47 is_stmt 1 view -0
	.cfi_startproc
	@ args = 0, pretend = 0, frame = 0
	@ frame_needed = 0, uses_anonymous_args = 0
	.loc 1 51 2 view .LVU46
	.loc 1 50 47 is_stmt 0 view .LVU47
	push	{r4, r5, r6, lr}
	.cfi_def_cfa_offset 16
	.cfi_offset 4, -16
	.cfi_offset 5, -12
	.cfi_offset 6, -8
	.cfi_offset 14, -4
	.loc 1 50 47 view .LVU48
	mov	r5, r1
	mov	r4, r0
	.loc 1 51 12 view .LVU49
	bl	SpriteBatch_GetWidth
.LVL8:
.LBB11:
.LBB12:
	.loc 1 56 13 view .LVU50
	mov	ip, #0
.LBE12:
.LBE11:
	.loc 1 51 10 view .LVU51
	ldr	r3, .L18
	.loc 1 51 47 view .LVU52
	add	r1, r4, r4, lsr #31
.LBB18:
.LBB13:
	.loc 1 56 48 view .LVU53
	ldr	r2, [r3, #48]
.LBE13:
.LBE18:
	.loc 1 51 47 view .LVU54
	asr	r1, r1, #1
.LBB19:
.LBB14:
	.loc 1 56 63 view .LVU55
	mul	r5, r2, r5
.LVL9:
	.loc 1 57 12 view .LVU56
	str	r2, [r3, #56]
.LBE14:
.LBE19:
	.loc 1 51 35 view .LVU57
	add	r0, r0, r0, lsr #31
.LBB20:
.LBB15:
	.loc 1 56 37 view .LVU58
	sub	r2, r4, r2, lsl #1
.LBE15:
.LBE20:
	.loc 1 51 39 view .LVU59
	rsb	r1, r1, r0, asr #1
.LBB21:
.LBB16:
	.loc 1 56 52 view .LVU60
	sub	r2, r2, r5
.LBE16:
.LBE21:
	.loc 1 51 10 view .LVU61
	str	r1, [r3, #64]
	.loc 1 52 2 is_stmt 1 view .LVU62
.LVL10:
.LBB22:
.LBI11:
	.loc 1 55 6 view .LVU63
.LBB17:
	.loc 1 56 2 view .LVU64
	.loc 1 56 13 is_stmt 0 view .LVU65
	str	r4, [r3, #72]
	str	ip, [r3, #76]
	str	r2, [r3, #80]
	.loc 1 57 2 is_stmt 1 view .LVU66
	.loc 1 58 2 view .LVU67
	.loc 1 58 12 is_stmt 0 view .LVU68
	str	ip, [r3, #60]
.LVL11:
	.loc 1 58 12 view .LVU69
.LBE17:
.LBE22:
	.loc 1 53 1 view .LVU70
	pop	{r4, r5, r6, pc}
.L19:
	.align	2
.L18:
	.word	.LANCHOR0
	.cfi_endproc
.LFE213:
	.size	Gui_BeginRowCenter, .-Gui_BeginRowCenter
	.section	.text.Gui_BeginRow,"ax",%progbits
	.align	2
	.global	Gui_BeginRow
	.syntax unified
	.arm
	.fpu vfp
	.type	Gui_BeginRow, %function
Gui_BeginRow:
.LVL12:
.LFB214:
	.loc 1 55 41 is_stmt 1 view -0
	.cfi_startproc
	@ args = 0, pretend = 0, frame = 0
	@ frame_needed = 0, uses_anonymous_args = 0
	@ link register save eliminated.
	.loc 1 56 2 view .LVU72
	.loc 1 56 13 is_stmt 0 view .LVU73
	mov	ip, #0
	.loc 1 56 48 view .LVU74
	ldr	r2, .L21
	ldr	r3, [r2, #48]
	.loc 1 56 13 view .LVU75
	str	ip, [r2, #76]
	.loc 1 56 63 view .LVU76
	mul	r1, r1, r3
.LVL13:
	.loc 1 57 12 view .LVU77
	str	r3, [r2, #56]
	.loc 1 56 37 view .LVU78
	sub	r3, r0, r3, lsl #1
	.loc 1 56 52 view .LVU79
	sub	r3, r3, r1
	.loc 1 58 12 view .LVU80
	str	ip, [r2, #60]
	.loc 1 56 13 view .LVU81
	str	r0, [r2, #72]
	str	r3, [r2, #80]
	.loc 1 57 2 is_stmt 1 view .LVU82
	.loc 1 58 2 view .LVU83
	.loc 1 59 1 is_stmt 0 view .LVU84
	bx	lr
.L22:
	.align	2
.L21:
	.word	.LANCHOR0
	.cfi_endproc
.LFE214:
	.size	Gui_BeginRow, .-Gui_BeginRow
	.section	.text.Gui_EndRow,"ax",%progbits
	.align	2
	.global	Gui_EndRow
	.syntax unified
	.arm
	.fpu vfp
	.type	Gui_EndRow, %function
Gui_EndRow:
.LFB215:
	.loc 1 60 19 is_stmt 1 view -0
	.cfi_startproc
	@ args = 0, pretend = 0, frame = 0
	@ frame_needed = 0, uses_anonymous_args = 0
	@ link register save eliminated.
	.loc 1 60 21 view .LVU86
	.loc 1 60 29 is_stmt 0 view .LVU87
	ldr	r2, .L24
	.loc 1 60 58 view .LVU88
	ldr	r3, [r2, #76]
	ldr	r0, [r2, #52]
	.loc 1 60 29 view .LVU89
	ldr	r1, [r2, #68]
	.loc 1 60 58 view .LVU90
	add	r3, r3, r0
	.loc 1 60 29 view .LVU91
	add	r3, r3, r1
	str	r3, [r2, #68]
	.loc 1 60 70 view .LVU92
	bx	lr
.L25:
	.align	2
.L24:
	.word	.LANCHOR0
	.cfi_endproc
.LFE215:
	.size	Gui_EndRow, .-Gui_EndRow
	.section	.text.Gui_Label,"ax",%progbits
	.align	2
	.global	Gui_Label
	.syntax unified
	.arm
	.fpu vfp
	.type	Gui_Label, %function
Gui_Label:
.LVL14:
.LFB216:
	.loc 1 62 91 is_stmt 1 view -0
	.cfi_startproc
	@ args = 4, pretend = 0, frame = 8
	@ frame_needed = 0, uses_anonymous_args = 1
	.loc 1 63 2 view .LVU94
	.loc 1 62 91 is_stmt 0 view .LVU95
	push	{r4, r5, r6, lr}
	.cfi_def_cfa_offset 16
	.cfi_offset 4, -16
	.cfi_offset 5, -12
	.cfi_offset 6, -8
	.cfi_offset 14, -4
	vpush.64	{d8}
	.cfi_def_cfa_offset 24
	.cfi_offset 80, -24
	.cfi_offset 81, -20
	vmov	s16, r0
	.loc 1 63 69 view .LVU96
	vcmpe.f32	s16, #0
	vmrs	APSR_nzcv, FPSCR
	.loc 1 63 38 view .LVU97
	ldr	r5, .L37
	.loc 1 62 91 view .LVU98
	sub	sp, sp, #32
	.cfi_def_cfa_offset 56
.LBB23:
.LBB24:
	.loc 1 31 66 view .LVU99
	vldrhi.32	s15, [r5, #80]	@ int
	vcvthi.f32.s32	s15, s15
	.loc 1 31 98 view .LVU100
	vmulhi.f32	s15, s15, s16
.LBE24:
.LBE23:
	.loc 1 63 45 view .LVU101
	ldrls	r2, [r5, #56]
.LVL15:
	.loc 1 63 45 view .LVU102
	ldrls	r4, [r5, #72]
.LBB28:
.LBB25:
	.loc 1 31 60 view .LVU103
	vcvthi.s32.f32	s15, s15
.LBE25:
.LBE28:
	.loc 1 63 45 view .LVU104
	subls	r4, r4, r2
	.loc 1 63 69 view .LVU105
	ldrls	r2, [r5, #48]
.LBB29:
.LBB26:
	.loc 1 31 60 view .LVU106
	vmovhi	r4, s15	@ int
.LBE26:
.LBE29:
	.loc 1 63 69 view .LVU107
	subls	r4, r4, r2
.LVL16:
.LBB30:
.LBI23:
	.loc 1 31 19 is_stmt 1 view .LVU108
.LBB27:
	.loc 1 31 53 view .LVU109
	.loc 1 31 53 is_stmt 0 view .LVU110
.LBE27:
.LBE30:
	.loc 1 64 2 is_stmt 1 view .LVU111
	.loc 1 64 6 is_stmt 0 view .LVU112
	mov	r2, #0
	.loc 1 67 1 view .LVU113
	add	r1, sp, #60
	.loc 1 69 5 view .LVU114
	cmp	r3, r2
	.loc 1 62 91 view .LVU115
	ldr	r6, [sp, #56]
	.loc 1 67 1 view .LVU116
	str	r1, [sp, #28]
	.loc 1 64 6 view .LVU117
	str	r2, [sp, #24]
	.loc 1 66 2 is_stmt 1 view .LVU118
	.loc 1 67 1 view .LVU119
	.loc 1 68 2 view .LVU120
.LVL17:
	.loc 1 69 2 view .LVU121
	.loc 1 69 5 is_stmt 0 view .LVU122
	bne	.L30
.LVL18:
.L32:
	.loc 1 68 6 view .LVU123
	mov	r3, #0
.LVL19:
.L31:
	.loc 1 73 2 is_stmt 1 view .LVU124
	.loc 1 74 6 is_stmt 0 view .LVU125
	mov	r2, #0
	add	r0, sp, #24
	.loc 1 74 40 view .LVU126
	ldr	ip, [r5, #56]
	.loc 1 74 6 view .LVU127
	str	r0, [sp, #8]
	.loc 1 74 40 view .LVU128
	ldr	r0, [r5, #64]
	.loc 1 74 6 view .LVU129
	ldr	r1, [r5, #68]
	.loc 1 74 40 view .LVU130
	add	r0, r0, ip
	.loc 1 74 6 view .LVU131
	add	r0, r0, r3
	ldr	r3, [r5, #60]
.LVL20:
	.loc 1 74 6 view .LVU132
	str	r2, [sp]
	add	r1, r1, r3
	ldr	r3, [sp, #28]
	str	r6, [sp, #12]
	str	r3, [sp, #16]
	str	r4, [sp, #4]
	ldr	r3, .L37+4
	bl	SpriteBatch_PushTextVargs
.LVL21:
	.loc 1 75 1 is_stmt 1 view .LVU133
	.loc 1 76 2 view .LVU134
	.loc 1 76 40 is_stmt 0 view .LVU135
	vcmpe.f32	s16, #0
	vmrs	APSR_nzcv, FPSCR
	.loc 1 77 103 view .LVU136
	ldr	r3, [r5, #76]
	ldr	r2, [sp, #24]
	.loc 1 76 40 view .LVU137
	movhi	r0, r4
.LVL22:
	.loc 1 77 103 view .LVU138
	cmp	r3, r2
	movlt	r3, r2
	.loc 1 76 48 view .LVU139
	ldr	ip, [r5, #48]
	.loc 1 76 12 view .LVU140
	ldr	r1, [r5, #56]
	.loc 1 76 48 view .LVU141
	add	r0, r0, ip
	.loc 1 76 12 view .LVU142
	add	r0, r0, r1
	str	r0, [r5, #56]
	.loc 1 77 2 is_stmt 1 view .LVU143
	.loc 1 77 28 is_stmt 0 view .LVU144
	str	r3, [r5, #76]
	.loc 1 78 1 view .LVU145
	add	sp, sp, #32
	.cfi_remember_state
	.cfi_def_cfa_offset 24
	@ sp needed
	vldm	sp!, {d8}
	.cfi_restore 80
	.cfi_restore 81
	.cfi_def_cfa_offset 16
.LVL23:
	.loc 1 78 1 view .LVU146
	pop	{r4, r5, r6, pc}
.LVL24:
.L30:
	.cfi_restore_state
.LBB31:
	.loc 1 70 3 is_stmt 1 view .LVU147
	.loc 1 70 19 is_stmt 0 view .LVU148
	mov	r0, r6
.LVL25:
	.loc 1 70 19 view .LVU149
	bl	SpriteBatch_CalcTextWidthVargs
.LVL26:
	.loc 1 71 3 is_stmt 1 view .LVU150
	.loc 1 71 6 is_stmt 0 view .LVU151
	cmp	r4, r0
	blt	.L32
	.loc 1 71 26 is_stmt 1 discriminator 1 view .LVU152
	.loc 1 71 57 is_stmt 0 discriminator 1 view .LVU153
	add	r0, r0, r0, lsr #31
.LVL27:
	.loc 1 71 41 discriminator 1 view .LVU154
	add	r2, r4, r4, lsr #31
	.loc 1 71 57 discriminator 1 view .LVU155
	asr	r3, r0, #1
	.loc 1 71 34 discriminator 1 view .LVU156
	rsb	r3, r3, r2, asr #1
.LVL28:
	.loc 1 71 34 discriminator 1 view .LVU157
	b	.L31
.L38:
	.align	2
.L37:
	.word	.LANCHOR0
	.word	32767
.LBE31:
	.cfi_endproc
.LFE216:
	.size	Gui_Label, .-Gui_Label
	.section	.text.Gui_Space,"ax",%progbits
	.align	2
	.global	Gui_Space
	.syntax unified
	.arm
	.fpu vfp
	.type	Gui_Space, %function
Gui_Space:
.LVL29:
.LFB218:
	.loc 1 115 29 is_stmt 1 view -0
	.cfi_startproc
	@ args = 0, pretend = 0, frame = 0
	@ frame_needed = 0, uses_anonymous_args = 0
	@ link register save eliminated.
	.loc 1 115 31 view .LVU159
	.loc 1 115 41 is_stmt 0 view .LVU160
	ldr	r2, .L40
.LVL30:
.LBB32:
.LBI32:
	.loc 1 31 19 is_stmt 1 view .LVU161
.LBB33:
	.loc 1 31 53 view .LVU162
	.loc 1 31 66 is_stmt 0 view .LVU163
	vldr.32	s15, [r2, #80]	@ int
	vcvt.f32.s32	s15, s15
	.loc 1 31 98 view .LVU164
	vmul.f32	s0, s15, s0
.LVL31:
	.loc 1 31 60 view .LVU165
	vcvt.s32.f32	s15, s0
	vmov	r3, s15	@ int
.LBE33:
.LBE32:
	.loc 1 115 74 view .LVU166
	ldr	r0, [r2, #48]
	.loc 1 115 41 view .LVU167
	ldr	r1, [r2, #56]
	.loc 1 115 74 view .LVU168
	add	r3, r3, r0
	.loc 1 115 41 view .LVU169
	add	r3, r3, r1
	str	r3, [r2, #56]
	.loc 1 115 86 view .LVU170
	bx	lr
.L41:
	.align	2
.L40:
	.word	.LANCHOR0
	.cfi_endproc
.LFE218:
	.size	Gui_Space, .-Gui_Space
	.section	.text.Gui_VerticalSpace,"ax",%progbits
	.align	2
	.global	Gui_VerticalSpace
	.syntax unified
	.arm
	.fpu vfp
	.type	Gui_VerticalSpace, %function
Gui_VerticalSpace:
.LVL32:
.LFB219:
	.loc 1 116 31 is_stmt 1 view -0
	.cfi_startproc
	@ args = 0, pretend = 0, frame = 0
	@ frame_needed = 0, uses_anonymous_args = 0
	@ link register save eliminated.
	.loc 1 116 33 view .LVU172
	.loc 1 116 41 is_stmt 0 view .LVU173
	ldr	r2, .L43
	ldr	r3, [r2, #68]
	add	r0, r3, r0
.LVL33:
	.loc 1 116 41 view .LVU174
	str	r0, [r2, #68]
	.loc 1 116 47 view .LVU175
	bx	lr
.L44:
	.align	2
.L43:
	.word	.LANCHOR0
	.cfi_endproc
.LFE219:
	.size	Gui_VerticalSpace, .-Gui_VerticalSpace
	.section	.text.Gui_InputData,"ax",%progbits
	.align	2
	.global	Gui_InputData
	.syntax unified
	.arm
	.fpu vfp
	.type	Gui_InputData, %function
Gui_InputData:
.LFB220:
	.loc 1 118 36 is_stmt 1 view -0
	.cfi_startproc
	@ args = 24, pretend = 16, frame = 0
	@ frame_needed = 0, uses_anonymous_args = 0
	.loc 1 119 2 view .LVU177
	.loc 1 119 11 is_stmt 0 view .LVU178
	ldr	ip, .L47
	.loc 1 118 36 view .LVU179
	sub	sp, sp, #16
	.cfi_def_cfa_offset 16
	push	{r4, r5, lr}
	.cfi_def_cfa_offset 28
	.cfi_offset 4, -28
	.cfi_offset 5, -24
	.cfi_offset 14, -20
	.loc 1 120 8 view .LVU180
	mov	r5, ip
	.loc 1 118 36 view .LVU181
	add	lr, sp, #12
	.loc 1 119 11 view .LVU182
	add	r4, ip, #24
	.loc 1 118 36 view .LVU183
	stm	lr, {r0, r1, r2, r3}
	.loc 1 119 11 view .LVU184
	ldmia	ip!, {r0, r1, r2, r3}
	stmia	r4!, {r0, r1, r2, r3}
	ldm	ip, {r0, r1}
	stm	r4, {r0, r1}
	.loc 1 120 2 is_stmt 1 view .LVU185
	.loc 1 120 8 is_stmt 0 view .LVU186
	ldmia	lr!, {r0, r1, r2, r3}
	stmia	r5!, {r0, r1, r2, r3}
	ldm	lr, {r0, r1}
	.loc 1 121 1 view .LVU187
	pop	{r4, r5, lr}
	.cfi_restore 14
	.cfi_restore 5
	.cfi_restore 4
	.cfi_def_cfa_offset 16
	.loc 1 120 8 view .LVU188
	stm	ip, {r0, r1}
	.loc 1 121 1 view .LVU189
	add	sp, sp, #16
	.cfi_def_cfa_offset 0
	bx	lr
.L48:
	.align	2
.L47:
	.word	.LANCHOR0
	.cfi_endproc
.LFE220:
	.size	Gui_InputData, .-Gui_InputData
	.global	__aeabi_idiv
	.section	.text.Gui_IsCursorInside,"ax",%progbits
	.align	2
	.global	Gui_IsCursorInside
	.syntax unified
	.arm
	.fpu vfp
	.type	Gui_IsCursorInside, %function
Gui_IsCursorInside:
.LVL34:
.LFB221:
	.loc 1 123 52 is_stmt 1 view -0
	.cfi_startproc
	@ args = 0, pretend = 0, frame = 0
	@ frame_needed = 0, uses_anonymous_args = 0
	.loc 1 124 2 view .LVU191
	.loc 1 123 52 is_stmt 0 view .LVU192
	push	{r4, r5, r6, r7, r8, r9, r10, lr}
	.cfi_def_cfa_offset 32
	.cfi_offset 4, -32
	.cfi_offset 5, -28
	.cfi_offset 6, -24
	.cfi_offset 7, -20
	.cfi_offset 8, -16
	.cfi_offset 9, -12
	.cfi_offset 10, -8
	.cfi_offset 14, -4
	.loc 1 124 23 view .LVU193
	ldr	r9, .L59
	.loc 1 123 52 view .LVU194
	mov	r7, r2
	mov	r8, r3
	.loc 1 124 23 view .LVU195
	ldrh	r4, [r9, #16]
	.loc 1 123 52 view .LVU196
	mov	r5, r0
	mov	r6, r1
	.loc 1 124 33 view .LVU197
	bl	SpriteBatch_GetScale
.LVL35:
	.loc 1 124 33 view .LVU198
	mov	r1, r0
	.loc 1 124 6 view .LVU199
	mov	r0, r4
	bl	__aeabi_idiv
.LVL36:
	.loc 1 125 23 view .LVU200
	ldrh	r9, [r9, #18]
	.loc 1 124 6 view .LVU201
	mov	r4, r0
.LVL37:
	.loc 1 125 2 is_stmt 1 view .LVU202
	.loc 1 125 33 is_stmt 0 view .LVU203
	bl	SpriteBatch_GetScale
.LVL38:
	.loc 1 125 33 view .LVU204
	mov	r1, r0
	.loc 1 125 6 view .LVU205
	mov	r0, r9
	bl	__aeabi_idiv
.LVL39:
	.loc 1 126 2 is_stmt 1 view .LVU206
	.loc 1 126 24 is_stmt 0 view .LVU207
	cmp	r4, #0
	cmpne	r0, #0
	movne	ip, #1
	moveq	ip, #0
	.loc 1 126 42 view .LVU208
	cmp	r4, r5
	movlt	ip, #0
	andge	ip, ip, #1
	cmp	ip, #0
	bne	.L58
.LVL40:
.L50:
	.loc 1 127 1 discriminator 12 view .LVU209
	mov	r0, ip
.LVL41:
	.loc 1 127 1 discriminator 12 view .LVU210
	pop	{r4, r5, r6, r7, r8, r9, r10, pc}
.LVL42:
.L58:
	.loc 1 126 77 discriminator 3 view .LVU211
	add	r5, r5, r7
.LVL43:
	.loc 1 126 81 discriminator 3 view .LVU212
	cmp	r0, r6
	cmpge	r5, r4
	movgt	ip, #1
	movle	ip, #0
	ble	.L50
	.loc 1 126 116 discriminator 7 view .LVU213
	add	r6, r6, r8
.LVL44:
	.loc 1 126 99 discriminator 7 view .LVU214
	cmp	r6, r0
	movle	ip, #0
	movgt	ip, #1
	b	.L50
.L60:
	.align	2
.L59:
	.word	.LANCHOR0
	.cfi_endproc
.LFE221:
	.size	Gui_IsCursorInside, .-Gui_IsCursorInside
	.section	.text.Gui_WasCursorInside,"ax",%progbits
	.align	2
	.global	Gui_WasCursorInside
	.syntax unified
	.arm
	.fpu vfp
	.type	Gui_WasCursorInside, %function
Gui_WasCursorInside:
.LVL45:
.LFB222:
	.loc 1 128 53 is_stmt 1 view -0
	.cfi_startproc
	@ args = 0, pretend = 0, frame = 0
	@ frame_needed = 0, uses_anonymous_args = 0
	.loc 1 129 2 view .LVU216
	.loc 1 128 53 is_stmt 0 view .LVU217
	push	{r4, r5, r6, r7, r8, r9, r10, lr}
	.cfi_def_cfa_offset 32
	.cfi_offset 4, -32
	.cfi_offset 5, -28
	.cfi_offset 6, -24
	.cfi_offset 7, -20
	.cfi_offset 8, -16
	.cfi_offset 9, -12
	.cfi_offset 10, -8
	.cfi_offset 14, -4
	.loc 1 129 29 view .LVU218
	ldr	r9, .L71
	.loc 1 128 53 view .LVU219
	mov	r7, r2
	mov	r8, r3
	.loc 1 129 29 view .LVU220
	ldrh	r4, [r9, #40]
	.loc 1 128 53 view .LVU221
	mov	r5, r0
	mov	r6, r1
	.loc 1 129 39 view .LVU222
	bl	SpriteBatch_GetScale
.LVL46:
	.loc 1 129 39 view .LVU223
	mov	r1, r0
	.loc 1 129 6 view .LVU224
	mov	r0, r4
	bl	__aeabi_idiv
.LVL47:
	.loc 1 130 29 view .LVU225
	ldrh	r9, [r9, #42]
	.loc 1 129 6 view .LVU226
	mov	r4, r0
.LVL48:
	.loc 1 130 2 is_stmt 1 view .LVU227
	.loc 1 130 39 is_stmt 0 view .LVU228
	bl	SpriteBatch_GetScale
.LVL49:
	.loc 1 130 39 view .LVU229
	mov	r1, r0
	.loc 1 130 6 view .LVU230
	mov	r0, r9
	bl	__aeabi_idiv
.LVL50:
	.loc 1 131 2 is_stmt 1 view .LVU231
	.loc 1 131 27 is_stmt 0 view .LVU232
	cmp	r4, #0
	cmpne	r0, #0
	movne	ip, #1
	moveq	ip, #0
	.loc 1 131 48 view .LVU233
	cmp	r4, r5
	movlt	ip, #0
	andge	ip, ip, #1
	cmp	ip, #0
	bne	.L70
.LVL51:
.L62:
	.loc 1 133 1 discriminator 12 view .LVU234
	mov	r0, ip
.LVL52:
	.loc 1 133 1 discriminator 12 view .LVU235
	pop	{r4, r5, r6, r7, r8, r9, r10, pc}
.LVL53:
.L70:
	.loc 1 131 89 discriminator 3 view .LVU236
	add	r5, r5, r7
.LVL54:
	.loc 1 131 93 discriminator 3 view .LVU237
	cmp	r0, r6
	cmpge	r5, r4
	movgt	ip, #1
	movle	ip, #0
	ble	.L62
	.loc 1 132 26 discriminator 7 view .LVU238
	add	r6, r6, r8
.LVL55:
	.loc 1 131 114 discriminator 7 view .LVU239
	cmp	r6, r0
	movle	ip, #0
	movgt	ip, #1
	b	.L62
.L72:
	.align	2
.L71:
	.word	.LANCHOR0
	.cfi_endproc
.LFE222:
	.size	Gui_WasCursorInside, .-Gui_WasCursorInside
	.section	.text.Gui_Button,"ax",%progbits
	.align	2
	.global	Gui_Button
	.syntax unified
	.arm
	.fpu vfp
	.type	Gui_Button, %function
Gui_Button:
.LVL56:
.LFB217:
	.loc 1 80 52 is_stmt 1 view -0
	.cfi_startproc
	@ args = 4, pretend = 12, frame = 24
	@ frame_needed = 0, uses_anonymous_args = 1
	.loc 1 83 2 view .LVU241
	.loc 1 84 1 view .LVU242
	.loc 1 80 52 is_stmt 0 view .LVU243
	push	{r1, r2, r3}
	.cfi_def_cfa_offset 12
	.cfi_offset 1, -12
	.cfi_offset 2, -8
	.cfi_offset 3, -4
	mov	r3, r0	@ float
	push	{r4, r5, r6, r7, r8, r9, r10, fp, lr}
	.cfi_def_cfa_offset 48
	.cfi_offset 4, -48
	.cfi_offset 5, -44
	.cfi_offset 6, -40
	.cfi_offset 7, -36
	.cfi_offset 8, -32
	.cfi_offset 9, -28
	.cfi_offset 10, -24
	.cfi_offset 11, -20
	.cfi_offset 14, -16
	vpush.64	{d8}
	.cfi_def_cfa_offset 56
	.cfi_offset 80, -56
	.cfi_offset 81, -52
	vmov	s16, r3
	sub	sp, sp, #48
	.cfi_def_cfa_offset 104
	.loc 1 84 1 view .LVU244
	add	r1, sp, #96
	.loc 1 86 18 view .LVU245
	ldr	r0, [sp, #92]
.LVL57:
	.loc 1 84 1 view .LVU246
	str	r1, [sp, #44]
	.loc 1 86 2 is_stmt 1 view .LVU247
	.loc 1 86 18 is_stmt 0 view .LVU248
	bl	SpriteBatch_CalcTextWidthVargs
.LVL58:
	.loc 1 90 40 view .LVU249
	vcmpe.f32	s16, #0
	vmrs	APSR_nzcv, FPSCR
	.loc 1 88 18 view .LVU250
	ldr	r5, .L83
	.loc 1 90 40 view .LVU251
	addls	r6, r0, #8
.LBB34:
.LBB35:
	.loc 1 31 66 view .LVU252
	vldrhi.32	s15, [r5, #80]	@ int
	vcvthi.f32.s32	s15, s15
	.loc 1 31 98 view .LVU253
	vmulhi.f32	s15, s15, s16
	.loc 1 31 60 view .LVU254
	vcvthi.s32.f32	s15, s15
	vmovhi	r6, s15	@ int
.LBE35:
.LBE34:
	.loc 1 88 6 view .LVU255
	ldr	r3, [r5, #56]
	ldr	r7, [r5, #64]
	.loc 1 89 18 view .LVU256
	ldr	fp, [r5, #68]
	.loc 1 88 6 view .LVU257
	add	r7, r7, r3
	.loc 1 89 18 view .LVU258
	ldr	r3, [r5, #60]
	.loc 1 92 16 view .LVU259
	mov	r2, r6
	.loc 1 89 18 view .LVU260
	add	fp, fp, r3
	.loc 1 89 6 view .LVU261
	sub	r10, fp, #6
	.loc 1 92 16 view .LVU262
	mov	r3, #20
	mov	r1, r10
	.loc 1 86 18 view .LVU263
	str	r0, [sp, #28]
.LVL59:
	.loc 1 88 2 is_stmt 1 view .LVU264
	.loc 1 89 2 view .LVU265
	.loc 1 90 2 view .LVU266
.LBB37:
.LBI34:
	.loc 1 31 19 view .LVU267
.LBB36:
	.loc 1 31 53 view .LVU268
	.loc 1 31 53 is_stmt 0 view .LVU269
.LBE36:
.LBE37:
	.loc 1 92 1 is_stmt 1 view .LVU270
	.loc 1 92 16 is_stmt 0 view .LVU271
	mov	r0, r7
.LVL60:
	.loc 1 92 16 view .LVU272
	bl	Gui_IsCursorInside
.LVL61:
	.loc 1 92 16 view .LVU273
	mov	r4, r0
	.loc 1 96 2 view .LVU274
	mov	r0, #3
.LVL62:
	.loc 1 94 2 is_stmt 1 view .LVU275
	.loc 1 96 2 view .LVU276
	bl	SpriteBatch_BindGuiTexture
.LVL63:
	.loc 1 97 2 view .LVU277
	mov	r8, #20
	mov	r9, #8
	mov	r3, #0
	.loc 1 97 62 is_stmt 0 view .LVU278
	add	r4, r4, r4, lsl #2
.LVL64:
	.loc 1 97 62 view .LVU279
	lsl	r4, r4, #3
	.loc 1 97 2 view .LVU280
	add	r4, r4, #46
	mvn	r2, #2
	mov	r1, r10
	mov	r0, r7
	str	r3, [sp, #4]
	str	r8, [sp, #16]
	mov	r3, r9
	str	r9, [sp, #12]
	str	r8, [sp]
	str	r4, [sp, #8]
	bl	SpriteBatch_PushQuad
.LVL65:
	.loc 1 98 2 is_stmt 1 view .LVU281
	sub	r3, r6, #16
	add	r0, r7, r9
	mvn	r2, #2
	mov	r1, r10
	str	r3, [sp, #12]
	strd	r8, [sp]
	str	r8, [sp, #16]
	str	r4, [sp, #8]
	str	r3, [sp, #36]
	str	r0, [sp, #32]
	bl	SpriteBatch_PushQuad
.LVL66:
	.loc 1 100 2 view .LVU282
	mov	r2, #192
	ldr	r3, [sp, #36]
	ldr	r0, [sp, #32]
	mov	r1, r10
	add	r0, r0, r3
	str	r2, [sp, #4]
	mov	r3, r9
	mvn	r2, #2
	str	r4, [sp, #8]
	str	r8, [sp, #16]
	str	r9, [sp, #12]
	str	r8, [sp]
	bl	SpriteBatch_PushQuad
.LVL67:
	.loc 1 103 2 view .LVU283
	mov	r3, #0
	ldr	r2, [sp, #92]
	str	r3, [sp, #8]
	.loc 1 103 51 is_stmt 0 view .LVU284
	ldr	r3, [sp, #28]
	.loc 1 103 2 view .LVU285
	str	r2, [sp, #12]
	.loc 1 103 51 view .LVU286
	add	r0, r3, r3, lsr #31
	.loc 1 103 2 view .LVU287
	mov	r2, #1
	mvn	r3, #-2147483648
	strd	r2, [sp]
	ldr	r3, [sp, #44]
	.loc 1 103 51 view .LVU288
	asr	r0, r0, #1
	.loc 1 103 2 view .LVU289
	str	r3, [sp, #16]
	.loc 1 103 35 view .LVU290
	add	r3, r6, r6, lsr #31
	.loc 1 103 39 view .LVU291
	rsb	r0, r0, r3, asr #1
	.loc 1 103 2 view .LVU292
	mvn	r2, #0
	ldr	r3, .L83+4
	mov	r1, fp
	add	r0, r0, r7
	bl	SpriteBatch_PushTextVargs
.LVL68:
	.loc 1 105 1 is_stmt 1 view .LVU293
	.loc 1 107 2 view .LVU294
	.loc 1 108 96 is_stmt 0 view .LVU295
	ldr	r3, [r5, #76]
	.loc 1 107 12 view .LVU296
	ldr	r2, [r5, #56]
	.loc 1 108 96 view .LVU297
	cmp	r3, r8
	movlt	r3, r8
	.loc 1 108 28 view .LVU298
	str	r3, [r5, #76]
	.loc 1 107 17 view .LVU299
	ldr	r3, [r5, #48]
	.loc 1 110 19 view .LVU300
	ldr	r0, [r5, #8]
	.loc 1 107 17 view .LVU301
	add	r3, r6, r3
	.loc 1 107 12 view .LVU302
	add	r3, r3, r2
	.loc 1 110 5 view .LVU303
	ands	r0, r0, #1048576
	.loc 1 107 12 view .LVU304
	str	r3, [r5, #56]
	.loc 1 108 2 is_stmt 1 view .LVU305
	.loc 1 110 2 view .LVU306
	.loc 1 110 5 is_stmt 0 view .LVU307
	bne	.L82
.L77:
	.loc 1 113 1 view .LVU308
	add	sp, sp, #48
	.cfi_remember_state
	.cfi_def_cfa_offset 56
	@ sp needed
	vldm	sp!, {d8}
	.cfi_restore 80
	.cfi_restore 81
	.cfi_def_cfa_offset 48
.LVL69:
	.loc 1 113 1 view .LVU309
	pop	{r4, r5, r6, r7, r8, r9, r10, fp, lr}
	.cfi_restore 14
	.cfi_restore 11
	.cfi_restore 10
	.cfi_restore 9
	.cfi_restore 8
	.cfi_restore 7
	.cfi_restore 6
	.cfi_restore 5
	.cfi_restore 4
	.cfi_def_cfa_offset 12
.LVL70:
	.loc 1 113 1 view .LVU310
	add	sp, sp, #12
	.cfi_restore 3
	.cfi_restore 2
	.cfi_restore 1
	.cfi_def_cfa_offset 0
	bx	lr
.LVL71:
.L82:
	.cfi_restore_state
	.loc 1 110 34 discriminator 1 view .LVU311
	mov	r3, r8
	mov	r2, r6
	mov	r1, r10
	mov	r0, r7
	bl	Gui_WasCursorInside
.LVL72:
	b	.L77
.L84:
	.align	2
.L83:
	.word	.LANCHOR0
	.word	32767
	.cfi_endproc
.LFE217:
	.size	Gui_Button, .-Gui_Button
	.section	.text.Gui_EnteredCursorInside,"ax",%progbits
	.align	2
	.global	Gui_EnteredCursorInside
	.syntax unified
	.arm
	.fpu vfp
	.type	Gui_EnteredCursorInside, %function
Gui_EnteredCursorInside:
.LVL73:
.LFB223:
	.loc 1 134 57 is_stmt 1 view -0
	.cfi_startproc
	@ args = 0, pretend = 0, frame = 0
	@ frame_needed = 0, uses_anonymous_args = 0
	.loc 1 135 2 view .LVU313
	.loc 1 134 57 is_stmt 0 view .LVU314
	push	{r4, r5, r6, r7, r8, r9, r10, lr}
	.cfi_def_cfa_offset 32
	.cfi_offset 4, -32
	.cfi_offset 5, -28
	.cfi_offset 6, -24
	.cfi_offset 7, -20
	.cfi_offset 8, -16
	.cfi_offset 9, -12
	.cfi_offset 10, -8
	.cfi_offset 14, -4
	.loc 1 135 29 view .LVU315
	ldr	r4, .L89
	.loc 1 134 57 view .LVU316
	mov	r7, r2
	mov	r8, r3
	.loc 1 135 29 view .LVU317
	ldrh	r9, [r4, #40]
	.loc 1 134 57 view .LVU318
	mov	r6, r1
	mov	r5, r0
	.loc 1 135 39 view .LVU319
	bl	SpriteBatch_GetScale
.LVL74:
	.loc 1 135 39 view .LVU320
	mov	r1, r0
	.loc 1 135 6 view .LVU321
	mov	r0, r9
	bl	__aeabi_idiv
.LVL75:
	.loc 1 136 29 view .LVU322
	ldrh	r9, [r4, #42]
	.loc 1 135 6 view .LVU323
	mov	r4, r0
.LVL76:
	.loc 1 136 2 is_stmt 1 view .LVU324
	.loc 1 136 39 is_stmt 0 view .LVU325
	bl	SpriteBatch_GetScale
.LVL77:
	.loc 1 136 39 view .LVU326
	mov	r1, r0
.LVL78:
	.loc 1 138 2 is_stmt 1 view .LVU327
	.loc 1 136 6 is_stmt 0 view .LVU328
	mov	r0, r9
.LVL79:
	.loc 1 136 6 view .LVU329
	bl	__aeabi_idiv
.LVL80:
	.loc 1 138 50 view .LVU330
	orrs	r0, r0, r4
	beq	.L88
	.loc 1 139 1 discriminator 6 view .LVU331
	mov	r0, #0
	pop	{r4, r5, r6, r7, r8, r9, r10, pc}
.L88:
	.loc 1 138 53 discriminator 1 view .LVU332
	mov	r3, r8
	mov	r2, r7
	mov	r1, r6
	mov	r0, r5
	.loc 1 139 1 discriminator 1 view .LVU333
	pop	{r4, r5, r6, r7, r8, r9, r10, lr}
	.cfi_restore 14
	.cfi_restore 10
	.cfi_restore 9
	.cfi_restore 8
	.cfi_restore 7
	.cfi_restore 6
	.cfi_restore 5
	.cfi_restore 4
	.cfi_def_cfa_offset 0
.LVL81:
	.loc 1 138 53 discriminator 1 view .LVU334
	b	Gui_IsCursorInside
.LVL82:
.L90:
	.loc 1 138 53 discriminator 1 view .LVU335
	.align	2
.L89:
	.word	.LANCHOR0
	.cfi_endproc
.LFE223:
	.size	Gui_EnteredCursorInside, .-Gui_EnteredCursorInside
	.section	.text.Gui_GetCursorMovement,"ax",%progbits
	.align	2
	.global	Gui_GetCursorMovement
	.syntax unified
	.arm
	.fpu vfp
	.type	Gui_GetCursorMovement, %function
Gui_GetCursorMovement:
.LVL83:
.LFB224:
	.loc 1 140 44 is_stmt 1 view -0
	.cfi_startproc
	@ args = 0, pretend = 0, frame = 0
	@ frame_needed = 0, uses_anonymous_args = 0
	.loc 1 141 2 view .LVU337
	.loc 1 140 44 is_stmt 0 view .LVU338
	push	{r4, r5, r6, r7, r8, lr}
	.cfi_def_cfa_offset 24
	.cfi_offset 4, -24
	.cfi_offset 5, -20
	.cfi_offset 6, -16
	.cfi_offset 7, -12
	.cfi_offset 8, -8
	.cfi_offset 14, -4
	.loc 1 141 25 view .LVU339
	ldr	r6, .L99
	.loc 1 140 44 view .LVU340
	mov	r5, r0
	.loc 1 141 5 view .LVU341
	ldr	r3, [r6, #16]
	.loc 1 140 44 view .LVU342
	mov	r4, r1
	.loc 1 141 5 view .LVU343
	cmp	r3, #0
	beq	.L92
	.loc 1 141 47 discriminator 1 view .LVU344
	ldr	r3, [r6, #40]
	cmp	r3, #0
	bne	.L93
.L92:
	.loc 1 142 3 is_stmt 1 view .LVU345
	.loc 1 142 6 is_stmt 0 view .LVU346
	mov	r2, #0
	.loc 1 144 3 view .LVU347
	mov	r3, r2
	.loc 1 142 6 view .LVU348
	str	r2, [r5]
	.loc 1 143 3 is_stmt 1 view .LVU349
	.loc 1 144 3 view .LVU350
	.loc 1 143 6 is_stmt 0 view .LVU351
	str	r3, [r4]
	.loc 1 148 1 view .LVU352
	pop	{r4, r5, r6, r7, r8, pc}
.L93:
	.loc 1 146 2 is_stmt 1 view .LVU353
	.loc 1 146 12 is_stmt 0 view .LVU354
	ldrh	r7, [r6, #16]
	.loc 1 146 22 view .LVU355
	bl	SpriteBatch_GetScale
.LVL84:
	.loc 1 146 22 view .LVU356
	mov	r1, r0
	.loc 1 146 20 view .LVU357
	mov	r0, r7
	bl	__aeabi_idiv
.LVL85:
	.loc 1 146 55 view .LVU358
	ldrh	r8, [r6, #40]
	.loc 1 146 20 view .LVU359
	mov	r7, r0
	.loc 1 146 65 view .LVU360
	bl	SpriteBatch_GetScale
.LVL86:
	mov	r1, r0
	.loc 1 146 63 view .LVU361
	mov	r0, r8
	bl	__aeabi_idiv
.LVL87:
	.loc 1 146 45 view .LVU362
	sub	r0, r7, r0
	.loc 1 147 12 view .LVU363
	ldrh	r8, [r6, #18]
	.loc 1 146 5 view .LVU364
	str	r0, [r5]
	.loc 1 147 2 is_stmt 1 view .LVU365
	.loc 1 147 22 is_stmt 0 view .LVU366
	bl	SpriteBatch_GetScale
.LVL88:
	mov	r1, r0
	.loc 1 147 20 view .LVU367
	mov	r0, r8
	bl	__aeabi_idiv
.LVL89:
	.loc 1 147 55 view .LVU368
	ldrh	r6, [r6, #42]
	.loc 1 147 20 view .LVU369
	mov	r5, r0
.LVL90:
	.loc 1 147 65 view .LVU370
	bl	SpriteBatch_GetScale
.LVL91:
	mov	r1, r0
	.loc 1 147 63 view .LVU371
	mov	r0, r6
	bl	__aeabi_idiv
.LVL92:
	.loc 1 147 45 view .LVU372
	sub	r3, r5, r0
	.loc 1 143 6 view .LVU373
	str	r3, [r4]
	.loc 1 148 1 view .LVU374
	pop	{r4, r5, r6, r7, r8, pc}
.L100:
	.align	2
.L99:
	.word	.LANCHOR0
	.cfi_endproc
.LFE224:
	.size	Gui_GetCursorMovement, .-Gui_GetCursorMovement
	.bss
	.align	2
	.set	.LANCHOR0,. + 0
	.type	input, %object
	.size	input, 24
input:
	.space	24
	.type	oldInput, %object
	.size	oldInput, 24
oldInput:
	.space	24
	.type	paddingX, %object
	.size	paddingX, 4
paddingX:
	.space	4
	.type	paddingY, %object
	.size	paddingY, 4
paddingY:
	.space	4
	.type	relativeX, %object
	.size	relativeX, 4
relativeX:
	.space	4
	.type	relativeY, %object
	.size	relativeY, 4
relativeY:
	.space	4
	.type	windowX, %object
	.size	windowX, 4
windowX:
	.space	4
	.type	windowY, %object
	.size	windowY, 4
windowY:
	.space	4
	.type	currentRow, %object
	.size	currentRow, 12
currentRow:
	.space	12
	.text
.Letext0:
	.file 2 "/opt/devkitpro/devkitARM/arm-none-eabi/include/machine/_default_types.h"
	.file 3 "/opt/devkitpro/devkitARM/arm-none-eabi/include/sys/_stdint.h"
	.file 4 "/home/tobi/Dokumente/Craftus-Next/include/misc/InputData.h"
	.file 5 "/opt/devkitpro/devkitARM/lib/gcc/arm-none-eabi/11.2.0/include/stdarg.h"
	.file 6 "/opt/devkitpro/devkitARM/lib/gcc/arm-none-eabi/11.2.0/include/stddef.h"
	.file 7 "/home/tobi/Dokumente/Craftus-Next/include/blocks/Block.h"
	.file 8 "/opt/devkitpro/libctru/include/3ds/services/csnd.h"
	.file 9 "/opt/devkitpro/libctru/include/3ds/services/hid.h"
	.file 10 "/opt/devkitpro/libctru/include/3ds/services/ndm.h"
	.file 11 "/opt/devkitpro/libctru/include/3ds/gpu/enums.h"
	.file 12 "/opt/devkitpro/libctru/include/3ds/ndsp/channel.h"
	.file 13 "/opt/devkitpro/libctru/include/3ds/applets/error.h"
	.file 14 "/home/tobi/Dokumente/Craftus-Next/include/gui/SpriteBatch.h"
	.file 15 "/opt/devkitpro/libctru/include/3ds/types.h"
	.file 16 "/opt/devkitpro/devkitARM/arm-none-eabi/include/string.h"
	.file 17 "<built-in>"