	.arch armv6k
	.eabi_attribute 28, 1
	.eabi_attribute 20, 1
	.eabi_attribute 21, 1
	.eabi_attribute 23, 3
	.eabi_attribute 24, 1
	.eabi_attribute 25, 1
	.eabi_attribute 26, 1
	.eabi_attribute 30, 2
	.eabi_attribute 34, 1
	.eabi_attribute 18, 4
	.file	"ini.c"
	.text
.Ltext0:
	.cfi_sections	.debug_frame
	.section	.text.strcmpci,"ax",%progbits
	.align	2
	.syntax unified
	.arm
	.fpu vfp
	.type	strcmpci, %function
strcmpci:
.LVL0:
.LFB4:
	.file 1 "/home/tobi/Dokumente/Craftus-Next/dependencies/ini/ini.c"
	.loc 1 37 51 view -0
	.cfi_startproc
	@ args = 0, pretend = 0, frame = 0
	@ frame_needed = 0, uses_anonymous_args = 0
	.loc 1 37 51 is_stmt 0 view .LVU1
	push	{r4, lr}
	.cfi_def_cfa_offset 8
	.cfi_offset 4, -8
	.cfi_offset 14, -4
	ldr	r4, .L9
	sub	lr, r0, #1
	sub	r1, r1, #1
.LVL1:
.L5:
	.loc 1 38 3 is_stmt 1 view .LVU2
.LBB12:
	.loc 1 39 5 view .LVU3
.LBB13:
	.loc 1 39 29 view .LVU4
.LBE13:
.LBB14:
	.loc 1 39 43 view .LVU5
.LBE14:
.LBB15:
	.loc 1 39 14 is_stmt 0 view .LVU6
	ldrb	r2, [lr, #1]!	@ zero_extendqisi2
.LVL2:
	.loc 1 39 15 is_stmt 1 view .LVU7
	.loc 1 39 75 is_stmt 0 view .LVU8
	mov	r0, r2
	.loc 1 39 97 view .LVU9
	ldrb	r3, [r4, r2]	@ zero_extendqisi2
	and	r3, r3, #3
	cmp	r3, #1
.LBE15:
.LBB16:
	.loc 1 39 28 view .LVU10
	ldrb	r3, [r1, #1]!	@ zero_extendqisi2
.LVL3:
	.loc 1 39 29 is_stmt 1 view .LVU11
	.loc 1 39 29 is_stmt 0 view .LVU12
.LBE16:
.LBB17:
	.loc 1 39 97 view .LVU13
	addeq	r0, r2, #32
.LBE17:
.LBB18:
	.loc 1 39 111 view .LVU14
	ldrb	ip, [r4, r3]	@ zero_extendqisi2
	and	ip, ip, #3
	cmp	ip, #1
	addeq	r3, r3, #32
.LVL4:
	.loc 1 39 111 view .LVU15
.LBE18:
	.loc 1 40 5 is_stmt 1 view .LVU16
	.loc 1 40 8 is_stmt 0 view .LVU17
	subs	r0, r0, r3
.LVL5:
	.loc 1 40 8 view .LVU18
	popne	{r4, pc}
	.loc 1 40 16 discriminator 1 view .LVU19
	cmp	r2, #0
	bne	.L5
	pop	{r4, pc}
.L10:
	.align	2
.L9:
	.word	_ctype_+1
.LBE12:
	.cfi_endproc
.LFE4:
	.size	strcmpci, .-strcmpci
	.section	.rodata.str1.4,"aMS",%progbits,1
	.align	2
.LC0:
	.ascii	"rb\000"
	.align	2
.LC1:
	.ascii	"]\012\000"
	.align	2
.LC2:
	.ascii	"=\012\000"
	.align	2
.LC3:
	.ascii	"\012\000"
	.section	.text.ini_load,"ax",%progbits
	.align	2
	.global	ini_load
	.syntax unified
	.arm
	.fpu vfp
	.type	ini_load, %function
ini_load:
.LVL6:
.LFB10:
	.loc 1 176 39 is_stmt 1 view -0
	.cfi_startproc
	@ args = 0, pretend = 0, frame = 0
	@ frame_needed = 0, uses_anonymous_args = 0
	.loc 1 177 3 view .LVU21
	.loc 1 178 3 view .LVU22
	.loc 1 179 3 view .LVU23
	.loc 1 182 3 view .LVU24
	.loc 1 176 39 is_stmt 0 view .LVU25
	push	{r3, r4, r5, r6, r7, r8, r9, r10, fp, lr}
	.cfi_def_cfa_offset 40
	.cfi_offset 3, -40
	.cfi_offset 4, -36
	.cfi_offset 5, -32
	.cfi_offset 6, -28
	.cfi_offset 7, -24
	.cfi_offset 8, -20
	.cfi_offset 9, -16
	.cfi_offset 10, -12
	.cfi_offset 11, -8
	.cfi_offset 14, -4
	.loc 1 182 9 view .LVU26
	mov	r1, #1
	.loc 1 176 39 view .LVU27
	vpush.64	{d8}
	.cfi_def_cfa_offset 48
	.cfi_offset 80, -48
	.cfi_offset 81, -44
	.loc 1 176 39 view .LVU28
	mov	r4, r0
	.loc 1 182 9 view .LVU29
	mov	r0, #8
.LVL7:
	.loc 1 182 9 view .LVU30
	bl	calloc
.LVL8:
	.loc 1 183 3 is_stmt 1 view .LVU31
	.loc 1 183 6 is_stmt 0 view .LVU32
	subs	r7, r0, #0
	beq	.L11
	.loc 1 186 3 is_stmt 1 view .LVU33
	.loc 1 189 3 view .LVU34
	.loc 1 189 8 is_stmt 0 view .LVU35
	mov	r0, r4
.LVL9:
	.loc 1 189 8 view .LVU36
	ldr	r1, .L93
	bl	fopen
.LVL10:
	.loc 1 190 3 is_stmt 1 view .LVU37
	.loc 1 190 6 is_stmt 0 view .LVU38
	subs	r9, r0, #0
	beq	.L13
	.loc 1 195 3 is_stmt 1 view .LVU39
	mov	r2, #2
	mov	r1, #0
	bl	fseek
.LVL11:
	.loc 1 196 3 view .LVU40
	.loc 1 196 8 is_stmt 0 view .LVU41
	mov	r0, r9
	bl	ftell
.LVL12:
	mov	r4, r0
.LVL13:
	.loc 1 197 3 view .LVU42
	mov	r0, r9
	bl	rewind
.LVL14:
	.loc 1 200 15 view .LVU43
	add	r0, r4, #1
	bl	malloc
.LVL15:
	.loc 1 201 17 view .LVU44
	mov	r6, #0
.LVL16:
	.loc 1 197 3 is_stmt 1 view .LVU45
	.loc 1 200 3 view .LVU46
	.loc 1 201 12 is_stmt 0 view .LVU47
	add	ip, r0, r4
	.loc 1 203 7 view .LVU48
	mov	r3, r9
	mov	r2, r4
	mov	r1, #1
	.loc 1 200 13 view .LVU49
	str	r0, [r7]
	.loc 1 201 3 is_stmt 1 view .LVU50
	.loc 1 201 17 is_stmt 0 view .LVU51
	strb	r6, [r0, r4]
	.loc 1 202 3 is_stmt 1 view .LVU52
	.loc 1 202 12 is_stmt 0 view .LVU53
	str	ip, [r7, #4]
	.loc 1 203 3 is_stmt 1 view .LVU54
	.loc 1 203 7 is_stmt 0 view .LVU55
	bl	fread
.LVL17:
	.loc 1 204 3 is_stmt 1 view .LVU56
	.loc 1 204 6 is_stmt 0 view .LVU57
	cmp	r4, r0
	beq	.L88
	.loc 1 216 3 is_stmt 1 view .LVU58
	.loc 1 216 11 view .LVU59
	mov	r0, r9
.LVL18:
	.loc 1 216 11 is_stmt 0 view .LVU60
	bl	fclose
.LVL19:
.L13:
	.loc 1 217 3 is_stmt 1 view .LVU61
	.loc 1 217 12 view .LVU62
.LBB39:
.LBI39:
	.loc 1 222 6 view .LVU63
.LBB40:
	.loc 1 223 3 view .LVU64
	ldr	r0, [r7]
	bl	free
.LVL20:
	.loc 1 224 3 view .LVU65
	mov	r0, r7
	bl	free
.LVL21:
.LBE40:
.LBE39:
	.loc 1 218 9 is_stmt 0 view .LVU66
	mov	r7, #0
.LVL22:
.L11:
	.loc 1 219 1 view .LVU67
	vldm	sp!, {d8}
	.cfi_remember_state
	.cfi_restore 80
	.cfi_restore 81
	.cfi_def_cfa_offset 40
	mov	r0, r7
	pop	{r3, r4, r5, r6, r7, r8, r9, r10, fp, pc}
.LVL23:
.L88:
	.cfi_restore_state
	.loc 1 209 3 is_stmt 1 view .LVU68
.LBB41:
.LBI41:
	.loc 1 102 13 view .LVU69
.LBB42:
	.loc 1 103 3 view .LVU70
	.loc 1 104 3 view .LVU71
	.loc 1 104 9 is_stmt 0 view .LVU72
	ldr	r10, [r7]
.LVL24:
	.loc 1 106 3 is_stmt 1 view .LVU73
	.loc 1 106 12 view .LVU74
	.loc 1 106 17 is_stmt 0 view .LVU75
	ldr	r8, [r7, #4]
	.loc 1 106 12 view .LVU76
	cmp	r10, r8
	bcs	.L49
	.loc 1 120 14 view .LVU77
	vmov	s16, r9	@ int
	.loc 1 106 12 view .LVU78
	mov	r4, r10
.LVL25:
	.loc 1 120 14 view .LVU79
	mov	r9, r10
.LVL26:
	.loc 1 130 14 view .LVU80
	ldr	fp, .L93+4
.LVL27:
.L15:
	.loc 1 107 5 is_stmt 1 view .LVU81
	.loc 1 107 13 is_stmt 0 view .LVU82
	ldrb	r5, [r4]	@ zero_extendqisi2
	.loc 1 107 5 view .LVU83
	cmp	r5, #32
	bhi	.L16
	.loc 1 107 5 view .LVU84
	cmp	r5, #32
	ldrls	pc, [pc, r5, asl #2]
	b	.L17
.L19:
	.word	.L20
	.word	.L17
	.word	.L17
	.word	.L17
	.word	.L17
	.word	.L17
	.word	.L17
	.word	.L17
	.word	.L17
	.word	.L18
	.word	.L18
	.word	.L17
	.word	.L17
	.word	.L18
	.word	.L17
	.word	.L17
	.word	.L17
	.word	.L17
	.word	.L17
	.word	.L17
	.word	.L17
	.word	.L17
	.word	.L17
	.word	.L17
	.word	.L17
	.word	.L17
	.word	.L17
	.word	.L17
	.word	.L17
	.word	.L17
	.word	.L17
	.word	.L17
	.word	.L18
.L17:
	.loc 1 129 9 is_stmt 1 view .LVU85
.LVL28:
	.loc 1 130 9 view .LVU86
	.loc 1 130 14 is_stmt 0 view .LVU87
	mov	r1, fp
	mov	r0, r4
	bl	strcspn
.LVL29:
	.loc 1 133 12 view .LVU88
	ldrb	r3, [r4, r0]	@ zero_extendqisi2
	.loc 1 130 11 view .LVU89
	add	r10, r4, r0
.LVL30:
	.loc 1 133 9 is_stmt 1 view .LVU90
	.loc 1 133 12 is_stmt 0 view .LVU91
	cmp	r3, #61
	beq	.L26
.LVL31:
.LBB43:
.LBB44:
	.loc 1 63 23 is_stmt 1 view .LVU92
	cmp	r8, r4
	bhi	.L27
	b	.L83
.LVL32:
.L28:
	.loc 1 64 10 is_stmt 0 view .LVU93
	strb	r6, [r4], #1
.LVL33:
	.loc 1 63 23 is_stmt 1 view .LVU94
	cmp	r4, r8
	beq	.L83
	.loc 1 63 26 is_stmt 0 view .LVU95
	ldrb	r5, [r4]	@ zero_extendqisi2
.L27:
	.loc 1 64 5 is_stmt 1 view .LVU96
	.loc 1 63 23 is_stmt 0 view .LVU97
	cmp	r5, #10
	bne	.L28
	.loc 1 63 23 view .LVU98
	b	.L25
.LVL34:
.L18:
	.loc 1 63 23 view .LVU99
.LBE44:
.LBE43:
	.loc 1 112 9 is_stmt 1 view .LVU100
	.loc 1 112 12 is_stmt 0 view .LVU101
	strb	r6, [r4]
.L20:
	.loc 1 116 9 is_stmt 1 view .LVU102
	.loc 1 116 10 is_stmt 0 view .LVU103
	add	r4, r4, #1
.LVL35:
	.loc 1 117 9 is_stmt 1 view .LVU104
.L25:
	.loc 1 106 12 view .LVU105
	cmp	r4, r8
	bcc	.L15
.LVL36:
.L83:
	.loc 1 106 12 is_stmt 0 view .LVU106
	vmov	r9, s16	@ int
.LVL37:
.L49:
	.loc 1 106 12 view .LVU107
.LBE42:
.LBE41:
	.loc 1 212 3 is_stmt 1 view .LVU108
	mov	r0, r9
	bl	fclose
.LVL38:
	.loc 1 213 3 view .LVU109
	.loc 1 219 1 is_stmt 0 view .LVU110
	vldm	sp!, {d8}
	.cfi_remember_state
	.cfi_restore 80
	.cfi_restore 81
	.cfi_def_cfa_offset 40
	mov	r0, r7
	pop	{r3, r4, r5, r6, r7, r8, r9, r10, fp, pc}
.LVL39:
.L16:
	.cfi_restore_state
.LBB66:
.LBB65:
	.loc 1 107 5 view .LVU111
	cmp	r5, #59
	beq	.L21
	cmp	r5, #91
	bne	.L17
	.loc 1 120 9 is_stmt 1 view .LVU112
	.loc 1 120 14 is_stmt 0 view .LVU113
	mov	r0, r4
	ldr	r1, .L93+8
	bl	strcspn
.LVL40:
	.loc 1 121 9 is_stmt 1 view .LVU114
	.loc 1 121 12 is_stmt 0 view .LVU115
	strb	r6, [r4, r0]!
.LVL41:
	.loc 1 122 9 is_stmt 1 view .LVU116
	b	.L25
.L21:
.LVL42:
.LBB45:
.LBB46:
	.loc 1 63 23 view .LVU117
	cmp	r8, r4
	bhi	.L23
	b	.L83
.LVL43:
.L89:
	.loc 1 63 23 is_stmt 0 view .LVU118
	ldrb	r3, [r4]	@ zero_extendqisi2
	cmp	r3, #10
	beq	.L25
.L23:
	.loc 1 64 5 is_stmt 1 view .LVU119
.LVL44:
	.loc 1 64 10 is_stmt 0 view .LVU120
	strb	r6, [r4], #1
.LVL45:
	.loc 1 63 23 is_stmt 1 view .LVU121
	.loc 1 63 23 is_stmt 0 view .LVU122
	cmp	r4, r8
	bne	.L89
	b	.L83
.LVL46:
.L26:
	.loc 1 63 23 view .LVU123
.LBE46:
.LBE45:
	.loc 1 137 9 is_stmt 1 view .LVU124
.LBB47:
.LBI47:
	.loc 1 56 13 view .LVU125
.LBB48:
	.loc 1 57 3 view .LVU126
	.loc 1 57 25 view .LVU127
.LBE48:
.LBE47:
	.loc 1 137 9 is_stmt 0 view .LVU128
	sub	r3, r10, #1
.LVL47:
.LBB50:
.LBB49:
	.loc 1 57 25 view .LVU129
	cmp	r9, r3
	bhi	.L31
	mov	r3, r10
.LVL48:
.L30:
	.loc 1 58 5 is_stmt 1 view .LVU130
	.loc 1 57 29 is_stmt 0 view .LVU131
	ldrb	r2, [r3, #-1]!	@ zero_extendqisi2
.LVL49:
	.loc 1 57 39 view .LVU132
	and	r1, r2, #251
	.loc 1 57 53 view .LVU133
	cmp	r2, #32
	cmpne	r1, #9
	bne	.L31
	.loc 1 57 25 view .LVU134
	cmp	r9, r3
	.loc 1 58 10 view .LVU135
	strb	r6, [r3]
	.loc 1 57 25 is_stmt 1 view .LVU136
	bne	.L30
.LVL50:
.L31:
	.loc 1 57 25 is_stmt 0 view .LVU137
.LBE49:
.LBE50:
	.loc 1 140 9 is_stmt 1 view .LVU138
	.loc 1 141 11 view .LVU139
	mov	r1, r10
.LVL51:
	.loc 1 141 16 is_stmt 0 view .LVU140
	strb	r6, [r10], #1
.LVL52:
	.loc 1 142 42 is_stmt 1 view .LVU141
	.loc 1 142 18 is_stmt 0 view .LVU142
	ldrb	r3, [r10]	@ zero_extendqisi2
	.loc 1 142 42 view .LVU143
	and	r2, r3, #251
	cmp	r3, #32
	cmpne	r2, #9
	beq	.L31
	.loc 1 145 9 is_stmt 1 view .LVU144
	.loc 1 145 12 is_stmt 0 view .LVU145
	cmp	r3, #0
	cmpne	r3, #10
	beq	.L90
	.loc 1 150 9 is_stmt 1 view .LVU146
	.loc 1 150 12 is_stmt 0 view .LVU147
	cmp	r3, #34
	beq	.L91
	.loc 1 166 11 is_stmt 1 view .LVU148
	.loc 1 166 16 is_stmt 0 view .LVU149
	mov	r0, r10
	ldr	r1, .L93+12
	bl	strcspn
.LVL53:
	.loc 1 166 13 view .LVU150
	add	r4, r10, r0
.LVL54:
	.loc 1 167 11 is_stmt 1 view .LVU151
.LBB51:
.LBI51:
	.loc 1 56 13 view .LVU152
.LBB52:
	.loc 1 57 3 view .LVU153
	.loc 1 57 25 view .LVU154
.LBE52:
.LBE51:
	.loc 1 167 11 is_stmt 0 view .LVU155
	sub	r3, r4, #1
.LVL55:
.LBB54:
.LBB53:
	.loc 1 57 25 view .LVU156
	cmp	r9, r3
	bhi	.L25
	mov	r3, r4
.LVL56:
.L47:
	.loc 1 58 5 is_stmt 1 view .LVU157
	.loc 1 57 29 is_stmt 0 view .LVU158
	ldrb	r2, [r3, #-1]!	@ zero_extendqisi2
.LVL57:
	.loc 1 57 39 view .LVU159
	and	r1, r2, #251
	.loc 1 57 53 view .LVU160
	cmp	r2, #32
	cmpne	r1, #9
	bne	.L25
	.loc 1 57 25 view .LVU161
	cmp	r9, r3
	.loc 1 58 10 view .LVU162
	strb	r6, [r3]
	.loc 1 57 25 is_stmt 1 view .LVU163
	bne	.L47
	b	.L25
.LVL58:
.L91:
	.loc 1 57 25 is_stmt 0 view .LVU164
.LBE53:
.LBE54:
	.loc 1 152 11 is_stmt 1 view .LVU165
	.loc 1 153 11 view .LVU166
.LBB55:
.LBI55:
	.loc 1 70 14 view .LVU167
.LBB56:
	.loc 1 73 3 view .LVU168
	.loc 1 74 3 view .LVU169
	.loc 1 74 4 is_stmt 0 view .LVU170
	add	r1, r1, #2
.LVL59:
	.loc 1 75 3 is_stmt 1 view .LVU171
	.loc 1 75 50 view .LVU172
	cmp	r8, r1
	movhi	r2, r10
	bhi	.L37
	b	.L38
.LVL60:
.L39:
	.loc 1 93 11 is_stmt 0 view .LVU173
	add	r1, r0, #1
	.loc 1 75 50 view .LVU174
	cmp	r8, r1
	.loc 1 80 22 view .LVU175
	strb	r3, [r2], #1
.LVL61:
	.loc 1 93 5 is_stmt 1 view .LVU176
	.loc 1 75 50 view .LVU177
	bls	.L41
.LVL62:
.L37:
	.loc 1 75 26 is_stmt 0 view .LVU178
	ldrb	r3, [r1]	@ zero_extendqisi2
	.loc 1 75 36 view .LVU179
	cmp	r3, #13
	cmpne	r3, #34
	movne	r0, #1
	moveq	r0, #0
	.loc 1 75 50 view .LVU180
	cmp	r3, #10
	moveq	r0, #0
	andne	r0, r0, #1
	cmp	r0, #0
	beq	.L41
	.loc 1 76 5 is_stmt 1 view .LVU181
	.loc 1 76 8 is_stmt 0 view .LVU182
	cmp	r3, #92
	.loc 1 78 8 view .LVU183
	add	r0, r1, #1
	movne	r0, r1
	.loc 1 76 8 view .LVU184
	bne	.L39
	.loc 1 78 7 is_stmt 1 view .LVU185
.LVL63:
	.loc 1 79 7 view .LVU186
	.loc 1 79 15 is_stmt 0 view .LVU187
	ldrb	r3, [r1, #1]	@ zero_extendqisi2
	.loc 1 79 7 view .LVU188
	cmp	r3, #110
	beq	.L53
	bls	.L92
	cmp	r3, #114
	moveq	r3, #13
	beq	.L39
	cmp	r3, #116
	moveq	r3, #9
	b	.L39
.L92:
	cmp	r3, #13
	bhi	.L39
	ldr	r1, .L93+16
.LVL64:
	.loc 1 79 7 view .LVU189
	lsr	r1, r1, r3
	tst	r1, #1
	beq	.L39
.L41:
	.loc 1 96 3 is_stmt 1 view .LVU190
.LVL65:
	.loc 1 96 3 is_stmt 0 view .LVU191
.LBE56:
.LBE55:
	.loc 1 156 11 is_stmt 1 view .LVU192
	.loc 1 156 14 is_stmt 0 view .LVU193
	cmp	r10, r2
	beq	.L38
.LVL66:
.LBB58:
.LBB59:
	.loc 1 63 23 is_stmt 1 view .LVU194
	cmp	r8, r2
	bls	.L83
	mov	r3, r2
	b	.L43
.LVL67:
.L46:
	.loc 1 63 23 is_stmt 0 view .LVU195
	cmp	r8, r3
	.loc 1 64 7 view .LVU196
	mov	r4, r3
.LVL68:
	.loc 1 64 10 view .LVU197
	strb	r6, [r3, #-1]
	.loc 1 63 23 is_stmt 1 view .LVU198
	beq	.L25
.LVL69:
.L43:
	.loc 1 64 5 view .LVU199
	mov	r4, r3
.LVL70:
	.loc 1 63 23 is_stmt 0 view .LVU200
	ldrb	r2, [r4]	@ zero_extendqisi2
	add	r3, r3, #1
	cmp	r2, #10
	bne	.L46
	b	.L25
.LVL71:
.L90:
	.loc 1 63 23 view .LVU201
.LBE59:
.LBE58:
.LBB60:
.LBB61:
	.loc 1 63 23 is_stmt 1 view .LVU202
	cmp	r8, r4
	bls	.L83
	mov	r3, r4
.LVL72:
.L34:
	.loc 1 64 5 view .LVU203
	mov	r4, r3
.LVL73:
	.loc 1 63 23 is_stmt 0 view .LVU204
	ldrb	r2, [r4]	@ zero_extendqisi2
	add	r3, r3, #1
.LVL74:
	.loc 1 63 23 view .LVU205
	cmp	r2, #10
	beq	.L25
	cmp	r3, r8
	.loc 1 64 10 view .LVU206
	strb	r6, [r3, #-1]
	.loc 1 63 23 is_stmt 1 view .LVU207
	bne	.L34
	b	.L83
.LVL75:
.L53:
	.loc 1 63 23 is_stmt 0 view .LVU208
.LBE61:
.LBE60:
.LBB62:
.LBB57:
	.loc 1 79 7 view .LVU209
	mov	r3, #10
	b	.L39
.LVL76:
.L38:
	.loc 1 79 7 view .LVU210
.LBE57:
.LBE62:
.LBB63:
.LBB64:
	.loc 1 63 23 is_stmt 1 view .LVU211
	cmp	r8, r4
	bls	.L83
	mov	r3, r4
	b	.L44
.LVL77:
.L45:
	.loc 1 63 23 is_stmt 0 view .LVU212
	cmp	r8, r3
	.loc 1 64 7 view .LVU213
	mov	r4, r3
.LVL78:
	.loc 1 64 10 view .LVU214
	strb	r6, [r3, #-1]
	.loc 1 63 23 is_stmt 1 view .LVU215
	beq	.L25
.LVL79:
.L44:
	.loc 1 64 5 view .LVU216
	mov	r4, r3
.LVL80:
	.loc 1 63 23 is_stmt 0 view .LVU217
	ldrb	r2, [r4]	@ zero_extendqisi2
	add	r3, r3, #1
	cmp	r2, #10
	bne	.L45
	.loc 1 63 23 view .LVU218
	b	.L25
.L94:
	.align	2
.L93:
	.word	.LC0
	.word	.LC2
	.word	.LC1
	.word	.LC3
	.word	9217
.LBE64:
.LBE63:
.LBE65:
.LBE66:
	.cfi_endproc
.LFE10:
	.size	ini_load, .-ini_load
	.section	.text.ini_free,"ax",%progbits
	.align	2
	.global	ini_free
	.syntax unified
	.arm
	.fpu vfp
	.type	ini_free, %function
ini_free:
.LVL81:
.LFB11:
	.loc 1 222 27 is_stmt 1 view -0
	.cfi_startproc
	@ args = 0, pretend = 0, frame = 0
	@ frame_needed = 0, uses_anonymous_args = 0
	.loc 1 223 3 view .LVU220
	.loc 1 222 27 is_stmt 0 view .LVU221
	push	{r4, lr}
	.cfi_def_cfa_offset 8
	.cfi_offset 4, -8
	.cfi_offset 14, -4
	.loc 1 222 27 view .LVU222
	mov	r4, r0
	.loc 1 223 3 view .LVU223
	ldr	r0, [r0]
.LVL82:
	.loc 1 223 3 view .LVU224
	bl	free
.LVL83:
	.loc 1 224 3 is_stmt 1 view .LVU225
	mov	r0, r4
	.loc 1 225 1 is_stmt 0 view .LVU226
	pop	{r4, lr}
	.cfi_restore 14
	.cfi_restore 4
	.cfi_def_cfa_offset 0
.LVL84:
	.loc 1 224 3 view .LVU227
	b	free
.LVL85:
	.loc 1 224 3 view .LVU228
	.cfi_endproc
.LFE11:
	.size	ini_free, .-ini_free
	.section	.rodata.str1.4
	.align	2
.LC4:
	.ascii	"\000"
	.section	.text.ini_get,"ax",%progbits
	.align	2
	.global	ini_get
	.syntax unified
	.arm
	.fpu vfp
	.type	ini_get, %function
ini_get:
.LVL86:
.LFB12:
	.loc 1 228 71 is_stmt 1 view -0
	.cfi_startproc
	@ args = 0, pretend = 0, frame = 0
	@ frame_needed = 0, uses_anonymous_args = 0
	.loc 1 229 3 view .LVU230
	.loc 1 230 3 view .LVU231
	.loc 1 231 3 view .LVU232
	.loc 1 228 71 is_stmt 0 view .LVU233
	push	{r4, r5, r6, r7, r8, r9, r10, lr}
	.cfi_def_cfa_offset 32
	.cfi_offset 4, -32
	.cfi_offset 5, -28
	.cfi_offset 6, -24
	.cfi_offset 7, -20
	.cfi_offset 8, -16
	.cfi_offset 9, -12
	.cfi_offset 10, -8
	.cfi_offset 14, -4
	.loc 1 237 17 view .LVU234
	ldm	r0, {r4, r9}
	.loc 1 233 6 view .LVU235
	ldrb	r8, [r4]	@ zero_extendqisi2
	.loc 1 228 71 view .LVU236
	mov	r5, r1
	.loc 1 233 6 view .LVU237
	cmp	r8, #0
	.loc 1 228 71 view .LVU238
	mov	r7, r2
	.loc 1 233 6 view .LVU239
	beq	.L98
.LVL87:
.L102:
	.loc 1 237 12 is_stmt 1 view .LVU240
	cmp	r4, r9
	ldrcc	r6, .L129
	bcs	.L115
.LVL88:
.L99:
	.loc 1 238 5 view .LVU241
.LBB73:
.LBB74:
	.loc 1 49 8 is_stmt 0 view .LVU242
	mov	r0, r4
	bl	strlen
.LVL89:
.LBE74:
.LBE73:
	.loc 1 238 8 view .LVU243
	ldrb	r3, [r4]	@ zero_extendqisi2
	cmp	r3, #91
	moveq	r8, r4
	.loc 1 240 23 view .LVU244
	addeq	r6, r4, #1
.LVL90:
	.loc 1 238 8 view .LVU245
	beq	.L105
.LBB77:
.LBB75:
	.loc 1 49 5 view .LVU246
	add	r8, r4, r0
.LBE75:
.LBE77:
	.loc 1 244 7 is_stmt 1 view .LVU247
.LVL91:
.LBB78:
.LBI73:
	.loc 1 48 14 view .LVU248
.LBB76:
	.loc 1 49 3 view .LVU249
	.loc 1 50 3 view .LVU250
	.loc 1 50 23 view .LVU251
	cmp	r8, r9
	bcs	.L106
	mov	r3, r8
	b	.L107
.LVL92:
.L108:
	.loc 1 50 23 is_stmt 0 view .LVU252
	cmp	r9, r3
	.loc 1 51 6 view .LVU253
	mov	r8, r3
.LVL93:
	.loc 1 50 23 is_stmt 1 view .LVU254
	beq	.L106
.LVL94:
.L107:
	.loc 1 51 5 view .LVU255
	mov	r8, r3
.LVL95:
	.loc 1 50 23 is_stmt 0 view .LVU256
	ldrb	r2, [r8]	@ zero_extendqisi2
	add	r3, r3, #1
.LVL96:
	.loc 1 50 23 view .LVU257
	cmp	r2, #0
	beq	.L108
.LVL97:
.L106:
	.loc 1 53 3 is_stmt 1 view .LVU258
	.loc 1 53 3 is_stmt 0 view .LVU259
.LBE76:
.LBE78:
	.loc 1 245 7 is_stmt 1 view .LVU260
	.loc 1 245 10 is_stmt 0 view .LVU261
	cmp	r5, #0
	beq	.L109
	.loc 1 245 24 discriminator 1 view .LVU262
	mov	r1, r6
	mov	r0, r5
	bl	strcmpci
.LVL98:
	.loc 1 245 20 discriminator 1 view .LVU263
	cmp	r0, #0
	bne	.L105
.L109:
	.loc 1 246 9 is_stmt 1 view .LVU264
	.loc 1 246 14 is_stmt 0 view .LVU265
	mov	r1, r7
	mov	r0, r4
	bl	strcmpci
.LVL99:
	.loc 1 246 12 view .LVU266
	cmp	r0, #0
	beq	.L97
.LVL100:
.L105:
	.loc 1 253 5 is_stmt 1 view .LVU267
.LBB79:
.LBI79:
	.loc 1 48 14 view .LVU268
.LBB80:
	.loc 1 49 3 view .LVU269
	.loc 1 49 8 is_stmt 0 view .LVU270
	mov	r0, r8
	bl	strlen
.LVL101:
	.loc 1 49 5 view .LVU271
	add	r0, r8, r0
.LVL102:
	.loc 1 50 3 is_stmt 1 view .LVU272
	.loc 1 50 23 view .LVU273
	cmp	r0, r9
	bcc	.L110
	b	.L115
.LVL103:
.L112:
	.loc 1 50 23 is_stmt 0 view .LVU274
	cmp	r9, r0
	.loc 1 51 6 view .LVU275
	mov	r4, r0
.LVL104:
	.loc 1 50 23 is_stmt 1 view .LVU276
	beq	.L111
.LVL105:
.L110:
	.loc 1 51 5 view .LVU277
	mov	r4, r0
.LVL106:
	.loc 1 50 23 is_stmt 0 view .LVU278
	ldrb	r3, [r4]	@ zero_extendqisi2
	add	r0, r0, #1
	cmp	r3, #0
	beq	.L112
.L111:
.LVL107:
	.loc 1 50 23 view .LVU279
.LBE80:
.LBE79:
	.loc 1 237 12 is_stmt 1 view .LVU280
	cmp	r4, r9
	bcc	.L99
.LVL108:
.L115:
	.loc 1 256 9 is_stmt 0 view .LVU281
	mov	r8, #0
.L97:
	.loc 1 257 1 view .LVU282
	mov	r0, r8
	pop	{r4, r5, r6, r7, r8, r9, r10, pc}
.LVL109:
.L98:
	.loc 1 234 5 is_stmt 1 view .LVU283
.LBB81:
.LBI81:
	.loc 1 48 14 view .LVU284
.LBB82:
	.loc 1 49 3 view .LVU285
	.loc 1 49 8 is_stmt 0 view .LVU286
	mov	r0, r4
.LVL110:
	.loc 1 49 8 view .LVU287
	bl	strlen
.LVL111:
	.loc 1 49 5 view .LVU288
	add	r3, r4, r0
.LVL112:
	.loc 1 50 3 is_stmt 1 view .LVU289
	.loc 1 50 23 view .LVU290
	cmp	r3, r9
	bcs	.L97
.L101:
	.loc 1 51 5 view .LVU291
	mov	r4, r3
.LVL113:
	.loc 1 50 23 is_stmt 0 view .LVU292
	ldrb	r2, [r4]	@ zero_extendqisi2
	add	r3, r3, #1
.LVL114:
	.loc 1 50 23 is_stmt 1 view .LVU293
	cmp	r2, #0
	bne	.L102
	cmp	r3, r9
	bne	.L101
.LBE82:
.LBE81:
	.loc 1 256 9 is_stmt 0 view .LVU294
	mov	r8, #0
.LVL115:
	.loc 1 256 9 view .LVU295
	b	.L97
.L130:
	.align	2
.L129:
	.word	.LC4
	.cfi_endproc
.LFE12:
	.size	ini_get, .-ini_get
	.section	.text.ini_sget,"ax",%progbits
	.align	2
	.global	ini_sget
	.syntax unified
	.arm
	.fpu vfp
	.type	ini_sget, %function
ini_sget:
.LVL116:
.LFB13:
	.loc 1 263 3 is_stmt 1 view -0
	.cfi_startproc
	@ args = 4, pretend = 0, frame = 0
	@ frame_needed = 0, uses_anonymous_args = 0
	.loc 1 264 3 view .LVU297
	.loc 1 263 3 is_stmt 0 view .LVU298
	push	{r4, lr}
	.cfi_def_cfa_offset 8
	.cfi_offset 4, -8
	.cfi_offset 14, -4
	.loc 1 263 3 view .LVU299
	mov	r4, r3
	.loc 1 264 21 view .LVU300
	bl	ini_get
.LVL117:
	.loc 1 265 3 is_stmt 1 view .LVU301
	.loc 1 265 6 is_stmt 0 view .LVU302
	subs	r2, r0, #0
	beq	.L134
	.loc 1 268 3 is_stmt 1 view .LVU303
	.loc 1 268 6 is_stmt 0 view .LVU304
	cmp	r4, #0
	beq	.L133
	.loc 1 269 5 is_stmt 1 view .LVU305
	mov	r1, r4
	ldr	r2, [sp, #8]
	bl	sscanf
.LVL118:
	.loc 1 273 10 is_stmt 0 view .LVU306
	mov	r0, #1
	pop	{r4, pc}
.LVL119:
.L133:
	.loc 1 271 5 is_stmt 1 view .LVU307
	.loc 1 271 27 is_stmt 0 view .LVU308
	ldr	r3, [sp, #8]
	.loc 1 273 10 view .LVU309
	mov	r0, #1
.LVL120:
	.loc 1 271 27 view .LVU310
	str	r2, [r3]
	pop	{r4, pc}
.LVL121:
.L134:
	.loc 1 266 12 view .LVU311
	mov	r0, r2
.LVL122:
	.loc 1 274 1 view .LVU312
	pop	{r4, pc}
	.cfi_endproc
.LFE13:
	.size	ini_sget, .-ini_sget
	.text
.Letext0:
	.file 2 "/opt/devkitpro/devkitARM/arm-none-eabi/include/machine/_default_types.h"
	.file 3 "/opt/devkitpro/devkitARM/lib/gcc/arm-none-eabi/11.2.0/include/stddef.h"
	.file 4 "/opt/devkitpro/devkitARM/arm-none-eabi/include/machine/_types.h"
	.file 5 "/opt/devkitpro/devkitARM/arm-none-eabi/include/sys/_types.h"
	.file 6 "/opt/devkitpro/devkitARM/arm-none-eabi/include/sys/reent.h"
	.file 7 "/opt/devkitpro/devkitARM/arm-none-eabi/include/sys/_stdint.h"
	.file 8 "/opt/devkitpro/devkitARM/arm-none-eabi/include/sys/lock.h"
	.file 9 "/opt/devkitpro/devkitARM/arm-none-eabi/include/stdio.h"
	.file 10 "/home/tobi/Dokumente/Craftus-Next/dependencies/ini/ini.h"
	.file 11 "/opt/devkitpro/devkitARM/arm-none-eabi/include/string.h"
	.file 12 "/opt/devkitpro/devkitARM/arm-none-eabi/include/stdlib.h"
	.file 13 "/opt/devkitpro/devkitARM/arm-none-eabi/include/ctype.h"
	.file 14 "<built-in>"