	.arch armv6k
	.eabi_attribute 28, 1
	.eabi_attribute 20, 1
	.eabi_attribute 21, 1
	.eabi_attribute 23, 3
	.eabi_attribute 24, 1
	.eabi_attribute 25, 1
	.eabi_attribute 26, 1
	.eabi_attribute 30, 2
	.eabi_attribute 34, 1
	.eabi_attribute 18, 4
	.file	"Inventory.c"
	.text
.Ltext0:
	.cfi_sections	.debug_frame
	.section	.text.clickAtStack,"ax",%progbits
	.align	2
	.syntax unified
	.arm
	.fpu vfp
	.type	clickAtStack, %function
clickAtStack:
.LVL0:
.LFB210:
	.file 1 "/home/tobi/Dokumente/Craftus-Next/source/gui/Inventory.c"
	.loc 1 9 44 view -0
	.cfi_startproc
	@ args = 0, pretend = 0, frame = 0
	@ frame_needed = 0, uses_anonymous_args = 0
	.loc 1 10 2 view .LVU1
	.loc 1 10 18 is_stmt 0 view .LVU2
	ldr	r1, .L19
	ldr	r3, [r1]
	.loc 1 10 34 view .LVU3
	ldr	r2, [r1, #4]
	.loc 1 10 5 view .LVU4
	cmp	r3, #0
	beq	.L17
	.loc 1 12 9 is_stmt 1 view .LVU5
	.loc 1 12 12 is_stmt 0 view .LVU6
	cmp	r0, r2
	beq	.L3
	.loc 1 15 9 is_stmt 1 view .LVU7
	.loc 1 16 3 view .LVU8
	.loc 1 16 6 is_stmt 0 view .LVU9
	cmp	r3, r0
	beq	.L13
	.loc 1 16 29 is_stmt 1 view .LVU10
.LVL1:
.LBB6:
.LBI6:
	.file 2 "/home/tobi/Dokumente/Craftus-Next/include/inventory/ItemStack.h"
	.loc 2 18 13 view .LVU11
.LBB7:
	.loc 2 19 2 view .LVU12
.LBE7:
.LBE6:
	.loc 1 9 44 is_stmt 0 view .LVU13
	push	{r4, r5, lr}
	.cfi_def_cfa_offset 12
	.cfi_offset 4, -12
	.cfi_offset 5, -8
	.cfi_offset 14, -4
.LBB12:
.LBB10:
	.loc 2 19 5 view .LVU14
	ldrb	r2, [r0]	@ zero_extendqisi2
	.loc 2 19 10 view .LVU15
	ldrb	lr, [r3]	@ zero_extendqisi2
	.loc 2 19 38 view .LVU16
	ldrb	r4, [r3, #1]	@ zero_extendqisi2
	.loc 2 19 5 view .LVU17
	cmp	r2, lr
	.loc 2 19 65 view .LVU18
	ldrb	r2, [r0, #2]	@ zero_extendqisi2
	.loc 2 19 5 view .LVU19
	beq	.L18
.L6:
	.loc 2 19 59 view .LVU20
	cmp	r2, #0
	beq	.L7
.LBB8:
	.loc 2 26 13 view .LVU21
	ldrb	r2, [r3, #2]	@ zero_extendqisi2
	.loc 2 26 3 is_stmt 1 view .LVU22
.LVL2:
	.loc 2 27 3 view .LVU23
	.loc 2 27 8 is_stmt 0 view .LVU24
	ldrh	r5, [r0]	@ unaligned
	ldrb	ip, [r0, #2]	@ zero_extendqisi2
	strh	r5, [r3]	@ unaligned
.LVL3:
	.loc 2 27 8 view .LVU25
	strb	ip, [r3, #2]
.LVL4:
	.loc 2 28 3 is_stmt 1 view .LVU26
	.loc 2 28 8 is_stmt 0 view .LVU27
	strb	lr, [r0]
	strb	r4, [r0, #1]
	strb	r2, [r0, #2]
.LVL5:
.L5:
	.loc 2 28 8 view .LVU28
.LBE8:
.LBE10:
.LBE12:
	.loc 1 17 3 is_stmt 1 view .LVU29
	.loc 1 17 15 is_stmt 0 view .LVU30
	mov	r3, #0
	str	r3, [r1]
	.loc 1 19 1 view .LVU31
	pop	{r4, r5, pc}
.L3:
	.cfi_def_cfa_offset 0
	.cfi_restore 4
	.cfi_restore 5
	.cfi_restore 14
	.loc 1 13 3 is_stmt 1 view .LVU32
	.loc 1 14 23 is_stmt 0 view .LVU33
	mov	r3, #0
	stm	r1, {r0, r3}
	bx	lr
.L17:
	.loc 1 10 25 discriminator 1 view .LVU34
	cmp	r0, r2
	beq	.L3
	.loc 1 11 3 is_stmt 1 view .LVU35
	.loc 1 11 23 is_stmt 0 view .LVU36
	str	r0, [r1, #4]
	bx	lr
.LVL6:
.L18:
	.cfi_def_cfa_offset 12
	.cfi_offset 4, -12
	.cfi_offset 5, -8
	.cfi_offset 14, -4
.LBB13:
.LBB11:
	.loc 2 19 32 view .LVU37
	ldrb	ip, [r0, #1]	@ zero_extendqisi2
	cmp	ip, r4
	bne	.L6
.L7:
.LBB9:
	.loc 2 20 3 is_stmt 1 view .LVU38
	.loc 2 20 18 is_stmt 0 view .LVU39
	ldrb	ip, [r3, #2]	@ zero_extendqisi2
.LVL7:
	.loc 2 21 3 is_stmt 1 view .LVU40
	.loc 2 20 36 is_stmt 0 view .LVU41
	rsb	r2, r2, #64
.LVL8:
	.loc 2 20 7 view .LVU42
	cmp	r2, ip
	movge	r2, ip
	.loc 2 21 15 view .LVU43
	uxtb	r2, r2
	sub	ip, ip, r2
.LVL9:
	.loc 2 21 15 view .LVU44
	strb	ip, [r3, #2]
.LVL10:
	.loc 2 22 3 is_stmt 1 view .LVU45
	.loc 2 22 15 is_stmt 0 view .LVU46
	ldrb	r3, [r0, #2]	@ zero_extendqisi2
.LVL11:
	.loc 2 23 14 view .LVU47
	strb	lr, [r0]
	.loc 2 22 15 view .LVU48
	add	r2, r2, r3
	.loc 2 24 13 view .LVU49
	strb	r4, [r0, #1]
	.loc 2 22 15 view .LVU50
	strb	r2, [r0, #2]
	.loc 2 23 3 is_stmt 1 view .LVU51
	.loc 2 24 3 view .LVU52
.LBE9:
	.loc 2 19 80 is_stmt 0 view .LVU53
	b	.L5
.LVL12:
.L13:
	.cfi_def_cfa_offset 0
	.cfi_restore 4
	.cfi_restore 5
	.cfi_restore 14
	.loc 2 19 80 view .LVU54
.LBE11:
.LBE13:
	.loc 1 17 3 is_stmt 1 view .LVU55
	.loc 1 17 15 is_stmt 0 view .LVU56
	mov	r3, #0
	str	r3, [r1]
	bx	lr
.L20:
	.align	2
.L19:
	.word	.LANCHOR0
	.cfi_endproc
.LFE210:
	.size	clickAtStack, .-clickAtStack
	.section	.text.Inventory_DrawQuickSelect,"ax",%progbits
	.align	2
	.global	Inventory_DrawQuickSelect
	.syntax unified
	.arm
	.fpu vfp
	.type	Inventory_DrawQuickSelect, %function
Inventory_DrawQuickSelect:
.LVL13:
.LFB211:
	.loc 1 21 91 is_stmt 1 view -0
	.cfi_startproc
	@ args = 4, pretend = 0, frame = 8
	@ frame_needed = 0, uses_anonymous_args = 0
	.loc 1 22 2 view .LVU58
	.loc 1 21 91 is_stmt 0 view .LVU59
	push	{r4, r5, r6, r7, r8, r9, r10, fp, lr}
	.cfi_def_cfa_offset 36
	.cfi_offset 4, -36
	.cfi_offset 5, -32
	.cfi_offset 6, -28
	.cfi_offset 7, -24
	.cfi_offset 8, -20
	.cfi_offset 9, -16
	.cfi_offset 10, -12
	.cfi_offset 11, -8
	.cfi_offset 14, -4
	vpush.64	{d8}
	.cfi_def_cfa_offset 44
	.cfi_offset 80, -44
	.cfi_offset 81, -40
	mov	ip, r0
	mov	r8, r3
	sub	sp, sp, #36
	.cfi_def_cfa_offset 80
	.loc 1 22 2 view .LVU60
	mov	r0, #3
.LVL14:
	.loc 1 21 91 view .LVU61
	mov	r6, ip
	mov	r9, r1
	mov	r4, r2
	str	ip, [sp, #28]
	.loc 1 22 2 view .LVU62
	bl	SpriteBatch_BindGuiTexture
.LVL15:
	.loc 1 24 2 is_stmt 1 view .LVU63
.LBB14:
	.loc 1 24 7 view .LVU64
	.loc 1 24 20 view .LVU65
	cmp	r8, #0
	ble	.L22
.LBB15:
	.loc 1 27 15 is_stmt 0 view .LVU66
	add	r3, r9, #3
	.loc 1 27 7 view .LVU67
	lsl	r3, r3, #1
.LBE15:
	.loc 1 24 11 view .LVU68
	mov	r5, #0
.LBB16:
	.loc 1 27 7 view .LVU69
	vmov	s16, r3	@ int
	ldr	fp, .L37
	.loc 1 29 7 view .LVU70
	sub	r10, r3, #4
	add	r6, r6, #1
.LVL16:
	.loc 1 29 7 view .LVU71
	b	.L26
.LVL17:
.L23:
	.loc 1 29 3 is_stmt 1 view .LVU72
	.loc 1 29 7 is_stmt 0 view .LVU73
	mov	r3, #36
	mov	r0, r7
	mov	r1, r10
	mov	r2, r3
	bl	Gui_EnteredCursorInside
.LVL18:
	.loc 1 29 6 view .LVU74
	cmp	r0, #0
	bne	.L35
.L24:
	.loc 1 33 3 is_stmt 1 view .LVU75
	mov	r0, #1
	bl	SpriteBatch_SetScale
.LVL19:
	.loc 1 34 3 view .LVU76
	.loc 1 34 6 is_stmt 0 view .LVU77
	ldr	r3, [fp]
	cmp	r4, r3
	beq	.L36
.L25:
	.loc 1 38 3 is_stmt 1 view .LVU78
	.loc 1 39 4 view .LVU79
	mov	r3, #20
	mov	ip, #22
	mov	lr, #0
	add	r2, r5, r5, lsl #2
	lsl	r2, r2, #2
	add	r6, r6, r3
	add	r2, r2, #21
	str	r2, [sp, #4]
	mov	r1, r9
	mov	r2, #10
	mov	r0, r6
.LBE16:
	.loc 1 24 30 is_stmt 0 view .LVU80
	add	r5, r5, #1
.LVL20:
.LBB17:
	.loc 1 39 4 view .LVU81
	str	ip, [sp, #16]
	str	r3, [sp, #12]
	str	lr, [sp, #8]
	str	ip, [sp]
	bl	SpriteBatch_PushQuad
.LVL21:
.LBE17:
	.loc 1 24 30 is_stmt 1 view .LVU82
	.loc 1 24 20 view .LVU83
	cmp	r8, r5
	add	r4, r4, #3
	beq	.L22
.LVL22:
.L26:
.LBB18:
	.loc 1 25 3 view .LVU84
	mov	r0, #1
	bl	SpriteBatch_SetScale
.LVL23:
	.loc 1 26 3 view .LVU85
	.loc 1 28 6 is_stmt 0 view .LVU86
	ldrb	r3, [r4, #2]	@ zero_extendqisi2
	lsl	r7, r6, #1
	cmp	r3, #0
	add	r2, r7, #4
.LVL24:
	.loc 1 27 3 is_stmt 1 view .LVU87
	.loc 1 28 3 view .LVU88
	.loc 1 28 6 is_stmt 0 view .LVU89
	beq	.L23
	.loc 1 28 29 is_stmt 1 discriminator 1 view .LVU90
	mov	r3, #11
	ldrb	r1, [r4, #1]	@ zero_extendqisi2
	str	r3, [sp]
	ldrb	r0, [r4]	@ zero_extendqisi2
	vmov	r3, s16	@ int
	bl	SpriteBatch_PushIcon
.LVL25:
	.loc 1 28 29 is_stmt 0 discriminator 1 view .LVU91
	b	.L23
.L35:
	.loc 1 30 4 is_stmt 1 view .LVU92
	.loc 1 30 14 is_stmt 0 view .LVU93
	ldr	r3, [sp, #80]
	.loc 1 31 4 view .LVU94
	mov	r0, r4
	.loc 1 30 14 view .LVU95
	str	r5, [r3]
	.loc 1 31 4 is_stmt 1 view .LVU96
	bl	clickAtStack
.LVL26:
	b	.L24
.L36:
	.loc 1 35 4 view .LVU97
	ldr	r3, .L37+4
	mov	r0, r6
	str	r3, [sp, #4]
	mov	r3, #18
	mov	r2, #9
	add	r1, r9, #1
	str	r3, [sp]
	bl	SpriteBatch_PushSingleColorQuad
.LVL27:
	.loc 1 36 4 view .LVU98
	mov	r0, #3
	bl	SpriteBatch_BindGuiTexture
.LVL28:
	b	.L25
.LVL29:
.L22:
	.loc 1 36 4 is_stmt 0 view .LVU99
.LBE18:
.LBE14:
	.loc 1 42 2 is_stmt 1 view .LVU100
	.loc 1 44 2 is_stmt 0 view .LVU101
	mov	r4, #22
	mov	r6, #21
	mov	r5, #0
	.loc 1 42 2 view .LVU102
	mov	r0, #1
	bl	SpriteBatch_SetScale
.LVL30:
	.loc 1 44 2 is_stmt 1 view .LVU103
	ldr	r7, [sp, #28]
	mov	r1, r9
	mov	r0, r7
	mov	r3, r6
	mov	r2, #10
	strd	r4, [sp]
	str	r4, [sp, #16]
	str	r6, [sp, #12]
	str	r5, [sp, #8]
	bl	SpriteBatch_PushQuad
.LVL31:
	.loc 1 45 2 view .LVU104
	mov	r2, #161
	.loc 1 45 40 is_stmt 0 view .LVU105
	sub	r8, r8, #2
.LVL32:
	.loc 1 45 31 view .LVU106
	add	r8, r8, r8, lsl #2
.LVL33:
	.loc 1 45 26 view .LVU107
	add	r0, r7, r8, lsl #2
	.loc 1 45 2 view .LVU108
	mov	r3, r6
	mov	r1, r9
	add	r0, r0, r6
	str	r2, [sp, #4]
	str	r4, [sp, #16]
	mov	r2, #10
	str	r6, [sp, #12]
	str	r5, [sp, #8]
	str	r4, [sp]
	bl	SpriteBatch_PushQuad
.LVL34:
	.loc 1 47 2 is_stmt 1 view .LVU109
	.loc 1 47 37 is_stmt 0 view .LVU110
	ldr	r3, [sp, #80]
	.loc 1 47 2 view .LVU111
	mov	r2, #14
	.loc 1 47 37 view .LVU112
	ldr	r3, [r3]
	.loc 1 47 2 view .LVU113
	sub	r1, r9, #1
	.loc 1 47 37 view .LVU114
	add	r3, r3, r3, lsl #2
	.loc 1 47 25 view .LVU115
	add	r0, r7, r3, lsl #2
	.loc 1 47 2 view .LVU116
	mov	r3, #24
	str	r4, [sp, #8]
	str	r5, [sp, #4]
	sub	r0, r0, #1
	str	r3, [sp, #16]
	str	r3, [sp, #12]
	str	r3, [sp]
	bl	SpriteBatch_PushQuad
.LVL35:
	.loc 1 48 1 view .LVU117
	add	sp, sp, #36
	.cfi_def_cfa_offset 44
	@ sp needed
	vldm	sp!, {d8}
	.cfi_restore 80
	.cfi_restore 81
	.cfi_def_cfa_offset 36
	pop	{r4, r5, r6, r7, r8, r9, r10, fp, pc}
.LVL36:
.L38:
	.loc 1 48 1 view .LVU118
	.align	2
.L37:
	.word	.LANCHOR0
	.word	20642
	.cfi_endproc
.LFE211:
	.size	Inventory_DrawQuickSelect, .-Inventory_DrawQuickSelect
	.section	.rodata.str1.4,"aMS",%progbits,1
	.align	2
.LC1:
	.ascii	" << \000"
	.align	2
.LC2:
	.ascii	" >> \000"
	.section	.text.Inventory_Draw,"ax",%progbits
	.align	2
	.global	Inventory_Draw
	.syntax unified
	.arm
	.fpu vfp
	.type	Inventory_Draw, %function
Inventory_Draw:
.LVL37:
.LFB212:
	.loc 1 50 82 is_stmt 1 view -0
	.cfi_startproc
	@ args = 8, pretend = 0, frame = 32
	@ frame_needed = 0, uses_anonymous_args = 0
	.loc 1 51 2 view .LVU120
	.loc 1 50 82 is_stmt 0 view .LVU121
	push	{r4, r5, r6, r7, r8, r9, r10, fp, lr}
	.cfi_def_cfa_offset 36
	.cfi_offset 4, -36
	.cfi_offset 5, -32
	.cfi_offset 6, -28
	.cfi_offset 7, -24
	.cfi_offset 8, -20
	.cfi_offset 9, -16
	.cfi_offset 10, -12
	.cfi_offset 11, -8
	.cfi_offset 14, -4
	vpush.64	{d8, d9}
	.cfi_def_cfa_offset 52
	.cfi_offset 80, -52
	.cfi_offset 81, -48
	.cfi_offset 82, -44
	.cfi_offset 83, -40
	mov	ip, r0
	sub	sp, sp, #44
	.cfi_def_cfa_offset 96
	.loc 1 51 2 view .LVU122
	mov	r0, #1
.LVL38:
	.loc 1 50 82 view .LVU123
	mov	r4, r3
	mov	fp, r1
	ldr	r10, [sp, #100]
	str	ip, [sp, #20]
	str	r2, [sp, #16]
	.loc 1 51 2 view .LVU124
	bl	SpriteBatch_SetScale
.LVL39:
	.loc 1 53 2 is_stmt 1 view .LVU125
	.loc 1 54 2 view .LVU126
	.loc 1 55 2 view .LVU127
	.loc 1 56 1 view .LVU128
	.loc 1 57 1 view .LVU129
	.loc 1 59 2 view .LVU130
	.loc 1 60 5 is_stmt 0 view .LVU131
	ldr	r3, [sp, #96]
	cmp	r3, #32
	.loc 1 59 16 view .LVU132
	ldr	r3, .L70
	str	r3, [sp, #36]
	.loc 1 60 2 is_stmt 1 view .LVU133
	.loc 1 60 5 is_stmt 0 view .LVU134
	bgt	.L40
	.loc 1 68 38 view .LVU135
	vmov	s18, r10	@ int
	lsl	r3, r10, #5
	sub	r5, r3, #32
.LVL40:
.L41:
	.loc 1 74 2 is_stmt 1 view .LVU136
	.loc 1 75 2 view .LVU137
.LBB19:
	.loc 1 75 7 view .LVU138
	.loc 1 75 31 is_stmt 0 view .LVU139
	vmov	s15, r3	@ int
	vcvt.f64.s32	d0, s15
	vldr.32	s15, [sp, #96]	@ int
	vcvt.f64.s32	d1, s15
	bl	fmin
.LVL41:
	.loc 1 98 68 view .LVU140
	ldr	r3, [sp, #16]
	.loc 1 75 31 view .LVU141
	vmov.f64	d8, d0
	.loc 1 98 68 view .LVU142
	sub	r3, r3, #32
	.loc 1 98 5 view .LVU143
	lsl	r3, r3, #1
	str	r3, [sp, #28]
	add	r3, r5, r5, lsl #1
	add	r4, r4, r3
.LVL42:
	.loc 1 98 5 view .LVU144
.LBE19:
	.loc 1 53 6 view .LVU145
	ldr	r3, [sp, #20]
	.loc 1 56 6 view .LVU146
	mov	r9, #0
	.loc 1 53 6 view .LVU147
	mov	r8, r3
.LBB20:
	.loc 1 98 5 view .LVU148
	lsl	r3, r3, #1
	.loc 1 91 17 view .LVU149
	ldr	r10, .L70+4
	.loc 1 98 5 view .LVU150
	str	r3, [sp, #24]
	.loc 1 75 2 view .LVU151
	b	.L45
.LVL43:
.L51:
	.loc 1 77 3 is_stmt 1 view .LVU152
	.loc 1 77 16 is_stmt 0 view .LVU153
	ldrb	r0, [r4]	@ zero_extendqisi2
	.loc 1 77 6 view .LVU154
	cmp	r0, #0
	beq	.L46
	.loc 1 77 23 discriminator 1 view .LVU155
	ldrb	r3, [r4, #2]	@ zero_extendqisi2
	cmp	r3, #0
	beq	.L46
	.loc 1 79 4 is_stmt 1 view .LVU156
.LVL44:
	.loc 1 80 4 view .LVU157
	.loc 1 80 7 is_stmt 0 view .LVU158
	ldr	r2, [sp, #16]
	.loc 1 80 15 view .LVU159
	add	r3, r8, #16
	.loc 1 80 7 view .LVU160
	cmp	r3, r2
	.loc 1 82 5 is_stmt 1 view .LVU161
.LVL45:
	.loc 1 83 5 view .LVU162
	movlt	r6, r8
	movlt	r8, r3
	.loc 1 79 12 is_stmt 0 view .LVU163
	movlt	r3, #0
	.loc 1 82 11 view .LVU164
	ldrge	r3, [sp, #20]
	.loc 1 84 13 view .LVU165
	movge	r2, #1
	.loc 1 82 11 view .LVU166
	movge	r6, r3
	.loc 1 93 10 view .LVU167
	addge	r8, r3, #16
	.loc 1 79 12 view .LVU168
	strlt	r3, [sp, #12]
	.loc 1 87 5 view .LVU169
	mov	r3, #10
	.loc 1 83 11 view .LVU170
	addge	fp, fp, #17
.LVL46:
	.loc 1 84 5 is_stmt 1 view .LVU171
	.loc 1 86 4 view .LVU172
	.loc 1 87 5 view .LVU173
	lsl	r6, r6, #1
	lsl	r7, fp, #1
	.loc 1 84 13 is_stmt 0 view .LVU174
	strge	r2, [sp, #12]
.LVL47:
	.loc 1 87 5 view .LVU175
	ldrb	r1, [r4, #1]	@ zero_extendqisi2
	mov	r2, r6
	str	r3, [sp]
	mov	r3, r7
	bl	SpriteBatch_PushIcon
.LVL48:
	.loc 1 88 4 is_stmt 1 view .LVU176
	.loc 1 88 8 is_stmt 0 view .LVU177
	mov	r3, #32
	mov	r1, r7
	mov	r0, r6
	mov	r2, r3
	bl	Gui_EnteredCursorInside
.LVL49:
	.loc 1 88 7 view .LVU178
	cmp	r0, #0
	bne	.L68
.L48:
	.loc 1 90 4 is_stmt 1 view .LVU179
	ldr	r3, [r10]
	mov	r0, r6
	cmp	r4, r3
	addne	r3, sp, #40
	addne	r3, r3, r9, lsl #1
	ldrshne	r3, [r3, #-4]
	ldreq	r3, .L70+8
	mov	r2, #9
	str	r3, [sp, #4]
	mov	r3, #32
	mov	r1, r7
	str	r3, [sp]
	bl	SpriteBatch_PushSingleColorQuad
.LVL50:
	.loc 1 92 4 view .LVU180
	.loc 1 93 4 view .LVU181
	.loc 1 94 4 view .LVU182
	.loc 1 94 7 is_stmt 0 view .LVU183
	ldr	r3, [sp, #12]
	cmp	r3, #0
	.loc 1 92 9 view .LVU184
	eoreq	r9, r9, #1
.LVL51:
	.loc 1 94 7 view .LVU185
	bne	.L69
.L46:
.LVL52:
	.loc 1 75 55 is_stmt 1 discriminator 2 view .LVU186
	add	r5, r5, #1
.LVL53:
	.loc 1 75 55 is_stmt 0 discriminator 2 view .LVU187
	add	r4, r4, #3
.LVL54:
.L45:
	.loc 1 75 29 is_stmt 1 discriminator 1 view .LVU188
	vmov	s15, r5	@ int
	vcvt.f64.s32	d7, s15
	vcmpe.f64	d7, d8
	vmrs	APSR_nzcv, FPSCR
	bmi	.L51
	.loc 1 75 29 is_stmt 0 discriminator 1 view .LVU189
.LBE20:
	.loc 1 103 2 is_stmt 1 view .LVU190
	mov	r0, #2
	bl	SpriteBatch_SetScale
.LVL55:
	.loc 1 104 2 view .LVU191
	.loc 1 105 1 is_stmt 0 view .LVU192
	vmov	r0, s18	@ int
	add	sp, sp, #44
	.cfi_remember_state
	.cfi_def_cfa_offset 52
	@ sp needed
	vldm	sp!, {d8-d9}
	.cfi_restore 82
	.cfi_restore 83
	.cfi_restore 80
	.cfi_restore 81
	.cfi_def_cfa_offset 36
.LVL56:
	.loc 1 105 1 view .LVU193
	pop	{r4, r5, r6, r7, r8, r9, r10, fp, pc}
.LVL57:
.L69:
	.cfi_restore_state
.LBB21:
	.loc 1 96 5 is_stmt 1 view .LVU194
	.loc 1 98 5 view .LVU195
	ldr	r3, .L70+12
	mov	r2, #10
	str	r3, [sp, #4]
	mov	r3, #2
	ldr	r0, [sp, #24]
	str	r3, [sp]
	sub	r1, r7, #2
	ldr	r3, [sp, #28]
	bl	SpriteBatch_PushSingleColorQuad
.LVL58:
	.loc 1 96 10 is_stmt 0 view .LVU196
	mov	r9, #0
	b	.L46
.LVL59:
.L68:
	.loc 1 89 5 is_stmt 1 view .LVU197
	mov	r0, r4
	bl	clickAtStack
.LVL60:
	b	.L48
.LVL61:
.L40:
	.loc 1 89 5 is_stmt 0 view .LVU198
.LBE21:
	.loc 1 62 3 is_stmt 1 view .LVU199
	mov	r1, #60
	mov	r0, #0
	bl	Gui_Offset
.LVL62:
	.loc 1 63 3 view .LVU200
	.loc 1 63 7 is_stmt 0 view .LVU201
	ldr	r1, .L70+16
	mov	r0, #0
	bl	Gui_Button
.LVL63:
	.loc 1 63 31 view .LVU202
	cmp	r10, #1
	movle	r0, #0
	andgt	r0, r0, #1
	.loc 1 67 3 view .LVU203
	mov	r1, #60
	.loc 1 63 31 view .LVU204
	cmp	r0, #0
	.loc 1 65 4 is_stmt 1 view .LVU205
	.loc 1 67 3 is_stmt 0 view .LVU206
	ldr	r0, .L70+20
	.loc 1 65 8 view .LVU207
	subne	r10, r10, #1
.LVL64:
	.loc 1 67 3 is_stmt 1 view .LVU208
	bl	Gui_Offset
.LVL65:
	.loc 1 68 3 view .LVU209
	.loc 1 68 7 is_stmt 0 view .LVU210
	mov	r0, #0
	ldr	r1, .L70+24
	bl	Gui_Button
.LVL66:
	.loc 1 68 6 view .LVU211
	cmp	r0, #0
	.loc 1 68 38 view .LVU212
	lsl	r3, r10, #5
	.loc 1 68 6 view .LVU213
	beq	.L67
	.loc 1 68 31 discriminator 1 view .LVU214
	ldr	r2, [sp, #96]
	cmp	r2, r3
	ble	.L67
	.loc 1 70 4 is_stmt 1 view .LVU215
	.loc 1 70 8 is_stmt 0 view .LVU216
	add	r2, r10, #1
.LBB22:
	.loc 1 75 40 view .LVU217
	mov	r5, r3
.LBE22:
	.loc 1 70 8 view .LVU218
	vmov	s18, r2	@ int
.LVL67:
.LBB23:
	.loc 1 75 40 view .LVU219
	add	r3, r3, #32
	b	.L41
.LVL68:
.L67:
	.loc 1 75 40 view .LVU220
.LBE23:
	.loc 1 74 6 view .LVU221
	vmov	s18, r10	@ int
	sub	r5, r3, #32
	b	.L41
.L71:
	.align	2
.L70:
	.word	692727147
	.word	.LANCHOR0
	.word	20642
	.word	7399
	.word	.LC1
	.word	270
	.word	.LC2
	.cfi_endproc
.LFE212:
	.size	Inventory_Draw, .-Inventory_Draw
	.bss
	.align	2
	.set	.LANCHOR0,. + 0
	.type	sourceStack, %object
	.size	sourceStack, 4
sourceStack:
	.space	4
	.type	proposedSourceStack, %object
	.size	proposedSourceStack, 4
proposedSourceStack:
	.space	4
	.text
.Letext0:
	.file 3 "/opt/devkitpro/devkitARM/arm-none-eabi/include/machine/_default_types.h"
	.file 4 "/opt/devkitpro/devkitARM/arm-none-eabi/include/sys/_stdint.h"
	.file 5 "/home/tobi/Dokumente/Craftus-Next/include/blocks/Block.h"
	.file 6 "/home/tobi/Dokumente/Craftus-Next/include/blocks/Item.h"
	.file 7 "/opt/devkitpro/libctru/include/3ds/services/csnd.h"
	.file 8 "/opt/devkitpro/libctru/include/3ds/services/ndm.h"
	.file 9 "/opt/devkitpro/libctru/include/3ds/gpu/enums.h"
	.file 10 "/opt/devkitpro/libctru/include/3ds/ndsp/channel.h"
	.file 11 "/opt/devkitpro/libctru/include/3ds/applets/error.h"
	.file 12 "/home/tobi/Dokumente/Craftus-Next/include/gui/SpriteBatch.h"
	.file 13 "/opt/devkitpro/devkitARM/arm-none-eabi/include/math.h"
	.file 14 "/home/tobi/Dokumente/Craftus-Next/include/gui/Gui.h"
	.file 15 "/opt/devkitpro/libctru/include/3ds/types.h"