	.arch armv6k
	.eabi_attribute 28, 1
	.eabi_attribute 20, 1
	.eabi_attribute 21, 1
	.eabi_attribute 23, 3
	.eabi_attribute 24, 1
	.eabi_attribute 25, 1
	.eabi_attribute 26, 1
	.eabi_attribute 30, 2
	.eabi_attribute 34, 1
	.eabi_attribute 18, 4
	.file	"Item.c"
	.text
.Ltext0:
	.cfi_sections	.debug_frame
	.section	.rodata.str1.4,"aMS",%progbits,1
	.align	2
.LC0:
	.ascii	"romfs:/assets/textures/blocks/dirt.png\000"
	.section	.text.Item_Init,"ax",%progbits
	.align	2
	.global	Item_Init
	.syntax unified
	.arm
	.fpu vfp
	.type	Item_Init, %function
Item_Init:
.LFB121:
	.file 1 "/home/tobi/Dokumente/Craftus-Next/source/blocks/Item.c"
	.loc 1 22 18 view -0
	.cfi_startproc
	@ args = 0, pretend = 0, frame = 8
	@ frame_needed = 0, uses_anonymous_args = 0
	.loc 1 23 2 view .LVU1
	.loc 1 22 18 is_stmt 0 view .LVU2
	push	{r4, r5, lr}
	.cfi_def_cfa_offset 12
	.cfi_offset 4, -12
	.cfi_offset 5, -8
	.cfi_offset 14, -4
	sub	sp, sp, #12
	.cfi_def_cfa_offset 24
	.loc 1 25 15 view .LVU3
	mov	r5, sp
	.loc 1 23 2 view .LVU4
	ldr	r4, .L4
	mov	r2, #1
	mov	r0, r4
	ldr	r1, .L4+4
	bl	Texture_MapInit
.LVL0:
	.loc 1 25 2 is_stmt 1 view .LVU5
	.loc 1 25 15 is_stmt 0 view .LVU6
	mov	r1, r4
	mov	r0, r5
	ldr	r2, .L4+8
	bl	Texture_MapGetIcon
.LVL1:
	ldm	r5, {r0, r1}
	add	r4, r4, #536
	stm	r4, {r0, r1}
	.loc 1 27 1 view .LVU7
	add	sp, sp, #12
	.cfi_def_cfa_offset 12
	@ sp needed
	pop	{r4, r5, pc}
.L5:
	.align	2
.L4:
	.word	.LANCHOR1
	.word	.LANCHOR0
	.word	.LC0
	.cfi_endproc
.LFE121:
	.size	Item_Init, .-Item_Init
	.section	.text.Item_Deinit,"ax",%progbits
	.align	2
	.global	Item_Deinit
	.syntax unified
	.arm
	.fpu vfp
	.type	Item_Deinit, %function
Item_Deinit:
.LFB122:
	.loc 1 28 20 is_stmt 1 view -0
	.cfi_startproc
	@ args = 0, pretend = 0, frame = 0
	@ frame_needed = 0, uses_anonymous_args = 0
	@ link register save eliminated.
	.loc 1 28 22 view .LVU9
	ldr	r0, .L7
	b	C3D_TexDelete
.LVL2:
.L8:
	.align	2
.L7:
	.word	.LANCHOR1
	.cfi_endproc
.LFE122:
	.size	Item_Deinit, .-Item_Deinit
	.section	.text.Item_GetTextureMap,"ax",%progbits
	.align	2
	.global	Item_GetTextureMap
	.syntax unified
	.arm
	.fpu vfp
	.type	Item_GetTextureMap, %function
Item_GetTextureMap:
.LFB123:
	.loc 1 30 28 view -0
	.cfi_startproc
	@ args = 0, pretend = 0, frame = 0
	@ frame_needed = 0, uses_anonymous_args = 0
	@ link register save eliminated.
	.loc 1 30 30 view .LVU11
	.loc 1 30 58 is_stmt 0 view .LVU12
	ldr	r0, .L10
	bx	lr
.L11:
	.align	2
.L10:
	.word	.LANCHOR1
	.cfi_endproc
.LFE123:
	.size	Item_GetTextureMap, .-Item_GetTextureMap
	.section	.text.Item_GetTexture,"ax",%progbits
	.align	2
	.global	Item_GetTexture
	.syntax unified
	.arm
	.fpu vfp
	.type	Item_GetTexture, %function
Item_GetTexture:
.LVL3:
.LFB124:
	.loc 1 32 89 is_stmt 1 view -0
	.cfi_startproc
	@ args = 0, pretend = 0, frame = 0
	@ frame_needed = 0, uses_anonymous_args = 0
	@ link register save eliminated.
	.loc 1 33 2 view .LVU14
	.loc 1 34 2 view .LVU15
	cmp	r0, #0
	.loc 1 36 4 view .LVU16
.LVL4:
	.loc 1 33 18 is_stmt 0 view .LVU17
	movne	r2, #0
.LVL5:
	.loc 1 33 18 view .LVU18
	movne	r1, r2
.LVL6:
	.loc 1 36 6 view .LVU19
	ldreq	r2, .L15
	ldrsheq	r1, [r2, #4]
.LVL7:
	.loc 1 36 6 view .LVU20
	ldrsheq	r2, [r2, #6]
.LVL8:
	.loc 1 37 4 is_stmt 1 view .LVU21
	.loc 1 40 2 view .LVU22
	.loc 1 40 12 is_stmt 0 view .LVU23
	strh	r1, [r3]	@ movhi
	.loc 1 41 2 is_stmt 1 view .LVU24
	.loc 1 41 12 is_stmt 0 view .LVU25
	strh	r2, [r3, #2]	@ movhi
.LVL9:
	.loc 1 42 1 view .LVU26
	bx	lr
.L16:
	.align	2
.L15:
	.word	.LANCHOR1+536
	.cfi_endproc
.LFE124:
	.size	Item_GetTexture, .-Item_GetTexture
	.global	ItemNames
	.section	.rodata.str1.4
	.align	2
.LC1:
	.ascii	"Totem\000"
	.global	item_texture_files
	.data
	.align	2
	.set	.LANCHOR0,. + 0
	.type	item_texture_files, %object
	.size	item_texture_files, 4
item_texture_files:
	.word	.LC0
	.type	ItemNames, %object
	.size	ItemNames, 4
ItemNames:
	.word	.LC1
	.bss
	.align	2
	.set	.LANCHOR1,. + 0
	.type	textureMap, %object
	.size	textureMap, 536
textureMap:
	.space	536
	.type	icon, %object
	.size	icon, 8
icon:
	.space	8
	.text
.Letext0:
	.file 2 "/opt/devkitpro/devkitARM/arm-none-eabi/include/machine/_default_types.h"
	.file 3 "/opt/devkitpro/devkitARM/arm-none-eabi/include/sys/_stdint.h"
	.file 4 "/home/tobi/Dokumente/Craftus-Next/include/world/Direction.h"
	.file 5 "/home/tobi/Dokumente/Craftus-Next/include/blocks/Item.h"
	.file 6 "/opt/devkitpro/devkitARM/lib/gcc/arm-none-eabi/11.2.0/include/stddef.h"
	.file 7 "/opt/devkitpro/libctru/include/3ds/types.h"
	.file 8 "/opt/devkitpro/libctru/include/3ds/services/csnd.h"
	.file 9 "/opt/devkitpro/libctru/include/3ds/services/ndm.h"
	.file 10 "/opt/devkitpro/libctru/include/3ds/gpu/enums.h"
	.file 11 "/opt/devkitpro/libctru/include/3ds/ndsp/channel.h"
	.file 12 "/opt/devkitpro/libctru/include/3ds/applets/error.h"
	.file 13 "/opt/devkitpro/libctru/include/c3d/texture.h"
	.file 14 "/home/tobi/Dokumente/Craftus-Next/include/rendering/TextureMap.h"