	.arch armv6k
	.eabi_attribute 28, 1
	.eabi_attribute 20, 1
	.eabi_attribute 21, 1
	.eabi_attribute 23, 3
	.eabi_attribute 24, 1
	.eabi_attribute 25, 1
	.eabi_attribute 26, 1
	.eabi_attribute 30, 2
	.eabi_attribute 34, 1
	.eabi_attribute 18, 4
	.file	"lodepng.c"
	.text
.Ltext0:
	.cfi_sections	.debug_frame
	.section	.text.bpmnode_create,"ax",%progbits
	.align	2
	.syntax unified
	.arm
	.fpu vfp
	.type	bpmnode_create, %function
bpmnode_create:
.LVL0:
.LFB38:
	.file 1 "/home/tobi/Dokumente/Craftus-Next/dependencies/lodepng/lodepng.c"
	.loc 1 699 1 view -0
	.cfi_startproc
	@ args = 0, pretend = 0, frame = 0
	@ frame_needed = 0, uses_anonymous_args = 0
	.loc 1 700 3 view .LVU1
	.loc 1 701 3 view .LVU2
	.loc 1 704 3 view .LVU3
	.loc 1 704 11 is_stmt 0 view .LVU4
	ldr	ip, [r0, #12]
	.loc 1 699 1 view .LVU5
	push	{r4, r5, r6, r7, r8, lr}
	.cfi_def_cfa_offset 24
	.cfi_offset 4, -24
	.cfi_offset 5, -20
	.cfi_offset 6, -16
	.cfi_offset 7, -12
	.cfi_offset 8, -8
	.cfi_offset 14, -4
	.loc 1 704 5 view .LVU6
	ldr	lr, [r0, #8]
	.loc 1 718 41 view .LVU7
	ldr	r6, [r0, #16]
	.loc 1 704 5 view .LVU8
	cmp	ip, lr
	.loc 1 723 27 view .LVU9
	addcc	r6, r6, ip, lsl #2
	.loc 1 723 43 view .LVU10
	addcc	ip, ip, #1
	.loc 1 704 5 view .LVU11
	bcc	.L3
.LVL1:
	.loc 1 707 18 is_stmt 1 view .LVU12
	.loc 1 707 26 is_stmt 0 view .LVU13
	ldr	r5, [r0]
	.loc 1 708 26 view .LVU14
	ldr	r7, [r0, #20]
	.loc 1 707 18 view .LVU15
	cmp	r5, #0
	beq	.L4
	.loc 1 707 47 view .LVU16
	ldr	ip, [r0, #4]
	.loc 1 707 66 view .LVU17
	mov	r8, #0
	mov	lr, ip
	add	r4, ip, r5, lsl #4
.LVL2:
.L5:
	.loc 1 707 42 is_stmt 1 discriminator 3 view .LVU18
	.loc 1 707 66 is_stmt 0 discriminator 3 view .LVU19
	str	r8, [lr, #12]
	.loc 1 707 37 is_stmt 1 discriminator 3 view .LVU20
	.loc 1 707 18 discriminator 3 view .LVU21
	add	lr, lr, #16
	cmp	lr, r4
	bne	.L5
.LVL3:
	.loc 1 708 18 view .LVU22
	cmp	r7, #0
	beq	.L38
.L17:
.LBB797:
	.loc 1 711 80 is_stmt 0 view .LVU23
	mov	lr, #1
	.loc 1 711 23 view .LVU24
	ldr	r4, [r0, #24]
	add	r7, r4, r7, lsl #2
	sub	r8, r7, #4
	ldr	r7, [r0, #28]
	sub	r4, r4, #4
	sub	r7, r7, #4
.LVL4:
.L11:
	.loc 1 710 7 is_stmt 1 view .LVU25
	.loc 1 711 7 view .LVU26
	.loc 1 711 16 is_stmt 0 view .LVU27
	ldr	ip, [r4, #4]!
.LVL5:
	.loc 1 711 42 is_stmt 1 view .LVU28
	cmp	ip, #0
	beq	.L10
.L7:
	.loc 1 711 67 discriminator 3 view .LVU29
	.loc 1 711 80 is_stmt 0 discriminator 3 view .LVU30
	str	lr, [ip, #12]
	.loc 1 711 53 is_stmt 1 discriminator 3 view .LVU31
	ldr	ip, [ip, #8]
.LVL6:
	.loc 1 711 42 discriminator 3 view .LVU32
	cmp	ip, #0
	bne	.L7
.L10:
	.loc 1 712 7 view .LVU33
	.loc 1 712 16 is_stmt 0 view .LVU34
	ldr	ip, [r7, #4]!
.LVL7:
	.loc 1 712 42 is_stmt 1 view .LVU35
	cmp	ip, #0
	beq	.L9
.L8:
	.loc 1 712 67 discriminator 3 view .LVU36
	.loc 1 712 80 is_stmt 0 discriminator 3 view .LVU37
	str	lr, [ip, #12]
	.loc 1 712 53 is_stmt 1 discriminator 3 view .LVU38
	ldr	ip, [ip, #8]
.LVL8:
	.loc 1 712 42 discriminator 3 view .LVU39
	cmp	ip, #0
	bne	.L8
.L9:
	.loc 1 712 42 is_stmt 0 discriminator 3 view .LVU40
.LBE797:
	.loc 1 708 38 is_stmt 1 view .LVU41
	.loc 1 708 18 view .LVU42
	cmp	r4, r8
	bne	.L11
	.loc 1 715 5 view .LVU43
	.loc 1 715 20 is_stmt 0 view .LVU44
	mov	ip, #0
.LVL9:
	.loc 1 716 18 view .LVU45
	cmp	r5, #0
	.loc 1 715 20 view .LVU46
	str	ip, [r0, #8]
	.loc 1 716 5 is_stmt 1 view .LVU47
.LVL10:
	.loc 1 716 18 view .LVU48
	beq	.L16
	.loc 1 707 47 is_stmt 0 view .LVU49
	ldr	ip, [r0, #4]
.L19:
	.loc 1 699 1 view .LVU50
	mov	lr, #0
	b	.L15
.LVL11:
.L39:
	.loc 1 718 16 view .LVU51
	ldr	ip, [r0, #4]
.LVL12:
.L15:
	.loc 1 718 7 is_stmt 1 view .LVU52
	.loc 1 718 36 view .LVU53
	.loc 1 716 37 view .LVU54
	.loc 1 718 24 is_stmt 0 view .LVU55
	add	ip, ip, lr, lsl #4
	.loc 1 718 9 view .LVU56
	ldr	r4, [ip, #12]
	.loc 1 716 37 view .LVU57
	add	lr, lr, #1
.LVL13:
	.loc 1 716 18 is_stmt 1 view .LVU58
	.loc 1 718 9 is_stmt 0 view .LVU59
	cmp	r4, #0
	.loc 1 718 57 view .LVU60
	ldreq	r4, [r0, #8]
	.loc 1 718 66 view .LVU61
	addeq	r7, r4, #1
	streq	r7, [r0, #8]
	.loc 1 718 70 view .LVU62
	streq	ip, [r6, r4, lsl #2]
	.loc 1 716 18 view .LVU63
	cmp	lr, r5
	bne	.L39
.LVL14:
.L16:
	.loc 1 720 5 is_stmt 1 view .LVU64
	.loc 1 699 1 is_stmt 0 view .LVU65
	mov	ip, #1
.L3:
	.loc 1 723 3 is_stmt 1 view .LVU66
	.loc 1 723 43 is_stmt 0 view .LVU67
	str	ip, [r0, #12]
	.loc 1 723 10 view .LVU68
	ldr	r0, [r6]
.LVL15:
	.loc 1 724 3 is_stmt 1 view .LVU69
	.loc 1 726 16 is_stmt 0 view .LVU70
	stm	r0, {r1, r2, r3}
	.loc 1 727 3 is_stmt 1 view .LVU71
	.loc 1 728 1 is_stmt 0 view .LVU72
	pop	{r4, r5, r6, r7, r8, pc}
.LVL16:
.L4:
	.loc 1 708 18 is_stmt 1 view .LVU73
	cmp	r7, #0
	bne	.L17
	.loc 1 715 5 view .LVU74
	.loc 1 715 20 is_stmt 0 view .LVU75
	str	r7, [r0, #8]
	.loc 1 716 5 is_stmt 1 view .LVU76
	.loc 1 716 18 view .LVU77
	b	.L16
.L38:
	.loc 1 715 5 view .LVU78
	.loc 1 715 20 is_stmt 0 view .LVU79
	str	r7, [r0, #8]
	.loc 1 716 5 is_stmt 1 view .LVU80
	.loc 1 716 18 view .LVU81
	b	.L19
	.cfi_endproc
.LFE38:
	.size	bpmnode_create, .-bpmnode_create
	.section	.text.boundaryPM,"ax",%progbits
	.align	2
	.syntax unified
	.arm
	.fpu vfp
	.type	boundaryPM, %function
boundaryPM:
.LVL17:
.LFB40:
	.loc 1 759 1 view -0
	.cfi_startproc
	@ args = 4, pretend = 0, frame = 8
	@ frame_needed = 0, uses_anonymous_args = 0
	.loc 1 760 3 view .LVU83
	.loc 1 759 1 is_stmt 0 view .LVU84
	push	{r4, r5, r6, r7, r8, r9, r10, fp, lr}
	.cfi_def_cfa_offset 36
	.cfi_offset 4, -36
	.cfi_offset 5, -32
	.cfi_offset 6, -28
	.cfi_offset 7, -24
	.cfi_offset 8, -20
	.cfi_offset 9, -16
	.cfi_offset 10, -12
	.cfi_offset 11, -8
	.cfi_offset 14, -4
	mov	r4, r3
	.loc 1 760 29 view .LVU85
	ldr	r5, [r0, #28]
	.loc 1 759 1 view .LVU86
	mov	r8, r0
	.loc 1 762 5 view .LVU87
	cmp	r3, #0
	.loc 1 760 38 view .LVU88
	lsl	r0, r3, #2
.LVL18:
	.loc 1 760 38 view .LVU89
	ldr	r3, [r5, r3, lsl #2]
.LVL19:
	.loc 1 759 1 view .LVU90
	mov	r9, r2
	mov	fp, r1
	.loc 1 760 12 view .LVU91
	ldr	r2, [r3, #4]
.LVL20:
	.loc 1 762 3 is_stmt 1 view .LVU92
	.loc 1 759 1 is_stmt 0 view .LVU93
	sub	sp, sp, #20
	.cfi_def_cfa_offset 56
	.loc 1 760 38 view .LVU94
	add	r7, r5, r4, lsl #2
	.loc 1 762 5 view .LVU95
	beq	.L45
.LBB798:
	.loc 1 781 39 view .LVU96
	sub	r1, r9, #-2147483647
.LVL21:
	.loc 1 781 39 view .LVU97
	lsl	r1, r1, #1
	str	r1, [sp, #8]
	.loc 1 781 12 view .LVU98
	ldr	r1, [sp, #56]
.LBE798:
	.loc 1 765 10 view .LVU99
	ldr	r10, [r8, #24]
	add	r6, r0, #4
.LBB799:
	.loc 1 781 12 view .LVU100
	add	r1, r1, #1
	add	r6, r10, r6
	add	r5, r5, r4, lsl #2
	add	r10, r10, r4, lsl #2
	str	r1, [sp, #12]
	b	.L46
.LVL22:
.L52:
	.loc 1 783 7 view .LVU101
	ldr	r1, [sp, #56]
.LVL23:
	.loc 1 783 7 view .LVU102
	mov	r3, r4
	mov	r2, r9
	mov	r0, r8
	str	r1, [sp]
	mov	r1, fp
	bl	boundaryPM
.LVL24:
	.loc 1 784 7 is_stmt 1 view .LVU103
.LBE799:
	.loc 1 760 3 view .LVU104
	.loc 1 760 38 is_stmt 0 view .LVU105
	ldr	r3, [r5]
	.loc 1 762 5 view .LVU106
	cmp	r4, #0
	.loc 1 760 12 view .LVU107
	ldr	r2, [r3, #4]
.LVL25:
	.loc 1 762 3 is_stmt 1 view .LVU108
	lsl	r0, r4, #2
	.loc 1 762 5 is_stmt 0 view .LVU109
	beq	.L45
.L46:
.LBB800:
	.loc 1 771 5 is_stmt 1 view .LVU110
	.loc 1 778 5 view .LVU111
	.loc 1 771 68 is_stmt 0 view .LVU112
	ldr	r0, [r5, #-4]!
	.loc 1 771 36 view .LVU113
	ldr	r1, [r10, #-4]!
	.loc 1 771 9 view .LVU114
	ldr	r0, [r0]
	ldr	r1, [r1]
	.loc 1 773 7 view .LVU115
	cmp	r9, r2
	.loc 1 783 7 view .LVU116
	sub	r4, r4, #1
	.loc 1 772 23 view .LVU117
	str	r3, [r6, #-4]!
	.loc 1 771 9 view .LVU118
	add	r1, r1, r0
.LVL26:
	.loc 1 772 5 is_stmt 1 view .LVU119
	.loc 1 773 5 view .LVU120
	.loc 1 773 7 is_stmt 0 view .LVU121
	bls	.L44
	.loc 1 773 57 discriminator 1 view .LVU122
	ldr	r0, [fp, r2, lsl #4]
	.loc 1 773 31 discriminator 1 view .LVU123
	cmp	r0, r1
	blt	.L51
.L44:
	.loc 1 778 25 view .LVU124
	ldr	r3, [r5]
	mov	r0, r8
	bl	bpmnode_create
.LVL27:
	.loc 1 783 7 is_stmt 1 view .LVU125
	.loc 1 781 7 is_stmt 0 view .LVU126
	ldrd	r2, [sp, #8]
.LVL28:
	.loc 1 781 7 view .LVU127
	cmp	r3, r2
	sub	r7, r7, #4
	.loc 1 778 23 view .LVU128
	str	r0, [r7, #4]
	.loc 1 781 5 is_stmt 1 view .LVU129
	.loc 1 781 7 is_stmt 0 view .LVU130
	blt	.L52
.LVL29:
.L40:
	.loc 1 781 7 view .LVU131
.LBE800:
	.loc 1 787 1 view .LVU132
	add	sp, sp, #20
	.cfi_remember_state
	.cfi_def_cfa_offset 36
	@ sp needed
	pop	{r4, r5, r6, r7, r8, r9, r10, fp, pc}
.LVL30:
.L45:
	.cfi_restore_state
	.loc 1 764 5 is_stmt 1 view .LVU133
	.loc 1 764 7 is_stmt 0 view .LVU134
	cmp	r9, r2
	bls	.L40
	.loc 1 765 5 is_stmt 1 view .LVU135
	.loc 1 765 23 is_stmt 0 view .LVU136
	ldr	ip, [r8, #24]
	.loc 1 766 25 view .LVU137
	ldr	r1, [fp, r2, lsl #4]
	.loc 1 765 23 view .LVU138
	str	r3, [ip, r0]
	.loc 1 766 5 is_stmt 1 view .LVU139
	.loc 1 766 25 is_stmt 0 view .LVU140
	add	r2, r2, #1
.LVL31:
	.loc 1 766 25 view .LVU141
	mov	r3, #0
	mov	r0, r8
	bl	bpmnode_create
.LVL32:
	.loc 1 766 23 view .LVU142
	str	r0, [r7]
	.loc 1 787 1 view .LVU143
	add	sp, sp, #20
	.cfi_remember_state
	.cfi_def_cfa_offset 36
	@ sp needed
	pop	{r4, r5, r6, r7, r8, r9, r10, fp, pc}
.LVL33:
.L51:
	.cfi_restore_state
.LBB801:
	.loc 1 775 7 is_stmt 1 view .LVU144
	.loc 1 775 27 is_stmt 0 view .LVU145
	mov	r1, r0
.LVL34:
	.loc 1 775 27 view .LVU146
	ldr	r3, [r3, #8]
	mov	r0, r8
	add	r2, r2, #1
.LVL35:
	.loc 1 775 27 view .LVU147
	bl	bpmnode_create
.LVL36:
	.loc 1 775 25 view .LVU148
	str	r0, [r7]
	.loc 1 776 7 is_stmt 1 view .LVU149
.LBE801:
	.loc 1 787 1 is_stmt 0 view .LVU150
	add	sp, sp, #20
	.cfi_def_cfa_offset 36
	@ sp needed
	pop	{r4, r5, r6, r7, r8, r9, r10, fp, pc}
	.loc 1 787 1 view .LVU151
	.cfi_endproc
.LFE40:
	.size	boundaryPM, .-boundaryPM
	.section	.text.huffmanDecodeSymbol,"ax",%progbits
	.align	2
	.syntax unified
	.arm
	.fpu vfp
	.type	huffmanDecodeSymbol, %function
huffmanDecodeSymbol:
.LVL37:
.LFB47:
	.loc 1 949 1 is_stmt 1 view -0
	.cfi_startproc
	@ args = 0, pretend = 0, frame = 0
	@ frame_needed = 0, uses_anonymous_args = 0
	.loc 1 950 3 view .LVU153
	.loc 1 949 1 is_stmt 0 view .LVU154
	push	{r4, r5, r6, lr}
	.cfi_def_cfa_offset 16
	.cfi_offset 4, -16
	.cfi_offset 5, -12
	.cfi_offset 6, -8
	.cfi_offset 14, -4
	.loc 1 950 12 view .LVU155
	mov	r4, #0
	.loc 1 949 1 view .LVU156
	mov	r6, r0
	.loc 1 953 8 view .LVU157
	ldr	lr, [r1]
	b	.L57
.LVL38:
.L54:
	.loc 1 958 48 view .LVU158
	ldrb	ip, [r6, lr, lsr #3]	@ zero_extendqisi2
	.loc 1 958 8 view .LVU159
	ldr	r0, [r2]
	.loc 1 958 59 view .LVU160
	asr	ip, ip, r5
	.loc 1 958 75 view .LVU161
	and	ip, ip, #1
	.loc 1 958 26 view .LVU162
	add	ip, ip, r4, lsl #1
	.loc 1 959 5 view .LVU163
	add	lr, lr, #1
	.loc 1 958 8 view .LVU164
	ldr	r0, [r0, ip, lsl #2]
.LVL39:
	.loc 1 959 5 is_stmt 1 view .LVU165
	str	lr, [r1]
	.loc 1 960 5 view .LVU166
	.loc 1 960 21 is_stmt 0 view .LVU167
	ldr	ip, [r2, #16]
	.loc 1 960 7 view .LVU168
	cmp	ip, r0
	.loc 1 961 18 view .LVU169
	sub	r4, r0, ip
.LVL40:
	.loc 1 963 5 is_stmt 1 view .LVU170
	.loc 1 960 7 is_stmt 0 view .LVU171
	pophi	{r4, r5, r6, pc}
	.loc 1 963 7 view .LVU172
	cmp	ip, r4
	bls	.L56
.LVL41:
.L57:
	.loc 1 951 3 is_stmt 1 view .LVU173
	.loc 1 953 5 view .LVU174
	.loc 1 958 5 view .LVU175
	.loc 1 961 10 view .LVU176
	.loc 1 953 7 is_stmt 0 view .LVU177
	cmp	r3, lr
	.loc 1 958 67 view .LVU178
	and	r5, lr, #7
	.loc 1 953 7 view .LVU179
	bhi	.L54
.L56:
	.loc 1 953 35 view .LVU180
	mvn	r0, #0
	pop	{r4, r5, r6, pc}
	.cfi_endproc
.LFE47:
	.size	huffmanDecodeSymbol, .-huffmanDecodeSymbol
	.section	.text.getHash,"ax",%progbits
	.align	2
	.syntax unified
	.arm
	.fpu vfp
	.type	getHash, %function
getHash:
.LVL42:
.LFB60:
	.loc 1 1422 1 is_stmt 1 view -0
	.cfi_startproc
	@ args = 0, pretend = 0, frame = 0
	@ frame_needed = 0, uses_anonymous_args = 0
	@ link register save eliminated.
	.loc 1 1423 3 view .LVU182
	.loc 1 1424 3 view .LVU183
	.loc 1 1424 10 is_stmt 0 view .LVU184
	add	r3, r2, #2
	.loc 1 1424 5 view .LVU185
	cmp	r3, r1
	bcs	.L60
	.loc 1 1430 5 is_stmt 1 view .LVU186
.LVL43:
	.loc 1 1431 5 view .LVU187
	.loc 1 1432 5 view .LVU188
	.loc 1 1431 30 is_stmt 0 view .LVU189
	add	r1, r0, r2
.LVL44:
	.loc 1 1432 30 view .LVU190
	ldrb	r3, [r0, r3]	@ zero_extendqisi2
	.loc 1 1431 30 view .LVU191
	ldrb	r1, [r1, #1]	@ zero_extendqisi2
	.loc 1 1430 15 view .LVU192
	ldrb	r2, [r0, r2]	@ zero_extendqisi2
.LVL45:
	.loc 1 1432 40 view .LVU193
	lsl	r0, r3, #8
.LVL46:
	.loc 1 1432 12 view .LVU194
	eor	r0, r0, r1, lsl #4
	eor	r0, r0, r2
.LVL47:
	.loc 1 1432 12 view .LVU195
	bx	lr
.LVL48:
.L60:
.LBB802:
	.loc 1 1434 5 is_stmt 1 view .LVU196
	.loc 1 1435 5 view .LVU197
	.loc 1 1435 7 is_stmt 0 view .LVU198
	cmp	r2, r1
	bcs	.L64
	.loc 1 1436 5 is_stmt 1 view .LVU199
.LVL49:
	.loc 1 1437 5 view .LVU200
	.loc 1 1437 18 view .LVU201
	.loc 1 1435 7 is_stmt 0 view .LVU202
	mov	r3, #0
	add	r2, r0, r2
.LVL50:
	.loc 1 1435 7 view .LVU203
	add	r1, r0, r1
.LVL51:
	.loc 1 1435 7 view .LVU204
.LBE802:
	.loc 1 1423 12 view .LVU205
	mov	r0, r3
.LVL52:
.L63:
.LBB803:
	.loc 1 1437 34 is_stmt 1 discriminator 3 view .LVU206
	.loc 1 1437 59 is_stmt 0 discriminator 3 view .LVU207
	ldrb	ip, [r2], #1	@ zero_extendqisi2
.LVL53:
	.loc 1 1437 18 discriminator 3 view .LVU208
	cmp	r2, r1
	.loc 1 1437 41 discriminator 3 view .LVU209
	eor	r0, r0, ip, lsl r3
.LVL54:
	.loc 1 1437 29 is_stmt 1 discriminator 3 view .LVU210
	.loc 1 1437 18 discriminator 3 view .LVU211
	add	r3, r3, #8
	bne	.L63
.LBE803:
	.loc 1 1439 17 is_stmt 0 view .LVU212
	uxth	r0, r0
.LVL55:
	.loc 1 1439 3 is_stmt 1 view .LVU213
	.loc 1 1439 17 is_stmt 0 view .LVU214
	bx	lr
.LVL56:
.L64:
.LBB804:
	.loc 1 1435 28 view .LVU215
	mov	r0, #0
.LVL57:
	.loc 1 1435 28 view .LVU216
.LBE804:
	.loc 1 1440 1 view .LVU217
	bx	lr
	.cfi_endproc
.LFE60:
	.size	getHash, .-getHash
	.section	.text.updateHashChain,"ax",%progbits
	.align	2
	.syntax unified
	.arm
	.fpu vfp
	.type	updateHashChain, %function
updateHashChain:
.LVL58:
.LFB62:
	.loc 1 1455 1 is_stmt 1 view -0
	.cfi_startproc
	@ args = 0, pretend = 0, frame = 0
	@ frame_needed = 0, uses_anonymous_args = 0
	.loc 1 1456 3 view .LVU219
	.loc 1 1456 19 is_stmt 0 view .LVU220
	ldr	ip, [r0, #8]
	.loc 1 1455 1 view .LVU221
	push	{r4, r5, lr}
	.cfi_def_cfa_offset 12
	.cfi_offset 4, -12
	.cfi_offset 5, -8
	.cfi_offset 14, -4
	.loc 1 1457 16 view .LVU222
	ldr	lr, [r0]
	.loc 1 1456 19 view .LVU223
	str	r2, [ip, r1, lsl #2]
	.loc 1 1457 3 is_stmt 1 view .LVU224
	.loc 1 1457 16 is_stmt 0 view .LVU225
	ldr	r4, [lr, r2, lsl #2]
	.loc 1 1457 44 view .LVU226
	lsl	ip, r1, #1
	.loc 1 1457 5 view .LVU227
	cmn	r4, #1
	.loc 1 1457 33 is_stmt 1 view .LVU228
	.loc 1 1457 51 is_stmt 0 view .LVU229
	ldrne	r5, [r0, #4]
	strhne	r4, [r5, ip]	@ movhi
	.loc 1 1458 3 is_stmt 1 view .LVU230
	.loc 1 1458 23 is_stmt 0 view .LVU231
	str	r1, [lr, r2, lsl #2]
	.loc 1 1460 3 is_stmt 1 view .LVU232
	.loc 1 1460 21 is_stmt 0 view .LVU233
	ldr	r2, [r0, #20]
.LVL59:
	.loc 1 1460 21 view .LVU234
	strh	r3, [r2, ip]	@ movhi
	.loc 1 1461 3 is_stmt 1 view .LVU235
	.loc 1 1461 17 is_stmt 0 view .LVU236
	ldr	r2, [r0, #12]
	ldr	lr, [r2, r3, lsl #2]
	.loc 1 1461 5 view .LVU237
	cmn	lr, #1
	.loc 1 1461 35 is_stmt 1 view .LVU238
	.loc 1 1461 54 is_stmt 0 view .LVU239
	ldrne	r0, [r0, #16]
.LVL60:
	.loc 1 1461 54 view .LVU240
	strhne	lr, [r0, ip]	@ movhi
	.loc 1 1462 3 is_stmt 1 view .LVU241
	.loc 1 1462 25 is_stmt 0 view .LVU242
	str	r1, [r2, r3, lsl #2]
	.loc 1 1463 1 view .LVU243
	pop	{r4, r5, pc}
	.cfi_endproc
.LFE62:
	.size	updateHashChain, .-updateHashChain
	.section	.text.checkColorValidity,"ax",%progbits
	.align	2
	.syntax unified
	.arm
	.fpu vfp
	.type	checkColorValidity, %function
checkColorValidity:
.LVL61:
.LFB98:
	.loc 1 2549 1 is_stmt 1 view -0
	.cfi_startproc
	@ args = 0, pretend = 0, frame = 0
	@ frame_needed = 0, uses_anonymous_args = 0
	@ link register save eliminated.
	.loc 1 2550 3 view .LVU245
	cmp	r0, #6
	ldrls	pc, [pc, r0, asl #2]
	b	.L82
.L79:
	.word	.L81
	.word	.L82
	.word	.L78
	.word	.L80
	.word	.L78
	.word	.L82
	.word	.L78
.L78:
	.loc 1 2553 13 view .LVU246
	.loc 1 2553 22 is_stmt 0 view .LVU247
	sub	r1, r1, #8
.LVL62:
	.loc 1 2552 80 view .LVU248
	bics	r0, r1, #8
.LVL63:
	.loc 1 2552 80 view .LVU249
	movne	r0, #37
	bx	lr
.LVL64:
.L81:
	.loc 1 2552 13 is_stmt 1 view .LVU250
	.loc 1 2552 43 is_stmt 0 view .LVU251
	sub	r3, r1, #4
	.loc 1 2552 26 view .LVU252
	sub	r0, r1, #1
.LVL65:
	.loc 1 2552 43 view .LVU253
	bic	r3, r3, #4
	.loc 1 2552 15 view .LVU254
	cmp	r3, #0
	cmpne	r0, #1
	movhi	r0, #1
	movls	r0, #0
	bxls	lr
	.loc 1 2552 80 discriminator 1 view .LVU255
	cmp	r1, #16
	moveq	r0, #0
	movne	r0, #37
	bx	lr
.LVL66:
.L80:
	.loc 1 2554 13 is_stmt 1 view .LVU256
	.loc 1 2554 43 is_stmt 0 view .LVU257
	sub	r3, r1, #4
	bic	r3, r3, #4
	.loc 1 2554 26 view .LVU258
	sub	r1, r1, #1
.LVL67:
	.loc 1 2552 80 view .LVU259
	cmp	r3, #0
	cmpne	r1, #1
	movls	r0, #0
.LVL68:
	.loc 1 2552 80 view .LVU260
	movhi	r0, #37
	bx	lr
.LVL69:
.L82:
	.loc 1 2550 3 view .LVU261
	mov	r0, #31
.LVL70:
	.loc 1 2560 1 view .LVU262
	bx	lr
	.cfi_endproc
.LFE98:
	.size	checkColorValidity, .-checkColorValidity
	.section	.text.addColorBits,"ax",%progbits
	.align	2
	.syntax unified
	.arm
	.fpu vfp
	.type	addColorBits, %function
addColorBits:
.LVL71:
.LFB134:
	.loc 1 2982 1 is_stmt 1 view -0
	.cfi_startproc
	@ args = 0, pretend = 0, frame = 0
	@ frame_needed = 0, uses_anonymous_args = 0
	.loc 1 2983 3 view .LVU264
	.loc 1 2983 30 is_stmt 0 view .LVU265
	cmp	r2, #1
	moveq	ip, #7
	.loc 1 2982 1 view .LVU266
	str	lr, [sp, #-4]!
	.cfi_def_cfa_offset 4
	.cfi_offset 14, -4
	.loc 1 2983 30 view .LVU267
	beq	.L89
	.loc 1 2983 30 discriminator 1 view .LVU268
	cmp	r2, #2
	moveq	ip, #3
	movne	ip, #1
.L89:
.LVL72:
	.loc 1 2985 3 is_stmt 1 discriminator 8 view .LVU269
	.loc 1 2986 3 discriminator 8 view .LVU270
	.loc 1 2986 6 is_stmt 0 discriminator 8 view .LVU271
	mvn	lr, #0
	.loc 1 2988 5 discriminator 8 view .LVU272
	tst	ip, r1
	.loc 1 2987 25 discriminator 8 view .LVU273
	bic	ip, ip, r1
.LVL73:
	.loc 1 2987 20 discriminator 8 view .LVU274
	mul	ip, r2, ip
	.loc 1 2988 24 discriminator 8 view .LVU275
	mul	r1, r1, r2
.LVL74:
	.loc 1 2986 6 discriminator 8 view .LVU276
	bic	r2, r3, lr, lsl r2
.LVL75:
	.loc 1 2987 3 is_stmt 1 discriminator 8 view .LVU277
	.loc 1 2988 3 discriminator 8 view .LVU278
	.loc 1 2989 8 discriminator 8 view .LVU279
	.loc 1 2987 6 is_stmt 0 discriminator 8 view .LVU280
	lsl	r3, r2, ip
	.loc 1 2989 30 discriminator 8 view .LVU281
	ldrbne	r2, [r0, r1, lsr #3]	@ zero_extendqisi2
	.loc 1 2988 36 discriminator 8 view .LVU282
	uxtb	r3, r3
	.loc 1 2989 30 discriminator 8 view .LVU283
	orrne	r3, r3, r2
	.loc 1 2988 36 discriminator 8 view .LVU284
	strb	r3, [r0, r1, lsr #3]
	.loc 1 2990 1 discriminator 8 view .LVU285
	ldr	pc, [sp], #4
	.cfi_endproc
.LFE134:
	.size	addColorBits, .-addColorBits
	.section	.text.color_tree_get,"ax",%progbits
	.align	2
	.syntax unified
	.arm
	.fpu vfp
	.type	color_tree_get, %function
color_tree_get:
.LVL76:
.LFB137:
	.loc 1 3028 1 is_stmt 1 view -0
	.cfi_startproc
	@ args = 4, pretend = 0, frame = 0
	@ frame_needed = 0, uses_anonymous_args = 0
	.loc 1 3029 3 view .LVU287
	.loc 1 3030 3 view .LVU288
	.loc 1 3030 11 is_stmt 0 view .LVU289
	mov	ip, #0
	.loc 1 3030 20 is_stmt 1 view .LVU290
	.loc 1 3028 1 is_stmt 0 view .LVU291
	push	{r4, r5, r6, r7, lr}
	.cfi_def_cfa_offset 20
	.cfi_offset 4, -20
	.cfi_offset 5, -16
	.cfi_offset 6, -12
	.cfi_offset 7, -8
	.cfi_offset 14, -4
	.loc 1 3028 1 view .LVU292
	ldrb	r6, [sp, #20]	@ zero_extendqisi2
.LVL77:
.L99:
.LBB805:
	.loc 1 3032 5 is_stmt 1 view .LVU293
	.loc 1 3033 5 view .LVU294
	.loc 1 3034 10 view .LVU295
	.loc 1 3032 21 is_stmt 0 view .LVU296
	asr	r7, r1, ip
.LVL78:
	.loc 1 3032 44 view .LVU297
	asr	r5, r2, ip
	.loc 1 3032 67 view .LVU298
	asr	r4, r3, ip
.LVL79:
	.loc 1 3032 29 view .LVU299
	and	r7, r7, #1
.LVL80:
	.loc 1 3032 52 view .LVU300
	and	r5, r5, #1
	.loc 1 3032 90 view .LVU301
	asr	lr, r6, ip
	.loc 1 3032 57 view .LVU302
	add	r5, r5, r7, lsl #1
	.loc 1 3032 75 view .LVU303
	and	r4, r4, #1
.LVL81:
	.loc 1 3032 57 view .LVU304
	add	r4, r4, r5, lsl #1
	.loc 1 3032 84 view .LVU305
	and	lr, lr, #1
	.loc 1 3033 23 view .LVU306
	add	lr, lr, r4, lsl #1
	ldr	r0, [r0, lr, lsl #2]
.LVL82:
	.loc 1 3033 23 view .LVU307
.LBE805:
	.loc 1 3030 25 is_stmt 1 view .LVU308
	add	ip, ip, #1
.LVL83:
	.loc 1 3030 20 view .LVU309
.LBB806:
	.loc 1 3033 7 is_stmt 0 view .LVU310
	cmp	r0, #0
	beq	.L100
.LBE806:
	.loc 1 3030 20 discriminator 2 view .LVU311
	cmp	ip, #8
	bne	.L99
	.loc 1 3036 3 is_stmt 1 view .LVU312
	.loc 1 3036 29 is_stmt 0 view .LVU313
	ldr	r0, [r0, #64]
.LVL84:
	.loc 1 3036 29 view .LVU314
	pop	{r4, r5, r6, r7, pc}
.LVL85:
.L100:
.LBB807:
	.loc 1 3033 35 view .LVU315
	mvn	r0, #0
.LVL86:
	.loc 1 3033 35 view .LVU316
.LBE807:
	.loc 1 3037 1 view .LVU317
	pop	{r4, r5, r6, r7, pc}
	.cfi_endproc
.LFE137:
	.size	color_tree_get, .-color_tree_get
	.section	.text.getPixelColorRGBA16,"ax",%progbits
	.align	2
	.syntax unified
	.arm
	.fpu vfp
	.type	getPixelColorRGBA16, %function
getPixelColorRGBA16:
.LVL87:
.LFB144:
	.loc 1 3427 1 is_stmt 1 view -0
	.cfi_startproc
	@ args = 12, pretend = 0, frame = 0
	@ frame_needed = 0, uses_anonymous_args = 0
	.loc 1 3428 3 view .LVU319
	.loc 1 3427 1 is_stmt 0 view .LVU320
	push	{r4, r5, r6, r7, r8, r9, lr}
	.cfi_def_cfa_offset 28
	.cfi_offset 4, -28
	.cfi_offset 5, -24
	.cfi_offset 6, -20
	.cfi_offset 7, -16
	.cfi_offset 8, -12
	.cfi_offset 9, -8
	.cfi_offset 14, -4
	.loc 1 3427 1 view .LVU321
	ldr	r6, [sp, #36]
	ldr	lr, [sp, #28]
	.loc 1 3428 10 view .LVU322
	ldrb	r4, [r6]	@ zero_extendqisi2
	.loc 1 3427 1 view .LVU323
	ldr	ip, [sp, #32]
	.loc 1 3428 5 view .LVU324
	cmp	r4, #0
	bne	.L104
	.loc 1 3430 5 is_stmt 1 view .LVU325
	.loc 1 3430 31 is_stmt 0 view .LVU326
	lsl	r5, ip, #1
	.loc 1 3430 44 view .LVU327
	add	r5, r5, #1
	.loc 1 3430 40 view .LVU328
	ldrb	r7, [lr, ip, lsl #1]	@ zero_extendqisi2
	.loc 1 3430 44 view .LVU329
	ldrb	r4, [lr, r5]	@ zero_extendqisi2
	.loc 1 3430 40 view .LVU330
	add	r4, r4, r7, lsl #8
	uxth	r4, r4
	.loc 1 3430 18 view .LVU331
	strh	r4, [r2]	@ movhi
	.loc 1 3431 7 view .LVU332
	ldr	r2, [r6, #16]
.LVL88:
	.loc 1 3430 13 view .LVU333
	strh	r4, [r1]	@ movhi
	.loc 1 3431 7 view .LVU334
	cmp	r2, #0
	.loc 1 3430 8 view .LVU335
	strh	r4, [r0]	@ movhi
	.loc 1 3431 5 is_stmt 1 view .LVU336
	.loc 1 3431 7 is_stmt 0 view .LVU337
	beq	.L105
	.loc 1 3431 38 discriminator 1 view .LVU338
	ldrb	r0, [lr, ip, lsl #1]	@ zero_extendqisi2
.LVL89:
	.loc 1 3431 54 discriminator 1 view .LVU339
	ldrb	r2, [lr, r5]	@ zero_extendqisi2
	.loc 1 3431 26 discriminator 1 view .LVU340
	ldr	r1, [r6, #20]
.LVL90:
	.loc 1 3431 50 discriminator 1 view .LVU341
	add	r2, r2, r0, lsl #8
	.loc 1 3431 26 discriminator 1 view .LVU342
	cmp	r2, r1
	beq	.L108
.L105:
	.loc 1 3432 10 is_stmt 1 view .LVU343
	.loc 1 3432 13 is_stmt 0 view .LVU344
	mvn	r2, #0
	strh	r2, [r3]	@ movhi
	pop	{r4, r5, r6, r7, r8, r9, pc}
.LVL91:
.L104:
	.loc 1 3434 8 is_stmt 1 view .LVU345
	.loc 1 3434 10 is_stmt 0 view .LVU346
	cmp	r4, #2
	beq	.L117
	.loc 1 3445 8 is_stmt 1 view .LVU347
	.loc 1 3445 10 is_stmt 0 view .LVU348
	cmp	r4, #4
	beq	.L118
	.loc 1 3450 8 is_stmt 1 view .LVU349
	.loc 1 3450 10 is_stmt 0 view .LVU350
	cmp	r4, #6
	popne	{r4, r5, r6, r7, r8, r9, pc}
	.loc 1 3452 5 is_stmt 1 view .LVU351
	.loc 1 3452 35 is_stmt 0 view .LVU352
	add	r4, lr, ip, lsl #3
	.loc 1 3452 19 view .LVU353
	ldrb	lr, [lr, ip, lsl #3]	@ zero_extendqisi2
	.loc 1 3452 35 view .LVU354
	ldrb	ip, [r4, #1]	@ zero_extendqisi2
	.loc 1 3452 31 view .LVU355
	add	ip, ip, lr, lsl #8
	.loc 1 3452 8 view .LVU356
	strh	ip, [r0]	@ movhi
	.loc 1 3453 5 is_stmt 1 view .LVU357
	.loc 1 3453 19 is_stmt 0 view .LVU358
	ldrb	ip, [r4, #2]	@ zero_extendqisi2
	.loc 1 3453 35 view .LVU359
	ldrb	r0, [r4, #3]	@ zero_extendqisi2
.LVL92:
	.loc 1 3453 31 view .LVU360
	add	r0, r0, ip, lsl #8
	.loc 1 3453 8 view .LVU361
	strh	r0, [r1]	@ movhi
	.loc 1 3454 5 is_stmt 1 view .LVU362
	.loc 1 3454 19 is_stmt 0 view .LVU363
	ldrb	r0, [r4, #4]	@ zero_extendqisi2
	.loc 1 3454 35 view .LVU364
	ldrb	r1, [r4, #5]	@ zero_extendqisi2
.LVL93:
	.loc 1 3454 31 view .LVU365
	add	r1, r1, r0, lsl #8
	.loc 1 3454 8 view .LVU366
	strh	r1, [r2]	@ movhi
	.loc 1 3455 5 is_stmt 1 view .LVU367
	.loc 1 3455 19 is_stmt 0 view .LVU368
	ldrb	r1, [r4, #6]	@ zero_extendqisi2
	.loc 1 3455 35 view .LVU369
	ldrb	r2, [r4, #7]	@ zero_extendqisi2
.LVL94:
	.loc 1 3455 31 view .LVU370
	add	r2, r2, r1, lsl #8
	.loc 1 3455 8 view .LVU371
	strh	r2, [r3]	@ movhi
	.loc 1 3457 1 view .LVU372
	pop	{r4, r5, r6, r7, r8, r9, pc}
.LVL95:
.L117:
	.loc 1 3436 5 is_stmt 1 view .LVU373
	.loc 1 3436 22 is_stmt 0 view .LVU374
	add	ip, ip, ip, lsl #1
	lsl	ip, ip, #1
	.loc 1 3436 35 view .LVU375
	add	r5, ip, #1
	.loc 1 3436 19 view .LVU376
	ldrb	r7, [lr, ip]	@ zero_extendqisi2
	.loc 1 3436 35 view .LVU377
	ldrb	r4, [lr, r5]	@ zero_extendqisi2
	.loc 1 3436 31 view .LVU378
	add	r4, r4, r7, lsl #8
	.loc 1 3436 8 view .LVU379
	strh	r4, [r0]	@ movhi
	.loc 1 3437 5 is_stmt 1 view .LVU380
	.loc 1 3437 19 is_stmt 0 view .LVU381
	add	r7, ip, #2
	.loc 1 3437 35 view .LVU382
	add	r4, ip, #3
	.loc 1 3437 19 view .LVU383
	ldrb	r8, [lr, r7]	@ zero_extendqisi2
	.loc 1 3437 35 view .LVU384
	ldrb	r0, [lr, r4]	@ zero_extendqisi2
.LVL96:
	.loc 1 3437 31 view .LVU385
	add	r0, r0, r8, lsl #8
	.loc 1 3437 8 view .LVU386
	strh	r0, [r1]	@ movhi
	.loc 1 3438 5 is_stmt 1 view .LVU387
	.loc 1 3438 19 is_stmt 0 view .LVU388
	add	r8, ip, #4
	.loc 1 3438 35 view .LVU389
	add	r0, ip, #5
	.loc 1 3438 19 view .LVU390
	ldrb	r9, [lr, r8]	@ zero_extendqisi2
	.loc 1 3438 35 view .LVU391
	ldrb	r1, [lr, r0]	@ zero_extendqisi2
.LVL97:
	.loc 1 3438 31 view .LVU392
	add	r1, r1, r9, lsl #8
	.loc 1 3438 8 view .LVU393
	strh	r1, [r2]	@ movhi
	.loc 1 3439 5 is_stmt 1 view .LVU394
	.loc 1 3439 7 is_stmt 0 view .LVU395
	ldr	r2, [r6, #16]
.LVL98:
	.loc 1 3439 7 view .LVU396
	cmp	r2, #0
	beq	.L105
	.loc 1 3440 20 view .LVU397
	ldrb	r1, [lr, ip]	@ zero_extendqisi2
	.loc 1 3440 36 view .LVU398
	ldrb	r2, [lr, r5]	@ zero_extendqisi2
	.loc 1 3440 32 view .LVU399
	add	r2, r2, r1, lsl #8
	.loc 1 3440 8 view .LVU400
	ldr	r1, [r6, #20]
	cmp	r2, r1
	bne	.L105
	.loc 1 3441 20 view .LVU401
	ldrb	r1, [lr, r7]	@ zero_extendqisi2
	.loc 1 3441 36 view .LVU402
	ldrb	r2, [lr, r4]	@ zero_extendqisi2
	.loc 1 3441 32 view .LVU403
	add	r2, r2, r1, lsl #8
	.loc 1 3441 8 view .LVU404
	ldr	r1, [r6, #24]
	cmp	r2, r1
	bne	.L105
	.loc 1 3442 20 view .LVU405
	ldrb	ip, [lr, r8]	@ zero_extendqisi2
	.loc 1 3442 36 view .LVU406
	ldrb	r2, [lr, r0]	@ zero_extendqisi2
	.loc 1 3442 8 view .LVU407
	ldr	r1, [r6, #28]
	.loc 1 3442 32 view .LVU408
	add	r2, r2, ip, lsl #8
	.loc 1 3442 8 view .LVU409
	cmp	r2, r1
	bne	.L105
.L108:
	.loc 1 3431 82 is_stmt 1 discriminator 2 view .LVU410
	.loc 1 3431 85 is_stmt 0 discriminator 2 view .LVU411
	mov	r2, #0
	strh	r2, [r3]	@ movhi
	pop	{r4, r5, r6, r7, r8, r9, pc}
.LVL99:
.L118:
	.loc 1 3447 5 is_stmt 1 view .LVU412
	.loc 1 3447 45 is_stmt 0 view .LVU413
	add	r4, lr, ip, lsl #2
	.loc 1 3447 29 view .LVU414
	ldrb	lr, [lr, ip, lsl #2]	@ zero_extendqisi2
	.loc 1 3447 45 view .LVU415
	ldrb	ip, [r4, #1]	@ zero_extendqisi2
	.loc 1 3447 41 view .LVU416
	add	ip, ip, lr, lsl #8
	uxth	ip, ip
	.loc 1 3447 18 view .LVU417
	strh	ip, [r2]	@ movhi
	.loc 1 3447 13 view .LVU418
	strh	ip, [r1]	@ movhi
	.loc 1 3447 8 view .LVU419
	strh	ip, [r0]	@ movhi
	.loc 1 3448 5 is_stmt 1 view .LVU420
	.loc 1 3448 19 is_stmt 0 view .LVU421
	ldrb	r1, [r4, #2]	@ zero_extendqisi2
.LVL100:
	.loc 1 3448 35 view .LVU422
	ldrb	r2, [r4, #3]	@ zero_extendqisi2
.LVL101:
	.loc 1 3448 31 view .LVU423
	add	r2, r2, r1, lsl #8
	.loc 1 3448 8 view .LVU424
	strh	r2, [r3]	@ movhi
	pop	{r4, r5, r6, r7, r8, r9, pc}
	.cfi_endproc
.LFE144:
	.size	getPixelColorRGBA16, .-getPixelColorRGBA16
	.global	__aeabi_uidiv
	.section	.text.Adam7_getpassvalues,"ax",%progbits
	.align	2
	.syntax unified
	.arm
	.fpu vfp
	.type	Adam7_getpassvalues, %function
Adam7_getpassvalues:
.LVL102:
.LFB151:
	.loc 1 3870 1 is_stmt 1 view -0
	.cfi_startproc
	@ args = 16, pretend = 0, frame = 32
	@ frame_needed = 0, uses_anonymous_args = 0
	.loc 1 3872 3 view .LVU426
	.loc 1 3875 3 view .LVU427
	.loc 1 3875 16 view .LVU428
	.loc 1 3870 1 is_stmt 0 view .LVU429
	push	{r4, r5, r6, r7, r8, r9, r10, fp, lr}
	.cfi_def_cfa_offset 36
	.cfi_offset 4, -36
	.cfi_offset 5, -32
	.cfi_offset 6, -28
	.cfi_offset 7, -24
	.cfi_offset 8, -20
	.cfi_offset 9, -16
	.cfi_offset 10, -12
	.cfi_offset 11, -8
	.cfi_offset 14, -4
	sub	sp, sp, #36
	.cfi_def_cfa_offset 72
	.loc 1 3870 1 view .LVU430
	ldr	lr, [sp, #76]
	ldr	r8, .L140
	sub	ip, lr, #1
	ldr	lr, [sp, #80]
	str	ip, [sp, #4]
	sub	ip, lr, #1
	str	ip, [sp, #8]
	mov	ip, r0
	mov	fp, #8
	sub	r5, ip, #4
	mov	r4, #0
	mov	ip, r8
	sub	r7, r1, #4
	strd	r2, [sp, #16]
	add	lr, r8, #84
	add	r3, r8, #28
.LVL103:
	.loc 1 3870 1 view .LVU431
	add	r2, r8, #56
.LVL104:
	.loc 1 3870 1 view .LVU432
	mov	r9, r7
	mov	r1, fp
.LVL105:
	.loc 1 3870 1 view .LVU433
	mov	r6, r5
	mov	r8, fp
	str	r0, [sp, #12]
	str	r7, [sp, #24]
	str	r5, [sp, #28]
	mov	r0, r4
.LVL106:
	.loc 1 3870 1 view .LVU434
	mov	r5, r3
	mov	r7, r2
.LVL107:
	.loc 1 3870 1 view .LVU435
	mov	r10, lr
	mov	fp, ip
	b	.L125
.LVL108:
.L138:
	.loc 1 3877 29 view .LVU436
	ldr	r1, [fp], #4
	.loc 1 3877 43 view .LVU437
	ldr	r0, [r5], #4
	.loc 1 3878 29 view .LVU438
	ldr	r8, [r7], #4
	.loc 1 3878 43 view .LVU439
	ldr	r4, [r10], #4
.L125:
	.loc 1 3877 5 is_stmt 1 view .LVU440
	.loc 1 3877 47 is_stmt 0 view .LVU441
	ldr	r3, [sp, #4]
	sub	r0, r3, r0
	.loc 1 3877 52 view .LVU442
	add	r0, r0, r1
	bl	__aeabi_uidiv
.LVL109:
	mov	ip, r0
	ldr	r3, [sp, #8]
	.loc 1 3877 14 view .LVU443
	str	ip, [r6, #4]!
	.loc 1 3878 5 is_stmt 1 view .LVU444
	sub	r0, r3, r4
	adds	r0, r0, r8
	.loc 1 3878 52 is_stmt 0 view .LVU445
	mov	r1, r8
	movcs	r4, #1
	movcc	r4, #0
	bl	__aeabi_uidiv
.LVL110:
	.loc 1 3878 14 view .LVU446
	str	r0, [r9, #4]!
	.loc 1 3879 5 is_stmt 1 view .LVU447
	.loc 1 3879 13 is_stmt 0 view .LVU448
	ldr	r2, [r6]
	.loc 1 3879 7 view .LVU449
	cmp	r2, #0
	streq	r2, [r9]
	beq	.L123
	.loc 1 3880 7 view .LVU450
	cmp	r4, #0
	.loc 1 3880 32 view .LVU451
	movne	r2, #0
	str	r0, [r9]
	.loc 1 3880 5 is_stmt 1 view .LVU452
	.loc 1 3880 32 is_stmt 0 view .LVU453
	ldreq	r2, [r6]
.L123:
	.loc 1 3875 16 discriminator 2 view .LVU454
	ldr	r3, .L140+4
	str	r2, [r6]
	.loc 1 3875 22 is_stmt 1 discriminator 2 view .LVU455
	.loc 1 3875 16 discriminator 2 view .LVU456
	cmp	fp, r3
	bne	.L138
	.loc 1 3883 60 is_stmt 0 view .LVU457
	mov	r4, #0
	ldr	r3, [sp, #12]
	ldr	r2, [sp, #16]
	ldr	r1, [sp, #72]
	add	lr, r3, #24
	ldr	r3, [sp, #20]
	str	r4, [r1]
	mov	ip, r2
	.loc 1 3883 45 view .LVU458
	str	r4, [r3]
	mov	r0, r3
	ldr	r7, [sp, #24]
	ldr	r5, [sp, #28]
	ldr	r10, [sp, #84]
	.loc 1 3883 3 is_stmt 1 view .LVU459
	.loc 1 3883 23 is_stmt 0 view .LVU460
	str	r4, [r2]
	.loc 1 3884 3 is_stmt 1 view .LVU461
.LVL111:
	.loc 1 3884 16 view .LVU462
	b	.L128
.LVL112:
.L139:
	.loc 1 3887 47 is_stmt 0 view .LVU463
	ldr	r4, [ip, #4]!
.L128:
	.loc 1 3887 5 is_stmt 1 view .LVU464
	.loc 1 3888 38 is_stmt 0 view .LVU465
	ldr	r3, [r5, #4]!
	.loc 1 3888 99 view .LVU466
	cmp	r3, #0
	beq	.L126
	.loc 1 3888 50 discriminator 1 view .LVU467
	ldr	r2, [r7, #4]
	.loc 1 3888 42 discriminator 1 view .LVU468
	cmp	r2, #0
	.loc 1 3888 83 discriminator 1 view .LVU469
	mulne	r3, r10, r3
	.loc 1 3888 89 discriminator 1 view .LVU470
	addne	r3, r3, #7
	.loc 1 3888 94 discriminator 1 view .LVU471
	lsrne	r3, r3, #3
	.loc 1 3888 71 discriminator 1 view .LVU472
	addne	r3, r3, #1
	.loc 1 3888 29 discriminator 1 view .LVU473
	mlane	r4, r2, r3, r4
.L126:
	.loc 1 3887 29 discriminator 2 view .LVU474
	str	r4, [ip, #4]
	.loc 1 3890 5 is_stmt 1 discriminator 2 view .LVU475
	.loc 1 3890 75 is_stmt 0 discriminator 2 view .LVU476
	ldr	r3, [r5]
	.loc 1 3890 62 discriminator 2 view .LVU477
	ldr	r4, [r7, #4]!
	.loc 1 3890 75 discriminator 2 view .LVU478
	mul	r3, r3, r10
	.loc 1 3890 47 discriminator 2 view .LVU479
	ldr	r2, [r0]
	.loc 1 3890 81 discriminator 2 view .LVU480
	add	r3, r3, #7
	.loc 1 3890 86 discriminator 2 view .LVU481
	lsr	r3, r3, #3
	.loc 1 3890 51 discriminator 2 view .LVU482
	mla	r3, r4, r3, r2
	.loc 1 3890 29 discriminator 2 view .LVU483
	str	r3, [r0, #4]!
	.loc 1 3892 5 is_stmt 1 discriminator 2 view .LVU484
	.loc 1 3892 60 is_stmt 0 discriminator 2 view .LVU485
	ldr	r3, [r5]
	ldr	r4, [r7]
	mul	r3, r3, r10
	mul	r3, r4, r3
	.loc 1 3892 33 discriminator 2 view .LVU486
	ldr	r2, [r1]
	.loc 1 3892 66 discriminator 2 view .LVU487
	add	r3, r3, #7
	.loc 1 3892 37 discriminator 2 view .LVU488
	add	r3, r2, r3, lsr #3
	.loc 1 3884 16 discriminator 2 view .LVU489
	cmp	r5, lr
	.loc 1 3892 22 discriminator 2 view .LVU490
	str	r3, [r1, #4]!
	.loc 1 3884 22 is_stmt 1 discriminator 2 view .LVU491
	.loc 1 3884 16 discriminator 2 view .LVU492
	bne	.L139
	.loc 1 3894 1 is_stmt 0 view .LVU493
	add	sp, sp, #36
	.cfi_def_cfa_offset 36
	@ sp needed
	pop	{r4, r5, r6, r7, r8, r9, r10, fp, pc}
.L141:
	.align	2
.L140:
	.word	.LANCHOR0+4
	.word	.LANCHOR0+28
	.cfi_endproc
.LFE151:
	.size	Adam7_getpassvalues, .-Adam7_getpassvalues
	.section	.text.filterScanline,"ax",%progbits
	.align	2
	.syntax unified
	.arm
	.fpu vfp
	.type	filterScanline, %function
filterScanline:
.LVL113:
.LFB191:
	.loc 1 5146 1 is_stmt 1 view -0
	.cfi_startproc
	@ args = 8, pretend = 0, frame = 0
	@ frame_needed = 0, uses_anonymous_args = 0
	.loc 1 5146 1 is_stmt 0 view .LVU495
	push	{r4, r5, r6, r7, r8, r9, r10, fp, lr}
	.cfi_def_cfa_offset 36
	.cfi_offset 4, -36
	.cfi_offset 5, -32
	.cfi_offset 6, -28
	.cfi_offset 7, -24
	.cfi_offset 8, -20
	.cfi_offset 9, -16
	.cfi_offset 10, -12
	.cfi_offset 11, -8
	.cfi_offset 14, -4
	.loc 1 5146 1 view .LVU496
	ldrb	lr, [sp, #40]	@ zero_extendqisi2
	.loc 1 5147 3 is_stmt 1 view .LVU497
	.loc 1 5148 3 view .LVU498
	.loc 1 5146 1 is_stmt 0 view .LVU499
	ldr	ip, [sp, #36]
	.loc 1 5148 3 view .LVU500
	cmp	lr, #4
	ldrls	pc, [pc, lr, asl #2]
	b	.L142
.L145:
	.word	.L149
	.word	.L148
	.word	.L147
	.word	.L146
	.word	.L144
.L142:
	.loc 1 5198 1 view .LVU501
	pop	{r4, r5, r6, r7, r8, r9, r10, fp, pc}
.L144:
	.loc 1 5180 7 is_stmt 1 view .LVU502
	.loc 1 5180 9 is_stmt 0 view .LVU503
	cmp	r2, #0
	beq	.L210
.LVL114:
	.loc 1 5183 22 is_stmt 1 view .LVU504
	cmp	ip, #0
	beq	.L172
	sub	r4, r1, #1
	sub	r6, r2, #1
	sub	r5, r0, #1
	add	r8, r4, ip
.LVL115:
.L173:
	.loc 1 5183 41 discriminator 3 view .LVU505
	.loc 1 5183 63 is_stmt 0 discriminator 3 view .LVU506
	ldrb	lr, [r4, #1]!	@ zero_extendqisi2
.LVL116:
	.loc 1 5183 63 discriminator 3 view .LVU507
	ldrb	r7, [r6, #1]!	@ zero_extendqisi2
	.loc 1 5183 22 discriminator 3 view .LVU508
	cmp	r4, r8
	.loc 1 5183 63 discriminator 3 view .LVU509
	sub	lr, lr, r7
	.loc 1 5183 48 discriminator 3 view .LVU510
	strb	lr, [r5, #1]!
	.loc 1 5183 36 is_stmt 1 discriminator 3 view .LVU511
.LVL117:
	.loc 1 5183 22 discriminator 3 view .LVU512
	bne	.L173
.LVL118:
.L172:
	.loc 1 5184 30 view .LVU513
	cmp	ip, r3
	popcs	{r4, r5, r6, r7, r8, r9, r10, fp, pc}
	sub	ip, ip, #1
.LVL119:
	.loc 1 5184 30 is_stmt 0 view .LVU514
	add	r3, r1, r3
.LVL120:
	.loc 1 5184 30 view .LVU515
	add	r7, r1, ip
	add	r0, r0, ip
.LVL121:
	.loc 1 5184 30 view .LVU516
	sub	r3, r3, #1
	add	ip, r2, ip
	sub	r1, r1, #1
.LVL122:
	.loc 1 5184 30 view .LVU517
	sub	r2, r2, #1
.LVL123:
.L175:
	.loc 1 5186 11 is_stmt 1 discriminator 3 view .LVU518
.LBB810:
.LBB811:
	.loc 1 3842 8 discriminator 3 view .LVU519
.LBE811:
.LBE810:
	.loc 1 5186 96 is_stmt 0 discriminator 3 view .LVU520
	ldrb	r6, [r2, #1]!	@ zero_extendqisi2
	.loc 1 5186 58 discriminator 3 view .LVU521
	ldrb	r8, [r1, #1]!	@ zero_extendqisi2
.LVL124:
	.loc 1 5186 83 discriminator 3 view .LVU522
	ldrb	r9, [ip, #1]!	@ zero_extendqisi2
.LVL125:
.LBB814:
.LBI810:
	.loc 1 3835 22 is_stmt 1 discriminator 3 view .LVU523
.LBB812:
	.loc 1 3837 3 discriminator 3 view .LVU524
	.loc 1 3838 20 is_stmt 0 discriminator 3 view .LVU525
	sub	r5, r8, r6
	.loc 1 3838 14 discriminator 3 view .LVU526
	cmp	r5, #0
	.loc 1 3837 20 discriminator 3 view .LVU527
	sub	r10, r9, r6
	.loc 1 3838 14 discriminator 3 view .LVU528
	rsblt	r5, r5, #0
	.loc 1 3839 20 discriminator 3 view .LVU529
	add	r4, r9, r8
	.loc 1 3837 14 discriminator 3 view .LVU530
	cmp	r10, #0
	.loc 1 3839 28 discriminator 3 view .LVU531
	sub	r4, r4, r6, lsl #1
	.loc 1 3837 14 discriminator 3 view .LVU532
	rsblt	r10, r10, #0
	.loc 1 3838 9 discriminator 3 view .LVU533
	sxth	r5, r5
	.loc 1 3839 14 discriminator 3 view .LVU534
	cmp	r4, #0
	.loc 1 3837 9 discriminator 3 view .LVU535
	sxth	r10, r10
.LVL126:
	.loc 1 3838 3 is_stmt 1 discriminator 3 view .LVU536
	.loc 1 3839 3 discriminator 3 view .LVU537
	.loc 1 3841 3 discriminator 3 view .LVU538
	.loc 1 3839 14 is_stmt 0 discriminator 3 view .LVU539
	rsblt	r4, r4, #0
	.loc 1 3841 5 discriminator 3 view .LVU540
	cmp	r10, r5
	movlt	fp, r10
	movge	fp, r5
	sxth	r4, r4
	cmp	r4, fp
.LBE812:
.LBE814:
	.loc 1 5186 29 discriminator 3 view .LVU541
	ldrb	lr, [r7, #1]!	@ zero_extendqisi2
.LVL127:
.LBB815:
.LBB813:
	.loc 1 3841 5 discriminator 3 view .LVU542
	blt	.L174
	.loc 1 3843 15 view .LVU543
	cmp	r10, r5
	movgt	r6, r9
.LVL128:
	.loc 1 3843 15 view .LVU544
	movle	r6, r8
.L174:
.LBE813:
.LBE815:
	.loc 1 5186 33 view .LVU545
	sub	lr, lr, r6
	.loc 1 5184 30 view .LVU546
	cmp	r7, r3
	.loc 1 5186 18 view .LVU547
	strb	lr, [r0, #1]!
.LVL129:
	.loc 1 5184 40 is_stmt 1 view .LVU548
	.loc 1 5184 30 view .LVU549
	bne	.L175
	pop	{r4, r5, r6, r7, r8, r9, r10, fp, pc}
.LVL130:
.L149:
	.loc 1 5151 20 view .LVU550
	cmp	r3, #0
	popeq	{r4, r5, r6, r7, r8, r9, r10, fp, pc}
	add	r3, r1, r3
.LVL131:
	.loc 1 5151 20 is_stmt 0 view .LVU551
	sub	r0, r0, #1
.LVL132:
	.loc 1 5151 20 view .LVU552
	sub	r1, r1, #1
.LVL133:
	.loc 1 5151 20 view .LVU553
	sub	r3, r3, #1
.LVL134:
.L153:
	.loc 1 5151 36 is_stmt 1 discriminator 3 view .LVU554
	.loc 1 5151 53 is_stmt 0 discriminator 3 view .LVU555
	ldrb	r2, [r1, #1]!	@ zero_extendqisi2
.LVL135:
	.loc 1 5151 20 discriminator 3 view .LVU556
	cmp	r1, r3
	.loc 1 5151 43 discriminator 3 view .LVU557
	strb	r2, [r0, #1]!
	.loc 1 5151 31 is_stmt 1 discriminator 3 view .LVU558
.LVL136:
	.loc 1 5151 20 discriminator 3 view .LVU559
	bne	.L153
	pop	{r4, r5, r6, r7, r8, r9, r10, fp, pc}
.LVL137:
.L147:
	.loc 1 5158 7 view .LVU560
	.loc 1 5158 9 is_stmt 0 view .LVU561
	cmp	r2, #0
	beq	.L211
.LVL138:
	.loc 1 5160 22 is_stmt 1 view .LVU562
	cmp	r3, #0
	popeq	{r4, r5, r6, r7, r8, r9, r10, fp, pc}
	add	r3, r1, r3
.LVL139:
	.loc 1 5160 22 is_stmt 0 view .LVU563
	sub	r2, r2, #1
.LVL140:
	.loc 1 5160 22 view .LVU564
	sub	r1, r1, #1
.LVL141:
	.loc 1 5160 22 view .LVU565
	sub	r0, r0, #1
.LVL142:
	.loc 1 5160 22 view .LVU566
	sub	r3, r3, #1
.LVL143:
.L159:
	.loc 1 5160 38 is_stmt 1 discriminator 3 view .LVU567
	.loc 1 5160 59 is_stmt 0 discriminator 3 view .LVU568
	ldrb	ip, [r1, #1]!	@ zero_extendqisi2
.LVL144:
	.loc 1 5160 59 discriminator 3 view .LVU569
	ldrb	lr, [r2, #1]!	@ zero_extendqisi2
	.loc 1 5160 22 discriminator 3 view .LVU570
	cmp	r3, r1
	.loc 1 5160 59 discriminator 3 view .LVU571
	sub	ip, ip, lr
	.loc 1 5160 45 discriminator 3 view .LVU572
	strb	ip, [r0, #1]!
	.loc 1 5160 33 is_stmt 1 discriminator 3 view .LVU573
.LVL145:
	.loc 1 5160 22 discriminator 3 view .LVU574
	bne	.L159
	pop	{r4, r5, r6, r7, r8, r9, r10, fp, pc}
.LVL146:
.L146:
	.loc 1 5168 7 view .LVU575
	.loc 1 5168 9 is_stmt 0 view .LVU576
	cmp	r2, #0
	beq	.L212
.LVL147:
	.loc 1 5170 22 is_stmt 1 view .LVU577
	cmp	ip, #0
	beq	.L164
	sub	r4, r1, #1
	sub	r6, r2, #1
	sub	r5, r0, #1
	add	r8, r4, ip
.LVL148:
.L165:
	.loc 1 5170 41 discriminator 3 view .LVU578
	.loc 1 5170 62 is_stmt 0 discriminator 3 view .LVU579
	ldrb	lr, [r4, #1]!	@ zero_extendqisi2
.LVL149:
	.loc 1 5170 62 discriminator 3 view .LVU580
	ldrb	r7, [r6, #1]!	@ zero_extendqisi2
	.loc 1 5170 22 discriminator 3 view .LVU581
	cmp	r4, r8
	.loc 1 5170 62 discriminator 3 view .LVU582
	sub	lr, lr, r7, lsr #1
	.loc 1 5170 48 discriminator 3 view .LVU583
	strb	lr, [r5, #1]!
	.loc 1 5170 36 is_stmt 1 discriminator 3 view .LVU584
.LVL150:
	.loc 1 5170 22 discriminator 3 view .LVU585
	bne	.L165
.LVL151:
.L164:
	.loc 1 5171 30 view .LVU586
	cmp	ip, r3
	popcs	{r4, r5, r6, r7, r8, r9, r10, fp, pc}
	sub	ip, ip, #1
.LVL152:
	.loc 1 5171 30 is_stmt 0 view .LVU587
	add	r3, r1, r3
.LVL153:
	.loc 1 5171 30 view .LVU588
	add	r4, r1, ip
	add	r2, r2, ip
.LVL154:
	.loc 1 5171 30 view .LVU589
	add	r0, r0, ip
.LVL155:
	.loc 1 5171 30 view .LVU590
	sub	r1, r1, #1
.LVL156:
	.loc 1 5171 30 view .LVU591
	sub	r3, r3, #1
.LVL157:
.L166:
	.loc 1 5171 45 is_stmt 1 discriminator 3 view .LVU592
	.loc 1 5171 104 is_stmt 0 discriminator 3 view .LVU593
	ldrb	ip, [r2, #1]!	@ zero_extendqisi2
	.loc 1 5171 78 discriminator 3 view .LVU594
	ldrb	lr, [r1, #1]!	@ zero_extendqisi2
	.loc 1 5171 94 discriminator 3 view .LVU595
	add	lr, lr, ip
	.loc 1 5171 66 discriminator 3 view .LVU596
	ldrb	ip, [r4, #1]!	@ zero_extendqisi2
.LVL158:
	.loc 1 5171 66 discriminator 3 view .LVU597
	sub	ip, ip, lr, lsr #1
	.loc 1 5171 30 discriminator 3 view .LVU598
	cmp	r3, r4
	.loc 1 5171 52 discriminator 3 view .LVU599
	strb	ip, [r0, #1]!
	.loc 1 5171 40 is_stmt 1 discriminator 3 view .LVU600
.LVL159:
	.loc 1 5171 30 discriminator 3 view .LVU601
	bne	.L166
	pop	{r4, r5, r6, r7, r8, r9, r10, fp, pc}
.LVL160:
.L148:
	.loc 1 5154 20 view .LVU602
	cmp	ip, #0
	subne	r2, r1, #1
.LVL161:
	.loc 1 5154 20 is_stmt 0 view .LVU603
	subne	lr, r0, #1
	addne	r5, r2, ip
	beq	.L151
.LVL162:
.L155:
	.loc 1 5154 39 is_stmt 1 discriminator 3 view .LVU604
	.loc 1 5154 56 is_stmt 0 discriminator 3 view .LVU605
	ldrb	r4, [r2, #1]!	@ zero_extendqisi2
.LVL163:
	.loc 1 5154 20 discriminator 3 view .LVU606
	cmp	r5, r2
	.loc 1 5154 46 discriminator 3 view .LVU607
	strb	r4, [lr, #1]!
	.loc 1 5154 34 is_stmt 1 discriminator 3 view .LVU608
.LVL164:
	.loc 1 5154 20 discriminator 3 view .LVU609
	bne	.L155
.LVL165:
.L151:
	.loc 1 5155 28 view .LVU610
	cmp	ip, r3
	popcs	{r4, r5, r6, r7, r8, r9, r10, fp, pc}
	sub	r4, ip, #1
	add	r3, r1, r3
.LVL166:
	.loc 1 5155 28 is_stmt 0 view .LVU611
	add	ip, r1, r4
.LVL167:
	.loc 1 5155 28 view .LVU612
	sub	r3, r3, #1
	add	r4, r0, r4
	sub	r1, r1, #1
.LVL168:
.L156:
	.loc 1 5155 43 is_stmt 1 discriminator 3 view .LVU613
	.loc 1 5155 64 is_stmt 0 discriminator 3 view .LVU614
	ldrb	r2, [ip, #1]!	@ zero_extendqisi2
.LVL169:
	.loc 1 5155 64 discriminator 3 view .LVU615
	ldrb	r0, [r1, #1]!	@ zero_extendqisi2
	.loc 1 5155 28 discriminator 3 view .LVU616
	cmp	r3, ip
	.loc 1 5155 64 discriminator 3 view .LVU617
	sub	r2, r2, r0
	.loc 1 5155 50 discriminator 3 view .LVU618
	strb	r2, [r4, #1]!
	.loc 1 5155 38 is_stmt 1 discriminator 3 view .LVU619
.LVL170:
	.loc 1 5155 28 discriminator 3 view .LVU620
	bne	.L156
	pop	{r4, r5, r6, r7, r8, r9, r10, fp, pc}
.LVL171:
.L210:
	.loc 1 5191 22 view .LVU621
	cmp	ip, #0
	subne	r2, r1, #1
.LVL172:
	.loc 1 5191 22 is_stmt 0 view .LVU622
	subne	lr, r0, #1
	addne	r5, r2, ip
	beq	.L171
.LVL173:
.L176:
	.loc 1 5191 41 is_stmt 1 discriminator 3 view .LVU623
	.loc 1 5191 58 is_stmt 0 discriminator 3 view .LVU624
	ldrb	r4, [r2, #1]!	@ zero_extendqisi2
.LVL174:
	.loc 1 5191 22 discriminator 3 view .LVU625
	cmp	r2, r5
	.loc 1 5191 48 discriminator 3 view .LVU626
	strb	r4, [lr, #1]!
	.loc 1 5191 36 is_stmt 1 discriminator 3 view .LVU627
.LVL175:
	.loc 1 5191 22 discriminator 3 view .LVU628
	bne	.L176
.LVL176:
.L171:
	.loc 1 5193 30 view .LVU629
	cmp	ip, r3
	popcs	{r4, r5, r6, r7, r8, r9, r10, fp, pc}
	sub	ip, ip, #1
.LVL177:
	.loc 1 5193 30 is_stmt 0 view .LVU630
	add	r3, r1, r3
.LVL178:
	.loc 1 5193 30 view .LVU631
	add	lr, r1, ip
	add	r0, r0, ip
.LVL179:
	.loc 1 5193 30 view .LVU632
	sub	r1, r1, #1
.LVL180:
	.loc 1 5193 30 view .LVU633
	sub	r3, r3, #1
.LVL181:
.L177:
	.loc 1 5193 45 is_stmt 1 discriminator 3 view .LVU634
	.loc 1 5193 67 is_stmt 0 discriminator 3 view .LVU635
	ldrb	r2, [lr, #1]!	@ zero_extendqisi2
.LVL182:
	.loc 1 5193 67 discriminator 3 view .LVU636
	ldrb	ip, [r1, #1]!	@ zero_extendqisi2
	.loc 1 5193 30 discriminator 3 view .LVU637
	cmp	lr, r3
	.loc 1 5193 67 discriminator 3 view .LVU638
	sub	r2, r2, ip
	.loc 1 5193 52 discriminator 3 view .LVU639
	strb	r2, [r0, #1]!
	.loc 1 5193 40 is_stmt 1 discriminator 3 view .LVU640
.LVL183:
	.loc 1 5193 30 discriminator 3 view .LVU641
	bne	.L177
	pop	{r4, r5, r6, r7, r8, r9, r10, fp, pc}
.LVL184:
.L212:
	.loc 1 5175 22 view .LVU642
	cmp	ip, #0
	subne	r2, r1, #1
.LVL185:
	.loc 1 5175 22 is_stmt 0 view .LVU643
	subne	lr, r0, #1
	addne	r5, r2, ip
	beq	.L163
.LVL186:
.L167:
	.loc 1 5175 41 is_stmt 1 discriminator 3 view .LVU644
	.loc 1 5175 58 is_stmt 0 discriminator 3 view .LVU645
	ldrb	r4, [r2, #1]!	@ zero_extendqisi2
.LVL187:
	.loc 1 5175 22 discriminator 3 view .LVU646
	cmp	r2, r5
	.loc 1 5175 48 discriminator 3 view .LVU647
	strb	r4, [lr, #1]!
	.loc 1 5175 36 is_stmt 1 discriminator 3 view .LVU648
.LVL188:
	.loc 1 5175 22 discriminator 3 view .LVU649
	bne	.L167
.LVL189:
.L163:
	.loc 1 5176 30 view .LVU650
	cmp	ip, r3
	popcs	{r4, r5, r6, r7, r8, r9, r10, fp, pc}
	sub	ip, ip, #1
.LVL190:
	.loc 1 5176 30 is_stmt 0 view .LVU651
	add	r3, r1, r3
.LVL191:
	.loc 1 5176 30 view .LVU652
	add	lr, r1, ip
	sub	r3, r3, #1
	add	ip, r0, ip
	sub	r1, r1, #1
.LVL192:
.L168:
	.loc 1 5176 45 is_stmt 1 discriminator 3 view .LVU653
	.loc 1 5176 66 is_stmt 0 discriminator 3 view .LVU654
	ldrb	r2, [lr, #1]!	@ zero_extendqisi2
.LVL193:
	.loc 1 5176 66 discriminator 3 view .LVU655
	ldrb	r0, [r1, #1]!	@ zero_extendqisi2
	.loc 1 5176 30 discriminator 3 view .LVU656
	cmp	lr, r3
	.loc 1 5176 66 discriminator 3 view .LVU657
	sub	r2, r2, r0, lsr #1
	.loc 1 5176 52 discriminator 3 view .LVU658
	strb	r2, [ip, #1]!
	.loc 1 5176 40 is_stmt 1 discriminator 3 view .LVU659
.LVL194:
	.loc 1 5176 30 discriminator 3 view .LVU660
	bne	.L168
	pop	{r4, r5, r6, r7, r8, r9, r10, fp, pc}
.LVL195:
.L211:
	.loc 1 5164 22 view .LVU661
	cmp	r3, #0
	popeq	{r4, r5, r6, r7, r8, r9, r10, fp, pc}
	add	r3, r1, r3
.LVL196:
	.loc 1 5164 22 is_stmt 0 view .LVU662
	sub	r0, r0, #1
.LVL197:
	.loc 1 5164 22 view .LVU663
	sub	r1, r1, #1
.LVL198:
	.loc 1 5164 22 view .LVU664
	sub	r3, r3, #1
.LVL199:
.L160:
	.loc 1 5164 38 is_stmt 1 discriminator 3 view .LVU665
	.loc 1 5164 55 is_stmt 0 discriminator 3 view .LVU666
	ldrb	r2, [r1, #1]!	@ zero_extendqisi2
.LVL200:
	.loc 1 5164 22 discriminator 3 view .LVU667
	cmp	r3, r1
	.loc 1 5164 45 discriminator 3 view .LVU668
	strb	r2, [r0, #1]!
	.loc 1 5164 33 is_stmt 1 discriminator 3 view .LVU669
.LVL201:
	.loc 1 5164 22 discriminator 3 view .LVU670
	bne	.L160
	pop	{r4, r5, r6, r7, r8, r9, r10, fp, pc}
	.cfi_endproc
.LFE191:
	.size	filterScanline, .-filterScanline
	.section	.text.color_tree_add,"ax",%progbits
	.align	2
	.syntax unified
	.arm
	.fpu vfp
	.type	color_tree_add, %function
color_tree_add:
.LVL202:
.LFB139:
	.loc 1 3050 1 view -0
	.cfi_startproc
	@ args = 8, pretend = 0, frame = 0
	@ frame_needed = 0, uses_anonymous_args = 0
	.loc 1 3051 3 view .LVU672
	.loc 1 3052 3 view .LVU673
	.loc 1 3052 20 view .LVU674
	.loc 1 3050 1 is_stmt 0 view .LVU675
	push	{r3, r4, r5, r6, r7, r8, r9, r10, fp, lr}
	.cfi_def_cfa_offset 40
	.cfi_offset 3, -40
	.cfi_offset 4, -36
	.cfi_offset 5, -32
	.cfi_offset 6, -28
	.cfi_offset 7, -24
	.cfi_offset 8, -20
	.cfi_offset 9, -16
	.cfi_offset 10, -12
	.cfi_offset 11, -8
	.cfi_offset 14, -4
	.loc 1 3052 11 view .LVU676
	mov	r4, #0
.LBB816:
.LBB817:
.LBB818:
	.loc 1 3010 15 view .LVU677
	mvn	r10, #0
.LBE818:
.LBE817:
.LBE816:
	.loc 1 3050 1 view .LVU678
	mov	r7, r1
	mov	r6, r2
	mov	r5, r3
.LBB827:
.LBB822:
.LBB819:
	.loc 1 3009 46 view .LVU679
	mov	r8, r4
.LBE819:
.LBE822:
.LBE827:
	.loc 1 3050 1 view .LVU680
	ldrb	r9, [sp, #40]	@ zero_extendqisi2
.LVL203:
.L216:
.LBB828:
	.loc 1 3054 5 is_stmt 1 view .LVU681
	.loc 1 3055 5 view .LVU682
	.loc 1 3054 21 is_stmt 0 view .LVU683
	asr	r1, r7, r4
.LVL204:
	.loc 1 3054 44 view .LVU684
	asr	r2, r6, r4
	.loc 1 3054 29 view .LVU685
	and	r1, r1, #1
.LVL205:
	.loc 1 3054 52 view .LVU686
	and	r2, r2, #1
	.loc 1 3054 67 view .LVU687
	asr	r3, r5, r4
.LVL206:
	.loc 1 3054 34 view .LVU688
	add	r2, r2, r1, lsl #1
	.loc 1 3054 75 view .LVU689
	and	r3, r3, #1
.LVL207:
	.loc 1 3054 90 view .LVU690
	asr	ip, r9, r4
	.loc 1 3054 57 view .LVU691
	add	r3, r3, r2, lsl #1
	.loc 1 3054 84 view .LVU692
	and	ip, ip, #1
	.loc 1 3054 9 view .LVU693
	add	ip, ip, r3, lsl #1
	add	fp, r0, ip, lsl #2
	.loc 1 3055 23 view .LVU694
	ldr	r0, [r0, ip, lsl #2]
.LVL208:
	.loc 1 3055 7 view .LVU695
	cmp	r0, #0
	beq	.L220
.L214:
	.loc 1 3060 5 is_stmt 1 discriminator 2 view .LVU696
.LVL209:
	.loc 1 3060 5 is_stmt 0 discriminator 2 view .LVU697
.LBE828:
	.loc 1 3052 25 is_stmt 1 discriminator 2 view .LVU698
	add	r4, r4, #1
.LVL210:
	.loc 1 3052 20 discriminator 2 view .LVU699
	cmp	r4, #8
	bne	.L216
	.loc 1 3062 3 view .LVU700
	.loc 1 3062 15 is_stmt 0 view .LVU701
	ldr	r3, [sp, #44]
	str	r3, [r0, #64]
	.loc 1 3063 1 view .LVU702
	pop	{r3, r4, r5, r6, r7, r8, r9, r10, fp, pc}
.LVL211:
.L220:
.LBB829:
	.loc 1 3057 7 is_stmt 1 view .LVU703
.LBB823:
.LBI823:
	.loc 1 63 14 view .LVU704
.LBB824:
	.loc 1 65 3 view .LVU705
	.loc 1 65 10 is_stmt 0 view .LVU706
	mov	r0, #68
	bl	malloc
.LVL212:
	.loc 1 65 10 view .LVU707
.LBE824:
.LBE823:
	.loc 1 3057 25 view .LVU708
	str	r0, [fp]
	.loc 1 3058 7 is_stmt 1 view .LVU709
.LVL213:
.LBB825:
.LBI817:
	.loc 1 3006 13 view .LVU710
.LBB820:
	.loc 1 3009 16 view .LVU711
	sub	r3, r0, #4
	add	r2, r0, #60
.LVL214:
.L215:
	.loc 1 3009 28 view .LVU712
	.loc 1 3009 46 is_stmt 0 view .LVU713
	str	r8, [r3, #4]!
	.loc 1 3009 23 is_stmt 1 view .LVU714
	.loc 1 3009 16 view .LVU715
	cmp	r2, r3
	bne	.L215
	.loc 1 3010 3 view .LVU716
	.loc 1 3010 15 is_stmt 0 view .LVU717
	str	r10, [r0, #64]
.LBE820:
.LBE825:
	.loc 1 3060 10 view .LVU718
	ldr	r0, [fp]
.LVL215:
.LBB826:
.LBB821:
	.loc 1 3011 1 view .LVU719
	b	.L214
.LBE821:
.LBE826:
.LBE829:
	.cfi_endproc
.LFE139:
	.size	color_tree_add, .-color_tree_add
	.section	.text.LodePNGText_cleanup,"ax",%progbits
	.align	2
	.syntax unified
	.arm
	.fpu vfp
	.type	LodePNGText_cleanup, %function
LodePNGText_cleanup:
.LVL216:
.LFB121:
	.loc 1 2784 1 is_stmt 1 view -0
	.cfi_startproc
	@ args = 0, pretend = 0, frame = 0
	@ frame_needed = 0, uses_anonymous_args = 0
	.loc 1 2785 3 view .LVU721
	.loc 1 2786 3 view .LVU722
	.loc 1 2786 16 view .LVU723
	ldr	r3, [r0, #60]
	.loc 1 2784 1 is_stmt 0 view .LVU724
	push	{r4, r5, r6, r7, r8, lr}
	.cfi_def_cfa_offset 24
	.cfi_offset 4, -24
	.cfi_offset 5, -20
	.cfi_offset 6, -16
	.cfi_offset 7, -12
	.cfi_offset 8, -8
	.cfi_offset 14, -4
	.loc 1 2786 16 view .LVU725
	cmp	r3, #0
	.loc 1 2784 1 view .LVU726
	mov	r5, r0
	.loc 1 2786 16 view .LVU727
	beq	.L222
	.loc 1 2786 9 view .LVU728
	mov	r4, #0
.LBB830:
.LBB831:
	.loc 1 301 8 view .LVU729
	mov	r8, r4
.LVL217:
.L223:
	.loc 1 301 8 view .LVU730
.LBE831:
.LBE830:
	.loc 1 2788 5 is_stmt 1 discriminator 3 view .LVU731
	ldr	r7, [r5, #64]
.LVL218:
.LBB836:
.LBI830:
	.loc 1 298 13 discriminator 3 view .LVU732
.LBB834:
	.loc 1 300 3 discriminator 3 view .LVU733
.LBB832:
.LBI832:
	.loc 1 73 13 discriminator 3 view .LVU734
.LBB833:
	.loc 1 75 3 discriminator 3 view .LVU735
	ldr	r0, [r7, r4, lsl #2]
	bl	free
.LVL219:
	.loc 1 75 3 is_stmt 0 discriminator 3 view .LVU736
.LBE833:
.LBE832:
	.loc 1 301 3 is_stmt 1 discriminator 3 view .LVU737
.LBE834:
.LBE836:
	.loc 1 2789 5 is_stmt 0 discriminator 3 view .LVU738
	ldr	r6, [r5, #68]
.LBB837:
.LBB835:
	.loc 1 301 8 discriminator 3 view .LVU739
	str	r8, [r7, r4, lsl #2]
.LVL220:
	.loc 1 301 8 discriminator 3 view .LVU740
.LBE835:
.LBE837:
	.loc 1 2789 5 is_stmt 1 discriminator 3 view .LVU741
.LBB838:
.LBI838:
	.loc 1 298 13 discriminator 3 view .LVU742
.LBB839:
	.loc 1 300 3 discriminator 3 view .LVU743
.LBB840:
.LBI840:
	.loc 1 73 13 discriminator 3 view .LVU744
.LBB841:
	.loc 1 75 3 discriminator 3 view .LVU745
	ldr	r0, [r6, r4, lsl #2]
	bl	free
.LVL221:
	.loc 1 75 3 is_stmt 0 discriminator 3 view .LVU746
.LBE841:
.LBE840:
	.loc 1 301 3 is_stmt 1 discriminator 3 view .LVU747
.LBE839:
.LBE838:
	.loc 1 2786 16 is_stmt 0 discriminator 3 view .LVU748
	ldr	r3, [r5, #60]
.LBB843:
.LBB842:
	.loc 1 301 8 discriminator 3 view .LVU749
	str	r8, [r6, r4, lsl #2]
.LVL222:
	.loc 1 301 8 discriminator 3 view .LVU750
.LBE842:
.LBE843:
	.loc 1 2786 35 is_stmt 1 discriminator 3 view .LVU751
	add	r4, r4, #1
.LVL223:
	.loc 1 2786 16 discriminator 3 view .LVU752
	cmp	r3, r4
	bne	.L223
.LVL224:
.L222:
	.loc 1 2791 3 view .LVU753
.LBB844:
.LBI844:
	.loc 1 73 13 view .LVU754
.LBB845:
	.loc 1 75 3 view .LVU755
	ldr	r0, [r5, #64]
	bl	free
.LVL225:
	.loc 1 75 3 is_stmt 0 view .LVU756
.LBE845:
.LBE844:
	.loc 1 2792 3 is_stmt 1 view .LVU757
.LBB846:
.LBI846:
	.loc 1 73 13 view .LVU758
.LBB847:
	.loc 1 75 3 view .LVU759
	ldr	r0, [r5, #68]
.LBE847:
.LBE846:
	.loc 1 2793 1 is_stmt 0 view .LVU760
	pop	{r4, r5, r6, r7, r8, lr}
	.cfi_restore 14
	.cfi_restore 8
	.cfi_restore 7
	.cfi_restore 6
	.cfi_restore 5
	.cfi_restore 4
	.cfi_def_cfa_offset 0
.LVL226:
.LBB849:
.LBB848:
	.loc 1 75 3 view .LVU761
	b	free
.LVL227:
	.loc 1 75 3 view .LVU762
.LBE848:
.LBE849:
	.cfi_endproc
.LFE121:
	.size	LodePNGText_cleanup, .-LodePNGText_cleanup
	.section	.text.LodePNGIText_cleanup,"ax",%progbits
	.align	2
	.syntax unified
	.arm
	.fpu vfp
	.type	LodePNGIText_cleanup, %function
LodePNGIText_cleanup:
.LVL228:
.LFB126:
	.loc 1 2849 1 is_stmt 1 view -0
	.cfi_startproc
	@ args = 0, pretend = 0, frame = 0
	@ frame_needed = 0, uses_anonymous_args = 0
	.loc 1 2850 3 view .LVU764
	.loc 1 2851 3 view .LVU765
	.loc 1 2851 16 view .LVU766
	ldr	r3, [r0, #72]
	.loc 1 2849 1 is_stmt 0 view .LVU767
	push	{r4, r5, r6, r7, r8, lr}
	.cfi_def_cfa_offset 24
	.cfi_offset 4, -24
	.cfi_offset 5, -20
	.cfi_offset 6, -16
	.cfi_offset 7, -12
	.cfi_offset 8, -8
	.cfi_offset 14, -4
	.loc 1 2851 16 view .LVU768
	cmp	r3, #0
	.loc 1 2849 1 view .LVU769
	mov	r5, r0
	.loc 1 2851 16 view .LVU770
	beq	.L230
	.loc 1 2851 9 view .LVU771
	mov	r4, #0
.LBB850:
.LBB851:
	.loc 1 301 8 view .LVU772
	mov	r6, r4
.LVL229:
.L231:
	.loc 1 301 8 view .LVU773
.LBE851:
.LBE850:
	.loc 1 2853 5 is_stmt 1 discriminator 3 view .LVU774
	ldr	r8, [r5, #76]
.LVL230:
.LBB856:
.LBI850:
	.loc 1 298 13 discriminator 3 view .LVU775
.LBB854:
	.loc 1 300 3 discriminator 3 view .LVU776
.LBB852:
.LBI852:
	.loc 1 73 13 discriminator 3 view .LVU777
.LBB853:
	.loc 1 75 3 discriminator 3 view .LVU778
	ldr	r0, [r8, r4, lsl #2]
	bl	free
.LVL231:
	.loc 1 75 3 is_stmt 0 discriminator 3 view .LVU779
.LBE853:
.LBE852:
	.loc 1 301 3 is_stmt 1 discriminator 3 view .LVU780
.LBE854:
.LBE856:
	.loc 1 2854 5 is_stmt 0 discriminator 3 view .LVU781
	ldr	r7, [r5, #80]
.LBB857:
.LBB855:
	.loc 1 301 8 discriminator 3 view .LVU782
	str	r6, [r8, r4, lsl #2]
.LVL232:
	.loc 1 301 8 discriminator 3 view .LVU783
.LBE855:
.LBE857:
	.loc 1 2854 5 is_stmt 1 discriminator 3 view .LVU784
.LBB858:
.LBI858:
	.loc 1 298 13 discriminator 3 view .LVU785
.LBB859:
	.loc 1 300 3 discriminator 3 view .LVU786
.LBB860:
.LBI860:
	.loc 1 73 13 discriminator 3 view .LVU787
.LBB861:
	.loc 1 75 3 discriminator 3 view .LVU788
	ldr	r0, [r7, r4, lsl #2]
	bl	free
.LVL233:
	.loc 1 75 3 is_stmt 0 discriminator 3 view .LVU789
.LBE861:
.LBE860:
	.loc 1 301 3 is_stmt 1 discriminator 3 view .LVU790
.LBE859:
.LBE858:
	.loc 1 2855 5 is_stmt 0 discriminator 3 view .LVU791
	ldr	r8, [r5, #84]
.LBB863:
.LBB862:
	.loc 1 301 8 discriminator 3 view .LVU792
	str	r6, [r7, r4, lsl #2]
.LVL234:
	.loc 1 301 8 discriminator 3 view .LVU793
.LBE862:
.LBE863:
	.loc 1 2855 5 is_stmt 1 discriminator 3 view .LVU794
.LBB864:
.LBI864:
	.loc 1 298 13 discriminator 3 view .LVU795
.LBB865:
	.loc 1 300 3 discriminator 3 view .LVU796
.LBB866:
.LBI866:
	.loc 1 73 13 discriminator 3 view .LVU797
.LBB867:
	.loc 1 75 3 discriminator 3 view .LVU798
	ldr	r0, [r8, r4, lsl #2]
	bl	free
.LVL235:
	.loc 1 75 3 is_stmt 0 discriminator 3 view .LVU799
.LBE867:
.LBE866:
	.loc 1 301 3 is_stmt 1 discriminator 3 view .LVU800
.LBE865:
.LBE864:
	.loc 1 2856 5 is_stmt 0 discriminator 3 view .LVU801
	ldr	r7, [r5, #88]
.LBB869:
.LBB868:
	.loc 1 301 8 discriminator 3 view .LVU802
	str	r6, [r8, r4, lsl #2]
.LVL236:
	.loc 1 301 8 discriminator 3 view .LVU803
.LBE868:
.LBE869:
	.loc 1 2856 5 is_stmt 1 discriminator 3 view .LVU804
.LBB870:
.LBI870:
	.loc 1 298 13 discriminator 3 view .LVU805
.LBB871:
	.loc 1 300 3 discriminator 3 view .LVU806
.LBB872:
.LBI872:
	.loc 1 73 13 discriminator 3 view .LVU807
.LBB873:
	.loc 1 75 3 discriminator 3 view .LVU808
	ldr	r0, [r7, r4, lsl #2]
	bl	free
.LVL237:
	.loc 1 75 3 is_stmt 0 discriminator 3 view .LVU809
.LBE873:
.LBE872:
	.loc 1 301 3 is_stmt 1 discriminator 3 view .LVU810
.LBE871:
.LBE870:
	.loc 1 2851 16 is_stmt 0 discriminator 3 view .LVU811
	ldr	r3, [r5, #72]
.LBB875:
.LBB874:
	.loc 1 301 8 discriminator 3 view .LVU812
	str	r6, [r7, r4, lsl #2]
.LVL238:
	.loc 1 301 8 discriminator 3 view .LVU813
.LBE874:
.LBE875:
	.loc 1 2851 36 is_stmt 1 discriminator 3 view .LVU814
	add	r4, r4, #1
.LVL239:
	.loc 1 2851 16 discriminator 3 view .LVU815
	cmp	r3, r4
	bne	.L231
.LVL240:
.L230:
	.loc 1 2858 3 view .LVU816
.LBB876:
.LBI876:
	.loc 1 73 13 view .LVU817
.LBB877:
	.loc 1 75 3 view .LVU818
	ldr	r0, [r5, #76]
	bl	free
.LVL241:
	.loc 1 75 3 is_stmt 0 view .LVU819
.LBE877:
.LBE876:
	.loc 1 2859 3 is_stmt 1 view .LVU820
.LBB878:
.LBI878:
	.loc 1 73 13 view .LVU821
.LBB879:
	.loc 1 75 3 view .LVU822
	ldr	r0, [r5, #80]
	bl	free
.LVL242:
	.loc 1 75 3 is_stmt 0 view .LVU823
.LBE879:
.LBE878:
	.loc 1 2860 3 is_stmt 1 view .LVU824
.LBB880:
.LBI880:
	.loc 1 73 13 view .LVU825
.LBB881:
	.loc 1 75 3 view .LVU826
	ldr	r0, [r5, #84]
	bl	free
.LVL243:
	.loc 1 75 3 is_stmt 0 view .LVU827
.LBE881:
.LBE880:
	.loc 1 2861 3 is_stmt 1 view .LVU828
.LBB882:
.LBI882:
	.loc 1 73 13 view .LVU829
.LBB883:
	.loc 1 75 3 view .LVU830
	ldr	r0, [r5, #88]
.LBE883:
.LBE882:
	.loc 1 2862 1 is_stmt 0 view .LVU831
	pop	{r4, r5, r6, r7, r8, lr}
	.cfi_restore 14
	.cfi_restore 8
	.cfi_restore 7
	.cfi_restore 6
	.cfi_restore 5
	.cfi_restore 4
	.cfi_def_cfa_offset 0
.LVL244:
.LBB885:
.LBB884:
	.loc 1 75 3 view .LVU832
	b	free
.LVL245:
	.loc 1 75 3 view .LVU833
.LBE884:
.LBE885:
	.cfi_endproc
.LFE126:
	.size	LodePNGIText_cleanup, .-LodePNGIText_cleanup
	.section	.text.lodepng_color_mode_equal,"ax",%progbits
	.align	2
	.syntax unified
	.arm
	.fpu vfp
	.type	lodepng_color_mode_equal, %function
lodepng_color_mode_equal:
.LVL246:
.LFB104:
	.loc 1 2613 1 is_stmt 1 view -0
	.cfi_startproc
	@ args = 0, pretend = 0, frame = 0
	@ frame_needed = 0, uses_anonymous_args = 0
	@ link register save eliminated.
	.loc 1 2614 3 view .LVU835
	.loc 1 2615 3 view .LVU836
	.loc 1 2615 5 is_stmt 0 view .LVU837
	ldrb	r2, [r0]	@ zero_extendqisi2
	ldrb	r3, [r1]	@ zero_extendqisi2
	cmp	r2, r3
	bne	.L249
	.loc 1 2616 3 is_stmt 1 view .LVU838
	.loc 1 2616 5 is_stmt 0 view .LVU839
	ldr	r2, [r0, #4]
	ldr	r3, [r1, #4]
	cmp	r2, r3
	beq	.L254
.LVL247:
.L249:
	.loc 1 2615 43 view .LVU840
	mov	r0, #0
	.loc 1 2635 1 view .LVU841
	bx	lr
.LVL248:
.L254:
.LBB888:
.LBI888:
	.loc 1 2612 12 is_stmt 1 view .LVU842
.LBB889:
	.loc 1 2617 3 view .LVU843
	.loc 1 2617 7 is_stmt 0 view .LVU844
	ldr	r3, [r0, #16]
	.loc 1 2617 5 view .LVU845
	ldr	r2, [r1, #16]
	cmp	r3, r2
	bne	.L249
	.loc 1 2618 3 is_stmt 1 view .LVU846
	.loc 1 2618 5 is_stmt 0 view .LVU847
	cmp	r3, #0
	beq	.L239
	.loc 1 2620 5 is_stmt 1 view .LVU848
	.loc 1 2620 7 is_stmt 0 view .LVU849
	ldr	r2, [r0, #20]
	ldr	r3, [r1, #20]
	cmp	r2, r3
	bne	.L249
	.loc 1 2621 5 is_stmt 1 view .LVU850
	.loc 1 2621 7 is_stmt 0 view .LVU851
	ldr	r2, [r0, #24]
	ldr	r3, [r1, #24]
	cmp	r2, r3
	bne	.L249
	.loc 1 2622 5 is_stmt 1 view .LVU852
	.loc 1 2622 7 is_stmt 0 view .LVU853
	ldr	r2, [r0, #28]
	ldr	r3, [r1, #28]
	cmp	r2, r3
	bne	.L249
.L239:
	.loc 1 2627 3 is_stmt 1 view .LVU854
	.loc 1 2628 5 view .LVU855
	.loc 1 2628 9 is_stmt 0 view .LVU856
	ldr	r3, [r0, #12]
	.loc 1 2628 7 view .LVU857
	ldr	r2, [r1, #12]
	cmp	r3, r2
	bne	.L249
.LVL249:
	.loc 1 2629 18 is_stmt 1 view .LVU858
	lsls	ip, r3, #2
	beq	.L248
	.loc 1 2631 11 is_stmt 0 view .LVU859
	ldr	r3, [r0, #8]
	ldr	r2, [r1, #8]
	add	r1, r3, ip
.LVL250:
	.loc 1 2631 11 view .LVU860
	sub	r2, r2, #1
	sub	r3, r3, #1
	sub	r1, r1, #1
	b	.L240
.LVL251:
.L255:
	.loc 1 2629 18 view .LVU861
	cmp	r3, r1
	beq	.L248
.LVL252:
.L240:
	.loc 1 2631 7 is_stmt 1 view .LVU862
	.loc 1 2629 41 view .LVU863
	.loc 1 2631 9 is_stmt 0 view .LVU864
	ldrb	ip, [r3, #1]!	@ zero_extendqisi2
.LVL253:
	.loc 1 2629 18 is_stmt 1 view .LVU865
	.loc 1 2631 9 is_stmt 0 view .LVU866
	ldrb	r0, [r2, #1]!	@ zero_extendqisi2
	cmp	ip, r0
	beq	.L255
	b	.L249
.LVL254:
.L248:
	.loc 1 2634 10 view .LVU867
	mov	r0, #1
	bx	lr
.LBE889:
.LBE888:
	.cfi_endproc
.LFE104:
	.size	lodepng_color_mode_equal, .-lodepng_color_mode_equal
	.section	.text.lodepng_huffman_code_lengths.part.0,"ax",%progbits
	.align	2
	.syntax unified
	.arm
	.fpu vfp
	.type	lodepng_huffman_code_lengths.part.0, %function
lodepng_huffman_code_lengths.part.0:
.LVL255:
.LFB210:
	.loc 1 789 10 is_stmt 1 view -0
	.cfi_startproc
	@ args = 0, pretend = 0, frame = 64
	@ frame_needed = 0, uses_anonymous_args = 0
	.loc 1 800 3 view .LVU869
	.loc 1 789 10 is_stmt 0 view .LVU870
	push	{r4, r5, r6, r7, r8, r9, r10, fp, lr}
	.cfi_def_cfa_offset 36
	.cfi_offset 4, -36
	.cfi_offset 5, -32
	.cfi_offset 6, -28
	.cfi_offset 7, -24
	.cfi_offset 8, -20
	.cfi_offset 9, -16
	.cfi_offset 10, -12
	.cfi_offset 11, -8
	.cfi_offset 14, -4
	vpush.64	{d8}
	.cfi_def_cfa_offset 44
	.cfi_offset 80, -44
	.cfi_offset 81, -40
	sub	sp, sp, #76
	.cfi_def_cfa_offset 120
	.loc 1 789 10 view .LVU871
	str	r0, [sp, #28]
.LBB919:
.LBB920:
	.loc 1 65 10 view .LVU872
	lsl	r0, r2, #4
.LVL256:
	.loc 1 65 10 view .LVU873
.LBE920:
.LBE919:
	.loc 1 789 10 view .LVU874
	str	r3, [sp, #36]
	mov	r5, r2
.LVL257:
.LBB923:
.LBI919:
	.loc 1 63 14 is_stmt 1 view .LVU875
.LBB921:
	.loc 1 65 3 view .LVU876
.LBE921:
.LBE923:
	.loc 1 789 10 is_stmt 0 view .LVU877
	mov	r4, r1
.LBB924:
.LBB922:
	.loc 1 65 10 view .LVU878
	bl	malloc
.LVL258:
	.loc 1 65 10 view .LVU879
.LBE922:
.LBE924:
	.loc 1 801 3 is_stmt 1 view .LVU880
	.loc 1 801 5 is_stmt 0 view .LVU881
	subs	r3, r0, #0
	str	r3, [sp, #24]
	beq	.L289
.LVL259:
	.loc 1 803 16 is_stmt 1 view .LVU882
	cmp	r5, #0
	beq	.L262
	.loc 1 794 10 is_stmt 0 view .LVU883
	mov	fp, #0
	.loc 1 803 9 view .LVU884
	mov	r1, fp
	sub	r3, r4, #4
	ldr	lr, [sp, #24]
	lsl	r2, r5, #2
	add	ip, r3, r5, lsl #2
.LVL260:
.L261:
	.loc 1 805 5 is_stmt 1 view .LVU885
	.loc 1 807 7 view .LVU886
	.loc 1 805 19 is_stmt 0 view .LVU887
	ldr	r0, [r3, #4]!
	.loc 1 807 13 view .LVU888
	add	r4, lr, fp, lsl #4
	.loc 1 805 7 view .LVU889
	cmp	r0, #0
	.loc 1 807 33 view .LVU890
	strne	r0, [lr, fp, lsl #4]
	.loc 1 808 7 is_stmt 1 view .LVU891
	.loc 1 808 32 is_stmt 0 view .LVU892
	strne	r1, [r4, #4]
	.loc 1 809 7 is_stmt 1 view .LVU893
	addne	fp, fp, #1
.LVL261:
	.loc 1 803 29 view .LVU894
	.loc 1 803 16 is_stmt 0 view .LVU895
	cmp	r3, ip
	.loc 1 803 29 view .LVU896
	add	r1, r1, #1
.LVL262:
	.loc 1 803 16 is_stmt 1 view .LVU897
	bne	.L261
	.loc 1 813 45 is_stmt 0 view .LVU898
	ldr	r4, [sp, #28]
	mov	r1, #0
.LVL263:
	.loc 1 813 45 view .LVU899
	mov	r0, r4
	bl	memset
.LVL264:
	.loc 1 820 3 is_stmt 1 view .LVU900
	.loc 1 820 5 is_stmt 0 view .LVU901
	cmp	fp, #0
	beq	.L262
	.loc 1 824 8 is_stmt 1 view .LVU902
	.loc 1 824 10 is_stmt 0 view .LVU903
	cmp	fp, #1
	bne	.L263
	.loc 1 826 5 is_stmt 1 view .LVU904
	.loc 1 826 22 is_stmt 0 view .LVU905
	ldr	r3, [sp, #24]
	.loc 1 826 30 view .LVU906
	mov	r1, r4
	.loc 1 826 22 view .LVU907
	ldr	r2, [r3, #4]
	.loc 1 827 12 view .LVU908
	clz	r3, r2
	lsr	r3, r3, #5
	.loc 1 826 30 view .LVU909
	str	fp, [r4, r2, lsl #2]
	.loc 1 827 5 is_stmt 1 view .LVU910
	.loc 1 792 12 is_stmt 0 view .LVU911
	mov	r4, #0
	.loc 1 827 43 view .LVU912
	str	fp, [r1, r3, lsl #2]
	b	.L259
.LVL265:
.L262:
	.loc 1 822 5 is_stmt 1 view .LVU913
	.loc 1 822 29 is_stmt 0 view .LVU914
	mov	r3, #1
	.loc 1 792 12 view .LVU915
	mov	r4, #0
	.loc 1 822 29 view .LVU916
	ldr	r2, [sp, #28]
	str	r3, [r2, #4]
	.loc 1 822 16 view .LVU917
	str	r3, [r2]
.LVL266:
.L259:
	.loc 1 874 3 is_stmt 1 view .LVU918
.LBB925:
.LBI925:
	.loc 1 73 13 view .LVU919
.LBB926:
	.loc 1 75 3 view .LVU920
	ldr	r0, [sp, #24]
	bl	free
.LVL267:
	.loc 1 75 3 is_stmt 0 view .LVU921
.LBE926:
.LBE925:
	.loc 1 875 3 is_stmt 1 view .LVU922
.L256:
	.loc 1 876 1 is_stmt 0 view .LVU923
	mov	r0, r4
	add	sp, sp, #76
	.cfi_remember_state
	.cfi_def_cfa_offset 44
	@ sp needed
	vldm	sp!, {d8}
	.cfi_restore 80
	.cfi_restore 81
	.cfi_def_cfa_offset 36
	pop	{r4, r5, r6, r7, r8, r9, r10, fp, pc}
.LVL268:
.L263:
	.cfi_restore_state
.LBB927:
	.loc 1 831 5 is_stmt 1 view .LVU924
	.loc 1 832 5 view .LVU925
	.loc 1 834 5 view .LVU926
.LBB928:
.LBI928:
	.loc 1 731 13 view .LVU927
.LBB929:
	.loc 1 733 3 view .LVU928
	.loc 1 733 28 is_stmt 0 view .LVU929
	lsl	r3, fp, #4
	.loc 1 734 17 view .LVU930
	mov	r4, #1
	mov	r5, #0
.LVL269:
.LBB930:
.LBB931:
	.loc 1 65 10 view .LVU931
	mov	r0, r3
.LBE931:
.LBE930:
	.loc 1 733 28 view .LVU932
	vmov	s16, r3	@ int
.LVL270:
.LBB936:
.LBI930:
	.loc 1 63 14 is_stmt 1 view .LVU933
.LBB932:
	.loc 1 65 3 view .LVU934
	.loc 1 65 10 is_stmt 0 view .LVU935
	bl	malloc
.LVL271:
	.loc 1 65 10 view .LVU936
.LBE932:
.LBE936:
	.loc 1 734 17 view .LVU937
	strd	r4, [sp, #12]
.LBB937:
.LBB933:
	.loc 1 65 10 view .LVU938
	str	r0, [sp, #32]
.LVL272:
	.loc 1 65 10 view .LVU939
.LBE933:
.LBE937:
	.loc 1 734 3 is_stmt 1 view .LVU940
	.loc 1 735 3 view .LVU941
	.loc 1 735 24 view .LVU942
.L273:
.LBB938:
	.loc 1 737 5 view .LVU943
.LBB939:
	.loc 1 743 25 is_stmt 0 view .LVU944
	mov	r10, #0
.LBE939:
	.loc 1 737 38 view .LVU945
	ldr	r3, [sp, #16]
	tst	r3, #1
.LBB940:
	.loc 1 743 25 view .LVU946
	ldr	r3, [sp, #12]
.LBE940:
.LBE938:
.LBB943:
.LBB934:
	.loc 1 65 10 view .LVU947
	ldrne	r6, [sp, #32]
.LBE934:
.LBE943:
.LBB944:
.LBB941:
	.loc 1 743 25 view .LVU948
	lsl	r3, r3, #1
.LBE941:
	.loc 1 737 38 view .LVU949
	ldrne	r9, [sp, #24]
	ldreq	r6, [sp, #24]
.LBE944:
.LBB945:
.LBB935:
	.loc 1 65 10 view .LVU950
	ldreq	r9, [sp, #32]
.LVL273:
	.loc 1 65 10 view .LVU951
.LBE935:
.LBE945:
.LBB946:
	.loc 1 739 5 is_stmt 1 view .LVU952
	.loc 1 740 5 view .LVU953
	.loc 1 740 18 view .LVU954
.LBB942:
	.loc 1 743 25 is_stmt 0 view .LVU955
	str	r3, [sp, #20]
.LVL274:
.L266:
	.loc 1 742 7 is_stmt 1 view .LVU956
	ldr	r3, [sp, #12]
	mov	r5, r10
	add	r8, r10, r3
	.loc 1 743 21 is_stmt 0 view .LVU957
	add	r10, r8, r3
.LVL275:
	.loc 1 742 14 view .LVU958
	cmp	r8, fp
	movcs	r8, fp
.LVL276:
	.loc 1 743 7 is_stmt 1 view .LVU959
	.loc 1 743 14 is_stmt 0 view .LVU960
	cmp	fp, r10
	movcc	r7, fp
	movcs	r7, r10
.LVL277:
	.loc 1 744 7 is_stmt 1 view .LVU961
	.loc 1 745 7 view .LVU962
	.loc 1 745 20 view .LVU963
	cmp	r5, r7
	movcc	lr, r5
	.loc 1 744 21 is_stmt 0 view .LVU964
	movcc	r4, r8
	.loc 1 745 20 view .LVU965
	bcc	.L265
	b	.L272
.LVL278:
.L317:
	.loc 1 747 61 is_stmt 1 view .LVU966
	.loc 1 747 18 is_stmt 0 view .LVU967
	cmp	r7, r4
	.loc 1 747 66 view .LVU968
	add	ip, r9, lr, lsl #4
	.loc 1 747 33 view .LVU969
	add	r2, r6, r5, lsl #4
	.loc 1 747 18 view .LVU970
	bls	.L269
	.loc 1 747 29 view .LVU971
	ldr	r0, [r6, r5, lsl #4]
	ldr	r1, [r6, r4, lsl #4]
	.loc 1 747 48 view .LVU972
	add	r3, r6, r4, lsl #4
	.loc 1 747 29 view .LVU973
	cmp	r0, r1
	bgt	.L270
.L269:
	.loc 1 747 66 view .LVU974
	ldm	r2, {r0, r1, r2, r3}
	.loc 1 745 26 view .LVU975
	add	lr, lr, #1
.LVL279:
	.loc 1 745 20 view .LVU976
	cmp	r7, lr
	.loc 1 747 66 view .LVU977
	stm	ip, {r0, r1, r2, r3}
	.loc 1 747 71 view .LVU978
	add	r5, r5, #1
.LVL280:
	.loc 1 745 26 is_stmt 1 view .LVU979
	.loc 1 745 20 view .LVU980
	beq	.L272
.LVL281:
.L265:
	.loc 1 747 9 view .LVU981
	.loc 1 748 14 view .LVU982
	.loc 1 747 11 is_stmt 0 view .LVU983
	cmp	r8, r5
	bhi	.L317
	.loc 1 747 48 view .LVU984
	add	r3, r6, r4, lsl #4
.L270:
	.loc 1 748 19 view .LVU985
	add	ip, r9, lr, lsl #4
	.loc 1 745 26 view .LVU986
	add	lr, lr, #1
.LVL282:
	.loc 1 745 20 view .LVU987
	cmp	r7, lr
	.loc 1 748 19 view .LVU988
	ldm	r3, {r0, r1, r2, r3}
	.loc 1 748 24 view .LVU989
	add	r4, r4, #1
.LVL283:
	.loc 1 745 26 is_stmt 1 view .LVU990
	.loc 1 745 20 view .LVU991
	.loc 1 748 19 is_stmt 0 view .LVU992
	stm	ip, {r0, r1, r2, r3}
	.loc 1 745 20 view .LVU993
	bne	.L265
.LVL284:
.L272:
	.loc 1 745 20 view .LVU994
.LBE942:
	.loc 1 740 18 is_stmt 1 view .LVU995
	cmp	fp, r10
	bhi	.L266
	.loc 1 751 5 view .LVU996
.LBE946:
	.loc 1 735 24 is_stmt 0 view .LVU997
	ldr	r3, [sp, #20]
	cmp	fp, r3
.LBB947:
	.loc 1 751 12 view .LVU998
	ldr	r3, [sp, #16]
	add	r3, r3, #1
	str	r3, [sp, #16]
.LVL285:
	.loc 1 751 12 view .LVU999
.LBE947:
	.loc 1 735 37 is_stmt 1 view .LVU1000
	.loc 1 735 24 view .LVU1001
.LVL286:
	.loc 1 735 24 is_stmt 0 view .LVU1002
	ldrhi	r3, [sp, #20]
.LVL287:
	.loc 1 735 24 view .LVU1003
	strhi	r3, [sp, #12]
	bhi	.L273
.LVL288:
.L318:
	.loc 1 753 3 is_stmt 1 view .LVU1004
	.loc 1 753 5 is_stmt 0 view .LVU1005
	tst	r3, #1
	bne	.L319
.LVL289:
.L274:
	.loc 1 754 3 is_stmt 1 view .LVU1006
.LBB948:
.LBI948:
	.loc 1 73 13 view .LVU1007
.LBB949:
	.loc 1 75 3 view .LVU1008
	ldr	r0, [sp, #32]
	bl	free
.LVL290:
	.loc 1 75 3 is_stmt 0 view .LVU1009
.LBE949:
.LBE948:
.LBE929:
.LBE928:
	.loc 1 836 5 is_stmt 1 view .LVU1010
	.loc 1 838 20 is_stmt 0 view .LVU1011
	mov	r3, #0
	.loc 1 837 48 view .LVU1012
	ldr	r5, [sp, #36]
	.loc 1 838 20 view .LVU1013
	str	r3, [sp, #52]
	.loc 1 837 48 view .LVU1014
	add	r4, r5, #1
	.loc 1 837 35 view .LVU1015
	mul	r4, r5, r4
	.loc 1 840 30 view .LVU1016
	lsl	r8, r4, #5
	.loc 1 837 35 view .LVU1017
	lsl	r10, r4, #1
.LBB951:
.LBB952:
	.loc 1 65 10 view .LVU1018
	mov	r0, r8
.LBE952:
.LBE951:
	.loc 1 836 20 view .LVU1019
	str	r5, [sp, #60]
	.loc 1 837 5 is_stmt 1 view .LVU1020
	.loc 1 837 19 is_stmt 0 view .LVU1021
	str	r10, [sp, #40]
	.loc 1 838 5 is_stmt 1 view .LVU1022
	.loc 1 839 5 view .LVU1023
	.loc 1 839 19 is_stmt 0 view .LVU1024
	str	r10, [sp, #48]
	.loc 1 840 5 is_stmt 1 view .LVU1025
.LVL291:
.LBB954:
.LBI951:
	.loc 1 63 14 view .LVU1026
.LBB953:
	.loc 1 65 3 view .LVU1027
	.loc 1 65 10 is_stmt 0 view .LVU1028
	bl	malloc
.LVL292:
	.loc 1 65 10 view .LVU1029
	mov	r7, r0
.LBE953:
.LBE954:
.LBB955:
.LBB956:
	lsl	r0, r4, #3
.LBE956:
.LBE955:
	.loc 1 840 18 view .LVU1030
	str	r7, [sp, #44]
.LBB959:
.LBB957:
	.loc 1 65 10 view .LVU1031
	bl	malloc
.LVL293:
	mov	r9, r0
.LVL294:
	.loc 1 65 10 view .LVU1032
.LBE957:
.LBE959:
	.loc 1 842 32 view .LVU1033
	lsl	r5, r5, #2
.LVL295:
	.loc 1 841 5 is_stmt 1 view .LVU1034
.LBB960:
.LBI955:
	.loc 1 63 14 view .LVU1035
.LBB958:
	.loc 1 65 3 view .LVU1036
.LBE958:
.LBE960:
.LBB961:
.LBB962:
	.loc 1 65 10 is_stmt 0 view .LVU1037
	mov	r0, r5
.LVL296:
	.loc 1 65 10 view .LVU1038
.LBE962:
.LBE961:
	.loc 1 841 20 view .LVU1039
	str	r9, [sp, #56]
	.loc 1 842 5 is_stmt 1 view .LVU1040
.LVL297:
.LBB964:
.LBI961:
	.loc 1 63 14 view .LVU1041
.LBB963:
	.loc 1 65 3 view .LVU1042
	.loc 1 65 10 is_stmt 0 view .LVU1043
	bl	malloc
.LVL298:
	.loc 1 65 10 view .LVU1044
	mov	r4, r0
.LBE963:
.LBE964:
.LBB965:
.LBB966:
	mov	r0, r5
.LVL299:
	.loc 1 65 10 view .LVU1045
.LBE966:
.LBE965:
	.loc 1 842 19 view .LVU1046
	str	r4, [sp, #64]
	.loc 1 843 5 is_stmt 1 view .LVU1047
.LVL300:
.LBB969:
.LBI965:
	.loc 1 63 14 view .LVU1048
.LBB967:
	.loc 1 65 3 view .LVU1049
	.loc 1 65 10 is_stmt 0 view .LVU1050
	bl	malloc
.LVL301:
.LBE967:
.LBE969:
	.loc 1 844 59 view .LVU1051
	cmp	r9, #0
	cmpne	r7, #0
	moveq	r3, #1
	movne	r3, #0
	cmp	r4, #0
	orreq	r3, r3, #1
	cmp	r0, #0
	orreq	r3, r3, #1
	cmp	r3, #0
.LBB970:
.LBB968:
	.loc 1 65 10 view .LVU1052
	mov	r6, r0
.LVL302:
	.loc 1 65 10 view .LVU1053
.LBE968:
.LBE970:
	.loc 1 843 19 view .LVU1054
	str	r0, [sp, #68]
	.loc 1 844 5 is_stmt 1 view .LVU1055
	.loc 1 844 59 is_stmt 0 view .LVU1056
	bne	.L293
.LVL303:
	.loc 1 848 20 is_stmt 1 view .LVU1057
	cmp	r10, #0
	movne	r3, r7
	subne	r2, r9, #4
	addne	r8, r3, r8
	beq	.L280
.LVL304:
.L279:
	.loc 1 848 43 view .LVU1058
	.loc 1 848 61 is_stmt 0 view .LVU1059
	str	r3, [r2, #4]!
	.loc 1 848 38 is_stmt 1 view .LVU1060
	.loc 1 848 20 view .LVU1061
	add	r3, r3, #16
	cmp	r8, r3
	bne	.L279
.L280:
	.loc 1 850 7 view .LVU1062
	ldr	r7, [sp, #24]
	mov	r3, #0
	mov	r2, #1
	ldr	r1, [r7]
	add	r0, sp, #40
	bl	bpmnode_create
.LVL305:
	.loc 1 851 7 view .LVU1063
	mov	r2, #2
	ldr	r1, [r7, #16]
	add	r0, sp, #40
	bl	bpmnode_create
.LVL306:
	.loc 1 853 7 view .LVU1064
	.loc 1 853 20 view .LVU1065
	ldr	r3, [sp, #36]
	cmp	r3, #0
	beq	.L278
	.loc 1 855 28 is_stmt 0 view .LVU1066
	ldr	r1, [sp, #44]
	sub	r2, r5, #4
	add	r2, r4, r2
	.loc 1 856 28 view .LVU1067
	add	r0, r1, #16
	sub	r4, r4, #4
	sub	r3, r6, #4
.LVL307:
.L283:
	.loc 1 855 9 is_stmt 1 view .LVU1068
	.loc 1 855 26 is_stmt 0 view .LVU1069
	str	r1, [r4, #4]!
	.loc 1 856 9 is_stmt 1 view .LVU1070
	.loc 1 853 20 is_stmt 0 view .LVU1071
	cmp	r4, r2
	.loc 1 856 26 view .LVU1072
	str	r0, [r3, #4]!
	.loc 1 853 39 is_stmt 1 view .LVU1073
	.loc 1 853 20 view .LVU1074
	bne	.L283
.L278:
.LVL308:
	.loc 1 860 20 view .LVU1075
	.loc 1 860 38 is_stmt 0 view .LVU1076
	sub	r7, fp, #-2147483647
	lsl	r7, r7, #1
	.loc 1 860 20 view .LVU1077
	cmp	r7, #2
	beq	.L282
	.loc 1 860 13 view .LVU1078
	mov	r4, #2
	.loc 1 860 48 view .LVU1079
	ldr	r3, [sp, #36]
	.loc 1 860 13 view .LVU1080
	ldr	r9, [sp, #24]
	.loc 1 860 48 view .LVU1081
	sub	r8, r3, #1
.LVL309:
.L286:
	.loc 1 860 48 is_stmt 1 view .LVU1082
	str	r4, [sp]
	mov	r3, r8
	mov	r2, fp
	mov	r1, r9
	.loc 1 860 43 is_stmt 0 view .LVU1083
	add	r4, r4, #1
.LVL310:
	.loc 1 860 48 view .LVU1084
	add	r0, sp, #40
	bl	boundaryPM
.LVL311:
	.loc 1 860 43 is_stmt 1 view .LVU1085
	.loc 1 860 20 view .LVU1086
	cmp	r4, r7
	bne	.L286
.LVL312:
.L282:
	.loc 1 862 7 view .LVU1087
	.loc 1 862 16 is_stmt 0 view .LVU1088
	add	r5, r6, r5
	ldr	r0, [r5, #-4]
.LVL313:
	.loc 1 862 48 is_stmt 1 view .LVU1089
	cmp	r0, #0
	beq	.L285
	ldr	r3, [sp, #24]
	ldr	lr, [sp, #28]
	add	ip, r3, #4
.L284:
.LVL314:
	.loc 1 864 22 view .LVU1090
	ldr	r3, [r0, #4]
	cmp	r3, #0
	.loc 1 864 15 is_stmt 0 view .LVU1091
	movne	r3, #0
	.loc 1 864 22 view .LVU1092
	beq	.L288
.LVL315:
.L287:
	.loc 1 864 43 is_stmt 1 view .LVU1093
	.loc 1 864 52 is_stmt 0 view .LVU1094
	ldr	r1, [ip, r3, lsl #4]
	.loc 1 864 38 view .LVU1095
	add	r3, r3, #1
.LVL316:
	.loc 1 864 43 view .LVU1096
	ldr	r2, [lr, r1, lsl #2]
	add	r2, r2, #1
	str	r2, [lr, r1, lsl #2]
	.loc 1 864 38 is_stmt 1 view .LVU1097
.LVL317:
	.loc 1 864 22 view .LVU1098
	ldr	r2, [r0, #4]
	cmp	r3, r2
	bne	.L287
.LVL318:
.L288:
	.loc 1 862 59 view .LVU1099
	ldr	r0, [r0, #8]
.LVL319:
	.loc 1 862 48 view .LVU1100
	cmp	r0, #0
	bne	.L284
.L285:
	.loc 1 862 48 is_stmt 0 view .LVU1101
.LBE927:
	.loc 1 792 12 view .LVU1102
	mov	r4, #0
.LVL320:
.L275:
.LBB980:
	.loc 1 868 5 is_stmt 1 view .LVU1103
.LBB971:
.LBI971:
	.loc 1 73 13 view .LVU1104
.LBB972:
	.loc 1 75 3 view .LVU1105
	ldr	r0, [sp, #44]
	bl	free
.LVL321:
	.loc 1 75 3 is_stmt 0 view .LVU1106
.LBE972:
.LBE971:
	.loc 1 869 5 is_stmt 1 view .LVU1107
.LBB973:
.LBI973:
	.loc 1 73 13 view .LVU1108
.LBB974:
	.loc 1 75 3 view .LVU1109
	ldr	r0, [sp, #56]
	bl	free
.LVL322:
	.loc 1 75 3 is_stmt 0 view .LVU1110
.LBE974:
.LBE973:
	.loc 1 870 5 is_stmt 1 view .LVU1111
.LBB975:
.LBI975:
	.loc 1 73 13 view .LVU1112
.LBB976:
	.loc 1 75 3 view .LVU1113
	ldr	r0, [sp, #64]
	bl	free
.LVL323:
	.loc 1 75 3 is_stmt 0 view .LVU1114
.LBE976:
.LBE975:
	.loc 1 871 5 is_stmt 1 view .LVU1115
.LBB977:
.LBI977:
	.loc 1 73 13 view .LVU1116
.LBB978:
	.loc 1 75 3 view .LVU1117
	ldr	r0, [sp, #68]
	bl	free
.LVL324:
	.loc 1 75 3 is_stmt 0 view .LVU1118
	b	.L259
.LVL325:
.L319:
	.loc 1 75 3 view .LVU1119
.LBE978:
.LBE977:
.LBB979:
.LBB950:
	.loc 1 753 19 is_stmt 1 view .LVU1120
	vmov	r2, s16	@ int
	ldr	r1, [sp, #32]
	ldr	r0, [sp, #24]
	bl	memcpy
.LVL326:
	.loc 1 753 19 is_stmt 0 view .LVU1121
	b	.L274
.LVL327:
.L289:
	.loc 1 753 19 view .LVU1122
.LBE950:
.LBE979:
.LBE980:
	.loc 1 801 22 view .LVU1123
	mov	r4, #83
.LVL328:
	.loc 1 801 22 view .LVU1124
	b	.L256
.LVL329:
.L293:
.LBB981:
	.loc 1 844 84 view .LVU1125
	mov	r4, #83
	b	.L275
.LBE981:
	.cfi_endproc
.LFE210:
	.size	lodepng_huffman_code_lengths.part.0, .-lodepng_huffman_code_lengths.part.0
	.section	.text.unfilter,"ax",%progbits
	.align	2
	.syntax unified
	.arm
	.fpu vfp
	.type	unfilter, %function
unfilter:
.LVL330:
.LFB154:
	.loc 1 4044 1 is_stmt 1 view -0
	.cfi_startproc
	@ args = 4, pretend = 0, frame = 40
	@ frame_needed = 0, uses_anonymous_args = 0
	.loc 1 4044 1 is_stmt 0 view .LVU1127
	push	{r4, r5, r6, r7, r8, r9, r10, fp, lr}
	.cfi_def_cfa_offset 36
	.cfi_offset 4, -36
	.cfi_offset 5, -32
	.cfi_offset 6, -28
	.cfi_offset 7, -24
	.cfi_offset 8, -20
	.cfi_offset 9, -16
	.cfi_offset 10, -12
	.cfi_offset 11, -8
	.cfi_offset 14, -4
	sub	sp, sp, #44
	.cfi_def_cfa_offset 80
	.loc 1 4044 1 view .LVU1128
	ldr	ip, [sp, #80]
	.loc 1 4060 16 view .LVU1129
	cmp	r3, #0
	.loc 1 4058 25 view .LVU1130
	mul	r2, r2, ip
.LVL331:
	.loc 1 4057 27 view .LVU1131
	add	lr, ip, #7
	.loc 1 4058 31 view .LVU1132
	add	ip, r2, #7
	.loc 1 4057 10 view .LVU1133
	lsr	lr, lr, #3
	.loc 1 4060 16 view .LVU1134
	str	r3, [sp, #12]
	.loc 1 4053 3 is_stmt 1 view .LVU1135
	.loc 1 4054 3 view .LVU1136
.LVL332:
	.loc 1 4057 3 view .LVU1137
	.loc 1 4058 3 view .LVU1138
	.loc 1 4058 10 is_stmt 0 view .LVU1139
	lsr	r3, ip, #3
.LVL333:
	.loc 1 4057 10 view .LVU1140
	str	lr, [sp, #8]
	.loc 1 4058 10 view .LVU1141
	str	r3, [sp, #4]
.LVL334:
	.loc 1 4060 3 is_stmt 1 view .LVU1142
	.loc 1 4060 16 view .LVU1143
	beq	.L321
	.loc 1 4054 18 is_stmt 0 view .LVU1144
	mov	fp, #0
	mov	r10, r1
	sub	r2, lr, #1
.LBB988:
	.loc 1 4063 25 view .LVU1145
	add	r8, r3, #1
	sub	r7, r0, #1
.LBE988:
	.loc 1 4054 18 view .LVU1146
	str	fp, [sp]
	str	r2, [sp, #16]
	add	r9, r1, lr
	add	r3, r1, r3
.LVL335:
.L359:
.LBB1002:
	.loc 1 4062 5 is_stmt 1 view .LVU1147
	.loc 1 4063 5 view .LVU1148
	.loc 1 4064 5 view .LVU1149
.LBB989:
	.loc 1 4066 7 view .LVU1150
.LBB990:
.LBB991:
	.loc 1 3982 3 is_stmt 0 view .LVU1151
	ldrb	r1, [r10]	@ zero_extendqisi2
	add	r0, r7, #1
	ldr	r2, [sp]
	str	r0, [sp]
.LVL336:
	.loc 1 3982 3 view .LVU1152
.LBE991:
.LBI990:
	.loc 1 3969 17 is_stmt 1 view .LVU1153
.LBB998:
	.loc 1 3981 3 view .LVU1154
	.loc 1 3982 3 view .LVU1155
	cmp	r1, #4
	ldrls	pc, [pc, r1, asl #2]
	b	.L360
.L324:
	.word	.L328
	.word	.L327
	.word	.L326
	.word	.L325
	.word	.L323
.L323:
	.loc 1 4014 7 view .LVU1156
	.loc 1 4014 9 is_stmt 0 view .LVU1157
	cmp	r2, #0
	beq	.L390
.LVL337:
	.loc 1 4016 22 is_stmt 1 view .LVU1158
	ldr	r1, [sp, #8]
	cmp	r1, #0
	movne	lr, r7
	movne	r0, r10
.LVL338:
	.loc 1 4016 22 is_stmt 0 view .LVU1159
	subne	ip, r2, #1
	beq	.L354
.LVL339:
.L353:
	.loc 1 4018 11 is_stmt 1 view .LVU1160
	.loc 1 4018 35 is_stmt 0 view .LVU1161
	ldrb	r1, [r0, #1]!	@ zero_extendqisi2
.LVL340:
	.loc 1 4018 35 view .LVU1162
	ldrb	r4, [ip, #1]!	@ zero_extendqisi2
	.loc 1 4016 22 view .LVU1163
	cmp	r0, r9
	.loc 1 4018 35 view .LVU1164
	add	r1, r1, r4
	.loc 1 4018 20 view .LVU1165
	strb	r1, [lr, #1]!
	.loc 1 4016 36 is_stmt 1 view .LVU1166
.LVL341:
	.loc 1 4016 22 view .LVU1167
	bne	.L353
.LVL342:
.L354:
	.loc 1 4020 30 view .LVU1168
	ldrd	r0, [sp, #4]
	cmp	r1, r0
	bcs	.L331
	ldr	r1, [sp, #16]
	ldr	r0, [sp, #8]
	add	r1, r2, r1
	add	r0, r0, r7
	sub	r2, r2, #1
.LVL343:
	.loc 1 4020 30 is_stmt 0 view .LVU1169
	mov	r6, r9
	str	r8, [sp, #24]
	str	r10, [sp, #28]
	str	r9, [sp, #32]
	mov	r8, r1
	mov	r10, r0
.LVL344:
	.loc 1 4020 30 view .LVU1170
	mov	r9, r2
	str	fp, [sp, #20]
	str	r7, [sp, #36]
.LVL345:
.L356:
	.loc 1 4022 11 is_stmt 1 view .LVU1171
.LBB992:
.LBB993:
	.loc 1 3842 8 view .LVU1172
.LBE993:
.LBE992:
	.loc 1 4022 91 is_stmt 0 view .LVU1173
	ldrb	ip, [r9, #1]!	@ zero_extendqisi2
	.loc 1 4022 80 view .LVU1174
	ldrb	r5, [r8, #1]!	@ zero_extendqisi2
	.loc 1 4022 57 view .LVU1175
	ldrb	r4, [r7, #1]!	@ zero_extendqisi2
.LVL346:
.LBB996:
.LBI992:
	.loc 1 3835 22 is_stmt 1 view .LVU1176
.LBB994:
	.loc 1 3837 3 view .LVU1177
	.loc 1 3837 20 is_stmt 0 view .LVU1178
	sub	r0, r5, ip
	.loc 1 3838 20 view .LVU1179
	sub	r1, r4, ip
	.loc 1 3837 14 view .LVU1180
	cmp	r0, #0
	rsblt	r0, r0, #0
	.loc 1 3839 20 view .LVU1181
	add	r2, r5, r4
	.loc 1 3838 14 view .LVU1182
	cmp	r1, #0
	.loc 1 3839 28 view .LVU1183
	sub	r2, r2, ip, lsl #1
	.loc 1 3838 14 view .LVU1184
	rsblt	r1, r1, #0
	.loc 1 3837 9 view .LVU1185
	sxth	r0, r0
.LVL347:
	.loc 1 3838 3 is_stmt 1 view .LVU1186
	.loc 1 3839 14 is_stmt 0 view .LVU1187
	cmp	r2, #0
	.loc 1 3838 9 view .LVU1188
	sxth	r1, r1
.LVL348:
	.loc 1 3839 3 is_stmt 1 view .LVU1189
	.loc 1 3841 3 view .LVU1190
	.loc 1 3839 14 is_stmt 0 view .LVU1191
	rsblt	r2, r2, #0
	.loc 1 3841 5 view .LVU1192
	cmp	r0, r1
	movlt	fp, r0
	movge	fp, r1
	sxth	r2, r2
	cmp	r2, fp
.LBE994:
.LBE996:
	.loc 1 4022 31 view .LVU1193
	ldrb	lr, [r6, #1]!	@ zero_extendqisi2
.LVL349:
.LBB997:
.LBB995:
	.loc 1 3841 5 view .LVU1194
	blt	.L355
	.loc 1 3843 15 view .LVU1195
	cmp	r0, r1
	movgt	ip, r5
.LVL350:
	.loc 1 3843 15 view .LVU1196
	movle	ip, r4
.L355:
.LBE995:
.LBE997:
	.loc 1 4022 35 view .LVU1197
	add	lr, lr, ip
	.loc 1 4020 30 view .LVU1198
	cmp	r6, r3
	.loc 1 4022 20 view .LVU1199
	strb	lr, [r10, #1]!
.LVL351:
	.loc 1 4020 40 is_stmt 1 view .LVU1200
	.loc 1 4020 30 view .LVU1201
	bne	.L356
	ldr	fp, [sp, #20]
	ldr	r8, [sp, #24]
	ldr	r10, [sp, #28]
	ldr	r9, [sp, #32]
	ldr	r7, [sp, #36]
.LVL352:
.L331:
	.loc 1 4020 30 is_stmt 0 view .LVU1202
.LBE998:
.LBE990:
	.loc 1 4066 120 is_stmt 1 view .LVU1203
	.loc 1 4066 120 is_stmt 0 view .LVU1204
.LBE989:
	.loc 1 4066 144 is_stmt 1 view .LVU1205
	.loc 1 4068 5 view .LVU1206
	.loc 1 4068 5 is_stmt 0 view .LVU1207
.LBE1002:
	.loc 1 4060 21 is_stmt 1 view .LVU1208
	.loc 1 4060 16 is_stmt 0 view .LVU1209
	ldr	r2, [sp, #12]
	.loc 1 4060 21 view .LVU1210
	add	fp, fp, #1
.LVL353:
	.loc 1 4060 16 is_stmt 1 view .LVU1211
	cmp	r2, fp
	ldr	r2, [sp, #4]
	add	r10, r10, r8
	add	r9, r9, r8
	add	r7, r7, r2
	add	r3, r3, r8
	bne	.L359
.LVL354:
.L321:
	.loc 1 4071 10 is_stmt 0 view .LVU1212
	mov	r0, #0
.L320:
	.loc 1 4072 1 view .LVU1213
	add	sp, sp, #44
	.cfi_remember_state
	.cfi_def_cfa_offset 36
	@ sp needed
	pop	{r4, r5, r6, r7, r8, r9, r10, fp, pc}
.LVL355:
.L325:
	.cfi_restore_state
.LBB1003:
.LBB1001:
.LBB1000:
.LBB999:
	.loc 1 4002 7 is_stmt 1 view .LVU1214
	.loc 1 4002 9 is_stmt 0 view .LVU1215
	cmp	r2, #0
	beq	.L391
.LVL356:
	.loc 1 4004 22 is_stmt 1 view .LVU1216
	ldr	r1, [sp, #8]
	cmp	r1, #0
	movne	lr, r7
	movne	r0, r10
.LVL357:
	.loc 1 4004 22 is_stmt 0 view .LVU1217
	subne	ip, r2, #1
	beq	.L344
.LVL358:
.L343:
	.loc 1 4004 41 is_stmt 1 view .LVU1218
	.loc 1 4004 64 is_stmt 0 view .LVU1219
	ldrb	r1, [r0, #1]!	@ zero_extendqisi2
.LVL359:
	.loc 1 4004 64 view .LVU1220
	ldrb	r4, [ip, #1]!	@ zero_extendqisi2
	.loc 1 4004 22 view .LVU1221
	cmp	r0, r9
	.loc 1 4004 64 view .LVU1222
	add	r1, r1, r4, lsr #1
	.loc 1 4004 50 view .LVU1223
	strb	r1, [lr, #1]!
	.loc 1 4004 36 is_stmt 1 view .LVU1224
.LVL360:
	.loc 1 4004 22 view .LVU1225
	bne	.L343
.LVL361:
.L344:
	.loc 1 4005 30 view .LVU1226
	ldrd	r0, [sp, #4]
	cmp	r1, r0
	bcs	.L331
	mov	r4, r7
	mov	ip, r9
	ldr	r1, [sp, #16]
	add	r2, r2, r1
.LVL362:
	.loc 1 4005 30 is_stmt 0 view .LVU1227
	ldr	r1, [sp, #8]
	add	lr, r1, r7
.LVL363:
.L345:
	.loc 1 4005 45 is_stmt 1 view .LVU1228
	.loc 1 4005 101 is_stmt 0 view .LVU1229
	ldrb	r1, [r2, #1]!	@ zero_extendqisi2
	.loc 1 4005 77 view .LVU1230
	ldrb	r0, [r4, #1]!	@ zero_extendqisi2
	.loc 1 4005 93 view .LVU1231
	add	r0, r0, r1
	.loc 1 4005 68 view .LVU1232
	ldrb	r1, [ip, #1]!	@ zero_extendqisi2
.LVL364:
	.loc 1 4005 68 view .LVU1233
	add	r1, r1, r0, lsr #1
	.loc 1 4005 30 view .LVU1234
	cmp	ip, r3
	.loc 1 4005 54 view .LVU1235
	strb	r1, [lr, #1]!
	.loc 1 4005 40 is_stmt 1 view .LVU1236
.LVL365:
	.loc 1 4005 30 view .LVU1237
	bne	.L345
	b	.L331
.LVL366:
.L326:
	.loc 1 3992 7 view .LVU1238
	.loc 1 3992 9 is_stmt 0 view .LVU1239
	cmp	r2, #0
	beq	.L392
.LVL367:
	.loc 1 3994 22 is_stmt 1 view .LVU1240
	ldr	r1, [sp, #4]
	cmp	r1, #0
	beq	.L331
	mov	ip, r7
	mov	r0, r10
.LVL368:
	.loc 1 3994 22 is_stmt 0 view .LVU1241
	sub	r2, r2, #1
.LVL369:
.L337:
	.loc 1 3994 38 is_stmt 1 view .LVU1242
	.loc 1 3994 61 is_stmt 0 view .LVU1243
	ldrb	r1, [r0, #1]!	@ zero_extendqisi2
.LVL370:
	.loc 1 3994 61 view .LVU1244
	ldrb	lr, [r2, #1]!	@ zero_extendqisi2
	.loc 1 3994 22 view .LVU1245
	cmp	r0, r3
	.loc 1 3994 61 view .LVU1246
	add	r1, r1, lr
	.loc 1 3994 47 view .LVU1247
	strb	r1, [ip, #1]!
	.loc 1 3994 33 is_stmt 1 view .LVU1248
.LVL371:
	.loc 1 3994 22 view .LVU1249
	bne	.L337
	b	.L331
.LVL372:
.L328:
	.loc 1 3985 20 view .LVU1250
	ldr	r2, [sp, #4]
.LVL373:
	.loc 1 3985 20 is_stmt 0 view .LVU1251
	cmp	r2, #0
	beq	.L331
	mov	r1, r7
	mov	r2, r10
.LVL374:
.L332:
	.loc 1 3985 36 is_stmt 1 view .LVU1252
	.loc 1 3985 55 is_stmt 0 view .LVU1253
	ldrb	r0, [r2, #1]!	@ zero_extendqisi2
.LVL375:
	.loc 1 3985 20 view .LVU1254
	cmp	r2, r3
	.loc 1 3985 45 view .LVU1255
	strb	r0, [r1, #1]!
	.loc 1 3985 31 is_stmt 1 view .LVU1256
.LVL376:
	.loc 1 3985 20 view .LVU1257
	bne	.L332
	b	.L331
.LVL377:
.L327:
	.loc 1 3988 20 view .LVU1258
	ldr	r2, [sp, #8]
.LVL378:
	.loc 1 3988 20 is_stmt 0 view .LVU1259
	cmp	r2, #0
	movne	r1, r7
	movne	r2, r10
	beq	.L333
.LVL379:
.L329:
	.loc 1 3988 39 is_stmt 1 view .LVU1260
	.loc 1 3988 58 is_stmt 0 view .LVU1261
	ldrb	r0, [r2, #1]!	@ zero_extendqisi2
.LVL380:
	.loc 1 3988 20 view .LVU1262
	cmp	r2, r9
	.loc 1 3988 48 view .LVU1263
	strb	r0, [r1, #1]!
	.loc 1 3988 34 is_stmt 1 view .LVU1264
.LVL381:
	.loc 1 3988 20 view .LVU1265
	bne	.L329
.LVL382:
.L333:
	.loc 1 3989 28 view .LVU1266
	ldmib	sp, {r1, r2}
	cmp	r2, r1
	bcs	.L331
	mov	ip, r7
	mov	r1, r9
	ldr	r2, [sp, #8]
	add	r0, r2, r7
.LVL383:
.L334:
	.loc 1 3989 43 view .LVU1267
	.loc 1 3989 66 is_stmt 0 view .LVU1268
	ldrb	r2, [r1, #1]!	@ zero_extendqisi2
.LVL384:
	.loc 1 3989 66 view .LVU1269
	ldrb	lr, [ip, #1]!	@ zero_extendqisi2
	.loc 1 3989 28 view .LVU1270
	cmp	r1, r3
	.loc 1 3989 66 view .LVU1271
	add	r2, r2, lr
	.loc 1 3989 52 view .LVU1272
	strb	r2, [r0, #1]!
	.loc 1 3989 38 is_stmt 1 view .LVU1273
.LVL385:
	.loc 1 3989 28 view .LVU1274
	bne	.L334
	b	.L331
.LVL386:
.L390:
	.loc 1 4027 22 view .LVU1275
	ldr	r2, [sp, #8]
.LVL387:
	.loc 1 4027 22 is_stmt 0 view .LVU1276
	cmp	r2, #0
	movne	r1, r7
	movne	r2, r10
	beq	.L357
.LVL388:
.L349:
	.loc 1 4029 11 is_stmt 1 view .LVU1277
	.loc 1 4029 30 is_stmt 0 view .LVU1278
	ldrb	r0, [r2, #1]!	@ zero_extendqisi2
.LVL389:
	.loc 1 4027 22 view .LVU1279
	cmp	r2, r9
	.loc 1 4029 20 view .LVU1280
	strb	r0, [r1, #1]!
	.loc 1 4027 36 is_stmt 1 view .LVU1281
.LVL390:
	.loc 1 4027 22 view .LVU1282
	bne	.L349
.LVL391:
.L357:
	.loc 1 4031 30 view .LVU1283
	ldmib	sp, {r1, r2}
	cmp	r2, r1
	bcs	.L331
	mov	ip, r7
	mov	r1, r9
	ldr	r2, [sp, #8]
	add	r0, r2, r7
.LVL392:
.L358:
	.loc 1 4034 11 view .LVU1284
	.loc 1 4034 35 is_stmt 0 view .LVU1285
	ldrb	r2, [r1, #1]!	@ zero_extendqisi2
.LVL393:
	.loc 1 4034 35 view .LVU1286
	ldrb	lr, [ip, #1]!	@ zero_extendqisi2
	.loc 1 4031 30 view .LVU1287
	cmp	r1, r3
	.loc 1 4034 35 view .LVU1288
	add	r2, r2, lr
	.loc 1 4034 20 view .LVU1289
	strb	r2, [r0, #1]!
	.loc 1 4031 40 is_stmt 1 view .LVU1290
.LVL394:
	.loc 1 4031 30 view .LVU1291
	bne	.L358
	b	.L331
.LVL395:
.L392:
	.loc 1 3998 22 view .LVU1292
	ldr	r2, [sp, #4]
.LVL396:
	.loc 1 3998 22 is_stmt 0 view .LVU1293
	cmp	r2, #0
	movne	r1, r7
	movne	r2, r10
	beq	.L331
.LVL397:
.L336:
	.loc 1 3998 38 is_stmt 1 view .LVU1294
	.loc 1 3998 57 is_stmt 0 view .LVU1295
	ldrb	r0, [r2, #1]!	@ zero_extendqisi2
.LVL398:
	.loc 1 3998 22 view .LVU1296
	cmp	r2, r3
	.loc 1 3998 47 view .LVU1297
	strb	r0, [r1, #1]!
	.loc 1 3998 33 is_stmt 1 view .LVU1298
.LVL399:
	.loc 1 3998 22 view .LVU1299
	bne	.L336
	b	.L331
.LVL400:
.L391:
	.loc 1 4009 22 view .LVU1300
	ldr	r2, [sp, #8]
.LVL401:
	.loc 1 4009 22 is_stmt 0 view .LVU1301
	cmp	r2, #0
	movne	r1, r7
	movne	r2, r10
	beq	.L346
.LVL402:
.L339:
	.loc 1 4009 41 is_stmt 1 view .LVU1302
	.loc 1 4009 60 is_stmt 0 view .LVU1303
	ldrb	r0, [r2, #1]!	@ zero_extendqisi2
.LVL403:
	.loc 1 4009 22 view .LVU1304
	cmp	r2, r9
	.loc 1 4009 50 view .LVU1305
	strb	r0, [r1, #1]!
	.loc 1 4009 36 is_stmt 1 view .LVU1306
.LVL404:
	.loc 1 4009 22 view .LVU1307
	bne	.L339
.LVL405:
.L346:
	.loc 1 4010 30 view .LVU1308
	ldmib	sp, {r1, r2}
	cmp	r2, r1
	bcs	.L331
	mov	ip, r7
	mov	r1, r9
	ldr	r2, [sp, #8]
	add	r0, r2, r7
.LVL406:
.L347:
	.loc 1 4010 45 view .LVU1309
	.loc 1 4010 68 is_stmt 0 view .LVU1310
	ldrb	r2, [r1, #1]!	@ zero_extendqisi2
.LVL407:
	.loc 1 4010 68 view .LVU1311
	ldrb	lr, [ip, #1]!	@ zero_extendqisi2
	.loc 1 4010 30 view .LVU1312
	cmp	r1, r3
	.loc 1 4010 68 view .LVU1313
	add	r2, r2, lr, lsr #1
	.loc 1 4010 54 view .LVU1314
	strb	r2, [r0, #1]!
	.loc 1 4010 40 is_stmt 1 view .LVU1315
.LVL408:
	.loc 1 4010 30 view .LVU1316
	bne	.L347
	b	.L331
.LVL409:
.L360:
	.loc 1 3982 3 is_stmt 0 view .LVU1317
	mov	r0, #36
.LVL410:
	.loc 1 3982 3 view .LVU1318
	b	.L320
.LBE999:
.LBE1000:
.LBE1001:
.LBE1003:
	.cfi_endproc
.LFE154:
	.size	unfilter, .-unfilter
	.section	.text.addPaddingBits,"ax",%progbits
	.align	2
	.syntax unified
	.arm
	.fpu vfp
	.type	addPaddingBits, %function
addPaddingBits:
.LVL411:
.LFB194:
	.loc 1 5431 1 is_stmt 1 view -0
	.cfi_startproc
	@ args = 4, pretend = 0, frame = 16
	@ frame_needed = 0, uses_anonymous_args = 0
	.loc 1 5434 3 view .LVU1320
	.loc 1 5435 3 view .LVU1321
	.loc 1 5431 1 is_stmt 0 view .LVU1322
	push	{r4, r5, r6, r7, r8, r9, r10, fp, lr}
	.cfi_def_cfa_offset 36
	.cfi_offset 4, -36
	.cfi_offset 5, -32
	.cfi_offset 6, -28
	.cfi_offset 7, -24
	.cfi_offset 8, -20
	.cfi_offset 9, -16
	.cfi_offset 10, -12
	.cfi_offset 11, -8
	.cfi_offset 14, -4
	sub	sp, sp, #20
	.cfi_def_cfa_offset 56
	.loc 1 5437 16 view .LVU1323
	ldr	ip, [sp, #56]
	.loc 1 5431 1 view .LVU1324
	str	r3, [sp, #4]
	.loc 1 5437 16 view .LVU1325
	cmp	ip, #0
	.loc 1 5436 10 view .LVU1326
	movne	r8, #0
	.loc 1 5435 10 view .LVU1327
	sub	r3, r2, r3
.LVL412:
.LBB1012:
.LBB1013:
.LBB1014:
.LBB1015:
	.loc 1 2412 69 view .LVU1328
	movne	r7, #1
.LBE1015:
.LBE1014:
.LBE1013:
.LBE1012:
	.loc 1 5436 19 view .LVU1329
	movne	r9, r8
	.loc 1 5435 10 view .LVU1330
	str	r3, [sp, #12]
.LVL413:
	.loc 1 5436 3 is_stmt 1 view .LVU1331
	.loc 1 5437 3 view .LVU1332
	.loc 1 5437 16 view .LVU1333
	.loc 1 5437 9 is_stmt 0 view .LVU1334
	strne	r8, [sp, #8]
	.loc 1 5437 16 view .LVU1335
	beq	.L393
.LVL414:
.L394:
.LBB1041:
	.loc 1 5440 18 is_stmt 1 view .LVU1336
	ldr	r3, [sp, #4]
	cmp	r3, #0
	moveq	r3, r8
	beq	.L402
	mov	r2, r9
	ldr	r3, [sp, #4]
	sub	fp, r8, r2
	add	r9, r3, r9
	sub	r10, r2, r8
.LVL415:
.L398:
.LBB1036:
.LBB1022:
.LBB1016:
	.loc 1 2412 16 view .LVU1337
	.loc 1 2413 8 view .LVU1338
.LBE1016:
.LBE1022:
.LBB1023:
.LBB1024:
	.loc 1 2379 79 is_stmt 0 view .LVU1339
	mvn	lr, r2
	.loc 1 2379 52 view .LVU1340
	ldrb	ip, [r1, r2, lsr #3]	@ zero_extendqisi2
	add	r4, fp, r2
.LVL416:
	.loc 1 2379 52 view .LVU1341
.LBE1024:
.LBE1023:
	.loc 1 5442 7 is_stmt 1 view .LVU1342
.LBB1028:
.LBI1023:
	.loc 1 2377 22 view .LVU1343
.LBB1025:
	.loc 1 2379 3 view .LVU1344
	.loc 1 2380 3 is_stmt 0 view .LVU1345
	add	r2, r2, #1
.LVL417:
	.loc 1 2380 3 view .LVU1346
.LBE1025:
.LBE1028:
.LBB1029:
.LBB1017:
	.loc 1 2412 75 view .LVU1347
	sub	r3, r10, r2
	and	r3, r3, #7
.LBE1017:
.LBE1029:
.LBB1030:
.LBB1026:
	.loc 1 2379 79 view .LVU1348
	and	lr, lr, #7
.LBE1026:
.LBE1030:
.LBB1031:
.LBB1018:
	.loc 1 2412 46 view .LVU1349
	ldrb	r5, [r0, r4, lsr #3]	@ zero_extendqisi2
	.loc 1 2412 69 view .LVU1350
	lsl	r3, r7, r3
.LBE1018:
.LBE1031:
.LBB1032:
.LBB1027:
	.loc 1 2379 73 view .LVU1351
	asr	ip, ip, lr
.LVL418:
	.loc 1 2380 3 is_stmt 1 view .LVU1352
	.loc 1 2381 3 view .LVU1353
	.loc 1 2381 3 is_stmt 0 view .LVU1354
.LBE1027:
.LBE1032:
	.loc 1 5443 7 is_stmt 1 view .LVU1355
.LBB1033:
.LBI1014:
	.loc 1 2409 13 view .LVU1356
.LBB1019:
	.loc 1 2412 3 view .LVU1357
	.loc 1 2412 49 is_stmt 0 view .LVU1358
	uxtb	r3, r3
	.loc 1 2412 5 view .LVU1359
	tst	ip, #1
	.loc 1 2412 46 view .LVU1360
	bic	r6, r5, r3
	.loc 1 2413 38 view .LVU1361
	orrne	r6, r5, r3
.LBE1019:
.LBE1033:
.LBE1036:
	.loc 1 5440 18 view .LVU1362
	cmp	r2, r9
.LBB1037:
.LBB1034:
.LBB1020:
	.loc 1 2412 46 view .LVU1363
	strb	r6, [r0, r4, lsr #3]
	.loc 1 2414 3 is_stmt 1 view .LVU1364
.LVL419:
	.loc 1 2414 3 is_stmt 0 view .LVU1365
.LBE1020:
.LBE1034:
.LBE1037:
	.loc 1 5440 31 is_stmt 1 view .LVU1366
	.loc 1 5440 18 view .LVU1367
	bne	.L398
.LBB1038:
.LBB1035:
.LBB1021:
	.loc 1 2414 3 is_stmt 0 view .LVU1368
	mov	r9, r2
	ldr	r3, [sp, #4]
	add	r3, r3, r8
.LVL420:
.L402:
	.loc 1 2414 3 view .LVU1369
.LBE1021:
.LBE1035:
.LBE1038:
	.loc 1 5447 18 is_stmt 1 view .LVU1370
	ldr	r2, [sp, #12]
	cmp	r2, #0
	beq	.L404
	add	r8, r2, r3
.L400:
	.loc 1 5447 32 view .LVU1371
.LVL421:
.LBB1039:
.LBI1039:
	.loc 1 2409 13 view .LVU1372
.LBB1040:
	.loc 1 2412 3 view .LVU1373
	.loc 1 2412 16 view .LVU1374
	.loc 1 2412 75 is_stmt 0 view .LVU1375
	mvn	ip, r3
	.loc 1 2412 46 view .LVU1376
	ldrb	r2, [r0, r3, lsr #3]	@ zero_extendqisi2
	.loc 1 2412 75 view .LVU1377
	and	ip, ip, #7
	.loc 1 2412 46 view .LVU1378
	bic	r2, r2, r7, lsl ip
	strb	r2, [r0, r3, lsr #3]
	.loc 1 2414 3 is_stmt 1 view .LVU1379
	add	r3, r3, #1
.LVL422:
	.loc 1 2414 3 is_stmt 0 view .LVU1380
.LBE1040:
.LBE1039:
	.loc 1 5447 27 is_stmt 1 view .LVU1381
	.loc 1 5447 18 view .LVU1382
	cmp	r3, r8
	bne	.L400
.L399:
	.loc 1 5447 18 is_stmt 0 view .LVU1383
.LBE1041:
	.loc 1 5437 22 is_stmt 1 discriminator 2 view .LVU1384
	ldr	r3, [sp, #8]
.LVL423:
	.loc 1 5437 16 is_stmt 0 discriminator 2 view .LVU1385
	ldr	r2, [sp, #56]
	.loc 1 5437 22 discriminator 2 view .LVU1386
	add	r3, r3, #1
	.loc 1 5437 16 discriminator 2 view .LVU1387
	cmp	r2, r3
	.loc 1 5437 22 discriminator 2 view .LVU1388
	str	r3, [sp, #8]
.LVL424:
	.loc 1 5437 16 is_stmt 1 discriminator 2 view .LVU1389
	bne	.L394
.LVL425:
.L393:
	.loc 1 5449 1 is_stmt 0 view .LVU1390
	add	sp, sp, #20
	.cfi_remember_state
	.cfi_def_cfa_offset 36
	@ sp needed
	pop	{r4, r5, r6, r7, r8, r9, r10, fp, pc}
.LVL426:
.L404:
	.cfi_restore_state
.LBB1042:
	.loc 1 5447 18 view .LVU1391
	mov	r8, r3
	b	.L399
.LBE1042:
	.cfi_endproc
.LFE194:
	.size	addPaddingBits, .-addPaddingBits
	.section	.text.removePaddingBits,"ax",%progbits
	.align	2
	.syntax unified
	.arm
	.fpu vfp
	.type	removePaddingBits, %function
removePaddingBits:
.LVL427:
.LFB156:
	.loc 1 4137 1 is_stmt 1 view -0
	.cfi_startproc
	@ args = 4, pretend = 0, frame = 16
	@ frame_needed = 0, uses_anonymous_args = 0
	.loc 1 4147 3 view .LVU1393
	.loc 1 4148 3 view .LVU1394
	.loc 1 4137 1 is_stmt 0 view .LVU1395
	push	{r4, r5, r6, r7, r8, r9, r10, fp, lr}
	.cfi_def_cfa_offset 36
	.cfi_offset 4, -36
	.cfi_offset 5, -32
	.cfi_offset 6, -28
	.cfi_offset 7, -24
	.cfi_offset 8, -20
	.cfi_offset 9, -16
	.cfi_offset 10, -12
	.cfi_offset 11, -8
	.cfi_offset 14, -4
	sub	sp, sp, #20
	.cfi_def_cfa_offset 56
	.loc 1 4150 16 view .LVU1396
	ldr	ip, [sp, #56]
	.loc 1 4148 10 view .LVU1397
	sub	r3, r3, r2
.LVL428:
	.loc 1 4150 16 view .LVU1398
	cmp	ip, #0
	.loc 1 4149 19 view .LVU1399
	movne	fp, #0
.LBB1049:
.LBB1050:
.LBB1051:
.LBB1052:
	.loc 1 2412 69 view .LVU1400
	movne	r10, #1
.LBE1052:
.LBE1051:
.LBE1050:
.LBE1049:
	.loc 1 4149 10 view .LVU1401
	movne	r7, fp
	.loc 1 4137 1 view .LVU1402
	str	r2, [sp, #4]
	.loc 1 4148 10 view .LVU1403
	str	r3, [sp, #12]
.LVL429:
	.loc 1 4149 3 is_stmt 1 view .LVU1404
	.loc 1 4150 3 view .LVU1405
	.loc 1 4150 16 view .LVU1406
	.loc 1 4150 9 is_stmt 0 view .LVU1407
	strne	fp, [sp, #8]
	.loc 1 4150 16 view .LVU1408
	beq	.L408
.LVL430:
.L409:
.LBB1076:
	.loc 1 4153 18 is_stmt 1 view .LVU1409
	ldr	r3, [sp, #4]
	cmp	r3, #0
	beq	.L415
	mov	r2, r7
	ldr	r3, [sp, #4]
	sub	r9, fp, r2
	add	r7, r3, r7
	sub	r8, r2, fp
.LVL431:
.L413:
.LBB1073:
.LBB1059:
.LBB1053:
	.loc 1 2412 16 view .LVU1410
	.loc 1 2413 8 view .LVU1411
.LBE1053:
.LBE1059:
.LBB1060:
.LBB1061:
	.loc 1 2379 79 is_stmt 0 view .LVU1412
	mvn	lr, r2
	.loc 1 2379 52 view .LVU1413
	ldrb	ip, [r1, r2, lsr #3]	@ zero_extendqisi2
	add	r4, r9, r2
.LVL432:
	.loc 1 2379 52 view .LVU1414
.LBE1061:
.LBE1060:
	.loc 1 4155 7 is_stmt 1 view .LVU1415
.LBB1065:
.LBI1060:
	.loc 1 2377 22 view .LVU1416
.LBB1062:
	.loc 1 2379 3 view .LVU1417
	.loc 1 2380 3 is_stmt 0 view .LVU1418
	add	r2, r2, #1
.LVL433:
	.loc 1 2380 3 view .LVU1419
.LBE1062:
.LBE1065:
.LBB1066:
.LBB1054:
	.loc 1 2412 75 view .LVU1420
	sub	r3, r8, r2
	and	r3, r3, #7
.LBE1054:
.LBE1066:
.LBB1067:
.LBB1063:
	.loc 1 2379 79 view .LVU1421
	and	lr, lr, #7
.LBE1063:
.LBE1067:
.LBB1068:
.LBB1055:
	.loc 1 2412 46 view .LVU1422
	ldrb	r5, [r0, r4, lsr #3]	@ zero_extendqisi2
	.loc 1 2412 69 view .LVU1423
	lsl	r3, r10, r3
.LBE1055:
.LBE1068:
.LBB1069:
.LBB1064:
	.loc 1 2379 73 view .LVU1424
	asr	ip, ip, lr
.LVL434:
	.loc 1 2380 3 is_stmt 1 view .LVU1425
	.loc 1 2381 3 view .LVU1426
	.loc 1 2381 3 is_stmt 0 view .LVU1427
.LBE1064:
.LBE1069:
	.loc 1 4156 7 is_stmt 1 view .LVU1428
.LBB1070:
.LBI1051:
	.loc 1 2409 13 view .LVU1429
.LBB1056:
	.loc 1 2412 3 view .LVU1430
	.loc 1 2412 49 is_stmt 0 view .LVU1431
	uxtb	r3, r3
	.loc 1 2412 5 view .LVU1432
	tst	ip, #1
	.loc 1 2412 46 view .LVU1433
	bic	r6, r5, r3
	.loc 1 2413 38 view .LVU1434
	orrne	r6, r5, r3
.LBE1056:
.LBE1070:
.LBE1073:
	.loc 1 4153 18 view .LVU1435
	cmp	r2, r7
.LBB1074:
.LBB1071:
.LBB1057:
	.loc 1 2412 46 view .LVU1436
	strb	r6, [r0, r4, lsr #3]
	.loc 1 2414 3 is_stmt 1 view .LVU1437
.LVL435:
	.loc 1 2414 3 is_stmt 0 view .LVU1438
.LBE1057:
.LBE1071:
.LBE1074:
	.loc 1 4153 31 is_stmt 1 view .LVU1439
	.loc 1 4153 18 view .LVU1440
	bne	.L413
.LBB1075:
.LBB1072:
.LBB1058:
	.loc 1 2414 3 is_stmt 0 view .LVU1441
	ldr	r3, [sp, #4]
	add	fp, fp, r3
.LVL436:
.L415:
	.loc 1 2414 3 view .LVU1442
.LBE1058:
.LBE1072:
.LBE1075:
	.loc 1 4158 5 is_stmt 1 discriminator 2 view .LVU1443
.LBE1076:
	.loc 1 4150 21 is_stmt 0 discriminator 2 view .LVU1444
	ldr	r3, [sp, #8]
	.loc 1 4150 16 discriminator 2 view .LVU1445
	ldr	r2, [sp, #56]
	.loc 1 4150 21 discriminator 2 view .LVU1446
	add	r3, r3, #1
	str	r3, [sp, #8]
.LVL437:
	.loc 1 4150 16 discriminator 2 view .LVU1447
	cmp	r2, r3
.LBB1077:
	.loc 1 4158 9 discriminator 2 view .LVU1448
	ldr	r3, [sp, #12]
	add	r7, r3, r7
.LVL438:
	.loc 1 4158 9 discriminator 2 view .LVU1449
.LBE1077:
	.loc 1 4150 21 is_stmt 1 discriminator 2 view .LVU1450
	.loc 1 4150 16 discriminator 2 view .LVU1451
	bne	.L409
.LVL439:
.L408:
	.loc 1 4160 1 is_stmt 0 view .LVU1452
	add	sp, sp, #20
	.cfi_def_cfa_offset 36
	@ sp needed
	pop	{r4, r5, r6, r7, r8, r9, r10, fp, pc}
	.cfi_endproc
.LFE156:
	.size	removePaddingBits, .-removePaddingBits
	.section	.text.uivector_push_back,"ax",%progbits
	.align	2
	.syntax unified
	.arm
	.fpu vfp
	.type	uivector_push_back, %function
uivector_push_back:
.LVL440:
.LFB11:
	.loc 1 194 1 is_stmt 1 view -0
	.cfi_startproc
	@ args = 0, pretend = 0, frame = 0
	@ frame_needed = 0, uses_anonymous_args = 0
	.loc 1 195 3 view .LVU1454
	.loc 1 194 1 is_stmt 0 view .LVU1455
	push	{r4, r5, r6, r7, r8, lr}
	.cfi_def_cfa_offset 24
	.cfi_offset 4, -24
	.cfi_offset 5, -20
	.cfi_offset 6, -16
	.cfi_offset 7, -12
	.cfi_offset 8, -8
	.cfi_offset 14, -4
	.loc 1 195 7 view .LVU1456
	ldr	r5, [r0, #4]
.LBB1087:
.LBB1088:
.LBB1089:
.LBB1090:
	.loc 1 154 19 view .LVU1457
	ldr	r3, [r0, #8]
.LBE1090:
.LBE1089:
.LBE1088:
.LBE1087:
	.loc 1 195 7 view .LVU1458
	add	r5, r5, #1
.LVL441:
.LBB1104:
.LBI1087:
	.loc 1 169 17 is_stmt 1 view .LVU1459
.LBB1101:
	.loc 1 171 3 view .LVU1460
.LBB1098:
.LBB1095:
	.loc 1 154 5 is_stmt 0 view .LVU1461
	cmp	r3, r5, lsl #2
.LBE1095:
.LBE1098:
.LBE1101:
.LBE1104:
	.loc 1 194 1 view .LVU1462
	mov	r4, r0
	mov	r6, r1
.LBB1105:
.LBB1102:
.LBB1099:
.LBB1096:
.LBB1091:
	.loc 1 157 35 view .LVU1463
	ldr	r0, [r0]
.LVL442:
	.loc 1 157 35 view .LVU1464
.LBE1091:
.LBE1096:
.LBE1099:
	.loc 1 171 7 view .LVU1465
	lsl	r8, r5, #2
.LVL443:
.LBB1100:
.LBI1089:
	.loc 1 152 17 is_stmt 1 view .LVU1466
.LBB1097:
	.loc 1 154 3 view .LVU1467
	.loc 1 154 5 is_stmt 0 view .LVU1468
	bcs	.L420
.LBB1094:
	.loc 1 156 5 is_stmt 1 view .LVU1469
	.loc 1 156 65 is_stmt 0 view .LVU1470
	cmp	r8, r3, lsl #1
	movhi	r7, r8
	.loc 1 156 78 view .LVU1471
	addls	r7, r5, r5, lsl #1
	lslls	r7, r7, #2
	.loc 1 156 65 view .LVU1472
	lsrls	r7, r7, #1
.LVL444:
	.loc 1 157 5 is_stmt 1 view .LVU1473
.LBB1092:
.LBI1092:
	.loc 1 68 14 view .LVU1474
.LBB1093:
	.loc 1 70 3 view .LVU1475
	.loc 1 70 10 is_stmt 0 view .LVU1476
	mov	r1, r7
.LVL445:
	.loc 1 70 10 view .LVU1477
	bl	realloc
.LVL446:
	.loc 1 70 10 view .LVU1478
.LBE1093:
.LBE1092:
	.loc 1 158 5 is_stmt 1 view .LVU1479
	.loc 1 158 7 is_stmt 0 view .LVU1480
	cmp	r0, #0
	.loc 1 158 7 view .LVU1481
	popeq	{r4, r5, r6, r7, r8, pc}
	.loc 1 160 7 is_stmt 1 view .LVU1482
	.loc 1 160 20 is_stmt 0 view .LVU1483
	str	r7, [r4, #8]
	.loc 1 161 7 is_stmt 1 view .LVU1484
	.loc 1 161 15 is_stmt 0 view .LVU1485
	str	r0, [r4]
.LVL447:
.L420:
	.loc 1 161 15 view .LVU1486
.LBE1094:
.LBE1097:
.LBE1100:
	.loc 1 172 3 is_stmt 1 view .LVU1487
.LBE1102:
.LBE1105:
.LBB1106:
.LBB1107:
	.loc 1 196 24 is_stmt 0 view .LVU1488
	add	r3, r0, r8
.LBE1107:
.LBE1106:
.LBB1109:
.LBB1103:
	.loc 1 172 11 view .LVU1489
	str	r5, [r4, #4]
	.loc 1 173 3 is_stmt 1 view .LVU1490
.LVL448:
	.loc 1 173 3 is_stmt 0 view .LVU1491
.LBE1103:
.LBE1109:
.LBB1110:
.LBI1106:
	.loc 1 193 17 is_stmt 1 view .LVU1492
.LBB1108:
	.loc 1 196 3 view .LVU1493
	.loc 1 196 24 is_stmt 0 view .LVU1494
	mov	r0, #1
	str	r6, [r3, #-4]
	.loc 1 197 3 is_stmt 1 view .LVU1495
.LVL449:
	.loc 1 197 3 is_stmt 0 view .LVU1496
.LBE1108:
.LBE1110:
	.loc 1 198 1 view .LVU1497
	pop	{r4, r5, r6, r7, r8, pc}
	.cfi_endproc
.LFE11:
	.size	uivector_push_back, .-uivector_push_back
	.section	.text.encodeLZ77.constprop.0,"ax",%progbits
	.align	2
	.syntax unified
	.arm
	.fpu vfp
	.type	encodeLZ77.constprop.0, %function
encodeLZ77.constprop.0:
.LVL450:
.LFB221:
	.loc 1 1474 17 is_stmt 1 view -0
	.cfi_startproc
	@ args = 20, pretend = 0, frame = 56
	@ frame_needed = 0, uses_anonymous_args = 0
	.loc 1 1474 17 is_stmt 0 view .LVU1499
	push	{r4, r5, r6, r7, r8, r9, r10, fp, lr}
	.cfi_def_cfa_offset 36
	.cfi_offset 4, -36
	.cfi_offset 5, -32
	.cfi_offset 6, -28
	.cfi_offset 7, -24
	.cfi_offset 8, -20
	.cfi_offset 9, -16
	.cfi_offset 10, -12
	.cfi_offset 11, -8
	.cfi_offset 14, -4
	vpush.64	{d8}
	.cfi_def_cfa_offset 44
	.cfi_offset 80, -44
	.cfi_offset 81, -40
	sub	sp, sp, #60
	.cfi_def_cfa_offset 104
	.loc 1 1481 61 view .LVU1500
	ldr	ip, [sp, #108]
	.loc 1 1474 17 view .LVU1501
	str	r3, [sp, #4]
	.loc 1 1481 61 view .LVU1502
	cmp	ip, #8192
	ldrcc	r3, [sp, #108]
.LVL451:
	.loc 1 1481 61 view .LVU1503
	ldrcs	r3, [sp, #108]
	lsrcc	r3, r3, #3
	strcc	r3, [sp]
	strcs	r3, [sp]
	.loc 1 1497 22 view .LVU1504
	ldr	r3, [sp, #108]
	.loc 1 1474 17 view .LVU1505
	str	r2, [sp, #20]
	.loc 1 1478 3 is_stmt 1 view .LVU1506
	.loc 1 1479 3 view .LVU1507
.LVL452:
	.loc 1 1481 3 view .LVU1508
	.loc 1 1482 3 view .LVU1509
	.loc 1 1497 22 is_stmt 0 view .LVU1510
	sub	r3, r3, #1
	.loc 1 1482 77 view .LVU1511
	movcc	r2, #64
.LVL453:
	.loc 1 1482 77 view .LVU1512
	ldrcs	r2, .L551
.LVL454:
	.loc 1 1484 3 is_stmt 1 view .LVU1513
	.loc 1 1485 3 view .LVU1514
	.loc 1 1487 3 view .LVU1515
	.loc 1 1488 3 view .LVU1516
	.loc 1 1489 3 view .LVU1517
	.loc 1 1490 3 view .LVU1518
	.loc 1 1491 3 view .LVU1519
	.loc 1 1492 3 view .LVU1520
	.loc 1 1493 3 view .LVU1521
	.loc 1 1494 3 view .LVU1522
	.loc 1 1495 3 view .LVU1523
	.loc 1 1497 3 view .LVU1524
	.loc 1 1497 5 is_stmt 0 view .LVU1525
	cmp	r3, #32768
	.loc 1 1474 17 view .LVU1526
	vmov	s16, r0	@ int
	mov	r7, r1
	ldr	ip, [sp, #116]
	.loc 1 1497 22 view .LVU1527
	str	r3, [sp, #32]
	.loc 1 1497 5 view .LVU1528
	bcs	.L485
	.loc 1 1498 3 is_stmt 1 view .LVU1529
	.loc 1 1498 5 is_stmt 0 view .LVU1530
	ldr	r1, [sp, #108]
.LVL455:
	.loc 1 1498 5 view .LVU1531
	ands	r1, r1, r3
	mov	fp, r1
	str	r1, [sp, #44]
	bne	.L486
	.loc 1 1500 3 is_stmt 1 view .LVU1532
	ldr	r3, .L551
	.loc 1 1502 24 is_stmt 0 view .LVU1533
	ldr	r0, [sp, #4]
.LVL456:
	.loc 1 1502 24 view .LVU1534
	cmp	ip, r3
	movcc	r3, ip
	str	r3, [sp, #28]
.LVL457:
	.loc 1 1502 3 is_stmt 1 view .LVU1535
	.loc 1 1502 24 view .LVU1536
	ldr	r3, [sp, #104]
.LVL458:
	.loc 1 1502 24 is_stmt 0 view .LVU1537
	cmp	r3, r0
	bls	.L426
.LBB1131:
	.loc 1 1587 57 view .LVU1538
	ldr	r3, .L551+4
.LBE1131:
	.loc 1 1490 28 view .LVU1539
	str	r1, [sp, #52]
.LBB1161:
	.loc 1 1587 57 view .LVU1540
	cmp	r2, r3
	movcc	r3, r2
.LBE1161:
	.loc 1 1490 12 view .LVU1541
	str	r1, [sp, #40]
.LBB1162:
	.loc 1 1587 57 view .LVU1542
	str	r3, [sp, #48]
.LBE1162:
	.loc 1 1489 12 view .LVU1543
	str	r1, [sp, #36]
.LVL459:
.L429:
.LBB1163:
	.loc 1 1504 5 is_stmt 1 view .LVU1544
	.loc 1 1507 15 is_stmt 0 view .LVU1545
	ldr	r4, [sp, #4]
	ldr	r1, [sp, #104]
	mov	r2, r4
	ldr	r0, [sp, #20]
	bl	getHash
.LVL460:
	.loc 1 1509 7 view .LVU1546
	subs	r3, r0, #0
	.loc 1 1516 16 view .LVU1547
	movne	fp, #0
.LVL461:
	.loc 1 1504 12 view .LVU1548
	ldr	r2, [sp, #32]
	.loc 1 1509 7 view .LVU1549
	str	r3, [sp, #12]
	.loc 1 1504 12 view .LVU1550
	and	r1, r2, r4
.LVL462:
	.loc 1 1505 5 is_stmt 1 view .LVU1551
	.loc 1 1507 5 view .LVU1552
	.loc 1 1509 5 view .LVU1553
	movne	r3, fp
	.loc 1 1509 7 is_stmt 0 view .LVU1554
	bne	.L430
	.loc 1 1511 7 is_stmt 1 view .LVU1555
	.loc 1 1511 9 is_stmt 0 view .LVU1556
	cmp	fp, #0
	beq	.L542
	.loc 1 1512 12 is_stmt 1 view .LVU1557
	.loc 1 1512 19 is_stmt 0 view .LVU1558
	ldr	r3, [sp, #4]
	.loc 1 1512 14 view .LVU1559
	ldr	r2, [sp, #104]
	.loc 1 1512 19 view .LVU1560
	add	r3, fp, r3
	.loc 1 1512 14 view .LVU1561
	cmp	r2, r3
	bcc	.L435
	.loc 1 1512 44 view .LVU1562
	ldr	r2, [sp, #20]
	add	r3, r2, r3
	.loc 1 1512 39 view .LVU1563
	ldrb	r3, [r3, #-1]	@ zero_extendqisi2
	cmp	r3, #0
	beq	.L539
.L435:
	.loc 1 1512 71 is_stmt 1 view .LVU1564
	sub	fp, fp, #1
.L539:
.LVL463:
	.loc 1 1519 5 is_stmt 0 view .LVU1565
	uxth	r3, fp
.LVL464:
.L430:
	.loc 1 1519 5 is_stmt 1 view .LVU1566
	mov	r0, r7
	ldr	r2, [sp, #12]
	bl	updateHashChain
.LVL465:
	.loc 1 1522 5 view .LVU1567
	.loc 1 1523 5 view .LVU1568
	.loc 1 1525 5 view .LVU1569
	.loc 1 1527 13 is_stmt 0 view .LVU1570
	ldr	r2, [sp, #20]
	.loc 1 1527 32 view .LVU1571
	ldr	r0, [sp, #4]
	.loc 1 1527 13 view .LVU1572
	mov	r8, r2
	ldr	ip, [sp, #104]
	.loc 1 1527 32 view .LVU1573
	add	r3, r0, #256
	add	r3, r3, #2
	.loc 1 1527 13 view .LVU1574
	cmp	r3, ip
	addls	r8, r8, r3
	addhi	r8, r8, ip
	.loc 1 1533 9 view .LVU1575
	ldr	r3, [sp]
	.loc 1 1525 19 view .LVU1576
	ldr	r9, [r7, #4]
	.loc 1 1533 9 view .LVU1577
	cmp	r3, #0
	.loc 1 1525 26 view .LVU1578
	lsl	r3, r1, #1
	.loc 1 1525 13 view .LVU1579
	ldrh	ip, [r9, r3]
.LVL466:
	.loc 1 1527 5 is_stmt 1 view .LVU1580
	.loc 1 1530 5 view .LVU1581
	.loc 1 1531 5 view .LVU1582
	.loc 1 1533 7 view .LVU1583
	.loc 1 1533 9 is_stmt 0 view .LVU1584
	beq	.L436
	.loc 1 1523 12 view .LVU1585
	mov	r3, #0
	.loc 1 1534 57 view .LVU1586
	ldr	r4, [sp, #108]
	.loc 1 1541 17 view .LVU1587
	add	r2, r2, r0
	.loc 1 1534 57 view .LVU1588
	add	r4, r4, r1
	.loc 1 1533 21 view .LVU1589
	mov	lr, #1
	.loc 1 1522 12 view .LVU1590
	mov	r10, r3
	.loc 1 1523 12 view .LVU1591
	str	r3, [sp, #24]
	.loc 1 1534 57 view .LVU1592
	str	r4, [sp, #16]
	.loc 1 1541 17 view .LVU1593
	str	r2, [sp, #8]
	b	.L437
.LVL467:
.L544:
	.loc 1 1574 9 is_stmt 1 view .LVU1594
	.loc 1 1574 31 is_stmt 0 view .LVU1595
	ldr	r3, [r7, #16]
	.loc 1 1574 17 view .LVU1596
	ldrh	ip, [r3, r2]
.LVL468:
	.loc 1 1575 9 is_stmt 1 view .LVU1597
	.loc 1 1575 23 is_stmt 0 view .LVU1598
	ldr	r2, [r7, #20]
	lsl	r3, ip, #1
	ldrh	r3, [r2, r3]
	.loc 1 1575 11 view .LVU1599
	cmp	fp, r3
	bne	.L438
	.loc 1 1531 5 is_stmt 1 view .LVU1600
	.loc 1 1533 7 view .LVU1601
	.loc 1 1533 9 is_stmt 0 view .LVU1602
	ldr	r3, [sp]
	cmp	lr, r3
	.loc 1 1533 21 view .LVU1603
	add	lr, lr, #1
.LVL469:
	.loc 1 1533 9 view .LVU1604
	beq	.L438
.L545:
	.loc 1 1533 9 view .LVU1605
	mov	r3, r6
.LVL470:
.L437:
	.loc 1 1534 7 is_stmt 1 view .LVU1606
	.loc 1 1534 57 is_stmt 0 view .LVU1607
	cmp	r1, ip
	ldrcc	r2, [sp, #16]
	subcs	r6, r1, ip
	subcc	r6, r2, ip
.LVL471:
	.loc 1 1536 7 is_stmt 1 view .LVU1608
	.loc 1 1536 9 is_stmt 0 view .LVU1609
	cmp	r6, r3
	bcc	.L438
	.loc 1 1537 7 is_stmt 1 view .LVU1610
.LVL472:
	.loc 1 1538 7 view .LVU1611
	.loc 1 1538 9 is_stmt 0 view .LVU1612
	cmp	r6, #0
	bne	.L543
.L441:
	.loc 1 1570 7 is_stmt 1 view .LVU1613
	.loc 1 1570 32 is_stmt 0 view .LVU1614
	lsl	r2, ip, #1
	ldrh	r3, [r9, r2]
	.loc 1 1570 9 view .LVU1615
	cmp	r3, ip
	beq	.L438
	.loc 1 1572 7 is_stmt 1 view .LVU1616
	.loc 1 1572 9 is_stmt 0 view .LVU1617
	cmp	fp, #2
	movls	r0, #0
	movhi	r0, #1
	cmp	fp, r10
	movcs	r0, #0
	cmp	r0, #0
	bne	.L544
.L446:
	.loc 1 1579 9 is_stmt 1 view .LVU1618
.LVL473:
	.loc 1 1581 9 view .LVU1619
	.loc 1 1581 21 is_stmt 0 view .LVU1620
	ldr	r2, [r7, #8]
	.loc 1 1581 11 view .LVU1621
	ldr	r0, [sp, #12]
	ldr	r2, [r2, r3, lsl #2]
	cmp	r2, r0
	bne	.L438
	mov	ip, r3
	.loc 1 1531 5 is_stmt 1 view .LVU1622
	.loc 1 1533 7 view .LVU1623
	.loc 1 1533 9 is_stmt 0 view .LVU1624
	ldr	r3, [sp]
.LVL474:
	.loc 1 1533 9 view .LVU1625
	cmp	lr, r3
	.loc 1 1533 21 view .LVU1626
	add	lr, lr, #1
.LVL475:
	.loc 1 1533 9 view .LVU1627
	bne	.L545
.LVL476:
.L438:
	.loc 1 1585 5 is_stmt 1 view .LVU1628
	.loc 1 1585 7 is_stmt 0 view .LVU1629
	ldr	r2, [sp, #120]
	.loc 1 1587 26 view .LVU1630
	cmp	r10, #2
	movls	r3, #0
	movhi	r3, #1
	.loc 1 1585 7 view .LVU1631
	cmp	r2, #0
	bne	.L448
	.loc 1 1613 20 view .LVU1632
	ldr	r2, [sp, #108]
	ldr	r1, [sp, #24]
.LVL477:
	.loc 1 1613 20 view .LVU1633
	cmp	r2, r1
	movcs	r3, #0
	andcc	r3, r3, #1
.LVL478:
.L449:
	.loc 1 1613 5 is_stmt 1 view .LVU1634
	.loc 1 1613 7 is_stmt 0 view .LVU1635
	cmp	r3, #0
	bne	.L479
.LVL479:
.L456:
	.loc 1 1613 65 is_stmt 1 view .LVU1636
	.loc 1 1616 5 view .LVU1637
	.loc 1 1616 7 is_stmt 0 view .LVU1638
	cmp	r10, #2
	bls	.L459
	.loc 1 1620 10 is_stmt 1 view .LVU1639
	.loc 1 1620 12 is_stmt 0 view .LVU1640
	ldr	r3, [sp, #112]
	cmp	r10, r3
	bcc	.L459
	.loc 1 1620 31 view .LVU1641
	sub	r3, r10, #3
	clz	r3, r3
	ldr	r2, [sp, #24]
	lsr	r3, r3, #5
	cmp	r2, #4096
	movls	r3, #0
	cmp	r3, #0
	beq	.L460
.LVL480:
.L459:
	.loc 1 1624 7 is_stmt 1 view .LVU1642
	.loc 1 1624 11 is_stmt 0 view .LVU1643
	ldr	r3, [sp, #20]
	ldr	r2, [sp, #4]
	vmov	r0, s16	@ int
	ldrb	r1, [r3, r2]	@ zero_extendqisi2
	bl	uivector_push_back
.LVL481:
	.loc 1 1624 9 view .LVU1644
	cmp	r0, #0
	beq	.L458
.LVL482:
.L451:
	.loc 1 1624 9 view .LVU1645
.LBE1163:
	.loc 1 1502 34 is_stmt 1 view .LVU1646
	.loc 1 1502 34 is_stmt 0 view .LVU1647
	ldr	r3, [sp, #4]
	.loc 1 1502 24 view .LVU1648
	ldr	r2, [sp, #104]
	.loc 1 1502 34 view .LVU1649
	add	r3, r3, #1
.LVL483:
	.loc 1 1502 24 view .LVU1650
	cmp	r2, r3
	.loc 1 1502 34 view .LVU1651
	str	r3, [sp, #4]
	.loc 1 1502 24 is_stmt 1 view .LVU1652
	bhi	.L429
.LVL484:
.L426:
	.loc 1 1649 1 is_stmt 0 view .LVU1653
	ldr	r0, [sp, #44]
	add	sp, sp, #60
	.cfi_remember_state
	.cfi_def_cfa_offset 44
	@ sp needed
	vldm	sp!, {d8}
	.cfi_restore 80
	.cfi_restore 81
	.cfi_def_cfa_offset 36
.LVL485:
	.loc 1 1649 1 view .LVU1654
	pop	{r4, r5, r6, r7, r8, r9, r10, fp, pc}
.LVL486:
.L543:
	.cfi_restore_state
.LBB1164:
	.loc 1 1541 9 is_stmt 1 view .LVU1655
	.loc 1 1542 9 view .LVU1656
	.loc 1 1542 27 is_stmt 0 view .LVU1657
	ldr	r3, [sp, #4]
	.loc 1 1545 11 view .LVU1658
	cmp	fp, #2
	.loc 1 1542 27 view .LVU1659
	sub	r0, r3, r6
	.loc 1 1542 17 view .LVU1660
	ldr	r3, [sp, #20]
	add	r0, r3, r0
.LVL487:
	.loc 1 1545 9 is_stmt 1 view .LVU1661
	.loc 1 1545 11 is_stmt 0 view .LVU1662
	bls	.L442
.LBB1132:
	.loc 1 1547 11 is_stmt 1 view .LVU1663
.LVL488:
	.loc 1 1548 11 view .LVU1664
	.loc 1 1547 38 is_stmt 0 view .LVU1665
	ldr	r2, [r7, #20]
	lsl	r3, ip, #1
	.loc 1 1547 20 view .LVU1666
	ldrh	r2, [r2, r3]
	.loc 1 1550 19 view .LVU1667
	ldr	r3, [sp, #8]
	cmp	r2, fp
	movcs	r2, fp
.LVL489:
	.loc 1 1549 11 is_stmt 1 view .LVU1668
	.loc 1 1549 19 is_stmt 0 view .LVU1669
	add	r0, r0, r2
.LVL490:
	.loc 1 1550 11 is_stmt 1 view .LVU1670
	.loc 1 1550 19 is_stmt 0 view .LVU1671
	add	r2, r3, r2
.LVL491:
	.loc 1 1550 19 view .LVU1672
.LBE1132:
	.loc 1 1553 34 is_stmt 1 view .LVU1673
	cmp	r8, r2
.LVL492:
	.loc 1 1553 34 is_stmt 0 view .LVU1674
	beq	.L443
.LVL493:
.L482:
	.loc 1 1553 34 view .LVU1675
	mov	r3, r2
	sub	r0, r0, #1
.LVL494:
	.loc 1 1553 34 view .LVU1676
	b	.L444
.LVL495:
.L445:
	.loc 1 1553 34 view .LVU1677
	cmp	r8, r3
	.loc 1 1556 11 view .LVU1678
	mov	r2, r3
	.loc 1 1553 34 is_stmt 1 view .LVU1679
	beq	.L443
.LVL496:
.L444:
	.loc 1 1555 11 view .LVU1680
	mov	r2, r3
.LVL497:
	.loc 1 1553 34 is_stmt 0 view .LVU1681
	ldrb	r5, [r0, #1]!	@ zero_extendqisi2
	ldrb	r4, [r2]	@ zero_extendqisi2
	add	r3, r3, #1
	.loc 1 1556 11 is_stmt 1 view .LVU1682
.LVL498:
	.loc 1 1553 34 is_stmt 0 view .LVU1683
	cmp	r5, r4
	beq	.L445
.LVL499:
.L443:
	.loc 1 1558 9 is_stmt 1 view .LVU1684
	.loc 1 1558 45 is_stmt 0 view .LVU1685
	ldr	r3, [sp, #8]
	sub	r2, r2, r3
.LVL500:
	.loc 1 1560 9 is_stmt 1 view .LVU1686
	.loc 1 1560 11 is_stmt 0 view .LVU1687
	cmp	r2, r10
	bls	.L441
	.loc 1 1562 11 is_stmt 1 view .LVU1688
.LVL501:
	.loc 1 1563 11 view .LVU1689
	.loc 1 1566 11 view .LVU1690
	.loc 1 1566 13 is_stmt 0 view .LVU1691
	ldr	r3, [sp, #28]
	mov	r10, r2
	cmp	r3, r2
	str	r6, [sp, #24]
	bhi	.L441
	.loc 1 1566 13 view .LVU1692
	b	.L438
.LVL502:
.L442:
	.loc 1 1553 34 is_stmt 1 view .LVU1693
	ldr	r3, [sp, #8]
	cmp	r8, r3
	ldrne	r2, [sp, #8]
	bne	.L482
	.loc 1 1570 7 view .LVU1694
	.loc 1 1570 32 is_stmt 0 view .LVU1695
	lsl	r3, ip, #1
	ldrh	r3, [r9, r3]
	.loc 1 1570 9 view .LVU1696
	cmp	r3, ip
	bne	.L446
	b	.L438
.LVL503:
.L448:
	.loc 1 1587 7 is_stmt 1 view .LVU1697
	.loc 1 1587 10 is_stmt 0 view .LVU1698
	ldr	r2, [sp, #36]
	eor	r2, r2, #1
	.loc 1 1587 9 view .LVU1699
	tst	r3, r2
	beq	.L450
	.loc 1 1587 57 view .LVU1700
	ldr	r3, [sp, #48]
	cmp	r10, r3
	bls	.L546
.LVL504:
	.loc 1 1613 5 is_stmt 1 view .LVU1701
	.loc 1 1613 7 is_stmt 0 view .LVU1702
	ldr	r3, [sp, #108]
	ldr	r2, [sp, #24]
	cmp	r3, r2
	bcc	.L479
	.loc 1 1620 10 is_stmt 1 view .LVU1703
	.loc 1 1620 12 is_stmt 0 view .LVU1704
	ldr	r3, [sp, #112]
	cmp	r10, r3
	mov	r3, #0
	str	r3, [sp, #36]
	bcc	.L459
.LVL505:
.L460:
	.loc 1 1620 12 view .LVU1705
	mov	r2, #28
	mov	r1, #1
.L463:
.LVL506:
.LBB1133:
.LBB1134:
.LBB1135:
.LBB1136:
.LBB1137:
	.loc 1 1335 5 is_stmt 1 view .LVU1706
	.loc 1 1336 30 view .LVU1707
	.loc 1 1335 24 is_stmt 0 view .LVU1708
	add	r3, r1, r2
	.loc 1 1336 14 view .LVU1709
	ldr	r0, .L551+8
	.loc 1 1335 12 view .LVU1710
	lsr	r3, r3, #1
.LVL507:
	.loc 1 1336 5 is_stmt 1 view .LVU1711
	.loc 1 1337 10 view .LVU1712
	.loc 1 1336 14 is_stmt 0 view .LVU1713
	add	r0, r0, r3, lsl #2
	.loc 1 1336 8 view .LVU1714
	ldr	r0, [r0, #112]
	cmp	r0, r10
	.loc 1 1336 36 view .LVU1715
	subcs	r2, r3, #1
.LVL508:
	.loc 1 1337 15 view .LVU1716
	addcc	r1, r3, #1
	.loc 1 1337 15 view .LVU1717
.LBE1137:
	.loc 1 1334 14 is_stmt 1 view .LVU1718
	cmp	r1, r2
	bls	.L463
	.loc 1 1339 3 view .LVU1719
	.loc 1 1339 5 is_stmt 0 view .LVU1720
	cmp	r1, #29
	bne	.L547
.LVL509:
.L464:
	.loc 1 1339 49 is_stmt 1 view .LVU1721
	.loc 1 1339 53 is_stmt 0 view .LVU1722
	sub	r1, r1, #1
.LVL510:
	.loc 1 1339 53 view .LVU1723
	lsl	r3, r1, #2
.LVL511:
.L465:
	.loc 1 1340 3 is_stmt 1 view .LVU1724
	.loc 1 1340 3 is_stmt 0 view .LVU1725
.LBE1136:
.LBE1135:
	.loc 1 1352 3 is_stmt 1 view .LVU1726
	.loc 1 1352 57 is_stmt 0 view .LVU1727
	ldr	r2, .L551+8
.LBB1139:
.LBB1140:
	.loc 1 1331 10 view .LVU1728
	mov	r4, #1
.LBE1140:
.LBE1139:
	.loc 1 1352 57 view .LVU1729
	add	r3, r2, r3
.LBB1146:
.LBB1142:
	.loc 1 1332 10 view .LVU1730
	mov	r2, #29
.LBE1142:
.LBE1146:
	.loc 1 1352 12 view .LVU1731
	ldr	r5, [r3, #112]
.LBB1147:
.LBB1143:
	.loc 1 1331 10 view .LVU1732
	ldr	ip, [sp, #24]
.LBE1143:
.LBE1147:
	.loc 1 1352 12 view .LVU1733
	sub	r5, r10, r5
.LVL512:
	.loc 1 1353 3 is_stmt 1 view .LVU1734
.LBB1148:
.LBI1139:
	.loc 1 1328 15 view .LVU1735
.LBB1144:
	.loc 1 1331 3 view .LVU1736
	.loc 1 1332 3 view .LVU1737
	.loc 1 1334 3 view .LVU1738
	.loc 1 1334 14 view .LVU1739
.L468:
.LBB1141:
	.loc 1 1335 5 view .LVU1740
	.loc 1 1336 30 view .LVU1741
	.loc 1 1337 10 view .LVU1742
	.loc 1 1335 24 is_stmt 0 view .LVU1743
	add	r3, r4, r2
	.loc 1 1336 14 view .LVU1744
	ldr	r0, .L551+8
	.loc 1 1335 12 view .LVU1745
	lsr	r3, r3, #1
.LVL513:
	.loc 1 1336 5 is_stmt 1 view .LVU1746
	.loc 1 1336 14 is_stmt 0 view .LVU1747
	add	r0, r0, r3, lsl #2
	.loc 1 1336 8 view .LVU1748
	ldr	r0, [r0, #228]
	cmp	r0, ip
	.loc 1 1336 36 view .LVU1749
	subcs	r2, r3, #1
.LVL514:
	.loc 1 1337 15 view .LVU1750
	addcc	r4, r3, #1
.LVL515:
	.loc 1 1337 15 view .LVU1751
.LBE1141:
	.loc 1 1334 14 is_stmt 1 view .LVU1752
	cmp	r4, r2
	bls	.L468
	.loc 1 1339 3 view .LVU1753
	.loc 1 1339 5 is_stmt 0 view .LVU1754
	cmp	r4, #30
	beq	.L469
	.loc 1 1339 33 view .LVU1755
	ldr	r3, .L551+8
.LVL516:
	.loc 1 1339 25 view .LVU1756
	ldr	r2, [sp, #24]
.LVL517:
	.loc 1 1339 33 view .LVU1757
	add	r3, r3, r4, lsl #2
	.loc 1 1339 25 view .LVU1758
	ldr	r3, [r3, #228]
	cmp	r3, r2
	.loc 1 1339 33 view .LVU1759
	lsl	r3, r4, #2
	.loc 1 1339 25 view .LVU1760
	bhi	.L469
.L470:
	.loc 1 1340 3 is_stmt 1 view .LVU1761
.LVL518:
	.loc 1 1340 3 is_stmt 0 view .LVU1762
.LBE1144:
.LBE1148:
	.loc 1 1354 3 is_stmt 1 view .LVU1763
	.loc 1 1354 63 is_stmt 0 view .LVU1764
	ldr	r2, .L551+8
	.loc 1 1356 3 view .LVU1765
	add	r1, r1, #256
	.loc 1 1354 63 view .LVU1766
	add	r3, r2, r3
	.loc 1 1354 12 view .LVU1767
	ldr	r6, [r3, #228]
	ldr	r3, [sp, #24]
	.loc 1 1356 3 view .LVU1768
	add	r1, r1, #1
	vmov	r0, s16	@ int
	.loc 1 1354 12 view .LVU1769
	sub	r6, r3, r6
.LVL519:
	.loc 1 1356 3 is_stmt 1 view .LVU1770
	bl	uivector_push_back
.LVL520:
	.loc 1 1357 3 view .LVU1771
	mov	r1, r5
	vmov	r0, s16	@ int
	bl	uivector_push_back
.LVL521:
	.loc 1 1358 3 view .LVU1772
	mov	r1, r4
	vmov	r0, s16	@ int
	bl	uivector_push_back
.LVL522:
	.loc 1 1359 3 view .LVU1773
	mov	r1, r6
	vmov	r0, s16	@ int
	bl	uivector_push_back
.LVL523:
	.loc 1 1359 3 is_stmt 0 view .LVU1774
.LBE1134:
.LBE1133:
	.loc 1 1629 20 is_stmt 1 view .LVU1775
	ldr	r3, [sp, #4]
	ldr	r8, [sp, #20]
.LVL524:
	.loc 1 1629 20 is_stmt 0 view .LVU1776
	add	r4, r3, #1
	add	r5, r8, r3
.LBB1152:
.LBB1153:
	.loc 1 1446 17 view .LVU1777
	ldr	r3, [sp, #104]
	add	r4, r8, r4
	add	r6, r8, r3
	mov	r9, r3
	str	r6, [sp, #8]
	b	.L477
.LVL525:
.L472:
	.loc 1 1446 17 view .LVU1778
.LBE1153:
.LBE1152:
	.loc 1 1637 16 is_stmt 1 view .LVU1779
	.loc 1 1637 23 is_stmt 0 view .LVU1780
	add	r3, r6, fp
	.loc 1 1637 18 view .LVU1781
	cmp	r9, r3
	bcc	.L476
	.loc 1 1637 48 view .LVU1782
	add	r3, r8, r3
	.loc 1 1637 43 view .LVU1783
	ldrb	r3, [r3, #-1]	@ zero_extendqisi2
	cmp	r3, #0
	beq	.L541
.L476:
	.loc 1 1637 75 is_stmt 1 view .LVU1784
	sub	fp, fp, #1
.L541:
.LVL526:
	.loc 1 1643 9 is_stmt 0 view .LVU1785
	uxth	r3, fp
.LVL527:
.L471:
	.loc 1 1643 9 is_stmt 1 view .LVU1786
	mov	r0, r7
	.loc 1 1629 20 is_stmt 0 view .LVU1787
	add	r4, r4, #1
	.loc 1 1643 9 view .LVU1788
	bl	updateHashChain
.LVL528:
	.loc 1 1629 30 is_stmt 1 view .LVU1789
	.loc 1 1629 20 view .LVU1790
	sub	r3, r4, r5
	cmp	r3, r10
	bcs	.L548
.LVL529:
.L477:
	.loc 1 1631 9 view .LVU1791
	sub	r6, r4, r8
.LVL530:
	.loc 1 1632 9 view .LVU1792
	.loc 1 1633 19 is_stmt 0 view .LVU1793
	mov	r2, r6
	mov	r1, r9
	mov	r0, r8
	bl	getHash
.LVL531:
	.loc 1 1634 11 view .LVU1794
	subs	r2, r0, #0
	.loc 1 1641 20 view .LVU1795
	movne	fp, #0
.LVL532:
	.loc 1 1632 14 view .LVU1796
	ldr	r3, [sp, #32]
	and	r1, r3, r6
.LVL533:
	.loc 1 1633 9 is_stmt 1 view .LVU1797
	.loc 1 1634 9 view .LVU1798
	movne	r3, fp
	.loc 1 1634 11 is_stmt 0 view .LVU1799
	bne	.L471
	.loc 1 1636 11 is_stmt 1 view .LVU1800
	.loc 1 1636 13 is_stmt 0 view .LVU1801
	cmp	fp, #0
	bne	.L472
	.loc 1 1636 29 is_stmt 1 view .LVU1802
.LVL534:
.LBB1155:
.LBI1152:
	.loc 1 1442 17 view .LVU1803
.LBB1154:
	.loc 1 1444 3 view .LVU1804
	.loc 1 1445 3 view .LVU1805
	.loc 1 1446 3 view .LVU1806
	ldr	r3, [sp, #8]
	add	ip, r4, #256
	add	ip, ip, #2
	cmp	ip, r3
	movcs	ip, r3
.LVL535:
	.loc 1 1447 3 view .LVU1807
	.loc 1 1448 3 view .LVU1808
	.loc 1 1448 21 view .LVU1809
	cmp	r4, ip
	moveq	fp, r4
	beq	.L474
	mov	r3, r4
	b	.L473
.LVL536:
.L475:
	.loc 1 1448 21 is_stmt 0 view .LVU1810
	cmp	ip, r3
	.loc 1 1448 36 view .LVU1811
	mov	fp, r3
.LVL537:
	.loc 1 1448 21 is_stmt 1 view .LVU1812
	beq	.L474
.LVL538:
.L473:
	.loc 1 1448 36 view .LVU1813
	mov	fp, r3
.LVL539:
	.loc 1 1448 21 is_stmt 0 view .LVU1814
	ldrb	r0, [fp]	@ zero_extendqisi2
	add	r3, r3, #1
	cmp	r0, #0
	beq	.L475
.LVL540:
.L474:
	.loc 1 1450 3 is_stmt 1 view .LVU1815
	.loc 1 1450 26 is_stmt 0 view .LVU1816
	sub	fp, fp, r4
.LVL541:
	.loc 1 1450 26 view .LVU1817
.LBE1154:
.LBE1155:
	.loc 1 1643 9 view .LVU1818
	uxth	r3, fp
	b	.L471
.LVL542:
.L436:
	.loc 1 1585 5 is_stmt 1 view .LVU1819
	.loc 1 1585 7 is_stmt 0 view .LVU1820
	ldr	r3, [sp, #120]
	cmp	r3, #0
	beq	.L459
	.loc 1 1523 12 view .LVU1821
	ldr	r10, [sp]
	str	r10, [sp, #24]
.LVL543:
.L450:
	.loc 1 1594 7 is_stmt 1 view .LVU1822
	.loc 1 1594 9 is_stmt 0 view .LVU1823
	ldr	r3, [sp, #36]
	cmp	r3, #0
	beq	.L549
	.loc 1 1596 9 is_stmt 1 view .LVU1824
.LVL544:
	.loc 1 1597 9 view .LVU1825
	.loc 1 1597 11 is_stmt 0 view .LVU1826
	ldr	r2, [sp, #4]
	cmp	r2, #0
	beq	.L493
	.loc 1 1597 43 is_stmt 1 view .LVU1827
	.loc 1 1598 9 view .LVU1828
	.loc 1 1598 32 is_stmt 0 view .LVU1829
	ldr	r3, [sp, #40]
	add	r3, r3, #1
	.loc 1 1598 11 view .LVU1830
	cmp	r3, r10
	.loc 1 1601 41 view .LVU1831
	sub	r3, r2, #1
	.loc 1 1598 11 view .LVU1832
	bcc	.L550
	.loc 1 1605 11 is_stmt 1 view .LVU1833
.LVL545:
	.loc 1 1606 11 view .LVU1834
	.loc 1 1607 11 view .LVU1835
	.loc 1 1613 20 is_stmt 0 view .LVU1836
	ldr	r10, [sp, #40]
	ldr	r1, [sp, #52]
.LVL546:
	.loc 1 1613 20 view .LVU1837
	ldr	r0, [sp, #108]
	cmp	r10, #2
	.loc 1 1609 11 view .LVU1838
	str	r3, [sp, #4]
.LVL547:
	.loc 1 1613 20 view .LVU1839
	mov	r3, r10
	movls	r3, #0
	movhi	r3, #1
	cmp	r0, r1
	.loc 1 1596 14 view .LVU1840
	mov	r0, #0
	.loc 1 1607 31 view .LVU1841
	mvn	r2, #0
	.loc 1 1613 20 view .LVU1842
	movcs	r3, #0
	.loc 1 1596 14 view .LVU1843
	str	r0, [sp, #36]
	.loc 1 1613 20 view .LVU1844
	str	r1, [sp, #24]
	.loc 1 1607 31 view .LVU1845
	ldr	r0, [sp, #12]
	ldr	r1, [r7]
	.loc 1 1613 7 view .LVU1846
	cmp	r3, #0
	.loc 1 1607 31 view .LVU1847
	str	r2, [r1, r0, lsl #2]
	.loc 1 1608 11 is_stmt 1 view .LVU1848
	.loc 1 1608 33 is_stmt 0 view .LVU1849
	ldr	r1, [r7, #12]
	str	r2, [r1, fp, lsl #2]
	.loc 1 1609 11 is_stmt 1 view .LVU1850
.LVL548:
	.loc 1 1613 5 view .LVU1851
	.loc 1 1613 7 is_stmt 0 view .LVU1852
	beq	.L456
.LVL549:
.L479:
	.loc 1 1613 52 view .LVU1853
	mov	r3, #86
	str	r3, [sp, #44]
.LBE1164:
	.loc 1 1649 1 view .LVU1854
	ldr	r0, [sp, #44]
	add	sp, sp, #60
	.cfi_remember_state
	.cfi_def_cfa_offset 44
	@ sp needed
	vldm	sp!, {d8}
	.cfi_restore 80
	.cfi_restore 81
	.cfi_def_cfa_offset 36
.LVL550:
	.loc 1 1649 1 view .LVU1855
	pop	{r4, r5, r6, r7, r8, r9, r10, fp, pc}
.LVL551:
.L542:
	.cfi_restore_state
.LBB1165:
	.loc 1 1511 25 is_stmt 1 view .LVU1856
.LBB1156:
.LBI1156:
	.loc 1 1442 17 view .LVU1857
.LBB1157:
	.loc 1 1444 3 view .LVU1858
	.loc 1 1444 24 is_stmt 0 view .LVU1859
	ldr	r3, [sp, #20]
	.loc 1 1446 17 view .LVU1860
	ldr	r2, [sp, #104]
	.loc 1 1444 24 view .LVU1861
	add	r5, r3, r4
.LVL552:
	.loc 1 1445 3 is_stmt 1 view .LVU1862
	.loc 1 1446 3 view .LVU1863
	.loc 1 1445 24 is_stmt 0 view .LVU1864
	add	r0, r5, #256
.LVL553:
	.loc 1 1445 24 view .LVU1865
	add	r0, r0, #2
	.loc 1 1446 17 view .LVU1866
	add	r3, r3, r2
	cmp	r0, r3
	movcs	r0, r3
.LVL554:
	.loc 1 1447 3 is_stmt 1 view .LVU1867
	.loc 1 1448 3 view .LVU1868
	.loc 1 1448 21 view .LVU1869
	cmp	r5, r0
	beq	.L489
	mov	r3, r5
	b	.L433
.LVL555:
.L434:
	.loc 1 1448 21 is_stmt 0 view .LVU1870
	cmp	r0, r3
	.loc 1 1448 36 view .LVU1871
	mov	fp, r3
.LVL556:
	.loc 1 1448 21 is_stmt 1 view .LVU1872
	beq	.L432
.LVL557:
.L433:
	.loc 1 1448 36 view .LVU1873
	mov	fp, r3
.LVL558:
	.loc 1 1448 21 is_stmt 0 view .LVU1874
	ldrb	r2, [fp]	@ zero_extendqisi2
	add	r3, r3, #1
	cmp	r2, #0
	beq	.L434
.L432:
	.loc 1 1450 3 is_stmt 1 view .LVU1875
	.loc 1 1450 26 is_stmt 0 view .LVU1876
	sub	fp, fp, r5
.LVL559:
	.loc 1 1450 26 view .LVU1877
.LBE1157:
.LBE1156:
	.loc 1 1519 5 view .LVU1878
	uxth	r3, fp
	b	.L430
.LVL560:
.L546:
	.loc 1 1519 5 view .LVU1879
	ldr	r3, [sp, #24]
	str	r10, [sp, #40]
.LVL561:
	.loc 1 1519 5 view .LVU1880
	str	r3, [sp, #52]
.LVL562:
	.loc 1 1589 14 view .LVU1881
	mov	r3, #1
	str	r3, [sp, #36]
.LVL563:
	.loc 1 1589 14 view .LVU1882
	b	.L451
.LVL564:
.L550:
	.loc 1 1601 11 is_stmt 1 view .LVU1883
	.loc 1 1601 15 is_stmt 0 view .LVU1884
	ldr	r2, [sp, #20]
	vmov	r0, s16	@ int
	ldrb	r1, [r2, r3]	@ zero_extendqisi2
.LVL565:
	.loc 1 1601 15 view .LVU1885
	bl	uivector_push_back
.LVL566:
	.loc 1 1601 13 view .LVU1886
	cmp	r0, #0
	beq	.L458
	.loc 1 1613 20 view .LVU1887
	ldr	r2, [sp, #108]
	ldr	r1, [sp, #24]
	cmp	r10, #2
	movls	r3, #0
	movhi	r3, #1
	cmp	r2, r1
	.loc 1 1596 14 view .LVU1888
	mov	r2, #0
	.loc 1 1613 20 view .LVU1889
	movcs	r3, #0
	.loc 1 1596 14 view .LVU1890
	str	r2, [sp, #36]
	b	.L449
.LVL567:
.L547:
.LBB1159:
.LBB1151:
.LBB1149:
.LBB1138:
	.loc 1 1339 33 view .LVU1891
	ldr	r3, .L551+8
.LVL568:
	.loc 1 1339 33 view .LVU1892
	add	r3, r3, r1, lsl #2
	.loc 1 1339 25 view .LVU1893
	ldr	r3, [r3, #112]
	cmp	r3, r10
	.loc 1 1339 33 view .LVU1894
	lsl	r3, r1, #2
	.loc 1 1339 25 view .LVU1895
	bls	.L465
	b	.L464
.LVL569:
.L469:
	.loc 1 1339 25 view .LVU1896
.LBE1138:
.LBE1149:
.LBB1150:
.LBB1145:
	.loc 1 1339 49 is_stmt 1 view .LVU1897
	.loc 1 1339 53 is_stmt 0 view .LVU1898
	sub	r4, r4, #1
.LVL570:
	.loc 1 1339 53 view .LVU1899
	lsl	r3, r4, #2
	b	.L470
.LVL571:
.L548:
	.loc 1 1339 53 view .LVU1900
	ldr	r3, [sp, #4]
	sub	r3, r3, #1
.LBE1145:
.LBE1150:
.LBE1151:
.LBE1159:
	.loc 1 1631 9 view .LVU1901
	cmp	r10, #2
	addcs	r3, r3, r10
	addcc	r3, r3, #2
	str	r3, [sp, #4]
	b	.L451
.LVL572:
.L549:
	.loc 1 1613 20 view .LVU1902
	ldr	r3, [sp, #24]
	ldr	r2, [sp, #108]
	cmp	r2, r3
	movcs	r3, #0
	movcc	r3, #1
	cmp	r10, #2
	movls	r3, #0
	b	.L449
.LVL573:
.L485:
	.loc 1 1613 20 view .LVU1903
.LBE1165:
	.loc 1 1497 52 view .LVU1904
	mov	r3, #60
	str	r3, [sp, #44]
	.loc 1 1649 1 view .LVU1905
	ldr	r0, [sp, #44]
.LVL574:
	.loc 1 1649 1 view .LVU1906
	add	sp, sp, #60
	.cfi_remember_state
	.cfi_def_cfa_offset 44
	@ sp needed
	vldm	sp!, {d8}
	.cfi_restore 80
	.cfi_restore 81
	.cfi_def_cfa_offset 36
.LVL575:
	.loc 1 1649 1 view .LVU1907
	pop	{r4, r5, r6, r7, r8, r9, r10, fp, pc}
.LVL576:
.L458:
	.cfi_restore_state
.LBB1166:
	.loc 1 1601 61 view .LVU1908
	mov	r3, #83
	str	r3, [sp, #44]
.LBE1166:
	.loc 1 1649 1 view .LVU1909
	ldr	r0, [sp, #44]
	add	sp, sp, #60
	.cfi_remember_state
	.cfi_def_cfa_offset 44
	@ sp needed
	vldm	sp!, {d8}
	.cfi_restore 80
	.cfi_restore 81
	.cfi_def_cfa_offset 36
.LVL577:
	.loc 1 1649 1 view .LVU1910
	pop	{r4, r5, r6, r7, r8, r9, r10, fp, pc}
.LVL578:
.L486:
	.cfi_restore_state
	.loc 1 1498 51 view .LVU1911
	mov	r3, #90
	str	r3, [sp, #44]
	.loc 1 1649 1 view .LVU1912
	ldr	r0, [sp, #44]
.LVL579:
	.loc 1 1649 1 view .LVU1913
	add	sp, sp, #60
	.cfi_remember_state
	.cfi_def_cfa_offset 44
	@ sp needed
	vldm	sp!, {d8}
	.cfi_restore 80
	.cfi_restore 81
	.cfi_def_cfa_offset 36
.LVL580:
	.loc 1 1649 1 view .LVU1914
	pop	{r4, r5, r6, r7, r8, r9, r10, fp, pc}
.LVL581:
.L489:
	.cfi_restore_state
.LBB1167:
.LBB1160:
.LBB1158:
	.loc 1 1448 21 view .LVU1915
	mov	fp, r5
	b	.L432
.LVL582:
.L493:
	.loc 1 1448 21 view .LVU1916
.LBE1158:
.LBE1160:
	.loc 1 1597 30 view .LVU1917
	mov	r3, #81
	str	r3, [sp, #44]
.LVL583:
	.loc 1 1597 30 view .LVU1918
	b	.L426
.L552:
	.align	2
.L551:
	.word	258
	.word	257
	.word	.LANCHOR0
.LBE1167:
	.cfi_endproc
.LFE221:
	.size	encodeLZ77.constprop.0, .-encodeLZ77.constprop.0
	.section	.text.string_set,"ax",%progbits
	.align	2
	.syntax unified
	.arm
	.fpu vfp
	.type	string_set, %function
string_set:
.LVL584:
.LFB21:
	.loc 1 305 1 is_stmt 1 view -0
	.cfi_startproc
	@ args = 0, pretend = 0, frame = 0
	@ frame_needed = 0, uses_anonymous_args = 0
	.loc 1 305 1 is_stmt 0 view .LVU1920
	push	{r4, r5, r6, lr}
	.cfi_def_cfa_offset 16
	.cfi_offset 4, -16
	.cfi_offset 5, -12
	.cfi_offset 6, -8
	.cfi_offset 14, -4
	.loc 1 305 1 view .LVU1921
	mov	r6, r0
	.loc 1 306 3 is_stmt 1 view .LVU1922
	.loc 1 306 19 is_stmt 0 view .LVU1923
	mov	r0, r1
.LVL585:
	.loc 1 305 1 view .LVU1924
	mov	r5, r1
	.loc 1 306 19 view .LVU1925
	bl	strlen
.LVL586:
	.loc 1 306 19 view .LVU1926
	mov	r4, r0
.LBB1172:
.LBB1173:
.LBB1174:
.LBB1175:
	.loc 1 70 10 view .LVU1927
	ldr	r0, [r6]
.LVL587:
	.loc 1 70 10 view .LVU1928
.LBE1175:
.LBE1174:
.LBE1173:
.LBE1172:
	.loc 1 307 3 is_stmt 1 view .LVU1929
.LBB1180:
.LBI1172:
	.loc 1 279 17 view .LVU1930
.LBB1178:
	.loc 1 281 3 view .LVU1931
.LBB1177:
.LBI1174:
	.loc 1 68 14 view .LVU1932
.LBB1176:
	.loc 1 70 3 view .LVU1933
	.loc 1 70 10 is_stmt 0 view .LVU1934
	add	r1, r4, #1
.LVL588:
	.loc 1 70 10 view .LVU1935
	bl	realloc
.LVL589:
	.loc 1 70 10 view .LVU1936
.LBE1176:
.LBE1177:
	.loc 1 282 3 is_stmt 1 view .LVU1937
	.loc 1 282 5 is_stmt 0 view .LVU1938
	subs	r2, r0, #0
	popeq	{r4, r5, r6, pc}
	.loc 1 284 5 is_stmt 1 view .LVU1939
	.loc 1 284 16 is_stmt 0 view .LVU1940
	mov	r3, #0
.LBE1178:
.LBE1180:
	.loc 1 309 18 view .LVU1941
	cmp	r4, r3
.LBB1181:
.LBB1179:
	.loc 1 284 16 view .LVU1942
	strb	r3, [r2, r4]
	.loc 1 285 5 is_stmt 1 view .LVU1943
	.loc 1 285 10 is_stmt 0 view .LVU1944
	str	r2, [r6]
	.loc 1 287 3 is_stmt 1 view .LVU1945
.LVL590:
	.loc 1 287 3 is_stmt 0 view .LVU1946
.LBE1179:
.LBE1181:
	.loc 1 309 18 is_stmt 1 view .LVU1947
	popeq	{r4, r5, r6, pc}
	sub	r3, r5, #1
	add	ip, r3, r4
	rsb	r1, r5, #1
.LVL591:
.L555:
	.loc 1 311 7 discriminator 3 view .LVU1948
	.loc 1 311 13 is_stmt 0 discriminator 3 view .LVU1949
	add	r0, r1, r3
	.loc 1 311 21 discriminator 3 view .LVU1950
	ldrb	lr, [r3, #1]!	@ zero_extendqisi2
.LVL592:
	.loc 1 309 18 discriminator 3 view .LVU1951
	cmp	r3, ip
	.loc 1 311 17 discriminator 3 view .LVU1952
	strb	lr, [r2, r0]
	.loc 1 309 29 is_stmt 1 discriminator 3 view .LVU1953
.LVL593:
	.loc 1 309 18 discriminator 3 view .LVU1954
	popeq	{r4, r5, r6, pc}
	.loc 1 311 8 is_stmt 0 view .LVU1955
	ldr	r2, [r6]
	b	.L555
	.cfi_endproc
.LFE21:
	.size	string_set, .-string_set
	.section	.text.ucvector_push_back.isra.0,"ax",%progbits
	.align	2
	.syntax unified
	.arm
	.fpu vfp
	.type	ucvector_push_back.isra.0, %function
ucvector_push_back.isra.0:
.LVL594:
.LFB222:
	.loc 1 265 17 is_stmt 1 view -0
	.cfi_startproc
	@ args = 0, pretend = 0, frame = 0
	@ frame_needed = 0, uses_anonymous_args = 0
	.loc 1 267 3 view .LVU1957
	.loc 1 265 17 is_stmt 0 view .LVU1958
	push	{r4, r5, r6, r7, r8, lr}
	.cfi_def_cfa_offset 24
	.cfi_offset 4, -24
	.cfi_offset 5, -20
	.cfi_offset 6, -16
	.cfi_offset 7, -12
	.cfi_offset 8, -8
	.cfi_offset 14, -4
	.loc 1 267 27 view .LVU1959
	ldr	r7, [r0, #4]
.LBB1193:
.LBB1194:
.LBB1195:
.LBB1196:
	.loc 1 215 19 view .LVU1960
	ldr	r3, [r0, #8]
.LBE1196:
.LBE1195:
.LBE1194:
.LBE1193:
	.loc 1 267 7 view .LVU1961
	add	r5, r7, #1
.LVL595:
.LBB1207:
.LBI1193:
	.loc 1 230 17 is_stmt 1 view .LVU1962
.LBB1205:
	.loc 1 232 3 view .LVU1963
.LBB1203:
.LBI1195:
	.loc 1 213 17 view .LVU1964
.LBB1201:
	.loc 1 215 3 view .LVU1965
	.loc 1 215 5 is_stmt 0 view .LVU1966
	cmp	r5, r3
.LBE1201:
.LBE1203:
.LBE1205:
.LBE1207:
	.loc 1 265 17 view .LVU1967
	mov	r4, r0
	mov	r6, r1
.LBB1208:
.LBB1206:
.LBB1204:
.LBB1202:
.LBB1197:
	.loc 1 218 35 view .LVU1968
	ldr	r0, [r0]
.LVL596:
	.loc 1 218 35 view .LVU1969
.LBE1197:
	.loc 1 215 5 view .LVU1970
	bls	.L565
.LBB1200:
	.loc 1 217 5 is_stmt 1 view .LVU1971
	.loc 1 217 65 is_stmt 0 view .LVU1972
	cmp	r5, r3, lsl #1
	movhi	r8, r5
	.loc 1 217 78 view .LVU1973
	addls	r8, r5, r5, lsl #1
	.loc 1 217 65 view .LVU1974
	lsrls	r8, r8, #1
.LVL597:
	.loc 1 218 5 is_stmt 1 view .LVU1975
.LBB1198:
.LBI1198:
	.loc 1 68 14 view .LVU1976
.LBB1199:
	.loc 1 70 3 view .LVU1977
	.loc 1 70 10 is_stmt 0 view .LVU1978
	mov	r1, r8
.LVL598:
	.loc 1 70 10 view .LVU1979
	bl	realloc
.LVL599:
	.loc 1 70 10 view .LVU1980
.LBE1199:
.LBE1198:
	.loc 1 219 5 is_stmt 1 view .LVU1981
	.loc 1 219 7 is_stmt 0 view .LVU1982
	cmp	r0, #0
	.loc 1 219 7 view .LVU1983
	popeq	{r4, r5, r6, r7, r8, pc}
	.loc 1 221 7 is_stmt 1 view .LVU1984
	.loc 1 221 20 is_stmt 0 view .LVU1985
	str	r8, [r4, #8]
	.loc 1 222 7 is_stmt 1 view .LVU1986
	.loc 1 222 15 is_stmt 0 view .LVU1987
	str	r0, [r4]
.LVL600:
.L565:
	.loc 1 222 15 view .LVU1988
.LBE1200:
.LBE1202:
.LBE1204:
	.loc 1 233 3 is_stmt 1 view .LVU1989
	.loc 1 233 11 is_stmt 0 view .LVU1990
	str	r5, [r4, #4]
	.loc 1 234 3 is_stmt 1 view .LVU1991
.LVL601:
	.loc 1 234 3 is_stmt 0 view .LVU1992
.LBE1206:
.LBE1208:
	.loc 1 268 3 is_stmt 1 view .LVU1993
	.loc 1 268 24 is_stmt 0 view .LVU1994
	strb	r6, [r0, r7]
	.loc 1 269 3 is_stmt 1 view .LVU1995
	.loc 1 270 1 is_stmt 0 view .LVU1996
	pop	{r4, r5, r6, r7, r8, pc}
	.cfi_endproc
.LFE222:
	.size	ucvector_push_back.isra.0, .-ucvector_push_back.isra.0
	.section	.text.addBitsToStreamReversed,"ax",%progbits
	.align	2
	.syntax unified
	.arm
	.fpu vfp
	.type	addBitsToStreamReversed, %function
addBitsToStreamReversed:
.LVL602:
.LFB30:
	.loc 1 437 1 is_stmt 1 view -0
	.cfi_startproc
	@ args = 0, pretend = 0, frame = 0
	@ frame_needed = 0, uses_anonymous_args = 0
	.loc 1 439 16 is_stmt 0 view .LVU1998
	cmp	r3, #0
	.loc 1 438 3 is_stmt 1 view .LVU1999
	.loc 1 439 3 view .LVU2000
.LVL603:
	.loc 1 439 16 view .LVU2001
	bxeq	lr
	.loc 1 437 1 is_stmt 0 view .LVU2002
	push	{r4, r5, r6, r7, r8, lr}
	.cfi_def_cfa_offset 24
	.cfi_offset 4, -24
	.cfi_offset 5, -20
	.cfi_offset 6, -16
	.cfi_offset 7, -12
	.cfi_offset 8, -8
	.cfi_offset 14, -4
	.loc 1 439 38 view .LVU2003
	ldr	ip, [r0]
	mov	r5, r0
	mov	r7, r1
	mov	r6, r2
	sub	r4, r3, #1
	b	.L576
.LVL604:
.L575:
	.loc 1 439 111 is_stmt 1 discriminator 4 view .LVU2004
	.loc 1 439 150 is_stmt 0 discriminator 4 view .LVU2005
	ldm	r7, {r0, r3}
	sub	r3, r3, #1
	ldrb	ip, [r0, r3]	@ zero_extendqisi2
	.loc 1 439 177 discriminator 4 view .LVU2006
	lsr	r2, r6, r4
	.loc 1 439 154 discriminator 4 view .LVU2007
	and	r2, r2, #1
	.loc 1 439 150 discriminator 4 view .LVU2008
	orr	ip, ip, r2, lsl r1
	strb	ip, [r0, r3]
	.loc 1 439 229 is_stmt 1 discriminator 4 view .LVU2009
	ldr	ip, [r5]
	.loc 1 439 16 is_stmt 0 discriminator 4 view .LVU2010
	sub	r4, r4, #1
.LVL605:
	.loc 1 439 229 discriminator 4 view .LVU2011
	add	ip, ip, #1
	.loc 1 439 16 discriminator 4 view .LVU2012
	cmn	r4, #1
	.loc 1 439 229 discriminator 4 view .LVU2013
	str	ip, [r5]
	.loc 1 439 26 is_stmt 1 discriminator 4 view .LVU2014
.LVL606:
	.loc 1 439 16 discriminator 4 view .LVU2015
	popeq	{r4, r5, r6, r7, r8, pc}
.L576:
.LVL607:
	.loc 1 439 33 discriminator 6 view .LVU2016
	.loc 1 439 35 is_stmt 0 discriminator 6 view .LVU2017
	ands	r1, ip, #7
	bne	.L575
	.loc 1 439 62 is_stmt 1 discriminator 2 view .LVU2018
	mov	r0, r7
	bl	ucvector_push_back.isra.0
.LVL608:
	.loc 1 439 220 is_stmt 0 discriminator 2 view .LVU2019
	ldr	ip, [r5]
	and	r1, ip, #7
	b	.L575
	.cfi_endproc
.LFE30:
	.size	addBitsToStreamReversed, .-addBitsToStreamReversed
	.section	.text.addBitsToStream,"ax",%progbits
	.align	2
	.syntax unified
	.arm
	.fpu vfp
	.type	addBitsToStream, %function
addBitsToStream:
.LVL609:
.LFB29:
	.loc 1 431 1 is_stmt 1 view -0
	.cfi_startproc
	@ args = 0, pretend = 0, frame = 0
	@ frame_needed = 0, uses_anonymous_args = 0
	.loc 1 432 3 view .LVU2021
	.loc 1 433 3 view .LVU2022
	.loc 1 433 16 view .LVU2023
	.loc 1 431 1 is_stmt 0 view .LVU2024
	push	{r4, r5, r6, r7, r8, lr}
	.cfi_def_cfa_offset 24
	.cfi_offset 4, -24
	.cfi_offset 5, -20
	.cfi_offset 6, -16
	.cfi_offset 7, -12
	.cfi_offset 8, -8
	.cfi_offset 14, -4
	.loc 1 433 16 view .LVU2025
	subs	r6, r3, #0
	popeq	{r4, r5, r6, r7, r8, pc}
	mov	r5, r0
	mov	r8, r1
	mov	r7, r2
	.loc 1 433 9 view .LVU2026
	mov	r4, #0
	.loc 1 433 38 view .LVU2027
	ldr	ip, [r0]
	b	.L586
.LVL610:
.L585:
	.loc 1 433 111 is_stmt 1 discriminator 4 view .LVU2028
	.loc 1 433 150 is_stmt 0 discriminator 4 view .LVU2029
	ldm	r8, {r0, ip}
	sub	ip, ip, #1
	ldrb	r3, [r0, ip]	@ zero_extendqisi2
	.loc 1 433 177 discriminator 4 view .LVU2030
	lsr	r2, r7, r4
	.loc 1 433 154 discriminator 4 view .LVU2031
	and	r2, r2, #1
	.loc 1 433 150 discriminator 4 view .LVU2032
	orr	r3, r3, r2, lsl r1
	strb	r3, [r0, ip]
	.loc 1 433 215 is_stmt 1 discriminator 4 view .LVU2033
	ldr	ip, [r5]
	.loc 1 433 26 is_stmt 0 discriminator 4 view .LVU2034
	add	r4, r4, #1
.LVL611:
	.loc 1 433 215 discriminator 4 view .LVU2035
	add	ip, ip, #1
	.loc 1 433 16 discriminator 4 view .LVU2036
	cmp	r6, r4
	.loc 1 433 215 discriminator 4 view .LVU2037
	str	ip, [r5]
	.loc 1 433 26 is_stmt 1 discriminator 4 view .LVU2038
.LVL612:
	.loc 1 433 16 discriminator 4 view .LVU2039
	popeq	{r4, r5, r6, r7, r8, pc}
.LVL613:
.L586:
	.loc 1 433 33 discriminator 6 view .LVU2040
	.loc 1 433 35 is_stmt 0 discriminator 6 view .LVU2041
	ands	r1, ip, #7
	bne	.L585
	.loc 1 433 62 is_stmt 1 discriminator 2 view .LVU2042
	mov	r0, r8
	bl	ucvector_push_back.isra.0
.LVL614:
	.loc 1 433 206 is_stmt 0 discriminator 2 view .LVU2043
	ldr	ip, [r5]
	and	r1, ip, #7
	b	.L585
	.cfi_endproc
.LFE29:
	.size	addBitsToStream, .-addBitsToStream
	.section	.text.writeLZ77data,"ax",%progbits
	.align	2
	.syntax unified
	.arm
	.fpu vfp
	.type	writeLZ77data, %function
writeLZ77data:
.LVL615:
.LFB65:
	.loc 1 1697 1 is_stmt 1 view -0
	.cfi_startproc
	@ args = 4, pretend = 0, frame = 8
	@ frame_needed = 0, uses_anonymous_args = 0
	.loc 1 1698 3 view .LVU2045
	.loc 1 1699 3 view .LVU2046
	.loc 1 1699 16 view .LVU2047
	.loc 1 1697 1 is_stmt 0 view .LVU2048
	push	{r4, r5, r6, r7, r8, r9, r10, fp, lr}
	.cfi_def_cfa_offset 36
	.cfi_offset 4, -36
	.cfi_offset 5, -32
	.cfi_offset 6, -28
	.cfi_offset 7, -24
	.cfi_offset 8, -20
	.cfi_offset 9, -16
	.cfi_offset 10, -12
	.cfi_offset 11, -8
	.cfi_offset 14, -4
	mov	r6, r3
	.loc 1 1699 16 view .LVU2049
	ldr	r3, [r2, #4]
.LVL616:
	.loc 1 1697 1 view .LVU2050
	sub	sp, sp, #12
	.cfi_def_cfa_offset 48
	.loc 1 1699 16 view .LVU2051
	cmp	r3, #0
	.loc 1 1697 1 view .LVU2052
	ldr	r8, [sp, #48]
	.loc 1 1699 16 view .LVU2053
	beq	.L590
	mov	r5, r2
	mov	r9, r0
	mov	r10, r1
	.loc 1 1699 9 view .LVU2054
	mov	r4, #0
	b	.L591
.LVL617:
.L592:
	.loc 1 1699 39 is_stmt 1 discriminator 2 view .LVU2055
	.loc 1 1699 16 is_stmt 0 discriminator 2 view .LVU2056
	ldr	r3, [r5, #4]
	.loc 1 1699 39 discriminator 2 view .LVU2057
	add	r4, r4, #1
.LVL618:
	.loc 1 1699 16 is_stmt 1 discriminator 2 view .LVU2058
	cmp	r3, r4
	beq	.L590
.LVL619:
.L591:
.LBB1209:
	.loc 1 1701 5 view .LVU2059
	.loc 1 1701 14 is_stmt 0 view .LVU2060
	ldr	r2, [r5]
.LBB1210:
.LBB1211:
	.loc 1 903 23 view .LVU2061
	ldr	r3, [r6, #8]
.LBE1211:
.LBE1210:
	.loc 1 1701 14 view .LVU2062
	ldr	r7, [r2, r4, lsl #2]
.LVL620:
	.loc 1 1702 5 is_stmt 1 view .LVU2063
.LBB1213:
.LBI1213:
	.loc 1 896 17 view .LVU2064
.LBB1214:
	.loc 1 898 3 view .LVU2065
	.loc 1 898 3 is_stmt 0 view .LVU2066
.LBE1214:
.LBE1213:
.LBB1216:
.LBI1210:
	.loc 1 901 17 is_stmt 1 view .LVU2067
.LBB1212:
	.loc 1 903 3 view .LVU2068
	.loc 1 903 3 is_stmt 0 view .LVU2069
.LBE1212:
.LBE1216:
.LBB1217:
.LBI1217:
	.loc 1 1321 13 is_stmt 1 view .LVU2070
.LBB1218:
	.loc 1 1323 3 view .LVU2071
.LBE1218:
.LBE1217:
.LBB1220:
.LBB1215:
	.loc 1 898 22 is_stmt 0 view .LVU2072
	ldr	r2, [r6, #4]
.LBE1215:
.LBE1220:
.LBB1221:
.LBB1219:
	.loc 1 1323 3 view .LVU2073
	ldr	r3, [r3, r7, lsl #2]
.LVL621:
	.loc 1 1323 3 view .LVU2074
	mov	r1, r10
	mov	r0, r9
	ldr	r2, [r2, r7, lsl #2]
	bl	addBitsToStreamReversed
.LVL622:
	.loc 1 1323 3 view .LVU2075
.LBE1219:
.LBE1221:
	.loc 1 1703 5 is_stmt 1 view .LVU2076
	.loc 1 1703 7 is_stmt 0 view .LVU2077
	cmp	r7, #256
	.loc 1 1701 38 view .LVU2078
	lsl	r3, r4, #2
	.loc 1 1703 7 view .LVU2079
	bls	.L592
.LBB1222:
	.loc 1 1705 7 is_stmt 1 view .LVU2080
.LVL623:
	.loc 1 1706 7 view .LVU2081
	.loc 1 1707 7 view .LVU2082
	.loc 1 1707 48 is_stmt 0 view .LVU2083
	ldr	ip, [r5]
.LVL624:
	.loc 1 1709 7 is_stmt 1 view .LVU2084
	.loc 1 1706 16 is_stmt 0 view .LVU2085
	ldr	r2, .L597
	.loc 1 1709 16 view .LVU2086
	add	ip, ip, r3
.LVL625:
	.loc 1 1709 16 view .LVU2087
	ldr	fp, [ip, #8]
.LVL626:
	.loc 1 1711 7 is_stmt 1 view .LVU2088
	.loc 1 1712 7 view .LVU2089
	.loc 1 1713 7 view .LVU2090
	.loc 1 1706 16 is_stmt 0 view .LVU2091
	sub	r7, r7, #256
.LVL627:
	.loc 1 1706 16 view .LVU2092
	sub	r7, r7, #1
.LVL628:
	.loc 1 1706 16 view .LVU2093
	add	r7, r2, r7, lsl #2
.LVL629:
	.loc 1 1712 16 view .LVU2094
	add	r2, r2, fp, lsl #2
	ldr	r2, [r2, #348]
	.loc 1 1715 7 view .LVU2095
	ldr	r3, [r7, #468]
.LVL630:
	.loc 1 1715 7 view .LVU2096
	mov	r1, r10
	mov	r0, r9
	.loc 1 1712 16 view .LVU2097
	str	r2, [sp, #4]
.LVL631:
	.loc 1 1715 7 view .LVU2098
	ldr	r2, [ip, #4]
	.loc 1 1713 16 view .LVU2099
	ldr	r7, [ip, #12]
	.loc 1 1715 7 view .LVU2100
	bl	addBitsToStream
.LVL632:
.LBB1223:
.LBB1224:
	.loc 1 903 23 view .LVU2101
	ldr	r3, [r8, #8]
.LBE1224:
.LBE1223:
.LBB1226:
.LBB1227:
	.loc 1 898 22 view .LVU2102
	ldr	r2, [r8, #4]
.LBE1227:
.LBE1226:
.LBB1229:
.LBB1230:
	.loc 1 1323 3 view .LVU2103
	mov	r1, r10
	mov	r0, r9
	ldr	r3, [r3, fp, lsl #2]
	ldr	r2, [r2, fp, lsl #2]
	bl	addBitsToStreamReversed
.LVL633:
.LBE1230:
.LBE1229:
	.loc 1 1718 7 view .LVU2104
	ldr	r3, [sp, #4]
	mov	r2, r7
	mov	r1, r10
	mov	r0, r9
	bl	addBitsToStream
.LVL634:
	.loc 1 1713 16 view .LVU2105
	add	r4, r4, #3
.LVL635:
	.loc 1 1715 7 is_stmt 1 view .LVU2106
	.loc 1 1716 7 view .LVU2107
.LBB1232:
.LBI1226:
	.loc 1 896 17 view .LVU2108
.LBB1228:
	.loc 1 898 3 view .LVU2109
	.loc 1 898 3 is_stmt 0 view .LVU2110
.LBE1228:
.LBE1232:
.LBB1233:
.LBI1223:
	.loc 1 901 17 is_stmt 1 view .LVU2111
.LBB1225:
	.loc 1 903 3 view .LVU2112
	.loc 1 903 3 is_stmt 0 view .LVU2113
.LBE1225:
.LBE1233:
.LBB1234:
.LBI1229:
	.loc 1 1321 13 is_stmt 1 view .LVU2114
.LBB1231:
	.loc 1 1323 3 view .LVU2115
	.loc 1 1323 3 is_stmt 0 view .LVU2116
.LBE1231:
.LBE1234:
	.loc 1 1718 7 is_stmt 1 view .LVU2117
	.loc 1 1718 7 is_stmt 0 view .LVU2118
.LBE1222:
.LBE1209:
	.loc 1 1699 39 is_stmt 1 view .LVU2119
	.loc 1 1699 16 is_stmt 0 view .LVU2120
	ldr	r3, [r5, #4]
	.loc 1 1699 39 view .LVU2121
	add	r4, r4, #1
.LVL636:
	.loc 1 1699 16 is_stmt 1 view .LVU2122
	cmp	r3, r4
	bne	.L591
.LVL637:
.L590:
	.loc 1 1721 1 is_stmt 0 view .LVU2123
	add	sp, sp, #12
	.cfi_def_cfa_offset 36
	@ sp needed
	pop	{r4, r5, r6, r7, r8, r9, r10, fp, pc}
.LVL638:
.L598:
	.loc 1 1721 1 view .LVU2124
	.align	2
.L597:
	.word	.LANCHOR0
	.cfi_endproc
.LFE65:
	.size	writeLZ77data, .-writeLZ77data
	.section	.text.color_tree_cleanup,"ax",%progbits
	.align	2
	.syntax unified
	.arm
	.fpu vfp
	.type	color_tree_cleanup, %function
color_tree_cleanup:
.LVL639:
.LFB136:
	.loc 1 3014 1 is_stmt 1 view -0
	.cfi_startproc
	@ args = 0, pretend = 0, frame = 40
	@ frame_needed = 0, uses_anonymous_args = 0
	.loc 1 3015 3 view .LVU2126
	.loc 1 3016 3 view .LVU2127
	.loc 1 3016 16 view .LVU2128
	.loc 1 3014 1 is_stmt 0 view .LVU2129
	push	{r4, r5, r6, r7, r8, r9, r10, fp, lr}
	.cfi_def_cfa_offset 36
	.cfi_offset 4, -36
	.cfi_offset 5, -32
	.cfi_offset 6, -28
	.cfi_offset 7, -24
	.cfi_offset 8, -20
	.cfi_offset 9, -16
	.cfi_offset 10, -12
	.cfi_offset 11, -8
	.cfi_offset 14, -4
	sub	r3, r0, #4
	sub	sp, sp, #44
	.cfi_def_cfa_offset 80
	str	r3, [sp, #8]
	add	r3, r0, #60
	str	r3, [sp, #28]
.LVL640:
.L617:
	.loc 1 3018 5 is_stmt 1 view .LVU2130
	.loc 1 3018 22 is_stmt 0 view .LVU2131
	ldr	r2, [sp, #8]
	ldr	r3, [r2, #4]!
	.loc 1 3018 7 view .LVU2132
	cmp	r3, #0
	.loc 1 3018 22 view .LVU2133
	str	r2, [sp, #8]
	.loc 1 3018 7 view .LVU2134
	beq	.L600
	sub	r2, r3, #4
	add	r3, r3, #60
	str	r2, [sp, #4]
	str	r3, [sp, #24]
.L616:
.LBB1271:
.LBB1272:
	.loc 1 3018 5 is_stmt 1 view .LVU2135
	.loc 1 3018 22 is_stmt 0 view .LVU2136
	ldr	r2, [sp, #4]
	ldr	r3, [r2, #4]!
	.loc 1 3018 7 view .LVU2137
	cmp	r3, #0
	.loc 1 3018 22 view .LVU2138
	str	r2, [sp, #4]
	.loc 1 3018 7 view .LVU2139
	beq	.L601
	sub	r2, r3, #4
	add	r3, r3, #60
	str	r2, [sp]
	str	r3, [sp, #20]
.L615:
.LBB1273:
.LBB1274:
	.loc 1 3018 5 is_stmt 1 view .LVU2140
	.loc 1 3018 22 is_stmt 0 view .LVU2141
	ldr	r2, [sp]
	ldr	r3, [r2, #4]!
	.loc 1 3018 7 view .LVU2142
	cmp	r3, #0
	.loc 1 3018 22 view .LVU2143
	str	r2, [sp]
	.loc 1 3018 7 view .LVU2144
	beq	.L602
	sub	r8, r3, #4
	add	r3, r3, #60
	str	r3, [sp, #16]
.L614:
.LBB1275:
.LBB1276:
	.loc 1 3018 5 is_stmt 1 view .LVU2145
	.loc 1 3018 22 is_stmt 0 view .LVU2146
	ldr	r3, [r8, #4]!
	.loc 1 3018 7 view .LVU2147
	cmp	r3, #0
	beq	.L603
	sub	r7, r3, #4
	add	r3, r3, #60
	str	r3, [sp, #12]
	str	r8, [sp, #32]
.L613:
.LBB1277:
.LBB1278:
	.loc 1 3018 5 is_stmt 1 view .LVU2148
	.loc 1 3018 22 is_stmt 0 view .LVU2149
	ldr	r4, [r7, #4]!
	.loc 1 3018 7 view .LVU2150
	cmp	r4, #0
	beq	.L604
	sub	r9, r4, #4
	str	r7, [sp, #36]
	add	r4, r4, #60
.L612:
.LBB1279:
.LBB1280:
	.loc 1 3018 5 is_stmt 1 view .LVU2151
	.loc 1 3018 22 is_stmt 0 view .LVU2152
	ldr	r5, [r9, #4]!
	.loc 1 3018 7 view .LVU2153
	cmp	r5, #0
	beq	.L605
	sub	r10, r5, #4
	add	r5, r5, #60
.L611:
.LBB1281:
.LBB1282:
	.loc 1 3018 5 is_stmt 1 view .LVU2154
	.loc 1 3018 22 is_stmt 0 view .LVU2155
	ldr	r6, [r10, #4]!
	.loc 1 3018 7 view .LVU2156
	cmp	r6, #0
	beq	.L606
	sub	r8, r6, #4
	add	r6, r6, #60
.L610:
.LBB1283:
.LBB1284:
	.loc 1 3018 5 is_stmt 1 view .LVU2157
	.loc 1 3018 22 is_stmt 0 view .LVU2158
	ldr	r3, [r8, #4]!
	.loc 1 3018 7 view .LVU2159
	cmp	r3, #0
	beq	.L607
	sub	fp, r3, #4
	add	r7, r3, #60
.L609:
.LBB1285:
.LBB1286:
	.loc 1 3018 5 is_stmt 1 view .LVU2160
	.loc 1 3020 7 view .LVU2161
	.loc 1 3018 22 is_stmt 0 view .LVU2162
	ldr	r0, [fp, #4]!
	.loc 1 3018 7 view .LVU2163
	cmp	r0, #0
	beq	.L608
	.loc 1 3020 7 view .LVU2164
	bl	color_tree_cleanup
.LVL641:
	.loc 1 3021 7 is_stmt 1 view .LVU2165
.LBB1287:
.LBI1287:
	.loc 1 73 13 view .LVU2166
.LBB1288:
	.loc 1 75 3 view .LVU2167
	ldr	r0, [fp]
	bl	free
.LVL642:
.L608:
	.loc 1 75 3 is_stmt 0 view .LVU2168
.LBE1288:
.LBE1287:
	.loc 1 3016 23 is_stmt 1 view .LVU2169
	.loc 1 3016 16 view .LVU2170
	cmp	fp, r7
	bne	.L609
.LBE1286:
.LBE1285:
	.loc 1 3021 7 view .LVU2171
.LVL643:
.LBB1289:
.LBI1289:
	.loc 1 73 13 view .LVU2172
.LBB1290:
	.loc 1 75 3 view .LVU2173
	ldr	r0, [r8]
	bl	free
.LVL644:
.L607:
	.loc 1 75 3 is_stmt 0 view .LVU2174
.LBE1290:
.LBE1289:
	.loc 1 3016 23 is_stmt 1 view .LVU2175
	.loc 1 3016 16 view .LVU2176
	cmp	r8, r6
	bne	.L610
.LBE1284:
.LBE1283:
	.loc 1 3021 7 view .LVU2177
.LVL645:
.LBB1291:
.LBI1291:
	.loc 1 73 13 view .LVU2178
.LBB1292:
	.loc 1 75 3 view .LVU2179
	ldr	r0, [r10]
	bl	free
.LVL646:
.L606:
	.loc 1 75 3 is_stmt 0 view .LVU2180
.LBE1292:
.LBE1291:
	.loc 1 3016 23 is_stmt 1 view .LVU2181
	.loc 1 3016 16 view .LVU2182
	cmp	r5, r10
	bne	.L611
.LBE1282:
.LBE1281:
	.loc 1 3021 7 view .LVU2183
.LVL647:
.LBB1293:
.LBI1293:
	.loc 1 73 13 view .LVU2184
.LBB1294:
	.loc 1 75 3 view .LVU2185
	ldr	r0, [r9]
	bl	free
.LVL648:
.L605:
	.loc 1 75 3 is_stmt 0 view .LVU2186
.LBE1294:
.LBE1293:
	.loc 1 3016 23 is_stmt 1 view .LVU2187
	.loc 1 3016 16 view .LVU2188
	cmp	r4, r9
	bne	.L612
.LBE1280:
.LBE1279:
	.loc 1 3021 7 view .LVU2189
.LBB1295:
.LBB1296:
	.loc 1 75 3 is_stmt 0 view .LVU2190
	ldr	r7, [sp, #36]
.LVL649:
	.loc 1 75 3 view .LVU2191
.LBE1296:
.LBI1295:
	.loc 1 73 13 is_stmt 1 view .LVU2192
.LBB1297:
	.loc 1 75 3 view .LVU2193
	ldr	r0, [r7]
	bl	free
.LVL650:
.L604:
	.loc 1 75 3 is_stmt 0 view .LVU2194
.LBE1297:
.LBE1295:
	.loc 1 3016 23 is_stmt 1 view .LVU2195
	.loc 1 3016 16 view .LVU2196
	ldr	r3, [sp, #12]
	cmp	r7, r3
	bne	.L613
.LBE1278:
.LBE1277:
	.loc 1 3021 7 view .LVU2197
.LBB1298:
.LBB1299:
	.loc 1 75 3 is_stmt 0 view .LVU2198
	ldr	r8, [sp, #32]
.LVL651:
	.loc 1 75 3 view .LVU2199
.LBE1299:
.LBI1298:
	.loc 1 73 13 is_stmt 1 view .LVU2200
.LBB1300:
	.loc 1 75 3 view .LVU2201
	ldr	r0, [r8]
	bl	free
.LVL652:
.L603:
	.loc 1 75 3 is_stmt 0 view .LVU2202
.LBE1300:
.LBE1298:
	.loc 1 3016 23 is_stmt 1 view .LVU2203
	.loc 1 3016 16 view .LVU2204
	ldr	r3, [sp, #16]
	cmp	r8, r3
	bne	.L614
.LBE1276:
.LBE1275:
	.loc 1 3021 7 view .LVU2205
.LVL653:
.LBB1301:
.LBI1301:
	.loc 1 73 13 view .LVU2206
.LBB1302:
	.loc 1 75 3 view .LVU2207
	ldr	r3, [sp]
	ldr	r0, [r3]
	bl	free
.LVL654:
.L602:
	.loc 1 75 3 is_stmt 0 view .LVU2208
.LBE1302:
.LBE1301:
	.loc 1 3016 23 is_stmt 1 view .LVU2209
	.loc 1 3016 16 view .LVU2210
	ldr	r3, [sp]
	ldr	r2, [sp, #20]
	cmp	r3, r2
	bne	.L615
.LBE1274:
.LBE1273:
	.loc 1 3021 7 view .LVU2211
.LVL655:
.LBB1303:
.LBI1303:
	.loc 1 73 13 view .LVU2212
.LBB1304:
	.loc 1 75 3 view .LVU2213
	ldr	r3, [sp, #4]
	ldr	r0, [r3]
	bl	free
.LVL656:
.L601:
	.loc 1 75 3 is_stmt 0 view .LVU2214
.LBE1304:
.LBE1303:
	.loc 1 3016 23 is_stmt 1 view .LVU2215
	.loc 1 3016 16 view .LVU2216
	ldr	r3, [sp, #4]
	ldr	r2, [sp, #24]
	cmp	r3, r2
	bne	.L616
.LBE1272:
.LBE1271:
	.loc 1 3021 7 view .LVU2217
.LVL657:
.LBB1305:
.LBI1305:
	.loc 1 73 13 view .LVU2218
.LBB1306:
	.loc 1 75 3 view .LVU2219
	ldr	r3, [sp, #8]
	ldr	r0, [r3]
	bl	free
.LVL658:
.L600:
	.loc 1 75 3 is_stmt 0 view .LVU2220
.LBE1306:
.LBE1305:
	.loc 1 3016 23 is_stmt 1 discriminator 2 view .LVU2221
	.loc 1 3016 16 discriminator 2 view .LVU2222
	ldr	r3, [sp, #8]
	ldr	r2, [sp, #28]
	cmp	r3, r2
	bne	.L617
	.loc 1 3024 1 is_stmt 0 view .LVU2223
	add	sp, sp, #44
	.cfi_def_cfa_offset 36
	@ sp needed
	pop	{r4, r5, r6, r7, r8, r9, r10, fp, pc}
	.cfi_endproc
.LFE136:
	.size	color_tree_cleanup, .-color_tree_cleanup
	.section	.text.lodepng_add32bitInt,"ax",%progbits
	.align	2
	.syntax unified
	.arm
	.fpu vfp
	.type	lodepng_add32bitInt, %function
lodepng_add32bitInt:
.LVL659:
.LFB24:
	.loc 1 338 1 is_stmt 1 view -0
	.cfi_startproc
	@ args = 0, pretend = 0, frame = 0
	@ frame_needed = 0, uses_anonymous_args = 0
	.loc 1 339 3 view .LVU2225
	.loc 1 338 1 is_stmt 0 view .LVU2226
	push	{r4, r5, r6, r7, r8, lr}
	.cfi_def_cfa_offset 24
	.cfi_offset 4, -24
	.cfi_offset 5, -20
	.cfi_offset 6, -16
	.cfi_offset 7, -12
	.cfi_offset 8, -8
	.cfi_offset 14, -4
	.loc 1 339 33 view .LVU2227
	ldr	r7, [r0, #4]
.LBB1316:
.LBB1317:
.LBB1318:
.LBB1319:
	.loc 1 215 19 view .LVU2228
	ldr	r3, [r0, #8]
.LBE1319:
.LBE1318:
.LBE1317:
.LBE1316:
	.loc 1 339 3 view .LVU2229
	add	r5, r7, #4
.LVL660:
.LBB1334:
.LBI1316:
	.loc 1 230 17 is_stmt 1 view .LVU2230
.LBB1331:
	.loc 1 232 3 view .LVU2231
.LBB1328:
.LBI1318:
	.loc 1 213 17 view .LVU2232
.LBB1325:
	.loc 1 215 3 view .LVU2233
	.loc 1 215 5 is_stmt 0 view .LVU2234
	cmp	r5, r3
.LBE1325:
.LBE1328:
.LBE1331:
.LBE1334:
	.loc 1 338 1 view .LVU2235
	mov	r4, r0
	mov	r6, r1
.LBB1335:
.LBB1332:
.LBB1329:
.LBB1326:
.LBB1320:
	.loc 1 218 35 view .LVU2236
	ldr	r0, [r0]
.LVL661:
	.loc 1 218 35 view .LVU2237
.LBE1320:
	.loc 1 215 5 view .LVU2238
	bls	.L656
.LBB1323:
	.loc 1 217 5 is_stmt 1 view .LVU2239
	.loc 1 217 65 is_stmt 0 view .LVU2240
	cmp	r5, r3, lsl #1
	movhi	r8, r5
	.loc 1 217 78 view .LVU2241
	addls	r8, r5, r5, lsl #1
	.loc 1 217 65 view .LVU2242
	lsrls	r8, r8, #1
.LVL662:
	.loc 1 218 5 is_stmt 1 view .LVU2243
.LBB1321:
.LBI1321:
	.loc 1 68 14 view .LVU2244
.LBB1322:
	.loc 1 70 3 view .LVU2245
	.loc 1 70 10 is_stmt 0 view .LVU2246
	mov	r1, r8
.LVL663:
	.loc 1 70 10 view .LVU2247
	bl	realloc
.LVL664:
	.loc 1 70 10 view .LVU2248
.LBE1322:
.LBE1321:
	.loc 1 219 5 is_stmt 1 view .LVU2249
	.loc 1 219 7 is_stmt 0 view .LVU2250
	cmp	r0, #0
	.loc 1 219 7 view .LVU2251
.LBE1323:
.LBE1326:
.LBE1329:
.LBE1332:
.LBE1335:
	.loc 1 340 30 view .LVU2252
	ldmeq	r4, {r0, r7}
.LVL665:
	.loc 1 340 36 view .LVU2253
	subeq	r7, r7, #4
.LBB1336:
.LBB1333:
.LBB1330:
.LBB1327:
.LBB1324:
	.loc 1 219 7 view .LVU2254
	beq	.L659
	.loc 1 221 7 is_stmt 1 view .LVU2255
	.loc 1 221 20 is_stmt 0 view .LVU2256
	str	r8, [r4, #8]
	.loc 1 222 7 is_stmt 1 view .LVU2257
	.loc 1 222 15 is_stmt 0 view .LVU2258
	str	r0, [r4]
.LVL666:
.L656:
	.loc 1 222 15 view .LVU2259
.LBE1324:
.LBE1327:
.LBE1330:
	.loc 1 233 3 is_stmt 1 view .LVU2260
	.loc 1 233 11 is_stmt 0 view .LVU2261
	str	r5, [r4, #4]
	.loc 1 234 3 is_stmt 1 view .LVU2262
.L659:
.LVL667:
	.loc 1 234 3 is_stmt 0 view .LVU2263
.LBE1333:
.LBE1336:
	.loc 1 340 3 is_stmt 1 view .LVU2264
.LBB1337:
.LBB1338:
	.loc 1 329 38 is_stmt 0 view .LVU2265
	lsr	r2, r6, #24
	.loc 1 329 15 view .LVU2266
	strb	r2, [r0, r7]
.LBE1338:
.LBE1337:
	.loc 1 340 3 view .LVU2267
	add	r3, r0, r7
.LVL668:
.LBB1340:
.LBI1337:
	.loc 1 327 13 is_stmt 1 view .LVU2268
.LBB1339:
	.loc 1 329 3 view .LVU2269
	.loc 1 330 3 view .LVU2270
	.loc 1 331 38 is_stmt 0 view .LVU2271
	lsr	r2, r6, #8
	.loc 1 330 38 view .LVU2272
	lsr	r0, r6, #16
	.loc 1 330 15 view .LVU2273
	strb	r0, [r3, #1]
	.loc 1 331 3 is_stmt 1 view .LVU2274
	.loc 1 331 15 is_stmt 0 view .LVU2275
	strb	r2, [r3, #2]
	.loc 1 332 3 is_stmt 1 view .LVU2276
	.loc 1 332 15 is_stmt 0 view .LVU2277
	strb	r6, [r3, #3]
.LVL669:
	.loc 1 332 15 view .LVU2278
.LBE1339:
.LBE1340:
	.loc 1 341 1 view .LVU2279
	pop	{r4, r5, r6, r7, r8, pc}
	.cfi_endproc
.LFE24:
	.size	lodepng_add32bitInt, .-lodepng_add32bitInt
	.section	.text.getPixelColorsRGBA8,"ax",%progbits
	.align	2
	.syntax unified
	.arm
	.fpu vfp
	.type	getPixelColorsRGBA8, %function
getPixelColorsRGBA8:
.LVL670:
.LFB143:
	.loc 1 3294 1 is_stmt 1 view -0
	.cfi_startproc
	@ args = 4, pretend = 0, frame = 8
	@ frame_needed = 0, uses_anonymous_args = 0
	.loc 1 3294 1 is_stmt 0 view .LVU2281
	push	{r4, r5, r6, r7, r8, r9, r10, fp, lr}
	.cfi_def_cfa_offset 36
	.cfi_offset 4, -36
	.cfi_offset 5, -32
	.cfi_offset 6, -28
	.cfi_offset 7, -24
	.cfi_offset 8, -20
	.cfi_offset 9, -16
	.cfi_offset 10, -12
	.cfi_offset 11, -8
	.cfi_offset 14, -4
	sub	sp, sp, #12
	.cfi_def_cfa_offset 48
	.loc 1 3294 1 view .LVU2282
	ldr	r10, [sp, #48]
	mov	r9, r2
	.loc 1 3295 3 is_stmt 1 view .LVU2283
	.loc 1 3297 10 is_stmt 0 view .LVU2284
	ldrb	r4, [r10]	@ zero_extendqisi2
	.loc 1 3294 1 view .LVU2285
	mov	r5, r0
	.loc 1 3297 5 view .LVU2286
	cmp	r4, #0
	.loc 1 3294 1 view .LVU2287
	mov	r8, r1
	mov	r7, r3
	.loc 1 3295 41 view .LVU2288
	add	fp, r2, #3
.LVL671:
	.loc 1 3296 3 is_stmt 1 view .LVU2289
	.loc 1 3297 3 view .LVU2290
	.loc 1 3297 5 is_stmt 0 view .LVU2291
	bne	.L663
	.loc 1 3299 5 is_stmt 1 view .LVU2292
	.loc 1 3299 12 is_stmt 0 view .LVU2293
	ldr	r6, [r10, #4]
	.loc 1 3299 7 view .LVU2294
	cmp	r6, #8
	beq	.L783
	.loc 1 3307 10 is_stmt 1 view .LVU2295
	.loc 1 3307 12 is_stmt 0 view .LVU2296
	cmp	r6, #16
	beq	.L784
.LBB1352:
	.loc 1 3317 7 is_stmt 1 view .LVU2297
	.loc 1 3319 20 is_stmt 0 view .LVU2298
	cmp	r1, #0
	.loc 1 3317 31 view .LVU2299
	mvn	r1, #0
.LVL672:
	.loc 1 3317 16 view .LVU2300
	mvn	r1, r1, lsl r6
.LVL673:
	.loc 1 3318 7 is_stmt 1 view .LVU2301
	.loc 1 3319 7 view .LVU2302
	.loc 1 3319 20 view .LVU2303
	beq	.L662
.LBB1353:
.LBB1354:
.LBB1355:
	.loc 1 2388 17 is_stmt 0 view .LVU2304
	cmp	r6, #0
.LBE1355:
.LBE1354:
.LBE1353:
	.loc 1 3319 13 view .LVU2305
	mov	r3, r4
.LVL674:
.LBB1364:
	.loc 1 3321 9 is_stmt 1 view .LVU2306
.LBB1361:
.LBI1354:
	.loc 1 2384 17 view .LVU2307
.LBB1358:
	.loc 1 2386 3 view .LVU2308
	.loc 1 2387 3 view .LVU2309
	.loc 1 2388 3 view .LVU2310
	.loc 1 2388 17 view .LVU2311
	beq	.L716
.LVL675:
.L785:
	.loc 1 2388 17 is_stmt 0 view .LVU2312
	add	r0, r6, r4
	.loc 1 2386 12 view .LVU2313
	mov	r6, #0
.LVL676:
.L676:
	.loc 1 2390 5 is_stmt 1 view .LVU2314
	.loc 1 2391 5 view .LVU2315
.LBB1356:
.LBI1356:
	.loc 1 2377 22 view .LVU2316
.LBB1357:
	.loc 1 2379 3 view .LVU2317
	.loc 1 2379 79 is_stmt 0 view .LVU2318
	mvn	ip, r4
	.loc 1 2379 52 view .LVU2319
	ldrb	r2, [r7, r4, lsr #3]	@ zero_extendqisi2
	.loc 1 2379 79 view .LVU2320
	and	ip, ip, #7
	.loc 1 2380 3 view .LVU2321
	add	r4, r4, #1
.LVL677:
	.loc 1 2379 73 view .LVU2322
	asr	r2, r2, ip
	.loc 1 2379 17 view .LVU2323
	and	r2, r2, #1
.LVL678:
	.loc 1 2380 3 is_stmt 1 view .LVU2324
	.loc 1 2381 3 view .LVU2325
	.loc 1 2381 3 is_stmt 0 view .LVU2326
.LBE1357:
.LBE1356:
	.loc 1 2388 17 view .LVU2327
	cmp	r4, r0
	.loc 1 2391 12 view .LVU2328
	orr	r6, r2, r6, lsl #1
.LVL679:
	.loc 1 2388 26 is_stmt 1 view .LVU2329
	.loc 1 2388 17 view .LVU2330
	bne	.L676
.LBE1358:
.LBE1361:
	.loc 1 3322 59 is_stmt 0 view .LVU2331
	rsb	r0, r6, r6, lsl #8
	stm	sp, {r1, r3}
	bl	__aeabi_uidiv
.LVL680:
	.loc 1 3322 59 view .LVU2332
	ldm	sp, {r1, r3}
	.loc 1 3322 43 view .LVU2333
	uxtb	r0, r0
.LVL681:
.L675:
.LBB1362:
.LBB1359:
	.loc 1 2393 3 is_stmt 1 view .LVU2334
	.loc 1 2393 3 is_stmt 0 view .LVU2335
.LBE1359:
.LBE1362:
	.loc 1 3322 9 is_stmt 1 view .LVU2336
	.loc 1 3323 11 is_stmt 0 view .LVU2337
	cmp	r9, #0
	.loc 1 3322 43 view .LVU2338
	strb	r0, [r5, #2]
	.loc 1 3322 31 view .LVU2339
	strb	r0, [r5, #1]
	.loc 1 3322 19 view .LVU2340
	strb	r0, [r5]
	.loc 1 3323 9 is_stmt 1 view .LVU2341
	.loc 1 3323 11 is_stmt 0 view .LVU2342
	beq	.L677
	.loc 1 3323 23 is_stmt 1 discriminator 1 view .LVU2343
	.loc 1 3323 33 is_stmt 0 discriminator 1 view .LVU2344
	ldr	r2, [r10, #16]
	cmp	r2, #0
	moveq	r2, #255
	beq	.L678
	.loc 1 3323 53 discriminator 2 view .LVU2345
	ldr	r2, [r10, #20]
	subs	r2, r2, r6
	mvnne	r2, #0
	uxtb	r2, r2
.L678:
	.loc 1 3323 33 discriminator 7 view .LVU2346
	strb	r2, [r5, #3]
.L677:
	.loc 1 3323 33 discriminator 7 view .LVU2347
.LBE1364:
	.loc 1 3319 37 is_stmt 1 discriminator 2 view .LVU2348
	.loc 1 3319 34 is_stmt 0 discriminator 2 view .LVU2349
	add	r3, r3, #1
.LVL682:
	.loc 1 3319 20 discriminator 2 view .LVU2350
	cmp	r8, r3
	.loc 1 3319 46 discriminator 2 view .LVU2351
	add	r5, r5, fp
.LVL683:
	.loc 1 3319 20 is_stmt 1 discriminator 2 view .LVU2352
	beq	.L662
.LBB1365:
	.loc 1 3321 65 is_stmt 0 view .LVU2353
	ldr	r6, [r10, #4]
.LVL684:
	.loc 1 3321 9 is_stmt 1 view .LVU2354
.LBB1363:
	.loc 1 2384 17 view .LVU2355
.LBB1360:
	.loc 1 2386 3 view .LVU2356
	.loc 1 2387 3 view .LVU2357
	.loc 1 2388 3 view .LVU2358
	.loc 1 2388 17 view .LVU2359
	cmp	r6, #0
	bne	.L785
.L716:
	.loc 1 2388 17 is_stmt 0 view .LVU2360
	mov	r0, r6
	b	.L675
.LVL685:
.L783:
	.loc 1 2388 17 view .LVU2361
.LBE1360:
.LBE1363:
.LBE1365:
.LBE1352:
	.loc 1 3301 20 is_stmt 1 view .LVU2362
	cmp	r1, #0
	beq	.L662
	add	r2, r3, r1
.LVL686:
	.loc 1 3301 20 is_stmt 0 view .LVU2363
	sub	r7, r3, #1
	sub	r2, r2, #1
.LVL687:
.L669:
	.loc 1 3303 9 is_stmt 1 view .LVU2364
	.loc 1 3304 23 view .LVU2365
	.loc 1 3303 47 is_stmt 0 view .LVU2366
	ldrb	r3, [r7, #1]!	@ zero_extendqisi2
.LVL688:
	.loc 1 3304 11 view .LVU2367
	cmp	r9, #0
	.loc 1 3303 43 view .LVU2368
	strb	r3, [r5, #2]
	.loc 1 3303 31 view .LVU2369
	strb	r3, [r5, #1]
	.loc 1 3303 19 view .LVU2370
	strb	r3, [r5]
	.loc 1 3304 9 is_stmt 1 view .LVU2371
	.loc 1 3304 11 is_stmt 0 view .LVU2372
	beq	.L667
	.loc 1 3304 33 discriminator 1 view .LVU2373
	ldr	r3, [r10, #16]
	cmp	r3, #0
	moveq	r3, #255
	beq	.L668
	.loc 1 3304 58 discriminator 2 view .LVU2374
	ldrb	r3, [r7]	@ zero_extendqisi2
	.loc 1 3304 53 discriminator 2 view .LVU2375
	ldr	r1, [r10, #20]
	subs	r3, r3, r1
	mvnne	r3, #0
	uxtb	r3, r3
.L668:
	.loc 1 3304 33 discriminator 7 view .LVU2376
	strb	r3, [r5, #3]
.L667:
	.loc 1 3301 37 is_stmt 1 discriminator 2 view .LVU2377
.LVL689:
	.loc 1 3301 20 is_stmt 0 discriminator 2 view .LVU2378
	cmp	r2, r7
	.loc 1 3301 46 discriminator 2 view .LVU2379
	add	r5, r5, fp
.LVL690:
	.loc 1 3301 20 is_stmt 1 discriminator 2 view .LVU2380
	bne	.L669
.LVL691:
.L662:
	.loc 1 3421 1 is_stmt 0 view .LVU2381
	add	sp, sp, #12
	.cfi_remember_state
	.cfi_def_cfa_offset 36
	@ sp needed
	pop	{r4, r5, r6, r7, r8, r9, r10, fp, pc}
.LVL692:
.L663:
	.cfi_restore_state
	.loc 1 3327 8 is_stmt 1 view .LVU2382
	sub	r4, r4, #2
	cmp	r4, #4
	ldrls	pc, [pc, r4, asl #2]
	b	.L662
.L681:
	.word	.L684
	.word	.L683
	.word	.L682
	.word	.L662
	.word	.L680
.L684:
	.loc 1 3329 5 view .LVU2383
	.loc 1 3329 7 is_stmt 0 view .LVU2384
	ldr	r3, [r10, #4]
.LVL693:
	.loc 1 3329 7 view .LVU2385
	cmp	r3, #8
	beq	.L686
.LVL694:
	.loc 1 3342 20 is_stmt 1 view .LVU2386
	cmp	r1, #0
	addne	r8, r1, r1, lsl #1
	addne	r2, r7, r8, lsl #1
.LVL695:
	.loc 1 3342 20 is_stmt 0 view .LVU2387
	beq	.L662
.LVL696:
.L693:
	.loc 1 3344 9 is_stmt 1 view .LVU2388
	.loc 1 3347 23 view .LVU2389
	.loc 1 3344 23 is_stmt 0 view .LVU2390
	ldrb	r3, [r7]	@ zero_extendqisi2
	.loc 1 3347 11 view .LVU2391
	cmp	r9, #0
	.loc 1 3344 19 view .LVU2392
	strb	r3, [r5]
	.loc 1 3345 9 is_stmt 1 view .LVU2393
	.loc 1 3345 23 is_stmt 0 view .LVU2394
	ldrb	r3, [r7, #2]	@ zero_extendqisi2
	.loc 1 3345 19 view .LVU2395
	strb	r3, [r5, #1]
	.loc 1 3346 9 is_stmt 1 view .LVU2396
	.loc 1 3346 23 is_stmt 0 view .LVU2397
	ldrb	r3, [r7, #4]	@ zero_extendqisi2
	.loc 1 3346 19 view .LVU2398
	strb	r3, [r5, #2]
	.loc 1 3347 9 is_stmt 1 view .LVU2399
	.loc 1 3347 11 is_stmt 0 view .LVU2400
	beq	.L691
	.loc 1 3347 33 discriminator 1 view .LVU2401
	ldr	r1, [r10, #16]
	cmp	r1, #0
	beq	.L723
	.loc 1 3348 24 view .LVU2402
	ldrb	r0, [r7]	@ zero_extendqisi2
	.loc 1 3348 40 view .LVU2403
	ldrb	r1, [r7, #1]	@ zero_extendqisi2
	.loc 1 3348 36 view .LVU2404
	add	r1, r1, r0, lsl #8
	.loc 1 3348 12 view .LVU2405
	ldr	r0, [r10, #20]
	cmp	r1, r0
	beq	.L786
.L723:
	.loc 1 3347 33 view .LVU2406
	mov	r3, #255
.L692:
	.loc 1 3347 33 discriminator 4 view .LVU2407
	strb	r3, [r5, #3]
.L691:
	.loc 1 3342 37 is_stmt 1 discriminator 2 view .LVU2408
	.loc 1 3342 20 is_stmt 0 discriminator 2 view .LVU2409
	add	r7, r7, #6
	cmp	r2, r7
	.loc 1 3342 46 discriminator 2 view .LVU2410
	add	r5, r5, fp
.LVL697:
	.loc 1 3342 20 is_stmt 1 discriminator 2 view .LVU2411
	bne	.L693
	b	.L662
.LVL698:
.L680:
	.loc 1 3400 5 view .LVU2412
	.loc 1 3400 7 is_stmt 0 view .LVU2413
	ldr	r3, [r10, #4]
.LVL699:
	.loc 1 3400 7 view .LVU2414
	cmp	r3, #8
	beq	.L708
.LVL700:
	.loc 1 3412 20 is_stmt 1 view .LVU2415
	cmp	r1, #0
	addne	r8, r7, r1, lsl #3
	beq	.L662
.LVL701:
.L713:
	.loc 1 3414 9 view .LVU2416
	.loc 1 3417 23 view .LVU2417
	.loc 1 3412 37 view .LVU2418
	.loc 1 3414 23 is_stmt 0 view .LVU2419
	ldrb	r3, [r7]	@ zero_extendqisi2
	.loc 1 3417 11 view .LVU2420
	cmp	r9, #0
	.loc 1 3414 19 view .LVU2421
	strb	r3, [r5]
	.loc 1 3415 9 is_stmt 1 view .LVU2422
	.loc 1 3415 23 is_stmt 0 view .LVU2423
	ldrb	r3, [r7, #2]	@ zero_extendqisi2
	.loc 1 3412 20 view .LVU2424
	add	r7, r7, #8
	.loc 1 3415 19 view .LVU2425
	strb	r3, [r5, #1]
	.loc 1 3416 9 is_stmt 1 view .LVU2426
	.loc 1 3416 23 is_stmt 0 view .LVU2427
	ldrb	r3, [r7, #-4]	@ zero_extendqisi2
	.loc 1 3416 19 view .LVU2428
	strb	r3, [r5, #2]
	.loc 1 3417 9 is_stmt 1 view .LVU2429
	.loc 1 3417 37 is_stmt 0 view .LVU2430
	ldrbne	r3, [r7, #-2]	@ zero_extendqisi2
	.loc 1 3417 33 view .LVU2431
	strbne	r3, [r5, #3]
	.loc 1 3412 20 view .LVU2432
	cmp	r8, r7
	.loc 1 3412 46 view .LVU2433
	add	r5, r5, fp
.LVL702:
	.loc 1 3412 20 is_stmt 1 view .LVU2434
	bne	.L713
	b	.L662
.LVL703:
.L682:
	.loc 1 3381 5 view .LVU2435
	.loc 1 3381 7 is_stmt 0 view .LVU2436
	ldr	r3, [r10, #4]
.LVL704:
	.loc 1 3381 7 view .LVU2437
	cmp	r3, #8
	beq	.L703
.LVL705:
	.loc 1 3391 20 is_stmt 1 view .LVU2438
	cmp	r1, #0
	.loc 1 3391 13 is_stmt 0 view .LVU2439
	movne	r3, #0
	.loc 1 3394 37 view .LVU2440
	addne	r1, r7, #2
.LVL706:
	.loc 1 3391 20 view .LVU2441
	beq	.L662
.LVL707:
.L704:
	.loc 1 3393 9 is_stmt 1 view .LVU2442
	.loc 1 3394 23 view .LVU2443
	.loc 1 3391 37 view .LVU2444
	.loc 1 3393 47 is_stmt 0 view .LVU2445
	ldrb	r2, [r7, r3, lsl #2]	@ zero_extendqisi2
	.loc 1 3394 11 view .LVU2446
	cmp	r9, #0
	.loc 1 3393 43 view .LVU2447
	strb	r2, [r5, #2]
	.loc 1 3393 31 view .LVU2448
	strb	r2, [r5, #1]
	.loc 1 3393 19 view .LVU2449
	strb	r2, [r5]
	.loc 1 3394 9 is_stmt 1 view .LVU2450
	.loc 1 3394 37 is_stmt 0 view .LVU2451
	ldrbne	r2, [r1, r3, lsl #2]	@ zero_extendqisi2
	.loc 1 3391 34 view .LVU2452
	add	r3, r3, #1
.LVL708:
	.loc 1 3394 33 view .LVU2453
	strbne	r2, [r5, #3]
	.loc 1 3391 20 view .LVU2454
	cmp	r8, r3
	.loc 1 3391 46 view .LVU2455
	add	r5, r5, fp
.LVL709:
	.loc 1 3391 20 is_stmt 1 view .LVU2456
	bne	.L704
	b	.L662
.LVL710:
.L683:
.LBB1366:
	.loc 1 3358 18 view .LVU2457
	cmp	r1, #0
	beq	.L662
	.loc 1 3357 12 is_stmt 0 view .LVU2458
	mov	r2, #0
.LVL711:
	.loc 1 3357 12 view .LVU2459
	add	r8, r3, r1
	.loc 1 3360 14 view .LVU2460
	ldr	r1, [r10, #4]
.LVL712:
	.loc 1 3360 14 view .LVU2461
	mov	ip, r3
	.loc 1 3360 9 view .LVU2462
	cmp	r1, #8
	.loc 1 3368 33 view .LVU2463
	mvn	r4, #0
.LBB1367:
.LBB1368:
	.loc 1 2386 12 view .LVU2464
	mov	lr, r2
.LVL713:
	.loc 1 2386 12 view .LVU2465
.LBE1368:
.LBE1367:
	.loc 1 3360 7 is_stmt 1 view .LVU2466
	.loc 1 3360 9 is_stmt 0 view .LVU2467
	beq	.L694
.LVL714:
.L787:
.LBB1372:
.LBB1371:
	.loc 1 2388 17 is_stmt 1 view .LVU2468
	cmp	r1, #0
	addne	r0, r1, r2
	.loc 1 2386 12 is_stmt 0 view .LVU2469
	movne	r1, #0
	.loc 1 2388 17 view .LVU2470
	beq	.L696
.LVL715:
.L697:
	.loc 1 2390 5 is_stmt 1 view .LVU2471
	.loc 1 2391 5 view .LVU2472
.LBB1369:
.LBI1369:
	.loc 1 2377 22 view .LVU2473
.LBB1370:
	.loc 1 2379 3 view .LVU2474
	.loc 1 2379 79 is_stmt 0 view .LVU2475
	mvn	r6, r2
	.loc 1 2379 52 view .LVU2476
	ldrb	r3, [r7, r2, lsr #3]	@ zero_extendqisi2
	.loc 1 2379 79 view .LVU2477
	and	r6, r6, #7
	.loc 1 2380 3 view .LVU2478
	add	r2, r2, #1
.LVL716:
	.loc 1 2379 73 view .LVU2479
	asr	r3, r3, r6
	.loc 1 2379 17 view .LVU2480
	and	r3, r3, #1
.LVL717:
	.loc 1 2380 3 is_stmt 1 view .LVU2481
	.loc 1 2381 3 view .LVU2482
	.loc 1 2381 3 is_stmt 0 view .LVU2483
.LBE1370:
.LBE1369:
	.loc 1 2388 17 view .LVU2484
	cmp	r0, r2
	.loc 1 2391 12 view .LVU2485
	orr	r1, r3, r1, lsl #1
.LVL718:
	.loc 1 2388 26 is_stmt 1 view .LVU2486
	.loc 1 2388 17 view .LVU2487
	bne	.L697
.LVL719:
.L696:
	.loc 1 2388 17 is_stmt 0 view .LVU2488
.LBE1371:
.LBE1372:
	.loc 1 3363 7 is_stmt 1 view .LVU2489
	.loc 1 3363 9 is_stmt 0 view .LVU2490
	ldr	r3, [r10, #12]
	cmp	r3, r1
	bhi	.L698
.L788:
	.loc 1 3367 9 is_stmt 1 view .LVU2491
	.loc 1 3368 11 is_stmt 0 view .LVU2492
	cmp	r9, #0
	.loc 1 3367 43 view .LVU2493
	strb	lr, [r5, #2]
	.loc 1 3367 31 view .LVU2494
	strb	lr, [r5, #1]
	.loc 1 3367 19 view .LVU2495
	strb	lr, [r5]
	.loc 1 3368 9 is_stmt 1 view .LVU2496
	.loc 1 3368 33 is_stmt 0 view .LVU2497
	strbne	r4, [r5, #3]
.LVL720:
.L700:
	.loc 1 3358 35 is_stmt 1 discriminator 2 view .LVU2498
	.loc 1 3358 18 is_stmt 0 discriminator 2 view .LVU2499
	add	ip, ip, #1
.LVL721:
	.loc 1 3358 18 discriminator 2 view .LVU2500
	cmp	r8, ip
	.loc 1 3358 44 discriminator 2 view .LVU2501
	add	r5, r5, fp
.LVL722:
	.loc 1 3358 18 is_stmt 1 discriminator 2 view .LVU2502
	beq	.L662
	.loc 1 3360 7 view .LVU2503
	.loc 1 3360 14 is_stmt 0 view .LVU2504
	ldr	r1, [r10, #4]
	.loc 1 3360 9 view .LVU2505
	cmp	r1, #8
	bne	.L787
.LVL723:
.L694:
	.loc 1 3360 31 is_stmt 1 discriminator 1 view .LVU2506
	.loc 1 3360 37 is_stmt 0 discriminator 1 view .LVU2507
	ldrb	r1, [ip]	@ zero_extendqisi2
.LVL724:
	.loc 1 3363 7 is_stmt 1 discriminator 1 view .LVU2508
	.loc 1 3363 9 is_stmt 0 discriminator 1 view .LVU2509
	ldr	r3, [r10, #12]
	cmp	r3, r1
	bls	.L788
.L698:
	.loc 1 3372 9 is_stmt 1 view .LVU2510
	.loc 1 3372 34 is_stmt 0 view .LVU2511
	ldr	r3, [r10, #8]
	.loc 1 3375 11 view .LVU2512
	cmp	r9, #0
	.loc 1 3372 34 view .LVU2513
	ldrb	r3, [r3, r1, lsl #2]	@ zero_extendqisi2
	.loc 1 3372 19 view .LVU2514
	strb	r3, [r5]
	.loc 1 3373 9 is_stmt 1 view .LVU2515
	.loc 1 3373 34 is_stmt 0 view .LVU2516
	ldr	r3, [r10, #8]
	add	r3, r3, r1, lsl #2
	ldrb	r3, [r3, #1]	@ zero_extendqisi2
	.loc 1 3373 19 view .LVU2517
	strb	r3, [r5, #1]
	.loc 1 3374 9 is_stmt 1 view .LVU2518
	.loc 1 3374 34 is_stmt 0 view .LVU2519
	ldr	r3, [r10, #8]
	add	r3, r3, r1, lsl #2
	ldrb	r3, [r3, #2]	@ zero_extendqisi2
	.loc 1 3372 41 view .LVU2520
	lsl	r1, r1, #2
.LVL725:
	.loc 1 3374 19 view .LVU2521
	strb	r3, [r5, #2]
	.loc 1 3375 9 is_stmt 1 view .LVU2522
	.loc 1 3375 23 view .LVU2523
	.loc 1 3375 48 is_stmt 0 view .LVU2524
	ldrne	r3, [r10, #8]
	addne	r3, r3, r1
	ldrbne	r3, [r3, #3]	@ zero_extendqisi2
	.loc 1 3375 33 view .LVU2525
	strbne	r3, [r5, #3]
	b	.L700
.LVL726:
.L784:
	.loc 1 3375 33 view .LVU2526
.LBE1366:
	.loc 1 3309 20 is_stmt 1 view .LVU2527
	cmp	r1, #0
	beq	.L662
	.loc 1 3312 81 is_stmt 0 view .LVU2528
	add	r2, r3, #1
.LVL727:
.L674:
	.loc 1 3311 9 is_stmt 1 view .LVU2529
	.loc 1 3312 23 view .LVU2530
	.loc 1 3311 47 is_stmt 0 view .LVU2531
	ldrb	r3, [r7, r4, lsl #1]	@ zero_extendqisi2
	.loc 1 3312 11 view .LVU2532
	cmp	r9, #0
	.loc 1 3311 43 view .LVU2533
	strb	r3, [r5, #2]
	.loc 1 3311 31 view .LVU2534
	strb	r3, [r5, #1]
	.loc 1 3311 19 view .LVU2535
	strb	r3, [r5]
	.loc 1 3312 9 is_stmt 1 view .LVU2536
	.loc 1 3312 11 is_stmt 0 view .LVU2537
	beq	.L672
	.loc 1 3312 33 discriminator 1 view .LVU2538
	ldr	r3, [r10, #16]
	cmp	r3, #0
	moveq	r3, #255
	beq	.L673
	.loc 1 3312 65 discriminator 2 view .LVU2539
	ldrb	r1, [r7, r4, lsl #1]	@ zero_extendqisi2
	.loc 1 3312 81 discriminator 2 view .LVU2540
	ldrb	r3, [r2, r4, lsl #1]	@ zero_extendqisi2
	.loc 1 3312 77 discriminator 2 view .LVU2541
	add	r3, r3, r1, lsl #8
	.loc 1 3312 53 discriminator 2 view .LVU2542
	ldr	r1, [r10, #20]
	subs	r3, r3, r1
	mvnne	r3, #0
	uxtb	r3, r3
.L673:
	.loc 1 3312 33 discriminator 7 view .LVU2543
	strb	r3, [r5, #3]
.L672:
	.loc 1 3309 37 is_stmt 1 discriminator 2 view .LVU2544
	.loc 1 3309 34 is_stmt 0 discriminator 2 view .LVU2545
	add	r4, r4, #1
.LVL728:
	.loc 1 3309 20 discriminator 2 view .LVU2546
	cmp	r8, r4
	.loc 1 3309 46 discriminator 2 view .LVU2547
	add	r5, r5, fp
.LVL729:
	.loc 1 3309 20 is_stmt 1 discriminator 2 view .LVU2548
	bne	.L674
	b	.L662
.LVL730:
.L786:
	.loc 1 3349 24 is_stmt 0 view .LVU2549
	ldrb	r0, [r7, #2]	@ zero_extendqisi2
	.loc 1 3349 40 view .LVU2550
	ldrb	r1, [r7, #3]	@ zero_extendqisi2
	.loc 1 3349 36 view .LVU2551
	add	r1, r1, r0, lsl #8
	.loc 1 3349 12 view .LVU2552
	ldr	r0, [r10, #24]
	cmp	r1, r0
	bne	.L723
	.loc 1 3350 40 view .LVU2553
	ldrb	r1, [r7, #5]	@ zero_extendqisi2
	.loc 1 3350 36 view .LVU2554
	add	r3, r1, r3, lsl #8
	.loc 1 3350 12 view .LVU2555
	ldr	r1, [r10, #28]
	subs	r3, r3, r1
	mvnne	r3, #0
	uxtb	r3, r3
	b	.L692
.LVL731:
.L686:
	.loc 1 3331 20 is_stmt 1 view .LVU2556
	cmp	r1, #0
	beq	.L662
	add	r8, r1, r1, lsl #1
	add	r0, r7, r8
.LVL732:
.L690:
	.loc 1 3333 9 view .LVU2557
	.loc 1 3336 23 view .LVU2558
	.loc 1 3333 23 is_stmt 0 view .LVU2559
	ldrb	r3, [r7]	@ zero_extendqisi2
	.loc 1 3336 11 view .LVU2560
	cmp	r9, #0
	.loc 1 3333 19 view .LVU2561
	strb	r3, [r5]
	.loc 1 3334 9 is_stmt 1 view .LVU2562
	.loc 1 3334 23 is_stmt 0 view .LVU2563
	ldrb	r1, [r7, #1]	@ zero_extendqisi2
	.loc 1 3334 19 view .LVU2564
	strb	r1, [r5, #1]
	.loc 1 3335 9 is_stmt 1 view .LVU2565
	.loc 1 3335 23 is_stmt 0 view .LVU2566
	ldrb	r2, [r7, #2]	@ zero_extendqisi2
	.loc 1 3335 19 view .LVU2567
	strb	r2, [r5, #2]
	.loc 1 3336 9 is_stmt 1 view .LVU2568
	.loc 1 3336 11 is_stmt 0 view .LVU2569
	beq	.L688
	.loc 1 3336 33 discriminator 1 view .LVU2570
	ldr	ip, [r10, #16]
	cmp	ip, #0
	beq	.L720
	.loc 1 3336 53 discriminator 2 view .LVU2571
	ldr	ip, [r10, #20]
	cmp	r3, ip
	beq	.L789
.L720:
	.loc 1 3336 33 view .LVU2572
	mov	r3, #255
.L689:
	.loc 1 3336 33 discriminator 6 view .LVU2573
	strb	r3, [r5, #3]
.L688:
	.loc 1 3331 37 is_stmt 1 discriminator 2 view .LVU2574
	.loc 1 3331 20 is_stmt 0 discriminator 2 view .LVU2575
	add	r7, r7, #3
	cmp	r0, r7
	.loc 1 3331 46 discriminator 2 view .LVU2576
	add	r5, r5, fp
.LVL733:
	.loc 1 3331 20 is_stmt 1 discriminator 2 view .LVU2577
	bne	.L690
	b	.L662
.LVL734:
.L703:
	.loc 1 3383 20 view .LVU2578
	cmp	r1, #0
	beq	.L662
	.loc 1 3383 13 is_stmt 0 view .LVU2579
	mov	r3, #0
	.loc 1 3386 37 view .LVU2580
	add	r1, r7, #1
.LVL735:
.L706:
	.loc 1 3385 9 is_stmt 1 view .LVU2581
	.loc 1 3386 23 view .LVU2582
	.loc 1 3383 37 view .LVU2583
	.loc 1 3385 47 is_stmt 0 view .LVU2584
	ldrb	r2, [r7, r3, lsl #1]	@ zero_extendqisi2
	.loc 1 3386 11 view .LVU2585
	cmp	r9, #0
	.loc 1 3385 43 view .LVU2586
	strb	r2, [r5, #2]
	.loc 1 3385 31 view .LVU2587
	strb	r2, [r5, #1]
	.loc 1 3385 19 view .LVU2588
	strb	r2, [r5]
	.loc 1 3386 9 is_stmt 1 view .LVU2589
	.loc 1 3386 37 is_stmt 0 view .LVU2590
	ldrbne	r2, [r1, r3, lsl #1]	@ zero_extendqisi2
	.loc 1 3383 34 view .LVU2591
	add	r3, r3, #1
.LVL736:
	.loc 1 3386 33 view .LVU2592
	strbne	r2, [r5, #3]
	.loc 1 3383 20 view .LVU2593
	cmp	r8, r3
	.loc 1 3383 46 view .LVU2594
	add	r5, r5, fp
.LVL737:
	.loc 1 3383 20 is_stmt 1 view .LVU2595
	bne	.L706
	b	.L662
.LVL738:
.L708:
	.loc 1 3402 20 view .LVU2596
	cmp	r1, #0
	beq	.L662
	add	r8, r7, r1, lsl #2
.LVL739:
.L711:
	.loc 1 3404 9 view .LVU2597
	.loc 1 3407 23 view .LVU2598
	.loc 1 3402 37 view .LVU2599
	.loc 1 3404 23 is_stmt 0 view .LVU2600
	ldrb	r3, [r7]	@ zero_extendqisi2
	.loc 1 3407 11 view .LVU2601
	cmp	r9, #0
	.loc 1 3404 19 view .LVU2602
	strb	r3, [r5]
	.loc 1 3405 9 is_stmt 1 view .LVU2603
	.loc 1 3405 23 is_stmt 0 view .LVU2604
	ldrb	r3, [r7, #1]	@ zero_extendqisi2
	.loc 1 3402 20 view .LVU2605
	add	r7, r7, #4
	.loc 1 3405 19 view .LVU2606
	strb	r3, [r5, #1]
	.loc 1 3406 9 is_stmt 1 view .LVU2607
	.loc 1 3406 23 is_stmt 0 view .LVU2608
	ldrb	r3, [r7, #-2]	@ zero_extendqisi2
	.loc 1 3406 19 view .LVU2609
	strb	r3, [r5, #2]
	.loc 1 3407 9 is_stmt 1 view .LVU2610
	.loc 1 3407 37 is_stmt 0 view .LVU2611
	ldrbne	r3, [r7, #-1]	@ zero_extendqisi2
	.loc 1 3407 33 view .LVU2612
	strbne	r3, [r5, #3]
	.loc 1 3402 20 view .LVU2613
	cmp	r8, r7
	.loc 1 3402 46 view .LVU2614
	add	r5, r5, fp
.LVL740:
	.loc 1 3402 20 is_stmt 1 view .LVU2615
	bne	.L711
	b	.L662
.LVL741:
.L789:
	.loc 1 3337 12 is_stmt 0 view .LVU2616
	ldr	r3, [r10, #24]
	cmp	r1, r3
	bne	.L720
	.loc 1 3337 39 discriminator 1 view .LVU2617
	ldr	r3, [r10, #28]
	subs	r3, r3, r2
	mvnne	r3, #0
	uxtb	r3, r3
	b	.L689
	.cfi_endproc
.LFE143:
	.size	getPixelColorsRGBA8, .-getPixelColorsRGBA8
	.section	.text.HuffmanTree_makeFromLengths2,"ax",%progbits
	.align	2
	.syntax unified
	.arm
	.fpu vfp
	.type	HuffmanTree_makeFromLengths2, %function
HuffmanTree_makeFromLengths2:
.LVL742:
.LFB36:
	.loc 1 612 1 is_stmt 1 view -0
	.cfi_startproc
	@ args = 0, pretend = 0, frame = 8
	@ frame_needed = 0, uses_anonymous_args = 0
	.loc 1 613 3 view .LVU2619
	.loc 1 614 3 view .LVU2620
	.loc 1 615 3 view .LVU2621
	.loc 1 616 3 view .LVU2622
	.loc 1 618 3 view .LVU2623
.LBB1410:
.LBI1410:
	.loc 1 185 13 view .LVU2624
.LBB1411:
	.loc 1 187 3 view .LVU2625
	.loc 1 188 3 view .LVU2626
	.loc 1 188 3 is_stmt 0 view .LVU2627
.LBE1411:
.LBE1410:
	.loc 1 619 3 is_stmt 1 view .LVU2628
.LBB1412:
.LBI1412:
	.loc 1 185 13 view .LVU2629
.LBB1413:
	.loc 1 187 3 view .LVU2630
	.loc 1 188 3 view .LVU2631
	.loc 1 188 3 is_stmt 0 view .LVU2632
.LBE1413:
.LBE1412:
	.loc 1 621 3 is_stmt 1 view .LVU2633
	.loc 1 612 1 is_stmt 0 view .LVU2634
	push	{r4, r5, r6, r7, r8, r9, r10, fp, lr}
	.cfi_def_cfa_offset 36
	.cfi_offset 4, -36
	.cfi_offset 5, -32
	.cfi_offset 6, -28
	.cfi_offset 7, -24
	.cfi_offset 8, -20
	.cfi_offset 9, -16
	.cfi_offset 10, -12
	.cfi_offset 11, -8
	.cfi_offset 14, -4
	.loc 1 621 48 view .LVU2635
	ldr	r4, [r0, #16]
	.loc 1 612 1 view .LVU2636
	mov	r5, r0
	.loc 1 621 29 view .LVU2637
	lsl	r8, r4, #2
.LVL743:
.LBB1416:
.LBI1416:
	.loc 1 63 14 is_stmt 1 view .LVU2638
.LBB1417:
	.loc 1 65 3 view .LVU2639
	.loc 1 65 10 is_stmt 0 view .LVU2640
	mov	r0, r8
.LVL744:
	.loc 1 65 10 view .LVU2641
.LBE1417:
.LBE1416:
	.loc 1 612 1 view .LVU2642
	sub	sp, sp, #12
	.cfi_def_cfa_offset 48
.LBB1419:
.LBB1418:
	.loc 1 65 10 view .LVU2643
	bl	malloc
.LVL745:
.LBE1418:
.LBE1419:
	.loc 1 624 38 view .LVU2644
	ldr	r3, [r5, #12]
	.loc 1 622 27 view .LVU2645
	subs	r6, r0, #0
	.loc 1 624 7 view .LVU2646
	add	r10, r3, #1
	.loc 1 622 27 view .LVU2647
	movne	r7, #0
	moveq	r7, #83
.LBB1420:
.LBB1421:
.LBB1422:
.LBB1423:
.LBB1424:
.LBB1425:
	.loc 1 154 5 view .LVU2648
	lsls	fp, r10, #2
.LBE1425:
.LBE1424:
.LBE1423:
.LBE1422:
.LBE1421:
.LBE1420:
	.loc 1 621 16 view .LVU2649
	str	r0, [r5, #4]
	.loc 1 622 3 is_stmt 1 view .LVU2650
.LVL746:
	.loc 1 624 3 view .LVU2651
.LBB1440:
.LBI1420:
	.loc 1 177 17 view .LVU2652
.LBB1437:
	.loc 1 179 3 view .LVU2653
	.loc 1 180 3 view .LVU2654
.LBB1436:
.LBI1422:
	.loc 1 169 17 view .LVU2655
.LBB1435:
	.loc 1 171 3 view .LVU2656
.LBB1434:
.LBI1424:
	.loc 1 152 17 view .LVU2657
.LBB1433:
	.loc 1 154 3 view .LVU2658
	.loc 1 154 5 is_stmt 0 view .LVU2659
	beq	.L792
.LBB1426:
.LBB1427:
.LBB1428:
	.loc 1 70 10 view .LVU2660
	mov	r1, #1
	mov	r0, fp
	str	r3, [sp]
.LBE1428:
.LBE1427:
	.loc 1 156 5 is_stmt 1 view .LVU2661
.LVL747:
	.loc 1 157 5 view .LVU2662
.LBB1431:
.LBI1427:
	.loc 1 68 14 view .LVU2663
.LBB1429:
	.loc 1 70 3 view .LVU2664
	.loc 1 70 10 is_stmt 0 view .LVU2665
	bl	calloc
.LVL748:
.LBE1429:
.LBE1431:
	.loc 1 158 7 view .LVU2666
	cmp	r0, #0
.LBB1432:
.LBB1430:
	.loc 1 70 10 view .LVU2667
	mov	r2, r0
	mov	r9, r0
.LVL749:
	.loc 1 70 10 view .LVU2668
.LBE1430:
.LBE1432:
	.loc 1 158 5 is_stmt 1 view .LVU2669
	.loc 1 158 7 is_stmt 0 view .LVU2670
	ldr	r3, [sp]
	beq	.L862
.LVL750:
	.loc 1 158 7 view .LVU2671
.LBE1426:
.LBE1433:
.LBE1434:
.LBE1435:
.LBE1436:
	.loc 1 181 22 is_stmt 1 view .LVU2672
	cmp	r10, #0
	beq	.L796
.LVL751:
	.loc 1 181 22 is_stmt 0 view .LVU2673
.LBE1437:
.LBE1440:
.LBB1441:
.LBI1441:
	.loc 1 177 17 is_stmt 1 view .LVU2674
.LBB1442:
	.loc 1 179 3 view .LVU2675
	.loc 1 180 3 view .LVU2676
.LBB1443:
.LBI1443:
	.loc 1 169 17 view .LVU2677
	.loc 1 171 3 view .LVU2678
.LBB1444:
.LBI1444:
	.loc 1 152 17 view .LVU2679
	.loc 1 154 3 view .LVU2680
.LBB1445:
	.loc 1 156 5 view .LVU2681
	.loc 1 157 5 view .LVU2682
.LBB1446:
.LBI1446:
	.loc 1 68 14 view .LVU2683
.LBB1447:
	.loc 1 70 3 view .LVU2684
	.loc 1 70 10 is_stmt 0 view .LVU2685
	mov	r0, fp
.LVL752:
	.loc 1 70 10 view .LVU2686
	str	r2, [sp, #4]
	str	r3, [sp]
	bl	malloc
.LVL753:
	.loc 1 70 10 view .LVU2687
.LBE1447:
.LBE1446:
	.loc 1 158 5 is_stmt 1 view .LVU2688
	.loc 1 158 7 is_stmt 0 view .LVU2689
	subs	r10, r0, #0
.LVL754:
	.loc 1 158 7 view .LVU2690
	ldr	r3, [sp]
	ldr	r2, [sp, #4]
	beq	.L863
.LVL755:
.L795:
	.loc 1 158 7 view .LVU2691
.LBE1445:
.LBE1444:
.LBE1443:
	.loc 1 181 46 view .LVU2692
	cmn	r3, #1
	movne	r2, fp
	moveq	r2, #4
	mov	r1, #0
	mov	r0, r10
	str	r3, [sp]
	bl	memset
.LVL756:
	ldr	r3, [sp]
.L829:
	.loc 1 181 46 view .LVU2693
.LBE1442:
.LBE1441:
	.loc 1 628 3 is_stmt 1 view .LVU2694
	.loc 1 628 5 is_stmt 0 view .LVU2695
	cmp	r7, #0
	bne	.L797
.LVL757:
	.loc 1 631 24 is_stmt 1 view .LVU2696
	cmp	r4, #0
	beq	.L864
	.loc 1 631 70 is_stmt 0 view .LVU2697
	ldr	r1, [r5, #8]
	add	lr, r1, r8
	sub	lr, lr, #4
	sub	r0, r1, #4
.LVL758:
.L801:
	.loc 1 631 51 is_stmt 1 discriminator 3 view .LVU2698
	.loc 1 631 65 is_stmt 0 discriminator 3 view .LVU2699
	ldr	ip, [r0, #4]!
	.loc 1 631 51 discriminator 3 view .LVU2700
	ldr	r2, [r9, ip, lsl #2]
	.loc 1 631 24 discriminator 3 view .LVU2701
	cmp	lr, r0
	.loc 1 631 51 discriminator 3 view .LVU2702
	add	r2, r2, #1
	str	r2, [r9, ip, lsl #2]
	.loc 1 631 43 is_stmt 1 discriminator 3 view .LVU2703
	.loc 1 631 24 discriminator 3 view .LVU2704
	bne	.L801
.LVL759:
	.loc 1 633 24 view .LVU2705
	cmp	r3, #0
	beq	.L803
.L799:
	.loc 1 633 24 is_stmt 0 view .LVU2706
	mov	r2, r10
	sub	ip, fp, #4
	add	ip, ip, r10
	sub	r1, r9, #4
.LVL760:
.L804:
	.loc 1 635 7 is_stmt 1 discriminator 3 view .LVU2707
	.loc 1 635 43 is_stmt 0 discriminator 3 view .LVU2708
	ldr	r3, [r2]
	.loc 1 635 54 discriminator 3 view .LVU2709
	ldr	r0, [r1, #4]!
	add	r3, r3, r0
	.loc 1 635 80 discriminator 3 view .LVU2710
	lsl	r3, r3, #1
	.loc 1 635 27 discriminator 3 view .LVU2711
	str	r3, [r2, #4]!
	.loc 1 633 44 is_stmt 1 discriminator 3 view .LVU2712
	.loc 1 633 24 discriminator 3 view .LVU2713
	cmp	ip, r2
	bne	.L804
.LVL761:
	.loc 1 638 18 view .LVU2714
	cmp	r4, #0
	beq	.L800
	ldr	r1, [r5, #8]
.LVL762:
.L803:
	.loc 1 638 18 is_stmt 0 view .LVU2715
	mov	r2, r6
	add	ip, r1, r8
	sub	ip, ip, #4
	sub	r1, r1, #4
.LVL763:
.L809:
	.loc 1 640 7 is_stmt 1 view .LVU2716
	.loc 1 640 33 view .LVU2717
	.loc 1 638 37 view .LVU2718
	.loc 1 638 18 view .LVU2719
	.loc 1 640 23 is_stmt 0 view .LVU2720
	ldr	r3, [r1, #4]!
	.loc 1 638 18 view .LVU2721
	add	r2, r2, #4
	.loc 1 640 9 view .LVU2722
	cmp	r3, #0
	.loc 1 640 64 view .LVU2723
	ldrne	r0, [r10, r3, lsl #2]
	.loc 1 640 49 view .LVU2724
	strne	r0, [r2, #-4]
	.loc 1 640 82 view .LVU2725
	addne	r0, r0, #1
	strne	r0, [r10, r3, lsl #2]
	.loc 1 638 18 view .LVU2726
	cmp	ip, r1
	bne	.L809
.LVL764:
	.loc 1 644 3 is_stmt 1 view .LVU2727
.LBB1449:
.LBI1449:
	.loc 1 144 13 view .LVU2728
	.loc 1 146 3 view .LVU2729
	.loc 1 147 3 view .LVU2730
.LBB1450:
.LBI1450:
	.loc 1 73 13 view .LVU2731
.LBB1451:
	.loc 1 75 3 view .LVU2732
	mov	r0, r9
	bl	free
.LVL765:
	.loc 1 75 3 is_stmt 0 view .LVU2733
.LBE1451:
.LBE1450:
	.loc 1 148 3 is_stmt 1 view .LVU2734
	.loc 1 148 3 is_stmt 0 view .LVU2735
.LBE1449:
	.loc 1 645 3 is_stmt 1 view .LVU2736
.LBB1460:
.LBI1460:
	.loc 1 144 13 view .LVU2737
	.loc 1 146 3 view .LVU2738
	.loc 1 147 3 view .LVU2739
.LBB1461:
.LBI1461:
	.loc 1 73 13 view .LVU2740
.LBB1462:
	.loc 1 75 3 view .LVU2741
.LBE1462:
.LBE1461:
.LBE1460:
.LBB1473:
.LBB1474:
	.loc 1 552 29 is_stmt 0 view .LVU2742
	lsl	r8, r4, #3
.LVL766:
	.loc 1 552 29 view .LVU2743
.LBE1474:
.LBE1473:
.LBB1492:
.LBB1468:
.LBB1463:
	.loc 1 75 3 view .LVU2744
	mov	r0, r10
	bl	free
.LVL767:
	.loc 1 75 3 view .LVU2745
.LBE1463:
.LBE1468:
	.loc 1 148 3 is_stmt 1 view .LVU2746
	.loc 1 148 3 is_stmt 0 view .LVU2747
.LBE1492:
	.loc 1 647 3 is_stmt 1 view .LVU2748
	.loc 1 647 14 view .LVU2749
.LBB1493:
.LBI1473:
	.loc 1 546 17 view .LVU2750
.LBB1489:
	.loc 1 548 3 view .LVU2751
	.loc 1 549 3 view .LVU2752
	.loc 1 550 3 view .LVU2753
	.loc 1 552 3 view .LVU2754
.LBB1475:
.LBI1475:
	.loc 1 63 14 view .LVU2755
.LBB1476:
	.loc 1 65 3 view .LVU2756
	.loc 1 65 10 is_stmt 0 view .LVU2757
	mov	r0, r8
	bl	malloc
.LVL768:
.LBE1476:
.LBE1475:
	.loc 1 553 5 view .LVU2758
	cmp	r0, #0
.LBB1479:
.LBB1477:
	.loc 1 65 10 view .LVU2759
	mov	lr, r0
.LVL769:
	.loc 1 65 10 view .LVU2760
.LBE1477:
.LBE1479:
	.loc 1 552 16 view .LVU2761
	str	r0, [r5]
	.loc 1 553 3 is_stmt 1 view .LVU2762
	.loc 1 553 5 is_stmt 0 view .LVU2763
	beq	.L862
.LVL770:
	.loc 1 565 16 is_stmt 1 view .LVU2764
	lsls	r3, r4, #1
	str	r3, [sp]
	beq	.L811
	sub	r2, r8, #4
	.loc 1 567 21 is_stmt 0 view .LVU2765
	ldr	r1, .L868
	add	r2, r0, r2
	sub	r3, r0, #4
.LVL771:
.L812:
	.loc 1 567 5 is_stmt 1 view .LVU2766
	.loc 1 567 21 is_stmt 0 view .LVU2767
	str	r1, [r3, #4]!
	.loc 1 565 38 is_stmt 1 view .LVU2768
	.loc 1 565 16 view .LVU2769
	cmp	r2, r3
	bne	.L812
.L811:
.LVL772:
	.loc 1 570 16 view .LVU2770
	cmp	r4, #0
	beq	.L790
	.loc 1 549 12 is_stmt 0 view .LVU2771
	mov	r3, #0
	.loc 1 548 12 view .LVU2772
	mov	r9, r3
	.loc 1 570 9 view .LVU2773
	mov	fp, r3
	ldr	r10, [r5, #8]
.LBB1480:
	.loc 1 577 9 view .LVU2774
	ldr	r8, .L868
	sub	r10, r10, #4
.LVL773:
.L828:
	.loc 1 577 9 view .LVU2775
.LBE1480:
	.loc 1 572 18 is_stmt 1 view .LVU2776
	.loc 1 572 34 is_stmt 0 view .LVU2777
	ldr	r0, [r10, #4]!
	.loc 1 572 18 view .LVU2778
	cmp	r0, #0
	beq	.L818
.LBB1481:
	.loc 1 574 7 is_stmt 1 view .LVU2779
	.loc 1 574 56 is_stmt 0 view .LVU2780
	ldr	ip, [r6, fp, lsl #2]
	.loc 1 574 85 view .LVU2781
	sub	r2, r0, #1
	.loc 1 574 60 view .LVU2782
	lsr	r2, ip, r2
	.loc 1 576 9 view .LVU2783
	cmp	r3, #0
	.loc 1 574 21 view .LVU2784
	and	r2, r2, #1
.LVL774:
	.loc 1 576 7 is_stmt 1 view .LVU2785
	.loc 1 576 9 is_stmt 0 view .LVU2786
	blt	.L814
	.loc 1 576 42 view .LVU2787
	add	r1, r3, #2
	.loc 1 576 31 view .LVU2788
	cmp	r4, r1
	bcc	.L814
.LBE1481:
	.loc 1 572 11 view .LVU2789
	mov	r1, #0
.LVL775:
.L822:
.LBB1482:
	.loc 1 577 7 is_stmt 1 view .LVU2790
	.loc 1 594 12 view .LVU2791
	.loc 1 577 35 is_stmt 0 view .LVU2792
	add	r2, r2, r3, lsl #1
.LVL776:
	.loc 1 577 22 view .LVU2793
	ldr	r3, [lr, r2, lsl #2]
.LVL777:
	.loc 1 579 14 view .LVU2794
	add	r1, r1, #1
.LVL778:
	.loc 1 577 9 view .LVU2795
	cmp	r3, r8
	.loc 1 594 20 view .LVU2796
	subne	r3, r3, r4
	.loc 1 577 9 view .LVU2797
	beq	.L865
.L819:
	.loc 1 574 7 is_stmt 1 view .LVU2798
.LVL779:
	.loc 1 574 7 is_stmt 0 view .LVU2799
.LBE1482:
	.loc 1 572 39 is_stmt 1 view .LVU2800
	.loc 1 572 18 view .LVU2801
.LBB1483:
	.loc 1 574 85 is_stmt 0 view .LVU2802
	sub	r2, r0, r1
	sub	r2, r2, #1
.LBE1483:
	.loc 1 572 18 view .LVU2803
	cmp	r0, r1
.LBB1484:
	.loc 1 576 42 view .LVU2804
	add	r5, r3, #2
	.loc 1 574 60 view .LVU2805
	lsr	r2, ip, r2
.LBE1484:
	.loc 1 572 18 view .LVU2806
	beq	.L818
.LBB1485:
	.loc 1 576 9 view .LVU2807
	cmp	r3, #0
	.loc 1 574 21 view .LVU2808
	and	r2, r2, #1
.LVL780:
	.loc 1 576 7 is_stmt 1 view .LVU2809
	.loc 1 576 9 is_stmt 0 view .LVU2810
	blt	.L814
	.loc 1 576 31 view .LVU2811
	cmp	r4, r5
	bcs	.L822
.LVL781:
.L814:
	.loc 1 576 71 view .LVU2812
	mov	r7, #55
.LBE1485:
.LBE1489:
.LBE1493:
	.loc 1 649 1 view .LVU2813
	mov	r0, r7
	add	sp, sp, #12
	.cfi_remember_state
	.cfi_def_cfa_offset 36
	@ sp needed
	pop	{r4, r5, r6, r7, r8, r9, r10, fp, pc}
.LVL782:
.L792:
	.cfi_restore_state
.LBB1494:
.LBB1438:
	.loc 1 181 22 is_stmt 1 view .LVU2814
	cmp	r10, #0
	mov	r9, fp
.LBE1438:
.LBE1494:
.LBB1495:
.LBB1414:
	.loc 1 187 11 is_stmt 0 view .LVU2815
	movne	r10, fp
.LVL783:
	.loc 1 187 11 view .LVU2816
.LBE1414:
.LBE1495:
.LBB1496:
.LBB1439:
	.loc 1 181 22 view .LVU2817
	bne	.L795
.LVL784:
.L796:
	.loc 1 181 22 view .LVU2818
.LBE1439:
.LBE1496:
.LBB1497:
.LBB1448:
	.loc 1 181 22 is_stmt 1 view .LVU2819
.LBE1448:
.LBE1497:
.LBB1498:
.LBB1415:
	.loc 1 187 11 is_stmt 0 view .LVU2820
	mov	r10, #0
	b	.L829
.LVL785:
.L797:
	.loc 1 187 11 view .LVU2821
.LBE1415:
.LBE1498:
	.loc 1 644 3 is_stmt 1 view .LVU2822
.LBB1499:
	.loc 1 144 13 view .LVU2823
	.loc 1 146 3 view .LVU2824
	.loc 1 147 3 view .LVU2825
.LBB1456:
	.loc 1 73 13 view .LVU2826
.LBB1452:
	.loc 1 75 3 view .LVU2827
	mov	r0, r9
	bl	free
.LVL786:
	.loc 1 75 3 is_stmt 0 view .LVU2828
.LBE1452:
.LBE1456:
	.loc 1 148 3 is_stmt 1 view .LVU2829
	.loc 1 148 3 is_stmt 0 view .LVU2830
.LBE1499:
	.loc 1 645 3 is_stmt 1 view .LVU2831
.LBB1500:
	.loc 1 144 13 view .LVU2832
	.loc 1 146 3 view .LVU2833
	.loc 1 147 3 view .LVU2834
.LBB1469:
	.loc 1 73 13 view .LVU2835
.LBB1464:
	.loc 1 75 3 view .LVU2836
	mov	r0, r10
	bl	free
.LVL787:
	.loc 1 75 3 is_stmt 0 view .LVU2837
.LBE1464:
.LBE1469:
	.loc 1 148 3 is_stmt 1 view .LVU2838
	.loc 1 148 3 is_stmt 0 view .LVU2839
.LBE1500:
	.loc 1 647 3 is_stmt 1 view .LVU2840
.LBB1501:
.LBB1470:
.LBB1465:
	.loc 1 75 3 is_stmt 0 view .LVU2841
	mov	r7, #83
.LVL788:
.L790:
	.loc 1 75 3 view .LVU2842
.LBE1465:
.LBE1470:
.LBE1501:
	.loc 1 649 1 view .LVU2843
	mov	r0, r7
	add	sp, sp, #12
	.cfi_remember_state
	.cfi_def_cfa_offset 36
	@ sp needed
	pop	{r4, r5, r6, r7, r8, r9, r10, fp, pc}
.LVL789:
.L865:
	.cfi_restore_state
.LBB1502:
.LBB1490:
.LBB1486:
	.loc 1 579 9 is_stmt 1 view .LVU2844
	.loc 1 588 11 view .LVU2845
	.loc 1 579 11 is_stmt 0 view .LVU2846
	cmp	r0, r1
	beq	.L866
	.loc 1 588 11 view .LVU2847
	add	r9, r9, #1
.LVL790:
	.loc 1 590 11 is_stmt 1 view .LVU2848
	.loc 1 590 56 is_stmt 0 view .LVU2849
	add	r3, r4, r9
	.loc 1 590 43 view .LVU2850
	str	r3, [lr, r2, lsl #2]
	.loc 1 591 11 is_stmt 1 view .LVU2851
.LVL791:
	.loc 1 591 11 is_stmt 0 view .LVU2852
	ldr	r0, [r10]
	.loc 1 591 19 view .LVU2853
	mov	r3, r9
	b	.L819
.LVL792:
.L866:
	.loc 1 581 11 is_stmt 1 view .LVU2854
	.loc 1 574 7 view .LVU2855
	.loc 1 581 43 is_stmt 0 view .LVU2856
	str	fp, [lr, r2, lsl #2]
	.loc 1 582 11 is_stmt 1 view .LVU2857
.LVL793:
	.loc 1 582 11 is_stmt 0 view .LVU2858
.LBE1486:
	.loc 1 572 39 is_stmt 1 view .LVU2859
	.loc 1 572 18 view .LVU2860
	.loc 1 572 34 is_stmt 0 view .LVU2861
	ldr	r0, [r10]
	.loc 1 572 18 view .LVU2862
	cmp	r0, r1
	beq	.L867
.LBB1487:
	.loc 1 574 85 view .LVU2863
	sub	r2, r0, r1
	sub	r2, r2, #1
	.loc 1 574 60 view .LVU2864
	lsr	r2, ip, r2
	.loc 1 582 19 view .LVU2865
	mov	r3, #0
	.loc 1 574 21 view .LVU2866
	and	r2, r2, #1
.LVL794:
	.loc 1 576 7 is_stmt 1 view .LVU2867
	.loc 1 576 7 is_stmt 0 view .LVU2868
	b	.L822
.LVL795:
.L867:
	.loc 1 582 19 view .LVU2869
	mov	r3, #0
.LVL796:
.L818:
	.loc 1 582 19 view .LVU2870
.LBE1487:
	.loc 1 570 34 is_stmt 1 view .LVU2871
	add	fp, fp, #1
.LVL797:
	.loc 1 570 16 view .LVU2872
	cmp	r4, fp
	bne	.L828
.LVL798:
	.loc 1 598 16 view .LVU2873
	ldr	r3, [sp]
.LVL799:
	.loc 1 598 16 is_stmt 0 view .LVU2874
	cmp	r3, #0
	beq	.L790
	.loc 1 600 50 view .LVU2875
	mov	r0, #0
	sub	lr, lr, #4
	.loc 1 600 7 view .LVU2876
	ldr	r1, .L868
	add	r2, lr, r3, lsl #2
.LVL800:
.L825:
	.loc 1 600 5 is_stmt 1 view .LVU2877
	.loc 1 598 38 view .LVU2878
	.loc 1 598 16 view .LVU2879
	.loc 1 600 7 is_stmt 0 view .LVU2880
	ldr	r3, [lr, #4]!
	cmp	r3, r1
	.loc 1 600 34 is_stmt 1 view .LVU2881
	.loc 1 600 50 is_stmt 0 view .LVU2882
	streq	r0, [lr]
	.loc 1 598 16 view .LVU2883
	cmp	r2, lr
	bne	.L825
	b	.L790
.LVL801:
.L863:
	.loc 1 598 16 view .LVU2884
.LBE1490:
.LBE1502:
	.loc 1 644 3 is_stmt 1 view .LVU2885
.LBB1503:
	.loc 1 144 13 view .LVU2886
	.loc 1 146 3 view .LVU2887
	.loc 1 147 3 view .LVU2888
.LBB1457:
	.loc 1 73 13 view .LVU2889
.LBB1453:
	.loc 1 75 3 view .LVU2890
	mov	r0, r2
.LVL802:
	.loc 1 75 3 is_stmt 0 view .LVU2891
	bl	free
.LVL803:
.L862:
	.loc 1 75 3 view .LVU2892
.LBE1453:
.LBE1457:
	.loc 1 148 3 is_stmt 1 view .LVU2893
.LBE1503:
	.loc 1 645 3 view .LVU2894
.LBB1504:
	.loc 1 144 13 view .LVU2895
	.loc 1 146 3 view .LVU2896
	.loc 1 147 3 view .LVU2897
.LBB1471:
	.loc 1 73 13 view .LVU2898
.LBB1466:
	.loc 1 75 3 view .LVU2899
	.loc 1 75 3 is_stmt 0 view .LVU2900
.LBE1466:
.LBE1471:
	.loc 1 148 3 is_stmt 1 view .LVU2901
	.loc 1 148 3 is_stmt 0 view .LVU2902
.LBE1504:
	.loc 1 647 3 is_stmt 1 view .LVU2903
.LBB1505:
.LBB1458:
.LBB1454:
	.loc 1 75 3 is_stmt 0 view .LVU2904
	mov	r7, #83
.LBE1454:
.LBE1458:
.LBE1505:
	.loc 1 649 1 view .LVU2905
	mov	r0, r7
	add	sp, sp, #12
	.cfi_remember_state
	.cfi_def_cfa_offset 36
	@ sp needed
	pop	{r4, r5, r6, r7, r8, r9, r10, fp, pc}
.LVL804:
.L864:
	.cfi_restore_state
	.loc 1 633 24 is_stmt 1 view .LVU2906
	cmp	r3, #0
	bne	.L799
.LVL805:
.L800:
	.loc 1 644 3 view .LVU2907
.LBB1506:
	.loc 1 144 13 view .LVU2908
	.loc 1 146 3 view .LVU2909
	.loc 1 147 3 view .LVU2910
.LBB1459:
	.loc 1 73 13 view .LVU2911
.LBB1455:
	.loc 1 75 3 view .LVU2912
	mov	r0, r9
	bl	free
.LVL806:
	.loc 1 75 3 is_stmt 0 view .LVU2913
.LBE1455:
.LBE1459:
	.loc 1 148 3 is_stmt 1 view .LVU2914
	.loc 1 148 3 is_stmt 0 view .LVU2915
.LBE1506:
	.loc 1 645 3 is_stmt 1 view .LVU2916
.LBB1507:
	.loc 1 144 13 view .LVU2917
	.loc 1 146 3 view .LVU2918
	.loc 1 147 3 view .LVU2919
.LBB1472:
	.loc 1 73 13 view .LVU2920
.LBB1467:
	.loc 1 75 3 view .LVU2921
	mov	r0, r10
	bl	free
.LVL807:
	.loc 1 75 3 is_stmt 0 view .LVU2922
.LBE1467:
.LBE1472:
	.loc 1 148 3 is_stmt 1 view .LVU2923
	.loc 1 148 3 is_stmt 0 view .LVU2924
.LBE1507:
	.loc 1 647 3 is_stmt 1 view .LVU2925
	.loc 1 647 14 view .LVU2926
.LBB1508:
	.loc 1 546 17 view .LVU2927
.LBB1491:
	.loc 1 548 3 view .LVU2928
	.loc 1 549 3 view .LVU2929
	.loc 1 550 3 view .LVU2930
	.loc 1 552 3 view .LVU2931
.LBB1488:
	.loc 1 63 14 view .LVU2932
.LBB1478:
	.loc 1 65 3 view .LVU2933
	.loc 1 65 10 is_stmt 0 view .LVU2934
	mov	r0, #0
	bl	malloc
.LVL808:
	.loc 1 65 10 view .LVU2935
.LBE1478:
.LBE1488:
	.loc 1 553 5 view .LVU2936
	cmp	r0, #0
	.loc 1 552 16 view .LVU2937
	str	r0, [r5]
	.loc 1 553 3 is_stmt 1 view .LVU2938
	.loc 1 553 5 is_stmt 0 view .LVU2939
	bne	.L790
	b	.L862
.L869:
	.align	2
.L868:
	.word	32767
.LBE1491:
.LBE1508:
	.cfi_endproc
.LFE36:
	.size	HuffmanTree_makeFromLengths2, .-HuffmanTree_makeFromLengths2
	.section	.text.HuffmanTree_makeFromFrequencies.constprop.0,"ax",%progbits
	.align	2
	.syntax unified
	.arm
	.fpu vfp
	.type	HuffmanTree_makeFromFrequencies.constprop.0, %function
HuffmanTree_makeFromFrequencies.constprop.0:
.LVL809:
.LFB228:
	.loc 1 879 17 is_stmt 1 view -0
	.cfi_startproc
	@ args = 4, pretend = 0, frame = 0
	@ frame_needed = 0, uses_anonymous_args = 0
	.loc 1 879 17 is_stmt 0 view .LVU2941
	push	{r4, r5, r6, r7, r8, lr}
	.cfi_def_cfa_offset 24
	.cfi_offset 4, -24
	.cfi_offset 5, -20
	.cfi_offset 6, -16
	.cfi_offset 7, -12
	.cfi_offset 8, -8
	.cfi_offset 14, -4
	.loc 1 883 21 view .LVU2942
	sub	lr, r3, #-1073741823
	.loc 1 879 17 view .LVU2943
	mov	r4, r3
	.loc 1 883 36 is_stmt 1 view .LVU2944
	ldr	r3, [r1, lr, lsl #2]
.LVL810:
	.loc 1 883 36 is_stmt 0 view .LVU2945
	cmp	r2, r4
	clz	r3, r3
	lsr	r3, r3, #5
	movcs	r3, #0
	cmp	r3, #0
	.loc 1 879 17 view .LVU2946
	mov	r6, r1
	mov	r5, r0
	ldr	r7, [sp, #24]
	.loc 1 883 21 view .LVU2947
	add	lr, r1, lr, lsl #2
	.loc 1 883 36 view .LVU2948
	beq	.L871
.L872:
	.loc 1 883 60 is_stmt 1 view .LVU2949
	.loc 1 883 36 is_stmt 0 view .LVU2950
	ldr	ip, [lr, #-4]!
	.loc 1 883 60 view .LVU2951
	sub	r4, r4, #1
.LVL811:
	.loc 1 883 36 is_stmt 1 view .LVU2952
	clz	ip, ip
	cmp	r4, r2
	lsr	ip, ip, #5
	movls	ip, #0
	cmp	ip, #0
	bne	.L872
.L871:
	.loc 1 884 3 view .LVU2953
.LBB1515:
.LBB1516:
	.loc 1 70 10 is_stmt 0 view .LVU2954
	mov	r1, #1
.LVL812:
	.loc 1 70 10 view .LVU2955
.LBE1516:
.LBE1515:
	.loc 1 884 19 view .LVU2956
	str	r7, [r5, #12]
	.loc 1 885 3 is_stmt 1 view .LVU2957
	.loc 1 885 18 is_stmt 0 view .LVU2958
	str	r4, [r5, #16]
	.loc 1 886 3 is_stmt 1 view .LVU2959
.LVL813:
.LBB1518:
.LBI1515:
	.loc 1 68 14 view .LVU2960
.LBB1517:
	.loc 1 70 3 view .LVU2961
	.loc 1 70 10 is_stmt 0 view .LVU2962
	lsl	r0, r4, #2
.LVL814:
	.loc 1 70 10 view .LVU2963
	bl	calloc
.LVL815:
	.loc 1 70 10 view .LVU2964
.LBE1517:
.LBE1518:
	.loc 1 887 5 view .LVU2965
	cmp	r0, #0
	.loc 1 886 17 view .LVU2966
	str	r0, [r5, #8]
	.loc 1 887 3 is_stmt 1 view .LVU2967
	.loc 1 887 5 is_stmt 0 view .LVU2968
	beq	.L874
	.loc 1 889 3 is_stmt 1 view .LVU2969
	.loc 1 891 3 view .LVU2970
.LVL816:
.LBB1519:
.LBI1519:
	.loc 1 789 10 view .LVU2971
.LBB1520:
	.loc 1 792 3 view .LVU2972
	.loc 1 793 3 view .LVU2973
	.loc 1 794 3 view .LVU2974
	.loc 1 795 3 view .LVU2975
	.loc 1 797 3 view .LVU2976
	.loc 1 797 5 is_stmt 0 view .LVU2977
	cmp	r4, #0
	beq	.L876
	.loc 1 798 3 is_stmt 1 view .LVU2978
	.loc 1 798 10 is_stmt 0 view .LVU2979
	mov	r3, #1
	.loc 1 798 5 view .LVU2980
	cmp	r4, r3, lsl r7
	bhi	.L876
	mov	r3, r7
	mov	r2, r4
	mov	r1, r6
	bl	lodepng_huffman_code_lengths.part.0
.LVL817:
	.loc 1 798 5 view .LVU2981
.LBE1520:
.LBE1519:
	.loc 1 892 3 is_stmt 1 view .LVU2982
	.loc 1 892 5 is_stmt 0 view .LVU2983
	cmp	r0, #0
	.loc 1 892 5 view .LVU2984
	popne	{r4, r5, r6, r7, r8, pc}
	.loc 1 892 14 is_stmt 1 view .LVU2985
	.loc 1 892 22 is_stmt 0 view .LVU2986
	mov	r0, r5
.LVL818:
	.loc 1 894 1 view .LVU2987
	pop	{r4, r5, r6, r7, r8, lr}
	.cfi_remember_state
	.cfi_restore 14
	.cfi_restore 8
	.cfi_restore 7
	.cfi_restore 6
	.cfi_restore 5
	.cfi_restore 4
	.cfi_def_cfa_offset 0
.LVL819:
	.loc 1 892 22 view .LVU2988
	b	HuffmanTree_makeFromLengths2
.LVL820:
.L876:
	.cfi_restore_state
.LBB1522:
.LBB1521:
	.loc 1 797 28 view .LVU2989
	mov	r0, #80
.LVL821:
	.loc 1 797 28 view .LVU2990
.LBE1521:
.LBE1522:
	.loc 1 894 1 view .LVU2991
	pop	{r4, r5, r6, r7, r8, pc}
.LVL822:
.L874:
	.loc 1 887 29 view .LVU2992
	mov	r0, #83
	pop	{r4, r5, r6, r7, r8, pc}
	.cfi_endproc
.LFE228:
	.size	HuffmanTree_makeFromFrequencies.constprop.0, .-HuffmanTree_makeFromFrequencies.constprop.0
	.section	.text.generateFixedDistanceTree.constprop.0.isra.0,"ax",%progbits
	.align	2
	.syntax unified
	.arm
	.fpu vfp
	.type	generateFixedDistanceTree.constprop.0.isra.0, %function
generateFixedDistanceTree.constprop.0.isra.0:
.LVL823:
.LFB230:
	.loc 1 927 17 is_stmt 1 view -0
	.cfi_startproc
	@ args = 0, pretend = 0, frame = 0
	@ frame_needed = 0, uses_anonymous_args = 0
	.loc 1 929 3 view .LVU2994
	.loc 1 930 3 view .LVU2995
.LBB1539:
.LBI1539:
	.loc 1 63 14 view .LVU2996
.LBB1540:
	.loc 1 65 3 view .LVU2997
.LBE1540:
.LBE1539:
	.loc 1 927 17 is_stmt 0 view .LVU2998
	push	{r4, r5, r6, lr}
	.cfi_def_cfa_offset 16
	.cfi_offset 4, -16
	.cfi_offset 5, -12
	.cfi_offset 6, -8
	.cfi_offset 14, -4
	.loc 1 927 17 view .LVU2999
	mov	r5, r0
.LBB1542:
.LBB1541:
	.loc 1 65 10 view .LVU3000
	mov	r0, #128
.LVL824:
	.loc 1 65 10 view .LVU3001
	bl	malloc
.LVL825:
	.loc 1 65 10 view .LVU3002
.LBE1541:
.LBE1542:
	.loc 1 931 3 is_stmt 1 view .LVU3003
	.loc 1 931 5 is_stmt 0 view .LVU3004
	subs	r4, r0, #0
	popeq	{r4, r5, r6, pc}
	.loc 1 934 38 view .LVU3005
	mov	ip, #5
	sub	r3, r4, #4
	add	r2, r4, #124
.L884:
	.loc 1 934 28 is_stmt 1 view .LVU3006
	.loc 1 934 38 is_stmt 0 view .LVU3007
	str	ip, [r3, #4]!
	.loc 1 934 23 is_stmt 1 view .LVU3008
	.loc 1 934 16 view .LVU3009
	cmp	r2, r3
	bne	.L884
	.loc 1 935 3 view .LVU3010
.LVL826:
.LBB1543:
.LBI1543:
	.loc 1 656 17 view .LVU3011
.LBB1544:
	.loc 1 659 3 view .LVU3012
	.loc 1 660 3 view .LVU3013
.LBB1545:
.LBI1545:
	.loc 1 63 14 view .LVU3014
.LBB1546:
	.loc 1 65 3 view .LVU3015
	.loc 1 65 10 is_stmt 0 view .LVU3016
	mov	r0, #128
.LVL827:
	.loc 1 65 10 view .LVU3017
	bl	malloc
.LVL828:
	.loc 1 65 10 view .LVU3018
.LBE1546:
.LBE1545:
	.loc 1 661 5 view .LVU3019
	cmp	r0, #0
	.loc 1 660 17 view .LVU3020
	str	r0, [r5, #8]
	.loc 1 661 3 is_stmt 1 view .LVU3021
	.loc 1 661 5 is_stmt 0 view .LVU3022
	beq	.L885
	.loc 1 662 51 view .LVU3023
	mov	r2, #128
	mov	r1, r4
	bl	memcpy
.LVL829:
	.loc 1 663 3 is_stmt 1 view .LVU3024
	.loc 1 663 18 is_stmt 0 view .LVU3025
	mov	r2, #32
	.loc 1 664 19 view .LVU3026
	mov	r3, #15
	.loc 1 665 10 view .LVU3027
	mov	r0, r5
	.loc 1 663 18 view .LVU3028
	str	r2, [r5, #16]
	.loc 1 664 3 is_stmt 1 view .LVU3029
	.loc 1 664 19 is_stmt 0 view .LVU3030
	str	r3, [r5, #12]
	.loc 1 665 3 is_stmt 1 view .LVU3031
	.loc 1 665 10 is_stmt 0 view .LVU3032
	bl	HuffmanTree_makeFromLengths2
.LVL830:
.L885:
	.loc 1 665 10 view .LVU3033
.LBE1544:
.LBE1543:
	.loc 1 937 3 is_stmt 1 view .LVU3034
.LBB1547:
.LBI1547:
	.loc 1 73 13 view .LVU3035
.LBB1548:
	.loc 1 75 3 view .LVU3036
	mov	r0, r4
.LBE1548:
.LBE1547:
	.loc 1 939 1 is_stmt 0 view .LVU3037
	pop	{r4, r5, r6, lr}
	.cfi_restore 14
	.cfi_restore 6
	.cfi_restore 5
	.cfi_restore 4
	.cfi_def_cfa_offset 0
.LVL831:
.LBB1550:
.LBB1549:
	.loc 1 75 3 view .LVU3038
	b	free
.LVL832:
	.loc 1 75 3 view .LVU3039
.LBE1549:
.LBE1550:
	.cfi_endproc
.LFE230:
	.size	generateFixedDistanceTree.constprop.0.isra.0, .-generateFixedDistanceTree.constprop.0.isra.0
	.section	.text.generateFixedLitLenTree.constprop.0.isra.0,"ax",%progbits
	.align	2
	.syntax unified
	.arm
	.fpu vfp
	.type	generateFixedLitLenTree.constprop.0.isra.0, %function
generateFixedLitLenTree.constprop.0.isra.0:
.LVL833:
.LFB232:
	.loc 1 908 17 is_stmt 1 view -0
	.cfi_startproc
	@ args = 0, pretend = 0, frame = 0
	@ frame_needed = 0, uses_anonymous_args = 0
	.loc 1 910 3 view .LVU3041
	.loc 1 911 3 view .LVU3042
.LBB1567:
.LBI1567:
	.loc 1 63 14 view .LVU3043
.LBB1568:
	.loc 1 65 3 view .LVU3044
.LBE1568:
.LBE1567:
	.loc 1 908 17 is_stmt 0 view .LVU3045
	push	{r4, r5, r6, lr}
	.cfi_def_cfa_offset 16
	.cfi_offset 4, -16
	.cfi_offset 5, -12
	.cfi_offset 6, -8
	.cfi_offset 14, -4
	.loc 1 908 17 view .LVU3046
	mov	r4, r0
.LBB1570:
.LBB1569:
	.loc 1 65 10 view .LVU3047
	mov	r0, #1152
.LVL834:
	.loc 1 65 10 view .LVU3048
	bl	malloc
.LVL835:
	.loc 1 65 10 view .LVU3049
.LBE1569:
.LBE1570:
	.loc 1 912 3 is_stmt 1 view .LVU3050
	.loc 1 912 5 is_stmt 0 view .LVU3051
	subs	r5, r0, #0
	popeq	{r4, r5, r6, pc}
	.loc 1 915 39 view .LVU3052
	mov	ip, #8
	sub	r2, r5, #4
	add	r3, r5, #572
.L893:
	.loc 1 915 29 is_stmt 1 view .LVU3053
	.loc 1 915 39 is_stmt 0 view .LVU3054
	str	ip, [r2, #4]!
	.loc 1 915 24 is_stmt 1 view .LVU3055
	.loc 1 915 16 view .LVU3056
	cmp	r3, r2
	bne	.L893
	.loc 1 916 41 is_stmt 0 view .LVU3057
	mov	ip, #9
	add	r2, r5, #1020
.L894:
	.loc 1 916 31 is_stmt 1 view .LVU3058
	.loc 1 916 41 is_stmt 0 view .LVU3059
	str	ip, [r3, #4]!
	.loc 1 916 26 is_stmt 1 view .LVU3060
	.loc 1 916 18 view .LVU3061
	cmp	r3, r2
	bne	.L894
	.loc 1 917 41 is_stmt 0 view .LVU3062
	mov	r1, #7
	add	r2, r5, #1104
	add	r0, r2, #12
.LVL836:
.L895:
	.loc 1 917 31 is_stmt 1 view .LVU3063
	.loc 1 917 41 is_stmt 0 view .LVU3064
	str	r1, [r3, #4]!
	.loc 1 917 26 is_stmt 1 view .LVU3065
	.loc 1 917 18 view .LVU3066
	cmp	r0, r3
	bne	.L895
	.loc 1 918 41 is_stmt 0 view .LVU3067
	mov	r0, #8
	add	r1, r5, #1136
	add	r3, r2, #12
	add	r1, r1, #12
.L896:
	.loc 1 918 31 is_stmt 1 view .LVU3068
	.loc 1 918 41 is_stmt 0 view .LVU3069
	str	r0, [r3, #4]!
	.loc 1 918 26 is_stmt 1 view .LVU3070
	.loc 1 918 18 view .LVU3071
	cmp	r1, r3
	bne	.L896
	.loc 1 920 3 view .LVU3072
.LVL837:
.LBB1571:
.LBI1571:
	.loc 1 656 17 view .LVU3073
.LBB1572:
	.loc 1 659 3 view .LVU3074
	.loc 1 660 3 view .LVU3075
.LBB1573:
.LBI1573:
	.loc 1 63 14 view .LVU3076
.LBB1574:
	.loc 1 65 3 view .LVU3077
	.loc 1 65 10 is_stmt 0 view .LVU3078
	mov	r0, #1152
	bl	malloc
.LVL838:
	.loc 1 65 10 view .LVU3079
.LBE1574:
.LBE1573:
	.loc 1 661 5 view .LVU3080
	cmp	r0, #0
	.loc 1 660 17 view .LVU3081
	str	r0, [r4, #8]
	.loc 1 661 3 is_stmt 1 view .LVU3082
	.loc 1 661 5 is_stmt 0 view .LVU3083
	beq	.L897
	.loc 1 662 51 view .LVU3084
	mov	r2, #1152
	mov	r1, r5
	bl	memcpy
.LVL839:
	.loc 1 663 3 is_stmt 1 view .LVU3085
	.loc 1 663 18 is_stmt 0 view .LVU3086
	mov	r2, #288
	.loc 1 664 19 view .LVU3087
	mov	r3, #15
	.loc 1 665 10 view .LVU3088
	mov	r0, r4
	.loc 1 663 18 view .LVU3089
	str	r2, [r4, #16]
	.loc 1 664 3 is_stmt 1 view .LVU3090
	.loc 1 664 19 is_stmt 0 view .LVU3091
	str	r3, [r4, #12]
	.loc 1 665 3 is_stmt 1 view .LVU3092
	.loc 1 665 10 is_stmt 0 view .LVU3093
	bl	HuffmanTree_makeFromLengths2
.LVL840:
.L897:
	.loc 1 665 10 view .LVU3094
.LBE1572:
.LBE1571:
	.loc 1 922 3 is_stmt 1 view .LVU3095
.LBB1575:
.LBI1575:
	.loc 1 73 13 view .LVU3096
.LBB1576:
	.loc 1 75 3 view .LVU3097
	mov	r0, r5
.LBE1576:
.LBE1575:
	.loc 1 924 1 is_stmt 0 view .LVU3098
	pop	{r4, r5, r6, lr}
	.cfi_restore 14
	.cfi_restore 6
	.cfi_restore 5
	.cfi_restore 4
	.cfi_def_cfa_offset 0
.LVL841:
.LBB1578:
.LBB1577:
	.loc 1 75 3 view .LVU3099
	b	free
.LVL842:
	.loc 1 75 3 view .LVU3100
.LBE1577:
.LBE1578:
	.cfi_endproc
.LFE232:
	.size	generateFixedLitLenTree.constprop.0.isra.0, .-generateFixedLitLenTree.constprop.0.isra.0
	.section	.text.getPixelColorRGBA8,"ax",%progbits
	.align	2
	.syntax unified
	.arm
	.fpu vfp
	.type	getPixelColorRGBA8, %function
getPixelColorRGBA8:
.LVL843:
.LFB142:
	.loc 1 3185 1 is_stmt 1 view -0
	.cfi_startproc
	@ args = 12, pretend = 0, frame = 0
	@ frame_needed = 0, uses_anonymous_args = 0
	.loc 1 3186 3 view .LVU3102
	.loc 1 3185 1 is_stmt 0 view .LVU3103
	push	{r3, r4, r5, r6, r7, r8, r9, r10, fp, lr}
	.cfi_def_cfa_offset 40
	.cfi_offset 3, -40
	.cfi_offset 4, -36
	.cfi_offset 5, -32
	.cfi_offset 6, -28
	.cfi_offset 7, -24
	.cfi_offset 8, -20
	.cfi_offset 9, -16
	.cfi_offset 10, -12
	.cfi_offset 11, -8
	.cfi_offset 14, -4
	.loc 1 3185 1 view .LVU3104
	ldr	r5, [sp, #48]
	mov	r6, r0
	.loc 1 3186 10 view .LVU3105
	ldrb	lr, [r5]	@ zero_extendqisi2
	.loc 1 3185 1 view .LVU3106
	mov	r7, r1
	.loc 1 3186 5 view .LVU3107
	cmp	lr, #0
	.loc 1 3185 1 view .LVU3108
	mov	fp, r2
	mov	r10, r3
	ldr	r8, [sp, #40]
	ldr	ip, [sp, #44]
	.loc 1 3186 5 view .LVU3109
	bne	.L907
	.loc 1 3188 5 is_stmt 1 view .LVU3110
	.loc 1 3188 12 is_stmt 0 view .LVU3111
	ldr	r4, [r5, #4]
	.loc 1 3188 7 view .LVU3112
	cmp	r4, #8
	beq	.L951
	.loc 1 3194 10 is_stmt 1 view .LVU3113
	.loc 1 3194 12 is_stmt 0 view .LVU3114
	cmp	r4, #16
	bne	.L911
	.loc 1 3196 7 is_stmt 1 view .LVU3115
	.loc 1 3196 24 is_stmt 0 view .LVU3116
	ldrb	r1, [r8, ip, lsl #1]	@ zero_extendqisi2
.LVL844:
	.loc 1 3196 20 view .LVU3117
	strb	r1, [r2]
	.loc 1 3196 15 view .LVU3118
	strb	r1, [r7]
	.loc 1 3196 10 view .LVU3119
	strb	r1, [r0]
	.loc 1 3197 7 is_stmt 1 view .LVU3120
	.loc 1 3197 9 is_stmt 0 view .LVU3121
	ldr	r2, [r5, #16]
.LVL845:
	.loc 1 3197 9 view .LVU3122
	cmp	r2, #0
	.loc 1 3196 24 view .LVU3123
	add	r2, r8, ip, lsl #1
	.loc 1 3197 9 view .LVU3124
	beq	.L909
	.loc 1 3197 56 discriminator 1 view .LVU3125
	ldrb	r2, [r2, #1]	@ zero_extendqisi2
	.loc 1 3197 40 discriminator 1 view .LVU3126
	ldrb	r0, [r8, ip, lsl #1]	@ zero_extendqisi2
.LVL846:
	.loc 1 3197 28 discriminator 1 view .LVU3127
	ldr	r1, [r5, #20]
	.loc 1 3197 52 discriminator 1 view .LVU3128
	add	r2, r2, r0, lsl #8
	.loc 1 3197 28 discriminator 1 view .LVU3129
	cmp	r2, r1
	bne	.L909
.LVL847:
.L912:
	.loc 1 3191 50 is_stmt 1 discriminator 2 view .LVU3130
	.loc 1 3191 53 is_stmt 0 discriminator 2 view .LVU3131
	mov	r2, #0
	strb	r2, [r10]
	pop	{r3, r4, r5, r6, r7, r8, r9, r10, fp, pc}
.LVL848:
.L907:
	.loc 1 3210 8 is_stmt 1 view .LVU3132
	sub	r0, lr, #2
.LVL849:
	.loc 1 3210 8 is_stmt 0 view .LVU3133
	cmp	r0, #4
	ldrls	pc, [pc, r0, asl #2]
	b	.L906
.L916:
	.word	.L919
	.word	.L918
	.word	.L917
	.word	.L906
	.word	.L915
.L915:
	.loc 1 3269 5 is_stmt 1 view .LVU3134
	.loc 1 3269 7 is_stmt 0 view .LVU3135
	ldr	r1, [r5, #4]
.LVL850:
	.loc 1 3269 7 view .LVU3136
	cmp	r1, #8
	beq	.L952
	.loc 1 3278 7 is_stmt 1 view .LVU3137
	.loc 1 3278 14 is_stmt 0 view .LVU3138
	ldrb	r1, [r8, ip, lsl #3]	@ zero_extendqisi2
	.loc 1 3279 14 view .LVU3139
	add	r8, r8, ip, lsl #3
	.loc 1 3278 10 view .LVU3140
	strb	r1, [r6]
	.loc 1 3279 7 is_stmt 1 view .LVU3141
	.loc 1 3279 14 is_stmt 0 view .LVU3142
	ldrb	r1, [r8, #2]	@ zero_extendqisi2
	.loc 1 3279 10 view .LVU3143
	strb	r1, [r7]
	.loc 1 3280 7 is_stmt 1 view .LVU3144
	.loc 1 3280 14 is_stmt 0 view .LVU3145
	ldrb	r1, [r8, #4]	@ zero_extendqisi2
	.loc 1 3280 10 view .LVU3146
	strb	r1, [r2]
	.loc 1 3281 7 is_stmt 1 view .LVU3147
	.loc 1 3281 14 is_stmt 0 view .LVU3148
	ldrb	r2, [r8, #6]	@ zero_extendqisi2
.LVL851:
	.loc 1 3281 10 view .LVU3149
	strb	r2, [r3]
.L906:
	.loc 1 3284 1 view .LVU3150
	pop	{r3, r4, r5, r6, r7, r8, r9, r10, fp, pc}
.LVL852:
.L951:
	.loc 1 3190 7 is_stmt 1 view .LVU3151
	.loc 1 3190 24 is_stmt 0 view .LVU3152
	ldrb	r1, [r8, ip]	@ zero_extendqisi2
.LVL853:
	.loc 1 3190 20 view .LVU3153
	strb	r1, [r2]
	.loc 1 3190 15 view .LVU3154
	strb	r1, [r7]
	.loc 1 3190 10 view .LVU3155
	strb	r1, [r0]
	.loc 1 3191 7 is_stmt 1 view .LVU3156
	.loc 1 3191 9 is_stmt 0 view .LVU3157
	ldr	r2, [r5, #16]
.LVL854:
	.loc 1 3191 9 view .LVU3158
	cmp	r2, #0
	beq	.L909
	.loc 1 3191 28 discriminator 1 view .LVU3159
	ldr	r2, [r5, #20]
	cmp	r1, r2
	beq	.L912
.LVL855:
.L909:
	.loc 1 3192 12 is_stmt 1 view .LVU3160
	.loc 1 3192 15 is_stmt 0 view .LVU3161
	mvn	r2, #0
	strb	r2, [r10]
	pop	{r3, r4, r5, r6, r7, r8, r9, r10, fp, pc}
.LVL856:
.L911:
.LBB1590:
	.loc 1 3202 7 is_stmt 1 view .LVU3162
	.loc 1 3202 31 is_stmt 0 view .LVU3163
	mvn	r1, #0
.LVL857:
.LBB1591:
.LBB1592:
	.loc 1 2388 17 view .LVU3164
	cmp	r4, #0
.LBE1592:
.LBE1591:
	.loc 1 3202 16 view .LVU3165
	mvn	r1, r1, lsl r4
.LVL858:
	.loc 1 3203 7 is_stmt 1 view .LVU3166
	.loc 1 3203 20 is_stmt 0 view .LVU3167
	mul	ip, ip, r4
.LVL859:
	.loc 1 3204 7 is_stmt 1 view .LVU3168
.LBB1597:
.LBI1591:
	.loc 1 2384 17 view .LVU3169
.LBB1595:
	.loc 1 2386 3 view .LVU3170
	.loc 1 2387 3 view .LVU3171
	.loc 1 2388 3 view .LVU3172
	.loc 1 2388 17 view .LVU3173
	beq	.L913
	add	r9, r4, ip
	.loc 1 2386 12 is_stmt 0 view .LVU3174
	mov	r4, lr
.LVL860:
.L914:
	.loc 1 2390 5 is_stmt 1 view .LVU3175
	.loc 1 2391 5 view .LVU3176
.LBB1593:
.LBI1593:
	.loc 1 2377 22 view .LVU3177
.LBB1594:
	.loc 1 2379 3 view .LVU3178
	.loc 1 2379 79 is_stmt 0 view .LVU3179
	mvn	r0, ip
	.loc 1 2379 52 view .LVU3180
	ldrb	lr, [r8, ip, lsr #3]	@ zero_extendqisi2
	.loc 1 2379 79 view .LVU3181
	and	r0, r0, #7
	.loc 1 2380 3 view .LVU3182
	add	ip, ip, #1
.LVL861:
	.loc 1 2379 73 view .LVU3183
	asr	lr, lr, r0
	.loc 1 2379 17 view .LVU3184
	and	lr, lr, #1
.LVL862:
	.loc 1 2380 3 is_stmt 1 view .LVU3185
	.loc 1 2381 3 view .LVU3186
	.loc 1 2381 3 is_stmt 0 view .LVU3187
.LBE1594:
.LBE1593:
	.loc 1 2388 17 view .LVU3188
	cmp	ip, r9
	.loc 1 2391 12 view .LVU3189
	orr	r4, lr, r4, lsl #1
.LVL863:
	.loc 1 2388 26 is_stmt 1 view .LVU3190
	.loc 1 2388 17 view .LVU3191
	bne	.L914
.LBE1595:
.LBE1597:
	.loc 1 3205 36 is_stmt 0 view .LVU3192
	rsb	r0, r4, r4, lsl #8
	bl	__aeabi_uidiv
.LVL864:
	.loc 1 3205 20 view .LVU3193
	uxtb	lr, r0
.LVL865:
.L913:
.LBB1598:
.LBB1596:
	.loc 1 2393 3 is_stmt 1 view .LVU3194
	.loc 1 2393 3 is_stmt 0 view .LVU3195
.LBE1596:
.LBE1598:
	.loc 1 3205 7 is_stmt 1 view .LVU3196
	.loc 1 3205 20 is_stmt 0 view .LVU3197
	strb	lr, [fp]
	.loc 1 3205 15 view .LVU3198
	strb	lr, [r7]
	.loc 1 3205 10 view .LVU3199
	strb	lr, [r6]
	.loc 1 3206 7 is_stmt 1 view .LVU3200
	.loc 1 3206 9 is_stmt 0 view .LVU3201
	ldr	r2, [r5, #16]
	cmp	r2, #0
	beq	.L909
	.loc 1 3206 28 discriminator 1 view .LVU3202
	ldr	r2, [r5, #20]
	cmp	r2, r4
	bne	.L909
	b	.L912
.LVL866:
.L917:
	.loc 1 3206 28 discriminator 1 view .LVU3203
.LBE1590:
	.loc 1 3256 5 is_stmt 1 view .LVU3204
	.loc 1 3256 7 is_stmt 0 view .LVU3205
	ldr	r1, [r5, #4]
.LVL867:
	.loc 1 3256 7 view .LVU3206
	cmp	r1, #8
	beq	.L953
	.loc 1 3263 7 is_stmt 1 view .LVU3207
	.loc 1 3263 24 is_stmt 0 view .LVU3208
	ldrb	r1, [r8, ip, lsl #2]	@ zero_extendqisi2
	.loc 1 3264 14 view .LVU3209
	add	ip, r8, ip, lsl #2
	.loc 1 3263 20 view .LVU3210
	strb	r1, [r2]
	.loc 1 3263 15 view .LVU3211
	strb	r1, [r7]
	.loc 1 3263 10 view .LVU3212
	strb	r1, [r6]
	.loc 1 3264 7 is_stmt 1 view .LVU3213
	.loc 1 3264 14 is_stmt 0 view .LVU3214
	ldrb	r2, [ip, #2]	@ zero_extendqisi2
.LVL868:
	.loc 1 3264 10 view .LVU3215
	strb	r2, [r3]
	pop	{r3, r4, r5, r6, r7, r8, r9, r10, fp, pc}
.LVL869:
.L918:
.LBB1599:
	.loc 1 3231 5 is_stmt 1 view .LVU3216
	.loc 1 3232 5 view .LVU3217
	.loc 1 3232 12 is_stmt 0 view .LVU3218
	ldr	lr, [r5, #4]
	.loc 1 3232 7 view .LVU3219
	cmp	lr, #8
	bne	.L921
	.loc 1 3232 29 is_stmt 1 discriminator 1 view .LVU3220
	.loc 1 3232 35 is_stmt 0 discriminator 1 view .LVU3221
	ldrb	lr, [r8, ip]	@ zero_extendqisi2
.LVL870:
.L922:
	.loc 1 3239 5 is_stmt 1 view .LVU3222
	.loc 1 3239 7 is_stmt 0 view .LVU3223
	ldr	r1, [r5, #12]
	cmp	r1, lr
	bhi	.L924
	.loc 1 3243 7 is_stmt 1 view .LVU3224
	.loc 1 3243 20 is_stmt 0 view .LVU3225
	mov	r1, #0
	.loc 1 3244 10 view .LVU3226
	mvn	r0, #0
	.loc 1 3243 20 view .LVU3227
	strb	r1, [fp]
	.loc 1 3243 15 view .LVU3228
	strb	r1, [r7]
	.loc 1 3243 10 view .LVU3229
	strb	r1, [r6]
	.loc 1 3244 7 is_stmt 1 view .LVU3230
	.loc 1 3244 10 is_stmt 0 view .LVU3231
	strb	r0, [r10]
	pop	{r3, r4, r5, r6, r7, r8, r9, r10, fp, pc}
.LVL871:
.L919:
	.loc 1 3244 10 view .LVU3232
.LBE1599:
	.loc 1 3212 5 is_stmt 1 view .LVU3233
	.loc 1 3212 7 is_stmt 0 view .LVU3234
	ldr	r1, [r5, #4]
.LVL872:
	.loc 1 3214 17 view .LVU3235
	add	ip, ip, ip, lsl #1
	.loc 1 3212 7 view .LVU3236
	cmp	r1, #8
	beq	.L954
	.loc 1 3220 7 is_stmt 1 view .LVU3237
	.loc 1 3220 14 is_stmt 0 view .LVU3238
	ldrb	r1, [r8, ip, lsl #1]	@ zero_extendqisi2
	.loc 1 3220 10 view .LVU3239
	strb	r1, [r6]
	.loc 1 3221 7 is_stmt 1 view .LVU3240
	.loc 1 3220 17 is_stmt 0 view .LVU3241
	lsl	r1, ip, #1
	.loc 1 3221 14 view .LVU3242
	add	r0, r1, #2
	ldrb	lr, [r8, r0]	@ zero_extendqisi2
	.loc 1 3220 14 view .LVU3243
	add	ip, r8, ip, lsl #1
	.loc 1 3221 10 view .LVU3244
	strb	lr, [r7]
	.loc 1 3222 7 is_stmt 1 view .LVU3245
	.loc 1 3222 14 is_stmt 0 view .LVU3246
	ldrb	lr, [ip, #4]	@ zero_extendqisi2
	.loc 1 3222 10 view .LVU3247
	strb	lr, [r2]
	.loc 1 3223 7 is_stmt 1 view .LVU3248
	.loc 1 3223 9 is_stmt 0 view .LVU3249
	ldr	r2, [r5, #16]
.LVL873:
	.loc 1 3223 9 view .LVU3250
	cmp	r2, #0
	beq	.L909
	.loc 1 3223 40 discriminator 1 view .LVU3251
	ldrb	r1, [r8, r1]	@ zero_extendqisi2
	.loc 1 3223 56 discriminator 1 view .LVU3252
	ldrb	r2, [ip, #1]	@ zero_extendqisi2
	.loc 1 3223 52 discriminator 1 view .LVU3253
	add	r2, r2, r1, lsl #8
	.loc 1 3223 28 discriminator 1 view .LVU3254
	ldr	r1, [r5, #20]
	cmp	r2, r1
	bne	.L909
	.loc 1 3224 22 view .LVU3255
	ldrb	r1, [r8, r0]	@ zero_extendqisi2
	.loc 1 3224 38 view .LVU3256
	ldrb	r2, [ip, #3]	@ zero_extendqisi2
	.loc 1 3224 34 view .LVU3257
	add	r2, r2, r1, lsl #8
	.loc 1 3224 10 view .LVU3258
	ldr	r1, [r5, #24]
	cmp	r2, r1
	bne	.L909
	.loc 1 3225 38 view .LVU3259
	ldrb	r2, [ip, #5]	@ zero_extendqisi2
	.loc 1 3225 10 view .LVU3260
	ldr	r1, [r5, #28]
	.loc 1 3225 34 view .LVU3261
	add	r2, r2, lr, lsl #8
	.loc 1 3225 10 view .LVU3262
	cmp	r2, r1
	bne	.L909
	b	.L912
.LVL874:
.L924:
.LBB1607:
	.loc 1 3248 7 is_stmt 1 view .LVU3263
	.loc 1 3248 25 is_stmt 0 view .LVU3264
	ldr	r1, [r5, #8]
	ldrb	r1, [r1, lr, lsl #2]	@ zero_extendqisi2
	.loc 1 3248 10 view .LVU3265
	strb	r1, [r6]
	.loc 1 3249 7 is_stmt 1 view .LVU3266
	.loc 1 3249 25 is_stmt 0 view .LVU3267
	ldr	r1, [r5, #8]
	add	r1, r1, lr, lsl #2
	ldrb	r1, [r1, #1]	@ zero_extendqisi2
	.loc 1 3249 10 view .LVU3268
	strb	r1, [r7]
	.loc 1 3250 7 is_stmt 1 view .LVU3269
	.loc 1 3250 25 is_stmt 0 view .LVU3270
	ldr	r1, [r5, #8]
	add	r1, r1, lr, lsl #2
	ldrb	r1, [r1, #2]	@ zero_extendqisi2
	.loc 1 3250 10 view .LVU3271
	strb	r1, [fp]
	.loc 1 3251 7 is_stmt 1 view .LVU3272
	.loc 1 3251 25 is_stmt 0 view .LVU3273
	ldr	r2, [r5, #8]
.LVL875:
	.loc 1 3251 25 view .LVU3274
	add	r2, r2, lr, lsl #2
	ldrb	r2, [r2, #3]	@ zero_extendqisi2
	.loc 1 3251 10 view .LVU3275
	strb	r2, [r10]
	pop	{r3, r4, r5, r6, r7, r8, r9, r10, fp, pc}
.LVL876:
.L921:
.LBB1600:
	.loc 1 3235 7 is_stmt 1 view .LVU3276
.LBB1601:
.LBB1602:
	.loc 1 2388 17 is_stmt 0 view .LVU3277
	cmp	lr, #0
.LBE1602:
.LBE1601:
	.loc 1 3235 20 view .LVU3278
	mul	ip, ip, lr
.LVL877:
	.loc 1 3236 7 is_stmt 1 view .LVU3279
.LBB1606:
.LBI1601:
	.loc 1 2384 17 view .LVU3280
.LBB1605:
	.loc 1 2386 3 view .LVU3281
	.loc 1 2387 3 view .LVU3282
	.loc 1 2388 3 view .LVU3283
	.loc 1 2388 17 view .LVU3284
	beq	.L922
	add	r4, lr, ip
	.loc 1 2386 12 is_stmt 0 view .LVU3285
	mov	lr, #0
.LVL878:
.L923:
	.loc 1 2390 5 is_stmt 1 view .LVU3286
	.loc 1 2391 5 view .LVU3287
.LBB1603:
.LBI1603:
	.loc 1 2377 22 view .LVU3288
.LBB1604:
	.loc 1 2379 3 view .LVU3289
	.loc 1 2379 79 is_stmt 0 view .LVU3290
	mvn	r0, ip
	.loc 1 2379 52 view .LVU3291
	ldrb	r1, [r8, ip, lsr #3]	@ zero_extendqisi2
	.loc 1 2379 79 view .LVU3292
	and	r0, r0, #7
	.loc 1 2380 3 view .LVU3293
	add	ip, ip, #1
.LVL879:
	.loc 1 2379 73 view .LVU3294
	asr	r1, r1, r0
	.loc 1 2379 17 view .LVU3295
	and	r1, r1, #1
.LVL880:
	.loc 1 2380 3 is_stmt 1 view .LVU3296
	.loc 1 2381 3 view .LVU3297
	.loc 1 2381 3 is_stmt 0 view .LVU3298
.LBE1604:
.LBE1603:
	.loc 1 2388 17 view .LVU3299
	cmp	ip, r4
	.loc 1 2391 12 view .LVU3300
	orr	lr, r1, lr, lsl #1
.LVL881:
	.loc 1 2388 26 is_stmt 1 view .LVU3301
	.loc 1 2388 17 view .LVU3302
	bne	.L923
	b	.L922
.LVL882:
.L954:
	.loc 1 2388 17 is_stmt 0 view .LVU3303
.LBE1605:
.LBE1606:
.LBE1600:
.LBE1607:
	.loc 1 3214 7 is_stmt 1 view .LVU3304
	.loc 1 3214 14 is_stmt 0 view .LVU3305
	ldrb	r1, [r8, ip]!	@ zero_extendqisi2
	.loc 1 3214 10 view .LVU3306
	strb	r1, [r6]
	.loc 1 3214 27 is_stmt 1 view .LVU3307
	.loc 1 3214 34 is_stmt 0 view .LVU3308
	ldrb	r1, [r8, #1]	@ zero_extendqisi2
	.loc 1 3214 30 view .LVU3309
	strb	r1, [r7]
	.loc 1 3214 47 is_stmt 1 view .LVU3310
	.loc 1 3214 54 is_stmt 0 view .LVU3311
	ldrb	r1, [r8, #2]	@ zero_extendqisi2
	.loc 1 3214 50 view .LVU3312
	strb	r1, [r2]
	.loc 1 3215 7 is_stmt 1 view .LVU3313
	.loc 1 3215 9 is_stmt 0 view .LVU3314
	ldr	r2, [r5, #16]
.LVL883:
	.loc 1 3215 9 view .LVU3315
	cmp	r2, #0
	beq	.L909
	.loc 1 3215 31 discriminator 1 view .LVU3316
	ldrb	r0, [r6]	@ zero_extendqisi2
	.loc 1 3215 28 discriminator 1 view .LVU3317
	ldr	r2, [r5, #20]
	cmp	r0, r2
	bne	.L909
	.loc 1 3215 52 discriminator 2 view .LVU3318
	ldrb	r0, [r7]	@ zero_extendqisi2
	.loc 1 3215 49 discriminator 2 view .LVU3319
	ldr	r2, [r5, #24]
	cmp	r0, r2
	bne	.L909
	.loc 1 3215 70 discriminator 3 view .LVU3320
	ldr	r2, [r5, #28]
	cmp	r1, r2
	bne	.L909
	b	.L912
.LVL884:
.L953:
	.loc 1 3258 7 is_stmt 1 view .LVU3321
	.loc 1 3258 24 is_stmt 0 view .LVU3322
	ldrb	r1, [r8, ip, lsl #1]	@ zero_extendqisi2
	.loc 1 3259 14 view .LVU3323
	add	ip, r8, ip, lsl #1
	.loc 1 3258 20 view .LVU3324
	strb	r1, [r2]
	.loc 1 3258 15 view .LVU3325
	strb	r1, [r7]
	.loc 1 3258 10 view .LVU3326
	strb	r1, [r6]
	.loc 1 3259 7 is_stmt 1 view .LVU3327
	.loc 1 3259 14 is_stmt 0 view .LVU3328
	ldrb	r2, [ip, #1]	@ zero_extendqisi2
.LVL885:
	.loc 1 3259 10 view .LVU3329
	strb	r2, [r3]
	pop	{r3, r4, r5, r6, r7, r8, r9, r10, fp, pc}
.LVL886:
.L952:
	.loc 1 3271 7 is_stmt 1 view .LVU3330
	.loc 1 3271 14 is_stmt 0 view .LVU3331
	ldrb	r1, [r8, ip, lsl #2]	@ zero_extendqisi2
	.loc 1 3272 14 view .LVU3332
	add	ip, r8, ip, lsl #2
	.loc 1 3271 10 view .LVU3333
	strb	r1, [r6]
	.loc 1 3272 7 is_stmt 1 view .LVU3334
	.loc 1 3272 14 is_stmt 0 view .LVU3335
	ldrb	r1, [ip, #1]	@ zero_extendqisi2
	.loc 1 3272 10 view .LVU3336
	strb	r1, [r7]
	.loc 1 3273 7 is_stmt 1 view .LVU3337
	.loc 1 3273 14 is_stmt 0 view .LVU3338
	ldrb	r1, [ip, #2]	@ zero_extendqisi2
	.loc 1 3273 10 view .LVU3339
	strb	r1, [r2]
	.loc 1 3274 7 is_stmt 1 view .LVU3340
	.loc 1 3274 14 is_stmt 0 view .LVU3341
	ldrb	r2, [ip, #3]	@ zero_extendqisi2
.LVL887:
	.loc 1 3274 10 view .LVU3342
	strb	r2, [r3]
	pop	{r3, r4, r5, r6, r7, r8, r9, r10, fp, pc}
	.cfi_endproc
.LFE142:
	.size	getPixelColorRGBA8, .-getPixelColorRGBA8
	.section	.text.lodepng_inflatev.constprop.0,"ax",%progbits
	.align	2
	.syntax unified
	.arm
	.fpu vfp
	.type	lodepng_inflatev.constprop.0, %function
lodepng_inflatev.constprop.0:
.LVL888:
.LFB233:
	.loc 1 1253 17 is_stmt 1 view -0
	.cfi_startproc
	@ args = 0, pretend = 0, frame = 96
	@ frame_needed = 0, uses_anonymous_args = 0
	.loc 1 1258 3 view .LVU3344
	.loc 1 1259 3 view .LVU3345
	.loc 1 1260 3 view .LVU3346
	.loc 1 1261 3 view .LVU3347
	.loc 1 1263 3 view .LVU3348
	.loc 1 1265 3 view .LVU3349
	.loc 1 1265 9 view .LVU3350
	.loc 1 1253 17 is_stmt 0 view .LVU3351
	push	{r4, r5, r6, r7, r8, r9, r10, fp, lr}
	.cfi_def_cfa_offset 36
	.cfi_offset 4, -36
	.cfi_offset 5, -32
	.cfi_offset 6, -28
	.cfi_offset 7, -24
	.cfi_offset 8, -20
	.cfi_offset 9, -16
	.cfi_offset 10, -12
	.cfi_offset 11, -8
	.cfi_offset 14, -4
	vpush.64	{d8, d9}
	.cfi_def_cfa_offset 52
	.cfi_offset 80, -52
	.cfi_offset 81, -48
	.cfi_offset 82, -44
	.cfi_offset 83, -40
.LBB1747:
.LBB1748:
.LBB1749:
.LBB1750:
.LBB1751:
	.loc 1 998 29 view .LVU3352
	mov	r3, #0
.LBE1751:
.LBE1750:
.LBE1749:
.LBE1748:
.LBE1747:
	.loc 1 1253 17 view .LVU3353
	sub	sp, sp, #100
	.cfi_def_cfa_offset 152
.LBB2060:
	.loc 1 1268 25 view .LVU3354
	lsl	r9, r2, #3
	.loc 1 1267 5 is_stmt 1 view .LVU3355
	.loc 1 1268 5 view .LVU3356
.LBE2060:
	.loc 1 1253 17 is_stmt 0 view .LVU3357
	str	r2, [sp, #8]
.LBB2061:
	.loc 1 1268 11 view .LVU3358
	add	r2, r3, #2
.LVL889:
	.loc 1 1268 7 view .LVU3359
	cmp	r2, r9
.LBE2061:
	.loc 1 1253 17 view .LVU3360
	mov	r8, r0
	mov	r4, r1
	.loc 1 1260 10 view .LVU3361
	mov	r5, r3
.LBB2062:
	.loc 1 1268 7 view .LVU3362
	bcs	.L956
.LVL890:
.L1108:
	.loc 1 1269 5 is_stmt 1 view .LVU3363
.LBB1999:
.LBI1999:
	.loc 1 447 22 view .LVU3364
.LBB2000:
	.loc 1 449 3 view .LVU3365
	.loc 1 450 3 is_stmt 0 view .LVU3366
	add	ip, r3, #1
.LBE2000:
.LBE1999:
.LBB2004:
.LBB2005:
	.loc 1 449 53 view .LVU3367
	ldrb	r0, [r4, r2, lsr #3]	@ zero_extendqisi2
.LBE2005:
.LBE2004:
.LBB2011:
.LBB2012:
	ldrb	r1, [r4, ip, lsr #3]	@ zero_extendqisi2
.LBE2012:
.LBE2011:
.LBB2016:
.LBB2006:
	.loc 1 449 88 view .LVU3368
	and	r2, r2, #7
.LBE2006:
.LBE2016:
.LBB2017:
.LBB2013:
	and	ip, ip, #7
	.loc 1 449 72 view .LVU3369
	asr	r1, r1, ip
.LBE2013:
.LBE2017:
.LBB2018:
.LBB2007:
	asr	r2, r0, r2
.LBE2007:
.LBE2018:
.LBB2019:
.LBB2001:
	.loc 1 449 53 view .LVU3370
	ldrb	r0, [r4, r3, lsr #3]	@ zero_extendqisi2
.LBE2001:
.LBE2019:
.LBB2020:
.LBB2008:
	.loc 1 449 17 view .LVU3371
	and	r2, r2, #1
.LBE2008:
.LBE2020:
.LBB2021:
.LBB2014:
	and	r1, r1, #1
.LBE2014:
.LBE2021:
.LBB2022:
.LBB2002:
	.loc 1 449 88 view .LVU3372
	and	ip, r3, #7
.LBE2002:
.LBE2022:
	.loc 1 1271 11 view .LVU3373
	add	r1, r1, r2, lsl #1
.LBB2023:
.LBB2003:
	.loc 1 449 72 view .LVU3374
	asr	r2, r0, ip
	.loc 1 449 17 view .LVU3375
	and	r2, r2, #1
	str	r2, [sp]
.LVL891:
	.loc 1 450 3 is_stmt 1 view .LVU3376
	.loc 1 451 3 view .LVU3377
	.loc 1 451 3 is_stmt 0 view .LVU3378
.LBE2003:
.LBE2023:
	.loc 1 1270 5 is_stmt 1 view .LVU3379
.LBB2024:
.LBI2011:
	.loc 1 447 22 view .LVU3380
.LBB2015:
	.loc 1 449 3 view .LVU3381
	.loc 1 450 3 view .LVU3382
	.loc 1 451 3 view .LVU3383
	.loc 1 451 3 is_stmt 0 view .LVU3384
.LBE2015:
.LBE2024:
	.loc 1 1271 5 is_stmt 1 view .LVU3385
.LBB2025:
.LBI2004:
	.loc 1 447 22 view .LVU3386
.LBB2009:
	.loc 1 449 3 view .LVU3387
	.loc 1 450 3 view .LVU3388
.LBE2009:
.LBE2025:
	.loc 1 1273 7 is_stmt 0 view .LVU3389
	cmp	r1, #3
.LBB2026:
.LBB2010:
	.loc 1 450 3 view .LVU3390
	add	r2, r3, #3
	str	r2, [sp, #32]
	.loc 1 451 3 is_stmt 1 view .LVU3391
.LVL892:
	.loc 1 451 3 is_stmt 0 view .LVU3392
.LBE2010:
.LBE2026:
	.loc 1 1273 5 is_stmt 1 view .LVU3393
	.loc 1 1273 7 is_stmt 0 view .LVU3394
	beq	.L1030
	.loc 1 1274 10 is_stmt 1 view .LVU3395
	.loc 1 1274 12 is_stmt 0 view .LVU3396
	cmp	r1, #0
	bne	.L958
.LBB2027:
.LBB2028:
	.loc 1 1231 23 is_stmt 1 view .LVU3397
	tst	r2, #7
	beq	.L959
	add	r3, r3, #4
.L960:
	.loc 1 1231 29 view .LVU3398
	.loc 1 1231 23 view .LVU3399
	mov	r2, r3
	.loc 1 1231 16 is_stmt 0 view .LVU3400
	and	r3, r3, #7
	.loc 1 1231 23 view .LVU3401
	cmp	r3, #0
	add	r3, r2, #1
	bne	.L960
	str	r2, [sp, #32]
.L959:
	.loc 1 1232 3 is_stmt 1 view .LVU3402
	.loc 1 1235 5 is_stmt 0 view .LVU3403
	ldr	r1, [sp, #8]
.LVL893:
	.loc 1 1232 5 view .LVU3404
	lsr	r3, r2, #3
.LVL894:
	.loc 1 1235 3 is_stmt 1 view .LVU3405
	.loc 1 1235 8 is_stmt 0 view .LVU3406
	add	r6, r3, #4
	.loc 1 1235 5 view .LVU3407
	cmp	r1, r6
	bls	.L956
	.loc 1 1236 3 is_stmt 1 view .LVU3408
	.loc 1 1236 26 is_stmt 0 view .LVU3409
	add	r1, r4, r3
	.loc 1 1236 11 view .LVU3410
	ldrb	r7, [r4, r2, lsr #3]	@ zero_extendqisi2
	.loc 1 1237 27 view .LVU3411
	add	r2, r3, #3
	.loc 1 1236 26 view .LVU3412
	ldrb	r3, [r1, #1]	@ zero_extendqisi2
.LVL895:
	.loc 1 1237 27 view .LVU3413
	add	fp, r4, r2
	.loc 1 1236 7 view .LVU3414
	add	r7, r7, r3, lsl #8
.LVL896:
	.loc 1 1236 35 is_stmt 1 view .LVU3415
	.loc 1 1237 3 view .LVU3416
	.loc 1 1237 12 is_stmt 0 view .LVU3417
	ldrb	r3, [r1, #2]	@ zero_extendqisi2
	.loc 1 1237 27 view .LVU3418
	ldrb	r1, [r4, r2]	@ zero_extendqisi2
	.loc 1 1237 8 view .LVU3419
	add	r3, r3, r1, lsl #8
	.loc 1 1240 5 view .LVU3420
	ldr	r1, .L1123
	.loc 1 1240 10 view .LVU3421
	add	r3, r3, r7
	.loc 1 1240 5 view .LVU3422
	cmp	r3, r1
.LVL897:
	.loc 1 1237 36 is_stmt 1 view .LVU3423
	.loc 1 1240 3 view .LVU3424
	.loc 1 1240 5 is_stmt 0 view .LVU3425
	bne	.L1031
	.loc 1 1242 3 is_stmt 1 view .LVU3426
.LBB2029:
.LBB2030:
.LBB2031:
.LBB2032:
	.loc 1 215 19 is_stmt 0 view .LVU3427
	ldr	r3, [r8, #8]
.LBE2032:
.LBE2031:
.LBE2030:
.LBE2029:
	.loc 1 1242 7 view .LVU3428
	add	r10, r7, r5
.LVL898:
.LBB2040:
.LBI2029:
	.loc 1 230 17 is_stmt 1 view .LVU3429
.LBB2038:
	.loc 1 232 3 view .LVU3430
.LBB2037:
.LBI2031:
	.loc 1 213 17 view .LVU3431
.LBB2036:
	.loc 1 215 3 view .LVU3432
	.loc 1 215 5 is_stmt 0 view .LVU3433
	cmp	r10, r3
	bls	.L961
.LBB2033:
	.loc 1 217 5 is_stmt 1 view .LVU3434
	.loc 1 217 65 is_stmt 0 view .LVU3435
	cmp	r10, r3, lsl #1
	movhi	r1, r10
	.loc 1 217 78 view .LVU3436
	addls	r1, r10, r10, lsl #1
	.loc 1 217 65 view .LVU3437
	lsrls	r1, r1, #1
.LVL899:
	.loc 1 218 5 is_stmt 1 view .LVU3438
.LBB2034:
.LBI2034:
	.loc 1 68 14 view .LVU3439
.LBB2035:
	.loc 1 70 3 view .LVU3440
	.loc 1 70 10 is_stmt 0 view .LVU3441
	ldr	r0, [r8]
	str	r1, [sp, #4]
	bl	realloc
.LVL900:
	.loc 1 70 10 view .LVU3442
.LBE2035:
.LBE2034:
	.loc 1 219 5 is_stmt 1 view .LVU3443
	.loc 1 219 7 is_stmt 0 view .LVU3444
	cmp	r0, #0
	.loc 1 219 7 view .LVU3445
	beq	.L1033
	.loc 1 221 7 is_stmt 1 view .LVU3446
	.loc 1 221 20 is_stmt 0 view .LVU3447
	ldr	r1, [sp, #4]
	.loc 1 222 15 view .LVU3448
	str	r0, [r8]
	.loc 1 221 20 view .LVU3449
	str	r1, [r8, #8]
	.loc 1 222 7 is_stmt 1 view .LVU3450
.LVL901:
.L961:
	.loc 1 222 7 is_stmt 0 view .LVU3451
.LBE2033:
.LBE2036:
.LBE2037:
	.loc 1 233 3 is_stmt 1 view .LVU3452
.LBE2038:
.LBE2040:
	.loc 1 1245 5 is_stmt 0 view .LVU3453
	ldr	r3, [sp, #8]
	.loc 1 1245 8 view .LVU3454
	add	r0, r6, r7
	.loc 1 1245 5 view .LVU3455
	cmp	r3, r0
.LBB2041:
.LBB2039:
	.loc 1 233 11 view .LVU3456
	str	r10, [r8, #4]
	.loc 1 234 3 is_stmt 1 view .LVU3457
.LVL902:
	.loc 1 234 3 is_stmt 0 view .LVU3458
.LBE2039:
.LBE2041:
	.loc 1 1245 3 is_stmt 1 view .LVU3459
	.loc 1 1245 5 is_stmt 0 view .LVU3460
	bcc	.L1034
.LVL903:
	.loc 1 1246 16 is_stmt 1 view .LVU3461
	cmp	r7, #0
	beq	.L1035
	mov	r3, fp
.LVL904:
.L964:
	.loc 1 1246 28 view .LVU3462
	.loc 1 1246 28 is_stmt 0 view .LVU3463
	mov	r2, r5
.LVL905:
	.loc 1 1246 52 view .LVU3464
	ldrb	ip, [r3, #1]!	@ zero_extendqisi2
	.loc 1 1246 48 view .LVU3465
	ldr	r1, [r8]
	.loc 1 1246 44 view .LVU3466
	add	r5, r5, #1
.LVL906:
	.loc 1 1246 16 view .LVU3467
	cmp	r10, r5
	.loc 1 1246 48 view .LVU3468
	strb	ip, [r1, r2]
	.loc 1 1246 23 is_stmt 1 view .LVU3469
	.loc 1 1246 16 view .LVU3470
	bne	.L964
.LVL907:
.L963:
	.loc 1 1248 3 view .LVU3471
.LBE2028:
.LBE2027:
.LBE2062:
	.loc 1 1265 9 is_stmt 0 view .LVU3472
	ldr	r3, [sp]
.LBB2063:
.LBB2048:
.LBB2042:
	.loc 1 1248 13 view .LVU3473
	lsl	r0, r0, #3
.LBE2042:
.LBE2048:
.LBE2063:
	.loc 1 1265 9 view .LVU3474
	cmp	r3, #0
.LBB2064:
.LBB2049:
.LBB2043:
	.loc 1 1248 9 view .LVU3475
	str	r0, [sp, #32]
	.loc 1 1250 3 is_stmt 1 view .LVU3476
.LVL908:
	.loc 1 1250 3 is_stmt 0 view .LVU3477
.LBE2043:
.LBE2049:
	.loc 1 1277 5 is_stmt 1 view .LVU3478
	.loc 1 1277 5 is_stmt 0 view .LVU3479
.LBE2064:
	.loc 1 1265 9 is_stmt 1 view .LVU3480
	bne	.L1058
.L1121:
.LBB2065:
	.loc 1 1268 11 is_stmt 0 view .LVU3481
	ldr	r3, [sp, #32]
.LVL909:
	.loc 1 1267 5 is_stmt 1 view .LVU3482
	.loc 1 1268 5 view .LVU3483
	.loc 1 1268 11 is_stmt 0 view .LVU3484
	add	r2, r3, #2
	.loc 1 1268 7 view .LVU3485
	cmp	r2, r9
	bcc	.L1108
.LVL910:
.L956:
	.loc 1 1268 37 view .LVU3486
	mov	r10, #52
.LBE2065:
	.loc 1 1281 1 view .LVU3487
	mov	r0, r10
	add	sp, sp, #100
	.cfi_remember_state
	.cfi_def_cfa_offset 52
	@ sp needed
	vldm	sp!, {d8-d9}
	.cfi_restore 82
	.cfi_restore 83
	.cfi_restore 80
	.cfi_restore 81
	.cfi_def_cfa_offset 36
	pop	{r4, r5, r6, r7, r8, r9, r10, fp, pc}
.LVL911:
.L958:
	.cfi_restore_state
.LBB2066:
	.loc 1 1275 10 is_stmt 1 view .LVU3488
.LBB2050:
.LBI1748:
	.loc 1 1131 17 view .LVU3489
.LBB1993:
	.loc 1 1134 3 view .LVU3490
	.loc 1 1135 3 view .LVU3491
	.loc 1 1136 3 view .LVU3492
	.loc 1 1137 3 view .LVU3493
	.loc 1 1139 3 view .LVU3494
.LBB1881:
.LBI1881:
	.loc 1 531 13 view .LVU3495
.LBB1882:
	.loc 1 533 3 view .LVU3496
	.loc 1 533 16 is_stmt 0 view .LVU3497
	mov	r0, #0
.LBE1882:
.LBE1881:
	.loc 1 1142 5 view .LVU3498
	cmp	r1, #1
.LBB1884:
.LBB1883:
	.loc 1 533 16 view .LVU3499
	str	r0, [sp, #36]
	.loc 1 534 3 is_stmt 1 view .LVU3500
	.loc 1 534 16 is_stmt 0 view .LVU3501
	str	r0, [sp, #40]
	.loc 1 535 3 is_stmt 1 view .LVU3502
	.loc 1 535 17 is_stmt 0 view .LVU3503
	str	r0, [sp, #44]
.LVL912:
	.loc 1 535 17 view .LVU3504
.LBE1883:
.LBE1884:
	.loc 1 1140 3 is_stmt 1 view .LVU3505
.LBB1885:
.LBI1885:
	.loc 1 531 13 view .LVU3506
.LBB1886:
	.loc 1 533 3 view .LVU3507
	.loc 1 533 16 is_stmt 0 view .LVU3508
	str	r0, [sp, #56]
	.loc 1 534 3 is_stmt 1 view .LVU3509
	.loc 1 534 16 is_stmt 0 view .LVU3510
	str	r0, [sp, #60]
	.loc 1 535 3 is_stmt 1 view .LVU3511
	.loc 1 535 17 is_stmt 0 view .LVU3512
	str	r0, [sp, #64]
.LVL913:
	.loc 1 535 17 view .LVU3513
.LBE1886:
.LBE1885:
	.loc 1 1142 3 is_stmt 1 view .LVU3514
	.loc 1 1142 5 is_stmt 0 view .LVU3515
	beq	.L1109
	.loc 1 1143 8 is_stmt 1 view .LVU3516
	.loc 1 1143 23 view .LVU3517
.LVL914:
.LBB1887:
.LBI1750:
	.loc 1 983 17 view .LVU3518
.LBB1873:
	.loc 1 987 3 view .LVU3519
	.loc 1 988 3 view .LVU3520
	.loc 1 989 3 view .LVU3521
	.loc 1 992 3 view .LVU3522
	.loc 1 993 3 view .LVU3523
	.loc 1 995 3 view .LVU3524
	.loc 1 996 3 view .LVU3525
	.loc 1 998 3 view .LVU3526
	.loc 1 998 12 is_stmt 0 view .LVU3527
	add	r7, r3, #17
	.loc 1 998 5 view .LVU3528
	cmp	r7, r9
.LBB1752:
.LBB1753:
	.loc 1 456 12 view .LVU3529
	movls	lr, r0
	.loc 1 457 9 view .LVU3530
	movls	r0, lr
.LBE1753:
.LBE1752:
	.loc 1 998 5 view .LVU3531
	bhi	.L1110
.LVL915:
.L968:
	.loc 1 998 5 view .LVU3532
	add	ip, r2, r0
.LVL916:
.LBB1755:
.LBB1754:
	.loc 1 459 5 is_stmt 1 view .LVU3533
	.loc 1 459 37 is_stmt 0 view .LVU3534
	ldrb	r1, [r4, ip, lsr #3]	@ zero_extendqisi2
	.loc 1 459 72 view .LVU3535
	and	ip, ip, #7
	.loc 1 459 56 view .LVU3536
	asr	r1, r1, ip
	.loc 1 459 16 view .LVU3537
	and	r1, r1, #1
	.loc 1 459 12 view .LVU3538
	add	lr, lr, r1, lsl r0
.LVL917:
	.loc 1 460 5 is_stmt 1 view .LVU3539
	.loc 1 457 26 view .LVU3540
	add	r0, r0, #1
.LVL918:
	.loc 1 457 16 view .LVU3541
	cmp	r0, #5
	bne	.L968
.LBE1754:
.LBE1755:
.LBB1756:
.LBB1757:
	.loc 1 456 12 is_stmt 0 view .LVU3542
	mov	r6, #0
	.loc 1 457 9 view .LVU3543
	mov	r1, r6
	.loc 1 456 12 view .LVU3544
	str	lr, [sp, #16]
	add	r0, r3, #8
.LVL919:
.L970:
	.loc 1 456 12 view .LVU3545
	add	ip, r0, r1
.LVL920:
	.loc 1 459 5 is_stmt 1 view .LVU3546
	.loc 1 459 37 is_stmt 0 view .LVU3547
	ldrb	r2, [r4, ip, lsr #3]	@ zero_extendqisi2
	.loc 1 459 72 view .LVU3548
	and	ip, ip, #7
	.loc 1 459 56 view .LVU3549
	asr	r2, r2, ip
	.loc 1 459 16 view .LVU3550
	and	r2, r2, #1
	.loc 1 459 12 view .LVU3551
	add	r6, r6, r2, lsl r1
.LVL921:
	.loc 1 460 5 is_stmt 1 view .LVU3552
	.loc 1 457 26 view .LVU3553
	add	r1, r1, #1
.LVL922:
	.loc 1 457 16 view .LVU3554
	cmp	r1, #5
	bne	.L970
.LBE1757:
.LBE1756:
.LBB1758:
.LBB1759:
	.loc 1 456 12 is_stmt 0 view .LVU3555
	mov	r10, #0
	.loc 1 457 9 view .LVU3556
	mov	r1, r10
.LVL923:
	.loc 1 457 9 view .LVU3557
	add	r3, r3, #13
.LVL924:
.L971:
	.loc 1 457 9 view .LVU3558
	add	r0, r3, r1
.LVL925:
	.loc 1 459 5 is_stmt 1 view .LVU3559
	.loc 1 459 37 is_stmt 0 view .LVU3560
	ldrb	r2, [r4, r0, lsr #3]	@ zero_extendqisi2
	.loc 1 459 72 view .LVU3561
	and	r0, r0, #7
	.loc 1 459 56 view .LVU3562
	asr	r2, r2, r0
	.loc 1 459 16 view .LVU3563
	and	r2, r2, #1
	.loc 1 459 12 view .LVU3564
	add	r10, r10, r2, lsl r1
.LVL926:
	.loc 1 460 5 is_stmt 1 view .LVU3565
	.loc 1 457 26 view .LVU3566
	add	r1, r1, #1
.LVL927:
	.loc 1 457 16 view .LVU3567
	cmp	r1, #4
	bne	.L971
.LBE1759:
.LBE1758:
	.loc 1 1005 9 is_stmt 0 view .LVU3568
	add	r10, r10, #4
.LVL928:
	.loc 1 1007 20 view .LVU3569
	add	r3, r10, r10, lsl #1
	.loc 1 1007 12 view .LVU3570
	add	r3, r3, r7
	.loc 1 1007 5 view .LVU3571
	cmp	r9, r3
	str	r7, [sp, #32]
.LBB1761:
.LBB1760:
	.loc 1 462 3 is_stmt 1 view .LVU3572
.LVL929:
	.loc 1 462 3 is_stmt 0 view .LVU3573
.LBE1760:
.LBE1761:
	.loc 1 1007 3 is_stmt 1 view .LVU3574
	.loc 1 1007 5 is_stmt 0 view .LVU3575
	bcc	.L1111
	.loc 1 1009 3 is_stmt 1 view .LVU3576
.LVL930:
.LBB1762:
.LBI1762:
	.loc 1 531 13 view .LVU3577
.LBB1763:
	.loc 1 533 3 view .LVU3578
	.loc 1 533 16 is_stmt 0 view .LVU3579
	mov	fp, #0
.LBE1763:
.LBE1762:
.LBB1765:
.LBB1766:
	.loc 1 65 10 view .LVU3580
	mov	r0, #76
.LBE1766:
.LBE1765:
.LBB1768:
.LBB1764:
	.loc 1 533 16 view .LVU3581
	str	fp, [sp, #76]
	.loc 1 534 3 is_stmt 1 view .LVU3582
	.loc 1 534 16 is_stmt 0 view .LVU3583
	str	fp, [sp, #80]
	.loc 1 535 3 is_stmt 1 view .LVU3584
	.loc 1 535 17 is_stmt 0 view .LVU3585
	str	fp, [sp, #84]
.LVL931:
	.loc 1 535 17 view .LVU3586
.LBE1764:
.LBE1768:
	.loc 1 1011 3 is_stmt 1 view .LVU3587
	.loc 1 1011 9 view .LVU3588
	.loc 1 1015 5 view .LVU3589
.LBB1769:
.LBI1765:
	.loc 1 63 14 view .LVU3590
.LBB1767:
	.loc 1 65 3 view .LVU3591
	.loc 1 65 10 is_stmt 0 view .LVU3592
	bl	malloc
.LVL932:
	.loc 1 65 10 view .LVU3593
.LBE1767:
.LBE1769:
	.loc 1 1016 5 is_stmt 1 view .LVU3594
	.loc 1 1016 7 is_stmt 0 view .LVU3595
	subs	r2, r0, #0
	str	r2, [sp, #12]
	beq	.L973
	mov	r3, fp
	.loc 1 1018 11 view .LVU3596
	str	r9, [sp, #4]
	.loc 1 1016 7 view .LVU3597
	mov	lr, #16
	.loc 1 1018 11 view .LVU3598
	mov	ip, r3
	mov	r9, r2
	ldr	fp, .L1123+4
	b	.L977
.LVL933:
.L974:
	.loc 1 1018 25 view .LVU3599
	add	ip, ip, #1
.LVL934:
	.loc 1 1018 18 view .LVU3600
	cmp	ip, #19
	.loc 1 1020 46 view .LVU3601
	str	r0, [r9, lr]
	.loc 1 1018 25 is_stmt 1 view .LVU3602
.LVL935:
	.loc 1 1018 18 view .LVU3603
	beq	.L976
.L1112:
	.loc 1 1020 41 is_stmt 0 view .LVU3604
	ldr	lr, [fp], #4
.LVL936:
.L977:
	.loc 1 1020 7 is_stmt 1 view .LVU3605
	.loc 1 1020 9 is_stmt 0 view .LVU3606
	cmp	r10, ip
.LBB1770:
.LBB1771:
	.loc 1 456 12 view .LVU3607
	mov	r0, #0
.LBE1771:
.LBE1770:
	.loc 1 1020 30 view .LVU3608
	lsl	lr, lr, #2
	.loc 1 1020 9 view .LVU3609
	bls	.L974
.LBB1774:
.LBB1772:
	.loc 1 457 9 view .LVU3610
	mov	r2, r0
.L975:
	add	r1, r7, r2
.LVL937:
	.loc 1 459 5 is_stmt 1 view .LVU3611
	.loc 1 459 37 is_stmt 0 view .LVU3612
	ldrb	r3, [r4, r1, lsr #3]	@ zero_extendqisi2
	.loc 1 459 72 view .LVU3613
	and	r1, r1, #7
	.loc 1 459 56 view .LVU3614
	asr	r3, r3, r1
	.loc 1 459 16 view .LVU3615
	and	r3, r3, #1
	.loc 1 459 12 view .LVU3616
	add	r0, r0, r3, lsl r2
.LVL938:
	.loc 1 460 5 is_stmt 1 view .LVU3617
	.loc 1 457 26 view .LVU3618
	add	r2, r2, #1
.LVL939:
	.loc 1 457 16 view .LVU3619
	cmp	r2, #3
	bne	.L975
.LBE1772:
.LBE1774:
	.loc 1 1018 25 is_stmt 0 view .LVU3620
	add	ip, ip, #1
.LVL940:
	.loc 1 1018 18 view .LVU3621
	cmp	ip, #19
.LBB1775:
.LBB1773:
	.loc 1 460 5 view .LVU3622
	mov	r3, #1
.LVL941:
	.loc 1 460 5 view .LVU3623
	add	r7, r7, #3
.LBE1773:
.LBE1775:
	.loc 1 1020 46 view .LVU3624
	str	r0, [r9, lr]
	.loc 1 1018 25 is_stmt 1 view .LVU3625
.LVL942:
	.loc 1 1018 18 view .LVU3626
	bne	.L1112
.L976:
	.loc 1 1018 18 is_stmt 0 view .LVU3627
	cmp	r3, #0
.LBB1776:
.LBB1777:
.LBB1778:
.LBB1779:
	.loc 1 65 10 view .LVU3628
	mov	r0, #76
	strne	r7, [sp, #32]
.LBE1779:
.LBE1778:
.LBE1777:
.LBE1776:
	.loc 1 1024 5 is_stmt 1 view .LVU3629
.LVL943:
.LBB1783:
.LBI1776:
	.loc 1 656 17 view .LVU3630
.LBB1782:
	.loc 1 659 3 view .LVU3631
	.loc 1 660 3 view .LVU3632
.LBB1781:
.LBI1778:
	.loc 1 63 14 view .LVU3633
.LBB1780:
	.loc 1 65 3 view .LVU3634
	ldr	r9, [sp, #4]
.LVL944:
	.loc 1 65 10 is_stmt 0 view .LVU3635
	bl	malloc
.LVL945:
	.loc 1 65 10 view .LVU3636
.LBE1780:
.LBE1781:
	.loc 1 661 5 view .LVU3637
	cmp	r0, #0
	.loc 1 660 17 view .LVU3638
	str	r0, [sp, #84]
	.loc 1 661 3 is_stmt 1 view .LVU3639
	.loc 1 661 5 is_stmt 0 view .LVU3640
	beq	.L973
	.loc 1 662 51 view .LVU3641
	mov	r2, #76
	ldr	r1, [sp, #12]
	bl	memcpy
.LVL946:
	.loc 1 663 3 is_stmt 1 view .LVU3642
	.loc 1 664 19 is_stmt 0 view .LVU3643
	mov	r0, #7
	mov	r1, #19
	strd	r0, [sp, #88]
	.loc 1 665 3 is_stmt 1 view .LVU3644
	.loc 1 665 10 is_stmt 0 view .LVU3645
	add	r0, sp, #76
	bl	HuffmanTree_makeFromLengths2
.LVL947:
	.loc 1 665 10 view .LVU3646
.LBE1782:
.LBE1783:
	.loc 1 1025 5 is_stmt 1 view .LVU3647
	.loc 1 1025 7 is_stmt 0 view .LVU3648
	subs	r10, r0, #0
.LVL948:
	.loc 1 993 13 view .LVU3649
	movne	fp, #0
	.loc 1 992 13 view .LVU3650
	strne	fp, [sp, #4]
	.loc 1 1025 7 view .LVU3651
	bne	.L979
	.loc 1 1028 5 is_stmt 1 view .LVU3652
.LVL949:
.LBB1784:
.LBI1784:
	.loc 1 63 14 view .LVU3653
.LBB1785:
	.loc 1 65 3 view .LVU3654
	.loc 1 65 10 is_stmt 0 view .LVU3655
	mov	r1, #1
	mov	r0, #1152
.LVL950:
	.loc 1 65 10 view .LVU3656
	bl	calloc
.LVL951:
	mov	r3, r0
.LBE1785:
.LBE1784:
.LBB1787:
.LBB1788:
	mov	r1, #1
	mov	r0, #128
.LBE1788:
.LBE1787:
.LBB1790:
.LBB1786:
	mov	r7, r3
	str	r3, [sp, #4]
.LVL952:
	.loc 1 65 10 view .LVU3657
.LBE1786:
.LBE1790:
	.loc 1 1029 5 is_stmt 1 view .LVU3658
.LBB1791:
.LBI1787:
	.loc 1 63 14 view .LVU3659
.LBB1789:
	.loc 1 65 3 view .LVU3660
	.loc 1 65 10 is_stmt 0 view .LVU3661
	bl	calloc
.LVL953:
	.loc 1 65 10 view .LVU3662
.LBE1789:
.LBE1791:
	.loc 1 1030 5 is_stmt 1 view .LVU3663
	.loc 1 1030 7 is_stmt 0 view .LVU3664
	cmp	r0, #0
	cmpne	r7, #0
	mov	r3, r7
	.loc 1 1030 22 view .LVU3665
	mov	fp, r0
	.loc 1 1030 7 view .LVU3666
	moveq	r3, #1
	movne	r3, #0
	beq	.L1053
	.loc 1 1030 7 view .LVU3667
	ldr	r2, [sp, #16]
	add	r2, r2, #256
	add	r1, r2, #2
	.loc 1 1036 13 view .LVU3668
	adds	r6, r6, r1
	str	r1, [sp, #28]
.LVL954:
	.loc 1 1036 13 is_stmt 1 view .LVU3669
	beq	.L1006
	.loc 1 1024 13 is_stmt 0 view .LVU3670
	mov	r7, r3
.LVL955:
	.loc 1 1024 13 view .LVU3671
	str	r3, [sp, #24]
	ldr	r3, [sp, #16]
	.loc 1 1001 8 view .LVU3672
	add	r10, r2, #1
	rsb	r3, r3, r3, lsl #30
	add	r3, r0, r3, lsl #2
	sub	r3, r3, #1024
	sub	r2, r3, #4
.LBB1792:
.LBB1793:
	.loc 1 1094 35 view .LVU3673
	str	r5, [sp, #16]
	str	r8, [sp, #20]
	mov	r3, r9
	vmov	s15, r0	@ int
	mov	r8, r2
	ldr	r5, [sp, #4]
	add	r1, sp, #32
	b	.L1005
.LVL956:
.L1114:
	.loc 1 1094 35 view .LVU3674
.LBE1793:
	.loc 1 1041 9 is_stmt 1 view .LVU3675
	.loc 1 1041 11 is_stmt 0 view .LVU3676
	cmp	r10, r7
	.loc 1 1041 22 is_stmt 1 view .LVU3677
	.loc 1 1042 33 is_stmt 0 view .LVU3678
	vmovls	ip, s15	@ int
	.loc 1 1042 25 view .LVU3679
	subls	r2, r7, r10
	.loc 1 1041 35 view .LVU3680
	strhi	r0, [r5, r7, lsl #2]
	.loc 1 1042 14 is_stmt 1 view .LVU3681
	.loc 1 1042 33 is_stmt 0 view .LVU3682
	strls	r0, [ip, r2, lsl #2]
	.loc 1 1043 9 is_stmt 1 view .LVU3683
	add	r7, r7, #1
.LVL957:
.L985:
	.loc 1 1043 9 is_stmt 0 view .LVU3684
.LBE1792:
	.loc 1 1036 13 is_stmt 1 view .LVU3685
	cmp	r6, r7
	bls	.L1113
.LVL958:
.L1005:
.LBB1818:
	.loc 1 1038 7 view .LVU3686
	.loc 1 1038 23 is_stmt 0 view .LVU3687
	mov	r0, r4
	add	r2, sp, #76
	bl	huffmanDecodeSymbol
.LVL959:
	.loc 1 1039 7 is_stmt 1 view .LVU3688
	.loc 1 1039 9 is_stmt 0 view .LVU3689
	cmp	r0, #15
	bls	.L1114
	.loc 1 1045 12 is_stmt 1 view .LVU3690
	.loc 1 1045 14 is_stmt 0 view .LVU3691
	cmp	r0, #16
	beq	.L1115
	.loc 1 1066 12 is_stmt 1 view .LVU3692
	.loc 1 1066 14 is_stmt 0 view .LVU3693
	cmp	r0, #17
	beq	.L1116
	.loc 1 1082 12 is_stmt 1 view .LVU3694
	.loc 1 1082 14 is_stmt 0 view .LVU3695
	cmp	r0, #18
	bne	.L999
.LBB1798:
	.loc 1 1084 9 is_stmt 1 view .LVU3696
.LVL960:
	.loc 1 1085 9 view .LVU3697
	.loc 1 1085 13 is_stmt 0 view .LVU3698
	ldr	r9, [sp, #32]
	.loc 1 1085 17 view .LVU3699
	add	fp, r9, #7
	.loc 1 1085 11 view .LVU3700
	cmp	r3, fp
	bcc	.L1047
.LBB1794:
.LBB1795:
	.loc 1 456 12 view .LVU3701
	mov	lr, #0
	.loc 1 457 9 view .LVU3702
	mov	r0, lr
.LVL961:
.L1000:
	.loc 1 457 9 view .LVU3703
	add	ip, r9, r0
.LVL962:
	.loc 1 459 5 is_stmt 1 view .LVU3704
	.loc 1 459 37 is_stmt 0 view .LVU3705
	ldrb	r2, [r4, ip, lsr #3]	@ zero_extendqisi2
	.loc 1 459 72 view .LVU3706
	and	ip, ip, #7
	.loc 1 459 56 view .LVU3707
	asr	r2, r2, ip
	.loc 1 459 16 view .LVU3708
	and	r2, r2, #1
	.loc 1 459 12 view .LVU3709
	add	lr, lr, r2, lsl r0
.LVL963:
	.loc 1 460 5 is_stmt 1 view .LVU3710
	.loc 1 457 26 view .LVU3711
	add	r0, r0, #1
.LVL964:
	.loc 1 457 16 view .LVU3712
	cmp	r0, #7
	bne	.L1000
.LBE1795:
.LBE1794:
	.loc 1 1089 22 is_stmt 0 view .LVU3713
	cmn	lr, #11
	str	fp, [sp, #32]
.LBB1797:
.LBB1796:
	.loc 1 462 3 is_stmt 1 view .LVU3714
.LVL965:
	.loc 1 462 3 is_stmt 0 view .LVU3715
.LBE1796:
.LBE1797:
	.loc 1 1089 9 is_stmt 1 view .LVU3716
	.loc 1 1089 22 view .LVU3717
	beq	.L985
	.loc 1 1091 11 view .LVU3718
	.loc 1 1091 13 is_stmt 0 view .LVU3719
	cmp	r7, r6
	bcs	.L1048
	add	r2, r7, #11
	add	r2, r2, lr
.L1001:
	.loc 1 1091 54 is_stmt 1 view .LVU3720
	.loc 1 1093 11 view .LVU3721
	.loc 1 1093 24 view .LVU3722
	.loc 1 1094 16 view .LVU3723
	.loc 1 1093 37 is_stmt 0 view .LVU3724
	mov	r0, #0
	.loc 1 1093 13 view .LVU3725
	cmp	r7, r10
	.loc 1 1093 37 view .LVU3726
	strcc	r0, [r5, r7, lsl #2]
	.loc 1 1094 35 view .LVU3727
	strcs	r0, [r8, r7, lsl #2]
	.loc 1 1091 11 is_stmt 1 view .LVU3728
	.loc 1 1095 11 view .LVU3729
	add	r7, r7, #1
.LVL966:
	.loc 1 1089 35 view .LVU3730
	.loc 1 1089 22 view .LVU3731
	cmp	r7, r2
	beq	.L985
	.loc 1 1091 13 is_stmt 0 view .LVU3732
	cmp	r7, r6
	bne	.L1001
	.loc 1 1091 41 view .LVU3733
	mov	r9, r3
	vmov	fp, s15	@ int
	mov	r10, #15
.LVL967:
	.loc 1 1091 41 view .LVU3734
.LBE1798:
.LBE1818:
	.loc 1 1036 13 is_stmt 1 view .LVU3735
.LBB1819:
.LBB1799:
	.loc 1 1091 41 is_stmt 0 view .LVU3736
	ldr	r5, [sp, #16]
	ldr	r8, [sp, #20]
.LVL968:
.L979:
	.loc 1 1091 41 view .LVU3737
.LBE1799:
.LBE1819:
	.loc 1 1122 3 is_stmt 1 view .LVU3738
.LBB1820:
.LBI1820:
	.loc 1 73 13 view .LVU3739
.LBB1821:
	.loc 1 75 3 view .LVU3740
	ldr	r0, [sp, #12]
	bl	free
.LVL969:
	.loc 1 75 3 is_stmt 0 view .LVU3741
.LBE1821:
.LBE1820:
	.loc 1 1123 3 is_stmt 1 view .LVU3742
.LBB1824:
.LBI1824:
	.loc 1 73 13 view .LVU3743
.LBB1825:
	.loc 1 75 3 view .LVU3744
	ldr	r0, [sp, #4]
	bl	free
.LVL970:
	.loc 1 75 3 is_stmt 0 view .LVU3745
.LBE1825:
.LBE1824:
	.loc 1 1124 3 is_stmt 1 view .LVU3746
.LBB1827:
.LBI1827:
	.loc 1 73 13 view .LVU3747
.LBB1828:
	.loc 1 75 3 view .LVU3748
	mov	r0, fp
	bl	free
.LVL971:
	.loc 1 75 3 is_stmt 0 view .LVU3749
.LBE1828:
.LBE1827:
	.loc 1 1125 3 is_stmt 1 view .LVU3750
.LBB1830:
.LBI1830:
	.loc 1 538 13 view .LVU3751
.LBB1831:
	.loc 1 540 3 view .LVU3752
.LBB1832:
.LBI1832:
	.loc 1 73 13 view .LVU3753
.LBB1833:
	.loc 1 75 3 view .LVU3754
.LBE1833:
.LBE1832:
.LBE1831:
.LBE1830:
.LBE1873:
.LBE1887:
.LBB1888:
.LBB1889:
	.loc 1 540 20 is_stmt 0 view .LVU3755
	mov	r3, #0
	mov	r6, r3
.LBE1889:
.LBE1888:
.LBB1905:
.LBB1874:
.LBB1851:
.LBB1848:
.LBB1837:
.LBB1834:
	.loc 1 75 3 view .LVU3756
	ldr	r0, [sp, #76]
.LBE1834:
.LBE1837:
.LBE1848:
.LBE1851:
.LBE1874:
.LBE1905:
.LBB1906:
.LBB1896:
	.loc 1 540 20 view .LVU3757
	vmov	s18, r3	@ int
.LBE1896:
.LBE1906:
.LBB1907:
.LBB1875:
.LBB1852:
.LBB1849:
.LBB1838:
.LBB1835:
	.loc 1 75 3 view .LVU3758
	bl	free
.LVL972:
	.loc 1 75 3 view .LVU3759
.LBE1835:
.LBE1838:
	.loc 1 541 3 is_stmt 1 view .LVU3760
.LBB1839:
.LBI1839:
	.loc 1 73 13 view .LVU3761
.LBB1840:
	.loc 1 75 3 view .LVU3762
	ldr	r0, [sp, #80]
	bl	free
.LVL973:
	.loc 1 75 3 is_stmt 0 view .LVU3763
.LBE1840:
.LBE1839:
	.loc 1 542 3 is_stmt 1 view .LVU3764
.LBB1842:
.LBI1842:
	.loc 1 73 13 view .LVU3765
.LBB1843:
	.loc 1 75 3 view .LVU3766
	ldr	r0, [sp, #84]
	bl	free
.LVL974:
	.loc 1 75 3 is_stmt 0 view .LVU3767
.LBE1843:
.LBE1842:
.LBE1849:
.LBE1852:
.LBE1875:
.LBE1907:
	.loc 1 1145 9 is_stmt 1 view .LVU3768
.LBB1908:
.LBB1897:
	.loc 1 540 20 is_stmt 0 view .LVU3769
	mov	r7, r6
	ldr	r0, [sp, #36]
	b	.L969
.LVL975:
.L1031:
	.loc 1 540 20 view .LVU3770
.LBE1897:
.LBE1908:
.LBE1993:
.LBE2050:
.LBB2051:
.LBB2044:
	.loc 1 1240 34 view .LVU3771
	mov	r10, #21
.LVL976:
.L955:
	.loc 1 1240 34 view .LVU3772
.LBE2044:
.LBE2051:
.LBE2066:
	.loc 1 1281 1 view .LVU3773
	mov	r0, r10
	add	sp, sp, #100
	.cfi_remember_state
	.cfi_def_cfa_offset 52
	@ sp needed
	vldm	sp!, {d8-d9}
	.cfi_restore 82
	.cfi_restore 83
	.cfi_restore 80
	.cfi_restore 81
	.cfi_def_cfa_offset 36
	pop	{r4, r5, r6, r7, r8, r9, r10, fp, pc}
.LVL977:
.L1109:
	.cfi_restore_state
.LBB2067:
.LBB2052:
.LBB1994:
	.loc 1 1142 18 is_stmt 1 view .LVU3774
.LBB1909:
.LBI1909:
	.loc 1 975 13 view .LVU3775
.LBB1910:
	.loc 1 978 3 view .LVU3776
	add	r3, sp, #36
	mov	r0, r3
	.loc 1 979 3 is_stmt 0 view .LVU3777
	add	r7, sp, #56
	.loc 1 978 3 view .LVU3778
	vmov	s17, r3	@ int
	bl	generateFixedLitLenTree.constprop.0.isra.0
.LVL978:
	.loc 1 979 3 is_stmt 1 view .LVU3779
	mov	r0, r7
	bl	generateFixedDistanceTree.constprop.0.isra.0
.LVL979:
	.loc 1 979 3 is_stmt 0 view .LVU3780
.LBE1910:
.LBE1909:
	.loc 1 1145 9 is_stmt 1 view .LVU3781
.LBB1911:
.LBB1912:
	.loc 1 542 20 is_stmt 0 view .LVU3782
	ldr	r3, [sp, #64]
	vmov	s18, r3	@ int
.LVL980:
.L967:
	.loc 1 542 20 view .LVU3783
.LBE1912:
.LBE1911:
.LBB1926:
	.loc 1 1156 28 view .LVU3784
	vmov	s16, r7	@ int
	add	r10, sp, #32
.L1027:
.LVL981:
	.loc 1 1148 5 is_stmt 1 view .LVU3785
	.loc 1 1148 24 is_stmt 0 view .LVU3786
	mov	r3, r9
	vmov	r2, s17	@ int
	mov	r1, r10
	mov	r0, r4
	bl	huffmanDecodeSymbol
.LVL982:
	.loc 1 1149 7 view .LVU3787
	cmp	r0, #255
	.loc 1 1148 24 view .LVU3788
	mov	r6, r0
.LVL983:
	.loc 1 1149 5 is_stmt 1 view .LVU3789
	.loc 1 1149 7 is_stmt 0 view .LVU3790
	bls	.L1117
	.loc 1 1156 10 is_stmt 1 view .LVU3791
	.loc 1 1156 28 is_stmt 0 view .LVU3792
	sub	r3, r0, #256
	sub	r3, r3, #1
	.loc 1 1156 12 view .LVU3793
	cmp	r3, #28
	bhi	.L1013
.LBB1927:
	.loc 1 1158 7 is_stmt 1 view .LVU3794
	.loc 1 1159 7 view .LVU3795
	.loc 1 1160 7 view .LVU3796
	.loc 1 1163 7 view .LVU3797
	.loc 1 1163 14 is_stmt 0 view .LVU3798
	ldr	r2, .L1123+8
	.loc 1 1167 11 view .LVU3799
	ldr	ip, [sp, #32]
	.loc 1 1163 14 view .LVU3800
	add	r3, r2, r3, lsl #2
	.loc 1 1166 22 view .LVU3801
	ldr	r0, [r3, #468]
.LVL984:
	.loc 1 1163 14 view .LVU3802
	ldr	r6, [r3, #112]
.LVL985:
	.loc 1 1166 7 is_stmt 1 view .LVU3803
	.loc 1 1167 7 view .LVU3804
	.loc 1 1167 15 is_stmt 0 view .LVU3805
	add	lr, r0, ip
	.loc 1 1167 9 view .LVU3806
	cmp	r9, lr
	bcc	.L1107
.LVL986:
.LBB1928:
.LBB1929:
	.loc 1 457 16 is_stmt 1 view .LVU3807
	cmp	r0, #0
	beq	.L1015
	.loc 1 456 12 is_stmt 0 view .LVU3808
	mov	r1, #0
	.loc 1 457 9 view .LVU3809
	mov	r2, r1
.LVL987:
.L1016:
	.loc 1 457 9 view .LVU3810
	add	r7, ip, r2
.LVL988:
	.loc 1 459 5 is_stmt 1 view .LVU3811
	.loc 1 459 37 is_stmt 0 view .LVU3812
	ldrb	r3, [r4, r7, lsr #3]	@ zero_extendqisi2
	.loc 1 459 72 view .LVU3813
	and	r7, r7, #7
	.loc 1 459 56 view .LVU3814
	asr	r3, r3, r7
	.loc 1 459 16 view .LVU3815
	and	r3, r3, #1
	.loc 1 459 12 view .LVU3816
	add	r1, r1, r3, lsl r2
.LVL989:
	.loc 1 460 5 is_stmt 1 view .LVU3817
	.loc 1 457 26 view .LVU3818
	add	r2, r2, #1
.LVL990:
	.loc 1 457 16 view .LVU3819
	cmp	r0, r2
	bne	.L1016
	str	lr, [sp, #32]
.LBE1929:
.LBE1928:
	.loc 1 1168 14 is_stmt 0 view .LVU3820
	add	r6, r6, r1
.LVL991:
.L1015:
.LBB1931:
.LBB1930:
	.loc 1 462 3 is_stmt 1 view .LVU3821
	.loc 1 462 3 is_stmt 0 view .LVU3822
.LBE1930:
.LBE1931:
	.loc 1 1171 7 is_stmt 1 view .LVU3823
	.loc 1 1171 16 is_stmt 0 view .LVU3824
	mov	r3, r9
	vmov	r2, s16	@ int
	mov	r1, r10
	mov	r0, r4
.LVL992:
	.loc 1 1171 16 view .LVU3825
	bl	huffmanDecodeSymbol
.LVL993:
	.loc 1 1172 7 is_stmt 1 view .LVU3826
	.loc 1 1172 9 is_stmt 0 view .LVU3827
	cmp	r0, #29
	bhi	.L1118
	.loc 1 1183 7 is_stmt 1 view .LVU3828
	.loc 1 1183 16 is_stmt 0 view .LVU3829
	ldr	r3, .L1123+8
	.loc 1 1187 11 view .LVU3830
	ldr	lr, [sp, #32]
	.loc 1 1183 16 view .LVU3831
	add	r0, r3, r0, lsl #2
.LVL994:
	.loc 1 1186 22 view .LVU3832
	ldr	ip, [r0, #348]
	.loc 1 1183 16 view .LVU3833
	ldr	fp, [r0, #228]
.LVL995:
	.loc 1 1186 7 is_stmt 1 view .LVU3834
	.loc 1 1187 7 view .LVU3835
	.loc 1 1187 15 is_stmt 0 view .LVU3836
	add	r7, ip, lr
	.loc 1 1187 9 view .LVU3837
	cmp	r9, r7
	bcc	.L1107
.LVL996:
.LBB1932:
.LBB1933:
	.loc 1 457 16 is_stmt 1 view .LVU3838
	cmp	ip, #0
	beq	.L1019
	.loc 1 456 12 is_stmt 0 view .LVU3839
	mov	r0, #0
	.loc 1 457 9 view .LVU3840
	mov	r1, r0
.LVL997:
.L1020:
	.loc 1 457 9 view .LVU3841
	add	r2, lr, r1
.LVL998:
	.loc 1 459 5 is_stmt 1 view .LVU3842
	.loc 1 459 37 is_stmt 0 view .LVU3843
	ldrb	r3, [r4, r2, lsr #3]	@ zero_extendqisi2
	.loc 1 459 72 view .LVU3844
	and	r2, r2, #7
	.loc 1 459 56 view .LVU3845
	asr	r3, r3, r2
	.loc 1 459 16 view .LVU3846
	and	r3, r3, #1
	.loc 1 459 12 view .LVU3847
	add	r0, r0, r3, lsl r1
.LVL999:
	.loc 1 460 5 is_stmt 1 view .LVU3848
	.loc 1 457 26 view .LVU3849
	add	r1, r1, #1
.LVL1000:
	.loc 1 457 16 view .LVU3850
	cmp	ip, r1
	bne	.L1020
	str	r7, [sp, #32]
.LBE1933:
.LBE1932:
	.loc 1 1188 16 is_stmt 0 view .LVU3851
	add	fp, fp, r0
.LVL1001:
.L1019:
.LBB1935:
.LBB1934:
	.loc 1 462 3 is_stmt 1 view .LVU3852
	.loc 1 462 3 is_stmt 0 view .LVU3853
.LBE1934:
.LBE1935:
	.loc 1 1191 7 is_stmt 1 view .LVU3854
	.loc 1 1192 7 view .LVU3855
	.loc 1 1192 9 is_stmt 0 view .LVU3856
	cmp	r5, fp
	bcc	.L1119
	.loc 1 1192 49 is_stmt 1 view .LVU3857
	.loc 1 1193 7 view .LVU3858
.LVL1002:
	.loc 1 1195 7 view .LVU3859
.LBB1936:
.LBB1937:
.LBB1938:
.LBB1939:
	.loc 1 215 19 is_stmt 0 view .LVU3860
	ldr	r2, [r8, #8]
.LBE1939:
.LBE1938:
.LBE1937:
.LBE1936:
	.loc 1 1195 11 view .LVU3861
	add	r7, r5, r6
.LVL1003:
.LBB1948:
.LBI1936:
	.loc 1 230 17 is_stmt 1 view .LVU3862
.LBB1945:
	.loc 1 232 3 view .LVU3863
.LBB1944:
.LBI1938:
	.loc 1 213 17 view .LVU3864
.LBB1943:
	.loc 1 215 3 view .LVU3865
	.loc 1 215 5 is_stmt 0 view .LVU3866
	cmp	r7, r2
	bls	.L1022
.LBB1940:
	.loc 1 217 5 is_stmt 1 view .LVU3867
	.loc 1 217 65 is_stmt 0 view .LVU3868
	cmp	r7, r2, lsl #1
	movhi	r1, r7
	.loc 1 217 78 view .LVU3869
	addls	r1, r7, r7, lsl #1
	.loc 1 217 65 view .LVU3870
	lsrls	r1, r1, #1
.LVL1004:
	.loc 1 218 5 is_stmt 1 view .LVU3871
.LBB1941:
.LBI1941:
	.loc 1 68 14 view .LVU3872
.LBB1942:
	.loc 1 70 3 view .LVU3873
	.loc 1 70 10 is_stmt 0 view .LVU3874
	ldr	r0, [r8]
	str	r1, [sp, #4]
	bl	realloc
.LVL1005:
	.loc 1 70 10 view .LVU3875
.LBE1942:
.LBE1941:
	.loc 1 219 5 is_stmt 1 view .LVU3876
	.loc 1 219 7 is_stmt 0 view .LVU3877
	cmp	r0, #0
	.loc 1 219 7 view .LVU3878
	ldr	r1, [sp, #4]
	beq	.L1106
	.loc 1 221 7 is_stmt 1 view .LVU3879
	.loc 1 221 20 is_stmt 0 view .LVU3880
	str	r1, [r8, #8]
	.loc 1 222 7 is_stmt 1 view .LVU3881
	.loc 1 222 15 is_stmt 0 view .LVU3882
	str	r0, [r8]
.LVL1006:
.L1022:
	.loc 1 222 15 view .LVU3883
.LBE1940:
.LBE1943:
.LBE1944:
.LBE1945:
.LBE1948:
	.loc 1 1196 10 view .LVU3884
	cmp	r6, fp
.LBB1949:
.LBB1946:
	.loc 1 233 11 view .LVU3885
	str	r7, [r8, #4]
.LBE1946:
.LBE1949:
	.loc 1 1193 16 view .LVU3886
	sub	r1, r5, fp
.LBB1950:
.LBB1947:
	.loc 1 233 3 is_stmt 1 view .LVU3887
	.loc 1 234 3 view .LVU3888
.LVL1007:
	.loc 1 234 3 is_stmt 0 view .LVU3889
.LBE1947:
.LBE1950:
	.loc 1 1195 71 is_stmt 1 view .LVU3890
	.loc 1 1196 7 view .LVU3891
	.loc 1 1196 10 is_stmt 0 view .LVU3892
	bhi	.L1120
	.loc 1 1202 9 is_stmt 1 view .LVU3893
	.loc 1 1202 19 is_stmt 0 view .LVU3894
	ldr	ip, [r8]
	.loc 1 1202 9 view .LVU3895
	mov	r2, r6
	add	r0, ip, r5
	add	r1, ip, r1
	bl	memcpy
.LVL1008:
.L1105:
	.loc 1 1203 9 is_stmt 1 view .LVU3896
	.loc 1 1195 11 is_stmt 0 view .LVU3897
	mov	r5, r7
	.loc 1 1195 11 view .LVU3898
.LBE1927:
.LBE1926:
	.loc 1 1145 9 is_stmt 1 view .LVU3899
	.loc 1 1145 9 is_stmt 0 view .LVU3900
	b	.L1027
.LVL1009:
.L1117:
.LBB1968:
	.loc 1 1152 7 is_stmt 1 view .LVU3901
.LBB1951:
.LBB1952:
.LBB1953:
.LBB1954:
	.loc 1 215 19 is_stmt 0 view .LVU3902
	ldr	r3, [r8, #8]
.LBE1954:
.LBE1953:
.LBE1952:
.LBE1951:
	.loc 1 1152 11 view .LVU3903
	add	fp, r5, #1
.LVL1010:
.LBB1962:
.LBI1951:
	.loc 1 230 17 is_stmt 1 view .LVU3904
.LBB1961:
	.loc 1 232 3 view .LVU3905
.LBB1960:
.LBI1953:
	.loc 1 213 17 view .LVU3906
.LBB1959:
	.loc 1 215 3 view .LVU3907
	.loc 1 215 5 is_stmt 0 view .LVU3908
	cmp	fp, r3
.LBB1955:
	.loc 1 218 35 view .LVU3909
	ldr	r0, [r8]
.LVL1011:
	.loc 1 218 35 view .LVU3910
.LBE1955:
	.loc 1 215 5 view .LVU3911
	bls	.L1009
.LBB1958:
	.loc 1 217 5 is_stmt 1 view .LVU3912
	.loc 1 217 65 is_stmt 0 view .LVU3913
	cmp	fp, r3, lsl #1
	movhi	r7, fp
	.loc 1 217 78 view .LVU3914
	addls	r1, fp, fp, lsl #1
	.loc 1 217 65 view .LVU3915
	lsrls	r7, r1, #1
.LVL1012:
	.loc 1 218 5 is_stmt 1 view .LVU3916
.LBB1956:
.LBI1956:
	.loc 1 68 14 view .LVU3917
.LBB1957:
	.loc 1 70 3 view .LVU3918
	.loc 1 70 10 is_stmt 0 view .LVU3919
	mov	r1, r7
	bl	realloc
.LVL1013:
	.loc 1 70 10 view .LVU3920
.LBE1957:
.LBE1956:
	.loc 1 219 5 is_stmt 1 view .LVU3921
	.loc 1 219 7 is_stmt 0 view .LVU3922
	cmp	r0, #0
	.loc 1 219 7 view .LVU3923
	beq	.L1106
	.loc 1 221 7 is_stmt 1 view .LVU3924
	.loc 1 221 20 is_stmt 0 view .LVU3925
	str	r7, [r8, #8]
	.loc 1 222 7 is_stmt 1 view .LVU3926
	.loc 1 222 15 is_stmt 0 view .LVU3927
	str	r0, [r8]
.LVL1014:
.L1009:
	.loc 1 222 15 view .LVU3928
.LBE1958:
.LBE1959:
.LBE1960:
	.loc 1 233 3 is_stmt 1 view .LVU3929
	.loc 1 233 11 is_stmt 0 view .LVU3930
	str	fp, [r8, #4]
	.loc 1 234 3 is_stmt 1 view .LVU3931
.LVL1015:
	.loc 1 234 3 is_stmt 0 view .LVU3932
.LBE1961:
.LBE1962:
	.loc 1 1152 66 is_stmt 1 view .LVU3933
	.loc 1 1153 7 view .LVU3934
	.loc 1 1153 25 is_stmt 0 view .LVU3935
	strb	r6, [r0, r5]
	.loc 1 1154 7 is_stmt 1 view .LVU3936
.LVL1016:
	.loc 1 1152 11 is_stmt 0 view .LVU3937
	mov	r5, fp
	b	.L1027
.LVL1017:
.L1120:
.LBB1963:
	.loc 1 1197 34 is_stmt 1 view .LVU3938
	cmp	r6, #0
	beq	.L1027
	add	r6, r1, r6
.L1026:
	.loc 1 1197 34 is_stmt 0 view .LVU3939
	mov	r0, r1
	.loc 1 1199 36 view .LVU3940
	ldr	r3, [r8]
	add	r2, r1, fp
.LVL1018:
	.loc 1 1199 11 is_stmt 1 view .LVU3941
	.loc 1 1199 42 is_stmt 0 view .LVU3942
	ldrb	r0, [r3, r0]	@ zero_extendqisi2
.LVL1019:
	.loc 1 1199 51 view .LVU3943
	add	r1, r1, #1
.LVL1020:
	.loc 1 1197 34 view .LVU3944
	cmp	r1, r6
	.loc 1 1199 31 view .LVU3945
	strb	r0, [r3, r2]
	.loc 1 1197 44 is_stmt 1 view .LVU3946
	.loc 1 1197 34 view .LVU3947
	bne	.L1026
	b	.L1105
.LVL1021:
.L1110:
	.loc 1 1197 34 is_stmt 0 view .LVU3948
.LBE1963:
.LBE1968:
	.loc 1 1145 9 is_stmt 1 view .LVU3949
.LBB1969:
.LBB1876:
	.loc 1 998 43 is_stmt 0 view .LVU3950
	mov	r10, #49
	vmov	s18, r0	@ int
	mov	r7, r0
	mov	r6, r0
.LVL1022:
.L969:
	.loc 1 998 43 view .LVU3951
.LBE1876:
.LBE1969:
	.loc 1 1219 3 is_stmt 1 view .LVU3952
.LBB1970:
.LBI1888:
	.loc 1 538 13 view .LVU3953
.LBB1898:
	.loc 1 540 3 view .LVU3954
.LBB1890:
.LBI1890:
	.loc 1 73 13 view .LVU3955
.LBB1891:
	.loc 1 75 3 view .LVU3956
	bl	free
.LVL1023:
	.loc 1 75 3 is_stmt 0 view .LVU3957
.LBE1891:
.LBE1890:
	.loc 1 541 3 is_stmt 1 view .LVU3958
.LBB1892:
.LBI1892:
	.loc 1 73 13 view .LVU3959
.LBB1893:
	.loc 1 75 3 view .LVU3960
	ldr	r0, [sp, #40]
	bl	free
.LVL1024:
	.loc 1 75 3 is_stmt 0 view .LVU3961
.LBE1893:
.LBE1892:
	.loc 1 542 3 is_stmt 1 view .LVU3962
.LBB1894:
.LBI1894:
	.loc 1 73 13 view .LVU3963
.LBB1895:
	.loc 1 75 3 view .LVU3964
	ldr	r0, [sp, #44]
	bl	free
.LVL1025:
	.loc 1 75 3 is_stmt 0 view .LVU3965
.LBE1895:
.LBE1894:
.LBE1898:
.LBE1970:
