	.arch armv6k
	.eabi_attribute 28, 1
	.eabi_attribute 20, 1
	.eabi_attribute 21, 1
	.eabi_attribute 23, 3
	.eabi_attribute 24, 1
	.eabi_attribute 25, 1
	.eabi_attribute 26, 1
	.eabi_attribute 30, 2
	.eabi_attribute 34, 1
	.eabi_attribute 18, 4
	.file	"miniz.c"
	.text
.Ltext0:
	.cfi_sections	.debug_frame
	.section	.text.mz_zip_writer_create_zip64_extra_data,"ax",%progbits
	.align	2
	.syntax unified
	.arm
	.fpu vfp
	.type	mz_zip_writer_create_zip64_extra_data, %function
mz_zip_writer_create_zip64_extra_data:
.LVL0:
.LFB135:
	.file 1 "/home/tobi/Dokumente/Craftus-Next/dependencies/miniz/miniz.c"
	.loc 1 5845 1 view -0
	.cfi_startproc
	@ args = 0, pretend = 0, frame = 0
	@ frame_needed = 0, uses_anonymous_args = 0
	.loc 1 5846 5 view .LVU1
	.loc 1 5845 1 is_stmt 0 view .LVU2
	push	{r4, lr}
	.cfi_def_cfa_offset 8
	.cfi_offset 4, -8
	.cfi_offset 14, -4
.LBB1438:
.LBB1439:
	.loc 1 5446 10 view .LVU3
	mov	lr, #0
	.loc 1 5445 10 view .LVU4
	mov	r4, #1
.LBE1439:
.LBE1438:
	.loc 1 5853 8 view .LVU5
	cmp	r1, #0
	.loc 1 5845 1 view .LVU6
	mov	ip, r0
.LVL1:
	.loc 1 5847 5 is_stmt 1 view .LVU7
	.loc 1 5849 5 view .LVU8
.LBB1441:
.LBI1438:
	.loc 1 5443 59 view .LVU9
.LBB1440:
	.loc 1 5445 5 view .LVU10
	.loc 1 5445 10 is_stmt 0 view .LVU11
	strb	r4, [r0]
	.loc 1 5446 5 is_stmt 1 view .LVU12
	.loc 1 5446 10 is_stmt 0 view .LVU13
	strb	lr, [r0, #1]
.LVL2:
	.loc 1 5446 10 view .LVU14
.LBE1440:
.LBE1441:
	.loc 1 5850 5 is_stmt 1 view .LVU15
.LBB1442:
.LBI1442:
	.loc 1 5443 59 view .LVU16
.LBB1443:
	.loc 1 5445 5 view .LVU17
	.loc 1 5445 10 is_stmt 0 view .LVU18
	strb	lr, [r0, #2]
	.loc 1 5446 5 is_stmt 1 view .LVU19
	.loc 1 5446 10 is_stmt 0 view .LVU20
	strb	lr, [r0, #3]
.LVL3:
	.loc 1 5446 10 view .LVU21
.LBE1443:
.LBE1442:
	.loc 1 5851 5 is_stmt 1 view .LVU22
	.loc 1 5853 5 view .LVU23
	.loc 1 5851 10 is_stmt 0 view .LVU24
	addeq	r0, r0, #4
.LVL4:
	.loc 1 5853 8 view .LVU25
	beq	.L3
	.loc 1 5855 9 is_stmt 1 view .LVU26
	ldr	lr, [r1]
	ldr	r0, [r1, #4]
.LVL5:
.LBB1444:
.LBI1444:
	.loc 1 5455 59 view .LVU27
.LBB1445:
	.loc 1 5457 5 view .LVU28
.LBB1446:
.LBI1446:
	.loc 1 5448 59 view .LVU29
.LBB1447:
	.loc 1 5450 5 view .LVU30
.LBE1447:
.LBE1446:
.LBE1445:
.LBE1444:
	.loc 1 5857 20 is_stmt 0 view .LVU31
	mov	r1, #8
.LVL6:
.LBB1457:
.LBB1456:
.LBB1450:
.LBB1448:
	.loc 1 5451 25 view .LVU32
	lsr	r4, lr, r1
	.loc 1 5450 12 view .LVU33
	strb	lr, [ip, #4]
	.loc 1 5451 5 is_stmt 1 view .LVU34
	.loc 1 5451 12 is_stmt 0 view .LVU35
	strb	r4, [ip, #5]
	.loc 1 5452 5 is_stmt 1 view .LVU36
	.loc 1 5452 25 is_stmt 0 view .LVU37
	lsr	r4, lr, #16
	.loc 1 5453 25 view .LVU38
	lsr	lr, lr, #24
.LVL7:
	.loc 1 5453 12 view .LVU39
	strb	lr, [ip, #7]
.LBE1448:
.LBE1450:
.LBB1451:
.LBB1452:
	.loc 1 5451 25 view .LVU40
	lsr	lr, r0, r1
	.loc 1 5450 12 view .LVU41
	strb	r0, [ip, #8]
	.loc 1 5451 12 view .LVU42
	strb	lr, [ip, #9]
	.loc 1 5452 25 view .LVU43
	lsr	lr, r0, #16
	.loc 1 5453 25 view .LVU44
	lsr	r0, r0, #24
	.loc 1 5453 12 view .LVU45
	strb	r0, [ip, #11]
.LBE1452:
.LBE1451:
.LBB1454:
.LBB1449:
	.loc 1 5452 12 view .LVU46
	strb	r4, [ip, #6]
	.loc 1 5453 5 is_stmt 1 view .LVU47
.LVL8:
	.loc 1 5453 5 is_stmt 0 view .LVU48
.LBE1449:
.LBE1454:
	.loc 1 5458 5 is_stmt 1 view .LVU49
.LBB1455:
.LBI1451:
	.loc 1 5448 59 view .LVU50
.LBB1453:
	.loc 1 5450 5 view .LVU51
	.loc 1 5451 5 view .LVU52
	.loc 1 5452 5 view .LVU53
	.loc 1 5452 12 is_stmt 0 view .LVU54
	strb	lr, [ip, #10]
	.loc 1 5453 5 is_stmt 1 view .LVU55
.LVL9:
	.loc 1 5453 5 is_stmt 0 view .LVU56
.LBE1453:
.LBE1455:
.LBE1456:
.LBE1457:
	.loc 1 5856 9 is_stmt 1 view .LVU57
	.loc 1 5856 14 is_stmt 0 view .LVU58
	add	r0, ip, #12
.LVL10:
	.loc 1 5857 9 is_stmt 1 view .LVU59
.L3:
	.loc 1 5860 5 view .LVU60
	.loc 1 5860 8 is_stmt 0 view .LVU61
	cmp	r2, #0
	beq	.L4
	.loc 1 5862 9 is_stmt 1 view .LVU62
	ldr	lr, [r2]
	ldr	r2, [r2, #4]
.LVL11:
.LBB1458:
.LBI1458:
	.loc 1 5455 59 view .LVU63
.LBB1459:
	.loc 1 5457 5 view .LVU64
.LBB1460:
.LBI1460:
	.loc 1 5448 59 view .LVU65
.LBB1461:
	.loc 1 5450 5 view .LVU66
	.loc 1 5451 25 is_stmt 0 view .LVU67
	lsr	r4, lr, #8
	.loc 1 5450 12 view .LVU68
	strb	lr, [r0]
	.loc 1 5451 5 is_stmt 1 view .LVU69
	.loc 1 5451 12 is_stmt 0 view .LVU70
	strb	r4, [r0, #1]
	.loc 1 5452 5 is_stmt 1 view .LVU71
	.loc 1 5452 25 is_stmt 0 view .LVU72
	lsr	r4, lr, #16
	.loc 1 5453 25 view .LVU73
	lsr	lr, lr, #24
.LVL12:
	.loc 1 5453 12 view .LVU74
	strb	lr, [r0, #3]
.LBE1461:
.LBE1460:
.LBB1463:
.LBB1464:
	.loc 1 5451 25 view .LVU75
	lsr	lr, r2, #8
	.loc 1 5450 12 view .LVU76
	strb	r2, [r0, #4]
	.loc 1 5451 12 view .LVU77
	strb	lr, [r0, #5]
	.loc 1 5452 25 view .LVU78
	lsr	lr, r2, #16
	.loc 1 5453 25 view .LVU79
	lsr	r2, r2, #24
.LBE1464:
.LBE1463:
.LBB1466:
.LBB1462:
	.loc 1 5452 12 view .LVU80
	strb	r4, [r0, #2]
	.loc 1 5453 5 is_stmt 1 view .LVU81
.LVL13:
	.loc 1 5453 5 is_stmt 0 view .LVU82
.LBE1462:
.LBE1466:
	.loc 1 5458 5 is_stmt 1 view .LVU83
.LBB1467:
.LBI1463:
	.loc 1 5448 59 view .LVU84
.LBB1465:
	.loc 1 5450 5 view .LVU85
	.loc 1 5451 5 view .LVU86
	.loc 1 5452 5 view .LVU87
	.loc 1 5452 12 is_stmt 0 view .LVU88
	strb	lr, [r0, #6]
	.loc 1 5453 5 is_stmt 1 view .LVU89
	.loc 1 5453 12 is_stmt 0 view .LVU90
	strb	r2, [r0, #7]
.LVL14:
	.loc 1 5453 12 view .LVU91
.LBE1465:
.LBE1467:
.LBE1459:
.LBE1458:
	.loc 1 5863 9 is_stmt 1 view .LVU92
	.loc 1 5864 20 is_stmt 0 view .LVU93
	add	r1, r1, #8
.LVL15:
	.loc 1 5863 14 view .LVU94
	add	r0, r0, #8
.LVL16:
	.loc 1 5864 9 is_stmt 1 view .LVU95
.L4:
	.loc 1 5867 5 view .LVU96
	.loc 1 5867 8 is_stmt 0 view .LVU97
	cmp	r3, #0
	beq	.L5
	.loc 1 5869 9 is_stmt 1 view .LVU98
	ldrd	r2, [r3]
.LVL17:
.LBB1468:
.LBI1468:
	.loc 1 5455 59 view .LVU99
.LBB1469:
	.loc 1 5457 5 view .LVU100
.LBB1470:
.LBI1470:
	.loc 1 5448 59 view .LVU101
.LBB1471:
	.loc 1 5450 5 view .LVU102
	.loc 1 5451 25 is_stmt 0 view .LVU103
	lsr	lr, r2, #8
	.loc 1 5450 12 view .LVU104
	strb	r2, [r0]
	.loc 1 5451 5 is_stmt 1 view .LVU105
	.loc 1 5451 12 is_stmt 0 view .LVU106
	strb	lr, [r0, #1]
	.loc 1 5452 5 is_stmt 1 view .LVU107
	.loc 1 5452 25 is_stmt 0 view .LVU108
	lsr	lr, r2, #16
	.loc 1 5453 25 view .LVU109
	lsr	r2, r2, #24
.LVL18:
	.loc 1 5453 12 view .LVU110
	strb	r2, [r0, #3]
.LBE1471:
.LBE1470:
.LBB1473:
.LBB1474:
	.loc 1 5451 25 view .LVU111
	lsr	r2, r3, #8
	.loc 1 5450 12 view .LVU112
	strb	r3, [r0, #4]
	.loc 1 5451 12 view .LVU113
	strb	r2, [r0, #5]
	.loc 1 5452 25 view .LVU114
	lsr	r2, r3, #16
	.loc 1 5453 25 view .LVU115
	lsr	r3, r3, #24
.LBE1474:
.LBE1473:
.LBB1476:
.LBB1472:
	.loc 1 5452 12 view .LVU116
	strb	lr, [r0, #2]
	.loc 1 5453 5 is_stmt 1 view .LVU117
.LVL19:
	.loc 1 5453 5 is_stmt 0 view .LVU118
.LBE1472:
.LBE1476:
	.loc 1 5458 5 is_stmt 1 view .LVU119
.LBB1477:
.LBI1473:
	.loc 1 5448 59 view .LVU120
.LBB1475:
	.loc 1 5450 5 view .LVU121
	.loc 1 5451 5 view .LVU122
	.loc 1 5452 5 view .LVU123
	.loc 1 5452 12 is_stmt 0 view .LVU124
	strb	r2, [r0, #6]
	.loc 1 5453 5 is_stmt 1 view .LVU125
	.loc 1 5453 12 is_stmt 0 view .LVU126
	strb	r3, [r0, #7]
.LVL20:
	.loc 1 5453 12 view .LVU127
.LBE1475:
.LBE1477:
.LBE1469:
.LBE1468:
	.loc 1 5870 9 is_stmt 1 view .LVU128
	.loc 1 5871 20 is_stmt 0 view .LVU129
	add	r1, r1, #8
.LVL21:
	.loc 1 5870 14 view .LVU130
	add	r0, r0, #8
.LVL22:
	.loc 1 5871 9 is_stmt 1 view .LVU131
.L5:
	.loc 1 5874 5 view .LVU132
.LBB1478:
.LBI1478:
	.loc 1 5443 59 view .LVU133
.LBB1479:
	.loc 1 5445 5 view .LVU134
	.loc 1 5446 10 is_stmt 0 view .LVU135
	mov	r3, #0
	.loc 1 5445 12 view .LVU136
	strb	r1, [ip, #2]
	.loc 1 5446 5 is_stmt 1 view .LVU137
.LBE1479:
.LBE1478:
	.loc 1 5877 1 is_stmt 0 view .LVU138
	sub	r0, r0, ip
.LVL23:
.LBB1481:
.LBB1480:
	.loc 1 5446 10 view .LVU139
	strb	r3, [ip, #3]
.LVL24:
	.loc 1 5446 10 view .LVU140
.LBE1480:
.LBE1481:
	.loc 1 5876 5 is_stmt 1 view .LVU141
	.loc 1 5877 1 is_stmt 0 view .LVU142
	pop	{r4, pc}
	.cfi_endproc
.LFE135:
	.size	mz_zip_writer_create_zip64_extra_data, .-mz_zip_writer_create_zip64_extra_data
	.section	.text.miniz_def_free_func,"ax",%progbits
	.align	2
	.global	miniz_def_free_func
	.syntax unified
	.arm
	.fpu vfp
	.type	miniz_def_free_func, %function
miniz_def_free_func:
.LVL25:
.LFB7:
	.loc 1 166 1 is_stmt 1 view -0
	.cfi_startproc
	@ args = 0, pretend = 0, frame = 0
	@ frame_needed = 0, uses_anonymous_args = 0
	@ link register save eliminated.
	.loc 1 167 5 view .LVU144
	.loc 1 168 5 view .LVU145
	mov	r0, r1
.LVL26:
	.loc 1 168 5 is_stmt 0 view .LVU146
	b	free
.LVL27:
	.loc 1 168 5 view .LVU147
	.cfi_endproc
.LFE7:
	.size	miniz_def_free_func, .-miniz_def_free_func
	.section	.text.miniz_def_alloc_func,"ax",%progbits
	.align	2
	.global	miniz_def_alloc_func
	.syntax unified
	.arm
	.fpu vfp
	.type	miniz_def_alloc_func, %function
miniz_def_alloc_func:
.LVL28:
.LFB6:
	.loc 1 161 1 is_stmt 1 view -0
	.cfi_startproc
	@ args = 0, pretend = 0, frame = 0
	@ frame_needed = 0, uses_anonymous_args = 0
	@ link register save eliminated.
	.loc 1 162 5 view .LVU149
	.loc 1 163 5 view .LVU150
	.loc 1 163 12 is_stmt 0 view .LVU151
	mul	r0, r2, r1
.LVL29:
	.loc 1 163 12 view .LVU152
	b	malloc
.LVL30:
	.loc 1 163 12 view .LVU153
	.cfi_endproc
.LFE6:
	.size	miniz_def_alloc_func, .-miniz_def_alloc_func
	.section	.text.miniz_def_realloc_func,"ax",%progbits
	.align	2
	.global	miniz_def_realloc_func
	.syntax unified
	.arm
	.fpu vfp
	.type	miniz_def_realloc_func, %function
miniz_def_realloc_func:
.LVL31:
.LFB8:
	.loc 1 171 1 is_stmt 1 view -0
	.cfi_startproc
	@ args = 0, pretend = 0, frame = 0
	@ frame_needed = 0, uses_anonymous_args = 0
	@ link register save eliminated.
	.loc 1 172 5 view .LVU155
	.loc 1 173 5 view .LVU156
	.loc 1 173 12 is_stmt 0 view .LVU157
	mov	r0, r1
.LVL32:
	.loc 1 173 12 view .LVU158
	mul	r1, r3, r2
.LVL33:
	.loc 1 173 12 view .LVU159
	b	realloc
.LVL34:
	.loc 1 173 12 view .LVU160
	.cfi_endproc
.LFE8:
	.size	miniz_def_realloc_func, .-miniz_def_realloc_func
	.section	.text.tdefl_optimize_huffman_table,"ax",%progbits
	.align	2
	.syntax unified
	.arm
	.fpu vfp
	.type	tdefl_optimize_huffman_table, %function
tdefl_optimize_huffman_table:
.LVL35:
.LFB28:
	.loc 1 825 1 is_stmt 1 view -0
	.cfi_startproc
	@ args = 4, pretend = 0, frame = 5536
	@ frame_needed = 0, uses_anonymous_args = 0
	.loc 1 825 1 is_stmt 0 view .LVU162
	push	{r4, r5, r6, r7, r8, r9, r10, fp, lr}
	.cfi_def_cfa_offset 36
	.cfi_offset 4, -36
	.cfi_offset 5, -32
	.cfi_offset 6, -28
	.cfi_offset 7, -24
	.cfi_offset 8, -20
	.cfi_offset 9, -16
	.cfi_offset 10, -12
	.cfi_offset 11, -8
	.cfi_offset 14, -4
	mov	ip, r2
	mov	lr, r1
	sub	sp, sp, #5504
	.cfi_def_cfa_offset 5540
	sub	sp, sp, #36
	.cfi_def_cfa_offset 5576
	.loc 1 825 1 view .LVU163
	add	r2, sp, #5568
	ldr	r6, [r2, #8]
	.loc 1 828 5 view .LVU164
	add	r8, sp, #28
	.loc 1 825 1 view .LVU165
	add	r2, r2, #8
	mov	r7, r0
	.loc 1 828 5 view .LVU166
	mov	r2, #132
.LVL36:
	.loc 1 828 5 view .LVU167
	mov	r1, #0
.LVL37:
	.loc 1 828 5 view .LVU168
	mov	r0, r8
	.loc 1 826 5 is_stmt 1 view .LVU169
	.loc 1 827 5 view .LVU170
	.loc 1 828 5 view .LVU171
	.loc 1 825 1 is_stmt 0 view .LVU172
	mov	r4, lr
	mov	r5, ip
	str	lr, [sp, #4]
	str	ip, [sp, #16]
	str	r3, [sp]
	.loc 1 828 5 view .LVU173
	bl	memset
.LVL38:
	.loc 1 829 5 is_stmt 1 view .LVU174
	.loc 1 829 8 is_stmt 0 view .LVU175
	cmp	r6, #0
	beq	.L18
	add	r3, r4, r4, lsl #3
	lsl	r3, r3, #5
	add	r1, r5, #36608
	add	ip, r3, #36608
	add	lr, r1, #18
	add	lr, lr, r3
	add	ip, ip, #18
	lsl	r3, r4, #3
	add	ip, r7, ip
	add	lr, r7, lr
	str	r3, [sp, #12]
	add	r2, sp, #1440
.L19:
.LVL39:
	.loc 1 832 13 is_stmt 1 discriminator 3 view .LVU176
	.loc 1 832 54 is_stmt 0 discriminator 3 view .LVU177
	ldrb	r3, [ip], #1	@ zero_extendqisi2
	.loc 1 832 58 discriminator 3 view .LVU178
	add	r3, r2, r3, lsl #2
	ldr	r0, [r3, #-1412]
	.loc 1 831 23 discriminator 3 view .LVU179
	cmp	lr, ip
	.loc 1 832 58 discriminator 3 view .LVU180
	add	r0, r0, #1
	str	r0, [r3, #-1412]
	.loc 1 831 37 is_stmt 1 discriminator 3 view .LVU181
	.loc 1 831 23 discriminator 3 view .LVU182
	bne	.L19
	ldr	r3, [sp]
	lsl	fp, r3, #2
	add	r3, sp, #3488
	str	r3, [sp, #8]
.LVL40:
.L20:
	.loc 1 861 5 view .LVU183
	ldr	r3, [sp, #8]
	add	fp, r8, fp
	add	ip, r3, #8
	.loc 1 861 18 is_stmt 0 view .LVU184
	mov	r3, #0
	add	r0, sp, #32
	str	r3, [sp, #3492]
	.loc 1 862 5 is_stmt 1 view .LVU185
.LVL41:
	.loc 1 862 26 view .LVU186
.L69:
	.loc 1 863 9 discriminator 3 view .LVU187
	.loc 1 863 43 is_stmt 0 discriminator 3 view .LVU188
	ldr	r2, [r0], #4
	.loc 1 863 32 discriminator 3 view .LVU189
	add	r3, r2, r3
.LVL42:
	.loc 1 863 26 discriminator 3 view .LVU190
	lsl	r3, r3, #1
.LVL43:
	.loc 1 862 26 discriminator 3 view .LVU191
	cmp	fp, r0
	.loc 1 863 22 discriminator 3 view .LVU192
	str	r3, [ip], #4
	.loc 1 862 47 is_stmt 1 discriminator 3 view .LVU193
	.loc 1 862 26 discriminator 3 view .LVU194
	bne	.L69
	ldr	r2, [sp, #4]
	ldr	r3, [sp, #12]
.LVL44:
	.loc 1 862 26 is_stmt 0 discriminator 3 view .LVU195
	add	r4, r1, #18
.LVL45:
	.loc 1 862 26 discriminator 3 view .LVU196
	add	r3, r3, r2
	lsl	r2, r3, #5
	add	ip, r2, #36608
.LVL46:
	.loc 1 862 26 discriminator 3 view .LVU197
	add	r3, r7, r3, lsl #6
	add	r4, r4, r2
	add	ip, ip, #18
	add	lr, r3, #34816
	add	ip, r7, ip
	add	lr, lr, #82
	add	r4, r7, r4
	b	.L72
.LVL47:
.L70:
	.loc 1 865 33 is_stmt 1 discriminator 2 view .LVU198
	.loc 1 865 19 discriminator 2 view .LVU199
	cmp	r4, ip
	add	lr, lr, #2
	beq	.L124
.LVL48:
.L72:
.LBB1493:
	.loc 1 867 9 view .LVU200
	.loc 1 868 9 view .LVU201
	.loc 1 868 57 is_stmt 0 view .LVU202
	ldrb	r3, [ip], #1	@ zero_extendqisi2
.LVL49:
	.loc 1 868 12 view .LVU203
	cmp	r3, #0
	beq	.L70
	.loc 1 870 9 is_stmt 1 view .LVU204
	.loc 1 867 17 is_stmt 0 view .LVU205
	mov	r1, #0
	.loc 1 870 25 view .LVU206
	add	r0, sp, #5504
	add	r0, r0, #32
	add	r0, r0, r3, lsl #2
	.loc 1 871 16 view .LVU207
	mov	r2, r3
	.loc 1 870 25 view .LVU208
	ldr	r3, [r0, #-2048]
.LVL50:
	.loc 1 870 36 view .LVU209
	add	r5, r3, #1
	str	r5, [r0, #-2048]
.LVL51:
	.loc 1 871 9 is_stmt 1 view .LVU210
	.loc 1 871 31 view .LVU211
.L71:
	.loc 1 872 13 discriminator 3 view .LVU212
	.loc 1 872 48 is_stmt 0 discriminator 3 view .LVU213
	and	r0, r3, #1
	.loc 1 871 31 discriminator 3 view .LVU214
	subs	r2, r2, #1
.LVL52:
	.loc 1 872 22 discriminator 3 view .LVU215
	orr	r1, r0, r1, lsl #1
.LVL53:
	.loc 1 871 39 is_stmt 1 discriminator 3 view .LVU216
	.loc 1 871 46 is_stmt 0 discriminator 3 view .LVU217
	lsr	r3, r3, #1
.LVL54:
	.loc 1 871 31 is_stmt 1 discriminator 3 view .LVU218
	bne	.L71
	.loc 1 873 9 view .LVU219
.LBE1493:
	.loc 1 865 19 is_stmt 0 view .LVU220
	cmp	r4, ip
.LBB1494:
	.loc 1 873 41 view .LVU221
	strh	r1, [lr]	@ movhi
.LVL55:
	.loc 1 873 41 view .LVU222
.LBE1494:
	.loc 1 865 33 is_stmt 1 view .LVU223
	.loc 1 865 19 view .LVU224
	add	lr, lr, #2
	bne	.L72
.LVL56:
.L124:
	.loc 1 875 1 is_stmt 0 view .LVU225
	add	sp, sp, #5504
	add	sp, sp, #36
	.cfi_remember_state
	.cfi_def_cfa_offset 36
	@ sp needed
	pop	{r4, r5, r6, r7, r8, r9, r10, fp, pc}
.LVL57:
.L18:
	.cfi_restore_state
.LBB1495:
	.loc 1 836 9 is_stmt 1 view .LVU226
	.loc 1 837 9 view .LVU227
	.loc 1 838 9 view .LVU228
	.loc 1 837 13 is_stmt 0 view .LVU229
	mov	r5, r6
.LVL58:
	.loc 1 839 16 view .LVU230
	mov	r2, r6
	ldr	r1, [sp, #4]
	ldr	r0, [sp, #16]
	add	r3, r1, r1, lsl #3
	lsl	r3, r3, #6
	str	r3, [sp, #20]
	.loc 1 838 26 view .LVU231
	add	r3, r3, #33024
	add	r3, r3, #146
	add	r3, r7, r3
.LVL59:
	.loc 1 839 9 is_stmt 1 view .LVU232
	.loc 1 839 23 view .LVU233
	add	ip, r3, r0, lsl #1
	lsl	r1, r1, #3
	sub	r3, r3, #2
.LVL60:
	.loc 1 839 23 is_stmt 0 view .LVU234
	sub	ip, ip, #2
	str	r1, [sp, #12]
	add	r4, sp, #1184
.LVL61:
.L22:
	.loc 1 840 13 is_stmt 1 view .LVU235
	.loc 1 842 17 view .LVU236
	.loc 1 840 27 is_stmt 0 view .LVU237
	ldrh	r1, [r3, #2]!
	.loc 1 842 44 view .LVU238
	lsl	r0, r5, #2
	.loc 1 840 16 view .LVU239
	cmp	r1, #0
	.loc 1 842 44 view .LVU240
	addne	lr, r4, r5, lsl #2
	.loc 1 843 52 view .LVU241
	strhne	r2, [lr, #2]	@ movhi
	.loc 1 842 44 view .LVU242
	strhne	r1, [r4, r0]	@ movhi
	.loc 1 843 17 is_stmt 1 view .LVU243
.LVL62:
	.loc 1 843 36 is_stmt 0 view .LVU244
	addne	r5, r5, #1
.LVL63:
	.loc 1 839 37 is_stmt 1 view .LVU245
	.loc 1 839 23 is_stmt 0 view .LVU246
	cmp	ip, r3
	.loc 1 839 37 view .LVU247
	add	r2, r2, #1
.LVL64:
	.loc 1 839 23 is_stmt 1 view .LVU248
	bne	.L22
	.loc 1 846 9 view .LVU249
.LVL65:
.LBB1496:
.LBI1496:
	.loc 1 706 24 view .LVU250
.LBB1497:
	.loc 1 708 5 view .LVU251
	.loc 1 709 5 view .LVU252
	.loc 1 710 5 view .LVU253
	add	r3, sp, #3488
	mov	r2, #2048
.LVL66:
	.loc 1 710 5 is_stmt 0 view .LVU254
	mov	r1, #0
	mov	r0, r3
	str	r3, [sp, #8]
	bl	memset
.LVL67:
	.loc 1 711 5 is_stmt 1 view .LVU255
	.loc 1 711 19 view .LVU256
	cmp	r5, #0
	beq	.L74
	.loc 1 711 19 is_stmt 0 view .LVU257
	mov	r1, r4
	add	r0, r4, r5, lsl #2
.LVL68:
.L24:
.LBB1498:
	.loc 1 713 9 is_stmt 1 view .LVU258
	.loc 1 713 33 is_stmt 0 view .LVU259
	ldrh	r3, [r1], #4
.LVL69:
	.loc 1 714 9 is_stmt 1 view .LVU260
	.loc 1 714 26 is_stmt 0 view .LVU261
	add	ip, sp, #5504
	add	ip, ip, #32
	.loc 1 714 19 view .LVU262
	uxtb	r2, r3
	.loc 1 715 27 view .LVU263
	lsr	r3, r3, #8
.LVL70:
	.loc 1 714 26 view .LVU264
	add	r2, ip, r2, lsl #2
	.loc 1 715 18 view .LVU265
	add	r3, r3, #256
	.loc 1 715 41 view .LVU266
	add	r3, ip, r3, lsl #2
	.loc 1 714 26 view .LVU267
	ldr	ip, [r2, #-2048]
.LBE1498:
	.loc 1 711 19 view .LVU268
	cmp	r1, r0
.LBB1499:
	.loc 1 714 26 view .LVU269
	add	ip, ip, #1
	str	ip, [r2, #-2048]
	.loc 1 715 9 is_stmt 1 view .LVU270
	.loc 1 715 41 is_stmt 0 view .LVU271
	ldr	r2, [r3, #-2048]
	add	r2, r2, #1
	str	r2, [r3, #-2048]
.LBE1499:
	.loc 1 711 32 is_stmt 1 view .LVU272
	.loc 1 711 19 view .LVU273
	bne	.L24
	.loc 1 717 31 is_stmt 0 view .LVU274
	add	r3, sp, #4480
	add	r3, r3, #32
	ldr	r3, [r3]
.LBB1500:
	.loc 1 726 29 view .LVU275
	ldr	r1, [sp, #3488]
.LVL71:
	.loc 1 726 29 view .LVU276
.LBE1500:
	.loc 1 717 31 is_stmt 1 view .LVU277
	cmp	r5, r3
	movne	r3, #2
	moveq	r3, #1
.L23:
.LVL72:
	.loc 1 719 41 view .LVU278
.LBB1501:
	.loc 1 726 29 is_stmt 0 view .LVU279
	mov	r9, #0
	lsl	fp, r3, #3
	ldr	r10, [sp, #8]
	add	r3, sp, #160
	mov	lr, r4
	add	ip, r3, #1020
	add	r4, sp, #2336
.LVL73:
.L31:
	.loc 1 721 9 is_stmt 1 view .LVU280
	.loc 1 722 9 view .LVU281
	.loc 1 723 9 view .LVU282
	.loc 1 723 23 view .LVU283
	.loc 1 721 26 is_stmt 0 view .LVU284
	mov	r0, r10
	.loc 1 722 31 view .LVU285
	mov	r2, #0
	add	r3, sp, #156
	b	.L26
.LVL74:
.L125:
	.loc 1 726 29 view .LVU286
	ldr	r1, [r0, #4]!
.LVL75:
.L26:
	.loc 1 725 13 is_stmt 1 view .LVU287
	.loc 1 725 24 is_stmt 0 view .LVU288
	str	r2, [r3, #4]!
	.loc 1 726 13 is_stmt 1 view .LVU289
	.loc 1 723 23 is_stmt 0 view .LVU290
	cmp	ip, r3
	.loc 1 726 21 view .LVU291
	add	r2, r2, r1
.LVL76:
	.loc 1 723 31 is_stmt 1 view .LVU292
	.loc 1 723 23 view .LVU293
	bne	.L125
.LVL77:
	.loc 1 728 23 view .LVU294
	cmp	r5, #0
	.loc 1 728 16 is_stmt 0 view .LVU295
	movne	r2, #0
.LVL78:
	.loc 1 728 23 view .LVU296
	beq	.L30
.LVL79:
.L27:
	.loc 1 729 13 is_stmt 1 view .LVU297
	.loc 1 729 44 is_stmt 0 view .LVU298
	lsl	r3, r2, #2
	ldrh	r3, [lr, r3]
	.loc 1 729 30 view .LVU299
	add	r1, sp, #1440
	.loc 1 729 51 view .LVU300
	asr	r3, r3, r9
	.loc 1 729 66 view .LVU301
	uxtb	r3, r3
	.loc 1 729 30 view .LVU302
	add	r3, r1, r3, lsl #2
	ldr	r1, [r3, #-1280]
	.loc 1 729 77 view .LVU303
	ldr	r0, [lr, r2, lsl #2]
	.loc 1 728 36 view .LVU304
	add	r2, r2, #1
.LVL80:
	.loc 1 729 77 view .LVU305
	str	r0, [r4, r1, lsl #2]
	.loc 1 728 36 is_stmt 1 view .LVU306
.LVL81:
	.loc 1 728 23 view .LVU307
	cmp	r5, r2
	.loc 1 729 73 is_stmt 0 view .LVU308
	add	r1, r1, #1
	str	r1, [r3, #-1280]
	.loc 1 728 23 view .LVU309
	bne	.L27
.LVL82:
.L30:
	.loc 1 728 23 view .LVU310
.LBE1501:
.LBE1497:
	.loc 1 731 13 is_stmt 1 view .LVU311
	.loc 1 732 13 view .LVU312
	.loc 1 733 13 view .LVU313
.LBB1503:
	.loc 1 719 63 view .LVU314
	.loc 1 719 41 view .LVU315
	add	r9, r9, #8
.LVL83:
	.loc 1 719 41 is_stmt 0 view .LVU316
	cmp	r9, fp
	beq	.L126
.LBB1502:
	.loc 1 726 29 view .LVU317
	mov	r3, lr
	ldr	r1, [r10, #1024]!
.LVL84:
	.loc 1 726 29 view .LVU318
	mov	lr, r4
	mov	r4, r3
.LVL85:
	.loc 1 726 29 view .LVU319
	b	.L31
.LVL86:
.L126:
	.loc 1 726 29 view .LVU320
.LBE1502:
	.loc 1 736 5 is_stmt 1 view .LVU321
	.loc 1 736 5 is_stmt 0 view .LVU322
.LBE1503:
.LBE1496:
	.loc 1 847 9 is_stmt 1 view .LVU323
.LBB1505:
.LBI1505:
	.loc 1 740 13 view .LVU324
.LBB1506:
	.loc 1 742 5 view .LVU325
	.loc 1 743 5 view .LVU326
	.loc 1 743 8 is_stmt 0 view .LVU327
	cmp	r5, #0
	beq	.L123
	.loc 1 745 10 is_stmt 1 view .LVU328
	.loc 1 745 13 is_stmt 0 view .LVU329
	cmp	r5, #1
	.loc 1 748 9 view .LVU330
	moveq	r3, r5
	.loc 1 747 20 view .LVU331
	strheq	r5, [r4]	@ movhi
	.loc 1 748 9 is_stmt 1 view .LVU332
	.loc 1 745 13 is_stmt 0 view .LVU333
	beq	.L36
	.loc 1 750 5 is_stmt 1 view .LVU334
	.loc 1 750 16 is_stmt 0 view .LVU335
	ldrh	lr, [r4]
	ldrh	r3, [r4, #4]
	.loc 1 753 25 view .LVU336
	cmp	r5, #2
	.loc 1 750 16 view .LVU337
	add	lr, lr, r3
	uxth	lr, lr
	strh	lr, [r4]	@ movhi
	.loc 1 751 5 is_stmt 1 view .LVU338
.LVL87:
	.loc 1 752 5 view .LVU339
	.loc 1 753 5 view .LVU340
	.loc 1 753 25 view .LVU341
	.loc 1 753 29 is_stmt 0 view .LVU342
	sub	r10, r5, #1
	.loc 1 753 25 view .LVU343
	beq	.L37
	mov	r1, r4
	.loc 1 751 10 view .LVU344
	mov	r3, #0
	.loc 1 753 15 view .LVU345
	mov	r2, #1
	.loc 1 752 10 view .LVU346
	mov	r0, #2
	b	.L45
.LVL88:
.L127:
	.loc 1 762 43 view .LVU347
	lsl	lr, r3, #2
	.loc 1 762 49 view .LVU348
	ldrh	lr, [r4, lr]
	.loc 1 762 43 view .LVU349
	add	r9, r4, r3, lsl #2
.L42:
	.loc 1 764 13 is_stmt 1 view .LVU350
	.loc 1 764 29 is_stmt 0 view .LVU351
	add	lr, ip, lr
	.loc 1 764 27 view .LVU352
	strh	lr, [r1, #4]	@ movhi
	.loc 1 765 13 is_stmt 1 view .LVU353
	.loc 1 765 29 is_stmt 0 view .LVU354
	strh	r2, [r9]	@ movhi
	.loc 1 753 38 view .LVU355
	add	r2, r2, #1
.LVL89:
	.loc 1 753 25 view .LVU356
	cmp	r2, r10
	.loc 1 765 19 view .LVU357
	add	r3, r3, #1
.LVL90:
	.loc 1 753 38 is_stmt 1 view .LVU358
	.loc 1 753 25 view .LVU359
	add	r1, r1, #4
	beq	.L37
.L128:
	.loc 1 755 33 is_stmt 0 view .LVU360
	lsl	ip, r3, #2
	ldrh	lr, [r4, ip]
.LVL91:
.L45:
	.loc 1 755 9 is_stmt 1 view .LVU361
	.loc 1 755 12 is_stmt 0 view .LVU362
	cmp	r5, r0
	ble	.L38
	.loc 1 755 49 view .LVU363
	lsl	ip, r0, #2
	ldrh	ip, [r4, ip]
	.loc 1 755 23 view .LVU364
	cmp	ip, lr
	.loc 1 761 35 view .LVU365
	addls	r0, r0, #1
.LVL92:
	.loc 1 761 27 view .LVU366
	strhls	ip, [r1, #4]	@ movhi
	.loc 1 755 23 view .LVU367
	bls	.L40
.L38:
	.loc 1 757 13 is_stmt 1 view .LVU368
	.loc 1 758 29 is_stmt 0 view .LVU369
	lsl	ip, r3, #2
	.loc 1 757 27 view .LVU370
	strh	lr, [r1, #4]	@ movhi
	.loc 1 758 13 is_stmt 1 view .LVU371
	.loc 1 758 29 is_stmt 0 view .LVU372
	strh	r2, [r4, ip]	@ movhi
	.loc 1 768 48 view .LVU373
	ldrh	ip, [r1, #4]
	.loc 1 758 19 view .LVU374
	add	r3, r3, #1
.LVL93:
.L40:
	.loc 1 762 9 is_stmt 1 view .LVU375
	.loc 1 762 12 is_stmt 0 view .LVU376
	cmp	r5, r0
	ble	.L127
	.loc 1 762 65 view .LVU377
	lsl	lr, r0, #2
	.loc 1 762 23 view .LVU378
	cmp	r2, r3
	.loc 1 762 65 view .LVU379
	ldrh	fp, [r4, lr]
	.loc 1 762 23 view .LVU380
	ble	.L43
	.loc 1 762 43 view .LVU381
	lsl	lr, r3, #2
	.loc 1 762 49 view .LVU382
	ldrh	lr, [r4, lr]
	.loc 1 762 43 view .LVU383
	add	r9, r4, r3, lsl #2
	.loc 1 762 39 view .LVU384
	cmp	lr, fp
	bcc	.L42
.L43:
	.loc 1 768 13 is_stmt 1 view .LVU385
	.loc 1 753 38 is_stmt 0 view .LVU386
	add	r2, r2, #1
.LVL94:
	.loc 1 768 29 view .LVU387
	add	ip, ip, fp
	.loc 1 753 25 view .LVU388
	cmp	r2, r10
	.loc 1 768 27 view .LVU389
	strh	ip, [r1, #4]	@ movhi
	.loc 1 768 63 view .LVU390
	add	r0, r0, #1
.LVL95:
	.loc 1 753 38 is_stmt 1 view .LVU391
	.loc 1 753 25 view .LVU392
	add	r1, r1, #4
	bne	.L128
.LVL96:
.L37:
	.loc 1 770 5 view .LVU393
	.loc 1 770 20 is_stmt 0 view .LVU394
	mov	r2, #0
	.loc 1 770 6 view .LVU395
	sub	r3, r5, #-1073741822
	.loc 1 771 29 view .LVU396
	cmp	r5, #2
	.loc 1 770 6 view .LVU397
	lsl	r3, r3, #2
	.loc 1 770 20 view .LVU398
	strh	r2, [r4, r3]	@ movhi
	.loc 1 771 5 is_stmt 1 view .LVU399
.LVL97:
	.loc 1 771 29 view .LVU400
	addne	r3, r3, #8
	addne	r3, r4, r3
	addne	r1, r4, #8
	beq	.L49
.LVL98:
.L48:
	.loc 1 772 9 view .LVU401
	.loc 1 772 34 is_stmt 0 view .LVU402
	ldrh	r2, [r3, #-12]
	.loc 1 771 29 view .LVU403
	sub	r3, r3, #4
	.loc 1 772 41 view .LVU404
	lsl	r2, r2, #2
	.loc 1 772 48 view .LVU405
	ldrh	r2, [r4, r2]
	add	r2, r2, #1
	.loc 1 772 23 view .LVU406
	strh	r2, [r3, #-8]	@ movhi
	.loc 1 771 39 is_stmt 1 view .LVU407
	.loc 1 771 29 view .LVU408
	cmp	r1, r3
	bne	.L48
.L49:
	.loc 1 773 5 view .LVU409
.LVL99:
	.loc 1 774 5 view .LVU410
	.loc 1 775 5 view .LVU411
	.loc 1 774 17 is_stmt 0 view .LVU412
	mov	r0, #0
	.loc 1 773 10 view .LVU413
	mov	r9, #1
	.loc 1 775 10 view .LVU414
	sub	r3, r5, #2
.LVL100:
	.loc 1 776 5 is_stmt 1 view .LVU415
	.loc 1 777 5 view .LVU416
	.loc 1 777 17 view .LVU417
.L47:
	.loc 1 779 26 view .LVU418
	cmn	r3, #1
	movne	r1, #0
	bne	.L50
	.loc 1 779 26 is_stmt 0 view .LVU419
	b	.L129
.LVL101:
.L52:
	.loc 1 782 17 view .LVU420
	sub	r3, r3, #1
.LVL102:
	.loc 1 779 26 view .LVU421
	cmn	r3, #1
	.loc 1 781 17 view .LVU422
	add	r1, r1, #1
.LVL103:
	.loc 1 782 13 is_stmt 1 view .LVU423
	.loc 1 779 26 view .LVU424
	beq	.L122
.LVL104:
.L50:
	.loc 1 781 13 view .LVU425
	.loc 1 779 41 is_stmt 0 view .LVU426
	lsl	r2, r3, #2
	.loc 1 779 29 view .LVU427
	ldrh	r2, [r4, r2]
	.loc 1 779 26 view .LVU428
	cmp	r2, r0
	beq	.L52
.L122:
	.loc 1 784 21 view .LVU429
	cmp	r1, r9
	.loc 1 789 14 view .LVU430
	lsl	lr, r1, #1
.LVL105:
	.loc 1 784 21 is_stmt 1 view .LVU431
	bge	.L130
.LVL106:
.L56:
	.loc 1 784 21 is_stmt 0 view .LVU432
	sub	ip, r10, r9
	add	ip, ip, r1
	add	ip, r4, ip, lsl #2
	uxth	fp, r0
	add	r2, r4, r10, lsl #2
.LVL107:
.L54:
	.loc 1 786 13 is_stmt 1 view .LVU433
	.loc 1 786 29 is_stmt 0 view .LVU434
	strh	fp, [r2], #-4	@ movhi
	.loc 1 787 13 is_stmt 1 view .LVU435
	.loc 1 784 21 view .LVU436
	cmp	ip, r2
	bne	.L54
	.loc 1 786 19 is_stmt 0 view .LVU437
	sub	r9, r1, r9
	add	r10, r9, r10
	mov	r9, lr
.L53:
	.loc 1 789 9 is_stmt 1 view .LVU438
.LVL108:
	.loc 1 790 9 view .LVU439
	.loc 1 777 17 is_stmt 0 view .LVU440
	cmp	r1, #0
	.loc 1 790 13 view .LVU441
	add	r0, r0, #1
.LVL109:
	.loc 1 791 9 is_stmt 1 view .LVU442
	.loc 1 777 17 view .LVU443
	bne	.L47
.LVL110:
.L55:
	.loc 1 777 17 is_stmt 0 view .LVU444
.LBE1506:
.LBE1505:
	.loc 1 850 31 view .LVU445
	ldrh	r3, [r4]
.L36:
.LVL111:
	.loc 1 849 23 is_stmt 1 view .LVU446
.LBB1510:
.LBB1507:
	.loc 1 773 10 is_stmt 0 view .LVU447
	mov	r1, #0
	mov	r0, r6
	lsl	r3, r3, #2
	add	r2, sp, #1440
	b	.L73
.LVL112:
.L57:
	.loc 1 773 10 view .LVU448
.LBE1507:
.LBE1510:
	.loc 1 850 31 view .LVU449
	lsl	r3, r1, #2
	ldrh	r3, [r4, r3]
	.loc 1 850 22 view .LVU450
	add	r0, r2, r3, lsl #2
	ldr	r0, [r0, #-1412]
	lsl	r3, r3, #2
.LVL113:
.L73:
	.loc 1 850 13 is_stmt 1 discriminator 3 view .LVU451
	.loc 1 849 41 is_stmt 0 discriminator 3 view .LVU452
	add	r1, r1, #1
.LVL114:
	.loc 1 850 38 discriminator 3 view .LVU453
	add	r3, r2, r3
	add	r0, r0, #1
	.loc 1 849 23 discriminator 3 view .LVU454
	cmp	r5, r1
	.loc 1 850 38 discriminator 3 view .LVU455
	str	r0, [r3, #-1412]
	.loc 1 849 41 is_stmt 1 discriminator 3 view .LVU456
	.loc 1 849 23 discriminator 3 view .LVU457
	bne	.L57
.LVL115:
	.loc 1 852 9 view .LVU458
.LBB1511:
.LBI1511:
	.loc 1 800 13 view .LVU459
.LBB1512:
	.loc 1 802 5 view .LVU460
	.loc 1 803 5 view .LVU461
	.loc 1 804 5 view .LVU462
	.loc 1 804 8 is_stmt 0 view .LVU463
	cmp	r5, #1
	beq	.L123
	.loc 1 806 5 is_stmt 1 view .LVU464
.LVL116:
	.loc 1 806 35 view .LVU465
	.loc 1 807 35 is_stmt 0 view .LVU466
	ldr	r2, [sp]
	add	r0, sp, #156
	add	lr, r8, r2, lsl #2
	ldr	r3, [r8, r2, lsl #2]
	lsl	fp, r2, #2
	mov	r2, lr
.LVL117:
.L59:
	.loc 1 807 9 is_stmt 1 view .LVU467
	.loc 1 807 35 is_stmt 0 view .LVU468
	ldr	r1, [r2, #4]!
	add	r3, r3, r1
	.loc 1 806 35 view .LVU469
	cmp	r0, r2
	.loc 1 807 35 view .LVU470
	str	r3, [lr]
	.loc 1 806 74 is_stmt 1 view .LVU471
	.loc 1 806 35 view .LVU472
	bne	.L59
	mov	r2, #0
	ldr	r6, [sp]
	.loc 1 807 35 is_stmt 0 view .LVU473
	mov	r1, r3
	sub	r10, r6, #1
	add	r9, r8, r10, lsl #2
	.loc 1 803 15 view .LVU474
	mov	ip, r2
	add	r0, r9, #4
	b	.L61
.LVL118:
.L131:
	.loc 1 809 41 view .LVU475
	ldr	r1, [r0, #-4]!
.LVL119:
.L61:
	.loc 1 809 9 is_stmt 1 view .LVU476
	.loc 1 809 15 is_stmt 0 view .LVU477
	add	ip, ip, r1, lsl r2
.LVL120:
	.loc 1 808 37 is_stmt 1 view .LVU478
	.loc 1 808 31 view .LVU479
	.loc 1 808 31 is_stmt 0 view .LVU480
	add	r2, r2, #1
	cmp	r6, r2
	bne	.L131
	.loc 1 810 18 is_stmt 1 view .LVU481
	.loc 1 810 26 is_stmt 0 view .LVU482
	mov	r6, #1
	ldr	r2, [sp]
	lsl	r6, r6, r2
	.loc 1 810 18 view .LVU483
	cmp	ip, r6
	beq	.L32
.L65:
	.loc 1 812 9 is_stmt 1 view .LVU484
	.loc 1 812 34 is_stmt 0 view .LVU485
	sub	r3, r3, #1
	str	r3, [lr]
	.loc 1 813 9 is_stmt 1 view .LVU486
	.loc 1 813 39 view .LVU487
	.loc 1 812 34 is_stmt 0 view .LVU488
	mov	r2, r9
	.loc 1 813 16 view .LVU489
	mov	r3, r10
.L64:
.LVL121:
	.loc 1 814 13 is_stmt 1 view .LVU490
	.loc 1 813 45 view .LVU491
	.loc 1 813 39 view .LVU492
	.loc 1 814 27 is_stmt 0 view .LVU493
	mov	r0, r2
	ldr	r1, [r2], #-4
	.loc 1 814 16 view .LVU494
	cmp	r1, #0
	bne	.L132
	.loc 1 813 39 view .LVU495
	subs	r3, r3, #1
.LVL122:
	.loc 1 813 39 view .LVU496
	bne	.L64
	.loc 1 820 9 is_stmt 1 view .LVU497
	.loc 1 820 14 is_stmt 0 view .LVU498
	sub	ip, ip, #1
.LVL123:
	.loc 1 810 18 is_stmt 1 view .LVU499
	cmp	r6, ip
	beq	.L32
.LVL124:
.L133:
	.loc 1 812 19 is_stmt 0 view .LVU500
	ldr	r3, [lr]
	b	.L65
.LVL125:
.L132:
	.loc 1 816 17 is_stmt 1 view .LVU501
	.loc 1 816 30 is_stmt 0 view .LVU502
	sub	r1, r1, #1
	str	r1, [r0]
	.loc 1 817 17 is_stmt 1 view .LVU503
	.loc 1 817 35 is_stmt 0 view .LVU504
	add	r3, r3, #1
.LVL126:
	.loc 1 817 35 view .LVU505
	ldr	r2, [r8, r3, lsl #2]
	.loc 1 820 14 view .LVU506
	sub	ip, ip, #1
.LVL127:
	.loc 1 817 35 view .LVU507
	add	r2, r2, #2
	.loc 1 810 18 view .LVU508
	cmp	r6, ip
	.loc 1 817 35 view .LVU509
	str	r2, [r8, r3, lsl #2]
	.loc 1 818 17 is_stmt 1 view .LVU510
	.loc 1 820 9 view .LVU511
.LVL128:
	.loc 1 810 18 view .LVU512
	bne	.L133
.LVL129:
.L32:
	.loc 1 810 18 is_stmt 0 view .LVU513
.LBE1512:
.LBE1511:
	.loc 1 854 9 is_stmt 1 view .LVU514
	.loc 1 854 16 is_stmt 0 view .LVU515
	ldr	r3, [sp, #12]
	ldr	r2, [sp, #4]
	.loc 1 854 9 view .LVU516
	mov	r1, #0
	.loc 1 854 16 view .LVU517
	add	ip, r3, r2
	lsl	r6, ip, #5
	add	r0, r6, #36608
	add	r0, r0, #18
	.loc 1 854 9 view .LVU518
	mov	r2, #288
	add	r0, r7, r0
	bl	memset
.LVL130:
	.loc 1 855 9 is_stmt 1 view .LVU519
	.loc 1 855 16 is_stmt 0 view .LVU520
	ldr	r3, [sp, #20]
	.loc 1 855 9 view .LVU521
	mov	r2, #576
	.loc 1 855 16 view .LVU522
	add	r0, r3, #34816
	add	r0, r0, #82
	.loc 1 855 9 view .LVU523
	mov	r1, #0
	add	r0, r7, r0
	bl	memset
.LVL131:
	.loc 1 856 9 is_stmt 1 view .LVU524
	.loc 1 856 42 view .LVU525
	.loc 1 856 16 is_stmt 0 view .LVU526
	mov	lr, #1
	ldr	r3, [sp]
	.loc 1 858 73 view .LVU527
	add	ip, r7, r6
	add	r10, r3, #1
	add	r9, sp, #32
.LVL132:
.L68:
	.loc 1 857 13 is_stmt 1 view .LVU528
	.loc 1 857 20 is_stmt 0 view .LVU529
	ldr	r6, [r9], #4
.LVL133:
	.loc 1 857 38 is_stmt 1 view .LVU530
	cmp	r6, #0
	ble	.L66
	.loc 1 857 38 is_stmt 0 view .LVU531
	add	r2, r4, r5, lsl #2
	uxtb	r0, lr
	sub	r1, r2, r6, lsl #2
.LVL134:
.L67:
	.loc 1 858 17 is_stmt 1 discriminator 3 view .LVU532
	.loc 1 858 59 is_stmt 0 discriminator 3 view .LVU533
	ldrh	r3, [r2, #-2]
	.loc 1 857 38 discriminator 3 view .LVU534
	sub	r2, r2, #4
	.loc 1 858 73 discriminator 3 view .LVU535
	add	r3, ip, r3
	add	r3, r3, #36608
	.loc 1 857 38 discriminator 3 view .LVU536
	cmp	r1, r2
	.loc 1 858 73 discriminator 3 view .LVU537
	strb	r0, [r3, #18]
	.loc 1 857 44 is_stmt 1 discriminator 3 view .LVU538
	.loc 1 857 38 discriminator 3 view .LVU539
	bne	.L67
	.loc 1 858 73 is_stmt 0 view .LVU540
	sub	r5, r5, r6
.L66:
	.loc 1 856 63 is_stmt 1 discriminator 2 view .LVU541
	add	lr, lr, #1
.LVL135:
	.loc 1 856 42 discriminator 2 view .LVU542
	cmp	lr, r10
	bne	.L68
	ldr	r3, [sp, #16]
	add	r1, r3, #36608
	b	.L20
.LVL136:
.L130:
.LBB1513:
.LBB1508:
	.loc 1 784 21 is_stmt 0 view .LVU543
	mov	r9, lr
.LVL137:
	.loc 1 784 21 view .LVU544
	b	.L53
.LVL138:
.L74:
	.loc 1 784 21 view .LVU545
.LBE1508:
.LBE1513:
.LBB1514:
.LBB1504:
	.loc 1 711 19 view .LVU546
	mov	r1, r5
	mov	r3, #1
	b	.L23
.LVL139:
.L123:
	.loc 1 711 19 view .LVU547
	ldr	r3, [sp]
	lsl	fp, r3, #2
	b	.L32
.LVL140:
.L129:
	.loc 1 711 19 view .LVU548
.LBE1504:
.LBE1514:
.LBB1515:
.LBB1509:
	.loc 1 784 21 is_stmt 1 view .LVU549
	cmp	r9, #0
	beq	.L55
	mov	lr, #0
	mov	r1, lr
	b	.L56
.LBE1509:
.LBE1515:
.LBE1495:
	.cfi_endproc
.LFE28:
	.size	tdefl_optimize_huffman_table, .-tdefl_optimize_huffman_table
	.section	.text.mz_zip_writer_write_zeros,"ax",%progbits
	.align	2
	.syntax unified
	.arm
	.fpu vfp
	.type	mz_zip_writer_write_zeros, %function
mz_zip_writer_write_zeros:
.LVL141:
.LFB141:
	.loc 1 5989 1 view -0
	.cfi_startproc
	@ args = 4, pretend = 0, frame = 4096
	@ frame_needed = 0, uses_anonymous_args = 0
	.loc 1 5990 5 view .LVU551
	.loc 1 5991 5 view .LVU552
	.loc 1 5989 1 is_stmt 0 view .LVU553
	push	{r4, r5, r6, r7, r8, r9, lr}
	.cfi_def_cfa_offset 28
	.cfi_offset 4, -28
	.cfi_offset 5, -24
	.cfi_offset 6, -20
	.cfi_offset 7, -16
	.cfi_offset 8, -12
	.cfi_offset 9, -8
	.cfi_offset 14, -4
	sub	sp, sp, #4096
	.cfi_def_cfa_offset 4124
	sub	sp, sp, #12
	.cfi_def_cfa_offset 4136
	.loc 1 5989 1 view .LVU554
	mov	r4, r2
	add	r2, sp, #4096
	ldr	r5, [r2, #40]
	.loc 1 5991 5 view .LVU555
	add	r9, sp, #8
	cmp	r5, #4096
	.loc 1 5989 1 view .LVU556
	add	r2, r2, #40
	mov	r8, r0
	.loc 1 5991 5 view .LVU557
	movcc	r2, r5
.LVL142:
	.loc 1 5991 5 view .LVU558
	movcs	r2, #4096
	mov	r1, #0
	mov	r0, r9
	.loc 1 5989 1 view .LVU559
	mov	r6, r3
	.loc 1 5991 5 view .LVU560
	bl	memset
.LVL143:
	.loc 1 5992 5 is_stmt 1 view .LVU561
	.loc 1 5992 12 view .LVU562
	cmp	r5, #0
	bne	.L138
	b	.L135
.LVL144:
.L136:
.LBB1516:
	.loc 1 5998 22 is_stmt 0 view .LVU563
	adds	r4, r0, r4
.LVL145:
	.loc 1 5998 22 view .LVU564
	adc	r6, r6, #0
.LVL146:
	.loc 1 5999 9 is_stmt 1 view .LVU565
	.loc 1 5999 9 is_stmt 0 view .LVU566
.LBE1516:
	.loc 1 5992 12 is_stmt 1 view .LVU567
	subs	r5, r5, r0
.LVL147:
	.loc 1 5992 12 is_stmt 0 view .LVU568
	beq	.L135
.LVL148:
.L138:
.LBB1521:
	.loc 1 5994 9 is_stmt 1 view .LVU569
	.loc 1 5994 19 is_stmt 0 view .LVU570
	cmp	r5, #4096
	movcc	r7, r5
	movcs	r7, #4096
.LVL149:
	.loc 1 5995 9 is_stmt 1 view .LVU571
	.loc 1 5995 13 is_stmt 0 view .LVU572
	ldr	r1, [r8, #52]
	ldr	r0, [r8, #60]
	mov	r2, r4
	mov	r3, r6
	str	r9, [sp]
	str	r7, [sp, #4]
	blx	r1
.LVL150:
	.loc 1 5998 9 is_stmt 1 view .LVU573
	.loc 1 5995 12 is_stmt 0 view .LVU574
	cmp	r0, r7
	beq	.L136
	.loc 1 5996 13 is_stmt 1 view .LVU575
.LVL151:
.LBB1517:
.LBI1517:
	.loc 1 3320 62 view .LVU576
.LBB1518:
	.loc 1 3322 5 view .LVU577
	.loc 1 3323 9 view .LVU578
	.loc 1 3323 28 is_stmt 0 view .LVU579
	mov	r3, #19
.LBE1518:
.LBE1517:
	.loc 1 5996 20 view .LVU580
	mov	r0, #0
.LBB1520:
.LBB1519:
	.loc 1 3323 28 view .LVU581
	strb	r3, [r8, #22]
	.loc 1 3324 5 is_stmt 1 view .LVU582
.LVL152:
	.loc 1 3324 5 is_stmt 0 view .LVU583
.LBE1519:
.LBE1520:
.LBE1521:
	.loc 1 6002 1 view .LVU584
	add	sp, sp, #4096
	add	sp, sp, #12
	.cfi_remember_state
	.cfi_def_cfa_offset 28
	@ sp needed
	pop	{r4, r5, r6, r7, r8, r9, pc}
.LVL153:
.L135:
	.cfi_restore_state
	.loc 1 6001 12 view .LVU585
	mov	r0, #1
	.loc 1 6002 1 view .LVU586
	add	sp, sp, #4096
	add	sp, sp, #12
	.cfi_def_cfa_offset 28
	@ sp needed
	pop	{r4, r5, r6, r7, r8, r9, pc}
	.loc 1 6002 1 view .LVU587
	.cfi_endproc
.LFE141:
	.size	mz_zip_writer_write_zeros, .-mz_zip_writer_write_zeros
	.section	.text.tdefl_flush_output_buffer,"ax",%progbits
	.align	2
	.syntax unified
	.arm
	.fpu vfp
	.type	tdefl_flush_output_buffer, %function
tdefl_flush_output_buffer:
.LVL154:
.LFB38:
	.loc 1 1817 1 is_stmt 1 view -0
	.cfi_startproc
	@ args = 0, pretend = 0, frame = 0
	@ frame_needed = 0, uses_anonymous_args = 0
	.loc 1 1818 5 view .LVU589
	.loc 1 1818 10 is_stmt 0 view .LVU590
	ldr	r2, [r0, #120]
	.loc 1 1817 1 view .LVU591
	push	{r4, r5, r6, lr}
	.cfi_def_cfa_offset 16
	.cfi_offset 4, -16
	.cfi_offset 5, -12
	.cfi_offset 6, -8
	.cfi_offset 14, -4
	.loc 1 1818 8 view .LVU592
	cmp	r2, #0
	.loc 1 1820 9 is_stmt 1 view .LVU593
	.loc 1 1820 40 is_stmt 0 view .LVU594
	ldrne	r3, [r0, #132]
	ldrne	r1, [r0, #112]
	.loc 1 1817 1 view .LVU595
	mov	r4, r0
	.loc 1 1820 40 view .LVU596
	subne	r3, r3, r1
	.loc 1 1820 28 view .LVU597
	strne	r3, [r2]
	.loc 1 1823 5 is_stmt 1 view .LVU598
	.loc 1 1823 10 is_stmt 0 view .LVU599
	ldr	r3, [r0, #124]
	.loc 1 1823 8 view .LVU600
	cmp	r3, #0
	beq	.L146
.LBB1522:
	.loc 1 1825 9 is_stmt 1 view .LVU601
	.loc 1 1825 46 is_stmt 0 view .LVU602
	ldr	r2, [r0, #140]
	.loc 1 1825 43 view .LVU603
	ldr	r5, [r3]
	.loc 1 1825 16 view .LVU604
	ldr	r3, [r0, #92]
	.loc 1 1825 43 view .LVU605
	sub	r5, r5, r2
	.loc 1 1825 16 view .LVU606
	cmp	r5, r3
	movcs	r5, r3
.LVL155:
	.loc 1 1826 9 is_stmt 1 view .LVU607
	.loc 1 1826 62 is_stmt 0 view .LVU608
	ldr	r3, .L156
	.loc 1 1826 9 view .LVU609
	ldr	r0, [r0, #116]
.LVL156:
	.loc 1 1826 9 view .LVU610
	ldr	r1, [r4, #88]
	.loc 1 1826 62 view .LVU611
	add	r3, r4, r3
	.loc 1 1826 9 view .LVU612
	add	r1, r3, r1
	add	r0, r0, r2
	mov	r2, r5
	bl	memcpy
.LVL157:
	.loc 1 1827 9 is_stmt 1 view .LVU613
	.loc 1 1828 37 is_stmt 0 view .LVU614
	ldr	r2, [r4, #92]
	.loc 1 1827 31 view .LVU615
	ldr	r1, [r4, #88]
	.loc 1 1829 26 view .LVU616
	ldr	r3, [r4, #140]
	.loc 1 1828 37 view .LVU617
	sub	r2, r2, r5
	str	r2, [r4, #92]
	.loc 1 1831 29 view .LVU618
	ldr	r2, [r4, #124]
	.loc 1 1829 26 view .LVU619
	add	r3, r5, r3
	.loc 1 1827 31 view .LVU620
	add	r1, r1, r5
	str	r1, [r4, #88]
	.loc 1 1828 9 is_stmt 1 view .LVU621
	.loc 1 1829 9 view .LVU622
	.loc 1 1829 26 is_stmt 0 view .LVU623
	str	r3, [r4, #140]
	.loc 1 1831 9 is_stmt 1 view .LVU624
	.loc 1 1831 29 is_stmt 0 view .LVU625
	str	r3, [r2]
.LVL158:
.L146:
	.loc 1 1831 29 view .LVU626
.LBE1522:
	.loc 1 1834 5 is_stmt 1 view .LVU627
	.loc 1 1834 80 is_stmt 0 view .LVU628
	ldr	r0, [r4, #96]
	cmp	r0, #0
	ldrne	r0, [r4, #92]
	clzne	r0, r0
	lsrne	r0, r0, #5
	.loc 1 1835 1 view .LVU629
	pop	{r4, r5, r6, pc}
.L157:
	.align	2
.L156:
	.word	234098
	.cfi_endproc
.LFE38:
	.size	tdefl_flush_output_buffer, .-tdefl_flush_output_buffer
	.section	.text.tdefl_output_buffer_putter,"ax",%progbits
	.align	2
	.syntax unified
	.arm
	.fpu vfp
	.type	tdefl_output_buffer_putter, %function
tdefl_output_buffer_putter:
.LVL159:
.LFB45:
	.loc 1 1977 1 is_stmt 1 view -0
	.cfi_startproc
	@ args = 0, pretend = 0, frame = 0
	@ frame_needed = 0, uses_anonymous_args = 0
	.loc 1 1978 5 view .LVU631
	.loc 1 1977 1 is_stmt 0 view .LVU632
	push	{r4, r5, r6, r7, r8, lr}
	.cfi_def_cfa_offset 24
	.cfi_offset 4, -24
	.cfi_offset 5, -20
	.cfi_offset 6, -16
	.cfi_offset 7, -12
	.cfi_offset 8, -8
	.cfi_offset 14, -4
	.loc 1 1977 1 view .LVU633
	mov	r8, r0
	.loc 1 1979 24 view .LVU634
	ldr	r0, [r2]
.LVL160:
	.loc 1 1980 21 view .LVU635
	ldr	r4, [r2, #4]
	.loc 1 1979 12 view .LVU636
	add	r6, r0, r1
	.loc 1 1980 8 view .LVU637
	cmp	r4, r6
	.loc 1 1977 1 view .LVU638
	mov	r5, r2
.LVL161:
	.loc 1 1979 5 is_stmt 1 view .LVU639
	.loc 1 1980 5 view .LVU640
	.loc 1 1977 1 is_stmt 0 view .LVU641
	mov	r7, r1
.LBB1523:
	.loc 1 1990 41 view .LVU642
	ldrcs	r3, [r2, #8]
.LBE1523:
	.loc 1 1980 8 view .LVU643
	bcs	.L160
.LBB1524:
	.loc 1 1982 9 is_stmt 1 view .LVU644
.LVL162:
	.loc 1 1983 9 view .LVU645
	.loc 1 1984 9 view .LVU646
	.loc 1 1984 12 is_stmt 0 view .LVU647
	ldr	r3, [r2, #12]
	cmp	r3, #0
	beq	.L163
.L161:
	.loc 1 1986 9 is_stmt 1 discriminator 1 view .LVU648
	.loc 1 1988 13 discriminator 1 view .LVU649
	.loc 1 1988 53 is_stmt 0 discriminator 1 view .LVU650
	lsl	r4, r4, #1
.LVL163:
	.loc 1 1988 26 discriminator 1 view .LVU651
	cmp	r4, #128
	movcc	r4, #128
.LVL164:
	.loc 1 1989 27 is_stmt 1 discriminator 1 view .LVU652
	cmp	r6, r4
	bhi	.L161
	.loc 1 1990 9 view .LVU653
	.loc 1 1990 32 is_stmt 0 view .LVU654
	mov	r1, r4
.LVL165:
	.loc 1 1990 32 view .LVU655
	ldr	r0, [r5, #8]
	bl	realloc
.LVL166:
	.loc 1 1991 9 is_stmt 1 view .LVU656
	.loc 1 1991 12 is_stmt 0 view .LVU657
	subs	r3, r0, #0
	beq	.L163
	.loc 1 1993 9 is_stmt 1 view .LVU658
.LBE1524:
	.loc 1 1996 37 is_stmt 0 view .LVU659
	ldr	r0, [r5]
.LVL167:
.LBB1525:
	.loc 1 1994 23 view .LVU660
	str	r4, [r5, #4]
	.loc 1 1993 19 view .LVU661
	str	r3, [r5, #8]
	.loc 1 1994 9 is_stmt 1 view .LVU662
.LVL168:
.L160:
	.loc 1 1994 9 is_stmt 0 view .LVU663
.LBE1525:
	.loc 1 1996 5 is_stmt 1 view .LVU664
	mov	r2, r7
	mov	r1, r8
	add	r0, r3, r0
	bl	memcpy
.LVL169:
	.loc 1 1997 5 view .LVU665
	.loc 1 1998 12 is_stmt 0 view .LVU666
	mov	r0, #1
	.loc 1 1997 15 view .LVU667
	str	r6, [r5]
	.loc 1 1998 5 is_stmt 1 view .LVU668
	.loc 1 1999 1 is_stmt 0 view .LVU669
	pop	{r4, r5, r6, r7, r8, pc}
.LVL170:
.L163:
.LBB1526:
	.loc 1 1985 20 view .LVU670
	mov	r0, #0
	pop	{r4, r5, r6, r7, r8, pc}
.LBE1526:
	.cfi_endproc
.LFE45:
	.size	tdefl_output_buffer_putter, .-tdefl_output_buffer_putter
	.section	.text.mz_zip_mem_read_func,"ax",%progbits
	.align	2
	.syntax unified
	.arm
	.fpu vfp
	.type	mz_zip_mem_read_func, %function
mz_zip_mem_read_func:
.LVL171:
.LFB80:
	.loc 1 3790 1 is_stmt 1 view -0
	.cfi_startproc
	@ args = 8, pretend = 0, frame = 0
	@ frame_needed = 0, uses_anonymous_args = 0
	.loc 1 3791 5 view .LVU672
	.loc 1 3792 5 view .LVU673
	.loc 1 3790 1 is_stmt 0 view .LVU674
	mov	r1, r2
	.loc 1 3792 33 view .LVU675
	ldm	r0, {r2, ip}
.LVL172:
	.loc 1 3792 55 view .LVU676
	cmp	r1, r2
	.loc 1 3790 1 view .LVU677
	push	{r4, lr}
	.cfi_def_cfa_offset 8
	.cfi_offset 4, -8
	.cfi_offset 14, -4
	.loc 1 3792 55 view .LVU678
	sbcs	lr, r3, ip
	movcs	r4, #0
	bcs	.L171
	.loc 1 3792 89 discriminator 1 view .LVU679
	subs	r2, r2, r1
	sbc	ip, ip, r3
	.loc 1 3792 57 discriminator 1 view .LVU680
	ldr	r3, [sp, #12]
	cmp	r2, r3
	sbcs	ip, ip, #0
	movcc	r4, r2
	ldrcs	r4, [sp, #12]
.L171:
.LVL173:
	.loc 1 3793 5 is_stmt 1 discriminator 8 view .LVU681
	.loc 1 3793 50 is_stmt 0 discriminator 8 view .LVU682
	ldr	r3, [r0, #64]
	.loc 1 3793 5 discriminator 8 view .LVU683
	mov	r2, r4
	ldr	r3, [r3, #72]
	ldr	r0, [sp, #8]
.LVL174:
	.loc 1 3793 5 discriminator 8 view .LVU684
	add	r1, r3, r1
	bl	memcpy
.LVL175:
	.loc 1 3794 5 is_stmt 1 discriminator 8 view .LVU685
	.loc 1 3795 1 is_stmt 0 discriminator 8 view .LVU686
	mov	r0, r4
	pop	{r4, pc}
	.cfi_endproc
.LFE80:
	.size	mz_zip_mem_read_func, .-mz_zip_mem_read_func
	.section	.text.mz_zip_heap_write_func,"ax",%progbits
	.align	2
	.syntax unified
	.arm
	.fpu vfp
	.type	mz_zip_heap_write_func, %function
mz_zip_heap_write_func:
.LVL176:
.LFB121:
	.loc 1 5466 1 is_stmt 1 view -0
	.cfi_startproc
	@ args = 8, pretend = 0, frame = 0
	@ frame_needed = 0, uses_anonymous_args = 0
	.loc 1 5467 5 view .LVU688
	.loc 1 5466 1 is_stmt 0 view .LVU689
	push	{r4, r5, r6, r7, r8, r9, r10, lr}
	.cfi_def_cfa_offset 32
	.cfi_offset 4, -32
	.cfi_offset 5, -28
	.cfi_offset 6, -24
	.cfi_offset 7, -20
	.cfi_offset 8, -16
	.cfi_offset 9, -12
	.cfi_offset 10, -8
	.cfi_offset 14, -4
	.loc 1 5466 1 view .LVU690
	ldr	r6, [sp, #36]
	.loc 1 5471 8 view .LVU691
	cmp	r6, #0
.LVL177:
	.loc 1 5468 5 is_stmt 1 view .LVU692
	.loc 1 5469 5 view .LVU693
	.loc 1 5471 5 view .LVU694
	.loc 1 5471 8 is_stmt 0 view .LVU695
	beq	.L176
	.loc 1 5469 15 view .LVU696
	mov	ip, #0
	.loc 1 5468 28 view .LVU697
	ldr	r9, [r0, #64]
	mov	r7, r2
	.loc 1 5469 15 view .LVU698
	ldr	r5, [r9, #76]
	.loc 1 5469 38 view .LVU699
	adds	r2, r6, r2
.LVL178:
	.loc 1 5469 38 view .LVU700
	adc	r3, r3, #0
.LVL179:
	.loc 1 5469 15 view .LVU701
	cmp	r5, r2
	sbcs	r1, ip, r3
	movcc	r5, r2
	movcc	ip, r3
	.loc 1 5475 5 is_stmt 1 view .LVU702
	.loc 1 5475 8 is_stmt 0 view .LVU703
	cmp	r5, #-2147483648
	sbcs	r3, ip, #0
.LBB1527:
.LBB1528:
	.loc 1 3323 28 view .LVU704
	movcs	r3, #3
	mov	r8, r0
.LBE1528:
.LBE1527:
	.loc 1 5478 16 view .LVU705
	movcs	r6, #0
.LBB1530:
.LBB1529:
	.loc 1 3323 28 view .LVU706
	strbcs	r3, [r0, #22]
.LVL180:
	.loc 1 3323 28 view .LVU707
.LBE1529:
.LBE1530:
	.loc 1 5475 8 view .LVU708
	bcs	.L176
	.loc 1 5481 5 is_stmt 1 view .LVU709
	.loc 1 5481 26 is_stmt 0 view .LVU710
	mov	r3, #0
	ldr	r4, [r9, #80]
.LBB1531:
	.loc 1 5489 34 view .LVU711
	ldr	r1, [r9, #72]
.LBE1531:
	.loc 1 5481 8 view .LVU712
	cmp	r4, r5
	sbcs	r2, r3, ip
	bcs	.L179
.LBB1536:
	.loc 1 5483 9 is_stmt 1 view .LVU713
	.loc 1 5484 9 view .LVU714
	.loc 1 5484 16 is_stmt 0 view .LVU715
	cmp	r4, #64
	movcc	r4, #64
.LVL181:
	.loc 1 5486 9 is_stmt 1 view .LVU716
	.loc 1 5486 29 view .LVU717
	cmp	r4, r5
	sbcs	r2, r3, ip
	bcs	.L180
.L181:
	.loc 1 5487 13 view .LVU718
	.loc 1 5487 26 is_stmt 0 view .LVU719
	lsl	r4, r4, #1
.LVL182:
	.loc 1 5486 29 is_stmt 1 view .LVU720
	cmp	r4, r5
	sbcs	r2, r3, ip
	bcc	.L181
.L180:
	.loc 1 5489 9 view .LVU721
	.loc 1 5489 34 is_stmt 0 view .LVU722
	mov	r3, r4
	mov	r2, #1
	ldr	r0, [r8, #44]
.LVL183:
	.loc 1 5489 34 view .LVU723
	ldr	ip, [r8, #40]
	blx	ip
.LVL184:
	.loc 1 5489 12 view .LVU724
	subs	r1, r0, #0
.LBB1532:
.LBB1533:
	.loc 1 3323 28 view .LVU725
	moveq	r3, #16
.LBE1533:
.LBE1532:
	.loc 1 5492 20 view .LVU726
	moveq	r6, r1
.LBB1535:
.LBB1534:
	.loc 1 3323 28 view .LVU727
	strbeq	r3, [r8, #22]
.LBE1534:
.LBE1535:
	.loc 1 5489 12 view .LVU728
	beq	.L176
	.loc 1 5495 9 is_stmt 1 view .LVU729
	.loc 1 5496 32 is_stmt 0 view .LVU730
	str	r4, [r9, #80]
	.loc 1 5495 24 view .LVU731
	str	r1, [r9, #72]
	.loc 1 5496 9 is_stmt 1 view .LVU732
.LVL185:
.L179:
	.loc 1 5496 9 is_stmt 0 view .LVU733
.LBE1536:
	.loc 1 5498 5 is_stmt 1 view .LVU734
	add	r0, r1, r7
	mov	r2, r6
	ldr	r1, [sp, #32]
	bl	memcpy
.LVL186:
	.loc 1 5499 5 view .LVU735
	.loc 1 5499 26 is_stmt 0 view .LVU736
	str	r5, [r9, #76]
	.loc 1 5500 5 is_stmt 1 view .LVU737
.LVL187:
.L176:
	.loc 1 5501 1 is_stmt 0 view .LVU738
	mov	r0, r6
	pop	{r4, r5, r6, r7, r8, r9, r10, pc}
	.cfi_endproc
.LFE121:
	.size	mz_zip_heap_write_func, .-mz_zip_heap_write_func
	.section	.rodata.str1.4,"aMS",%progbits,1
	.align	2
.LC0:
	.ascii	"bits <= ((1U << len) - 1U)\000"
	.align	2
.LC1:
	.ascii	"/home/tobi/Dokumente/Craftus-Next/dependencies/mini"
	.ascii	"z/miniz.c\000"
	.align	2
.LC2:
	.ascii	"code < TDEFL_MAX_HUFF_SYMBOLS_2\000"
	.align	2
.LC3:
	.ascii	"\002\003\007\000"
	.section	.text.tdefl_start_dynamic_block,"ax",%progbits
	.align	2
	.syntax unified
	.arm
	.fpu vfp
	.type	tdefl_start_dynamic_block, %function
tdefl_start_dynamic_block:
.LVL188:
.LFB29:
	.loc 1 944 1 is_stmt 1 view -0
	.cfi_startproc
	@ args = 0, pretend = 0, frame = 656
	@ frame_needed = 0, uses_anonymous_args = 0
	.loc 1 945 5 view .LVU740
	.loc 1 946 5 view .LVU741
	.loc 1 947 5 view .LVU742
	.loc 1 949 5 view .LVU743
	.loc 1 944 1 is_stmt 0 view .LVU744
	push	{r4, r5, r6, r7, r8, r9, r10, fp, lr}
	.cfi_def_cfa_offset 36
	.cfi_offset 4, -36
	.cfi_offset 5, -32
	.cfi_offset 6, -28
	.cfi_offset 7, -24
	.cfi_offset 8, -20
	.cfi_offset 9, -16
	.cfi_offset 10, -12
	.cfi_offset 11, -8
	.cfi_offset 14, -4
	.loc 1 951 5 view .LVU745
	mov	r6, #0
	.loc 1 949 29 view .LVU746
	mov	r7, #1
	.loc 1 944 1 view .LVU747
	mov	r4, r0
	sub	sp, sp, #668
	.cfi_def_cfa_offset 704
	.loc 1 949 29 view .LVU748
	add	ip, r0, #32768
	str	ip, [sp, #8]
	add	ip, ip, #912
	.loc 1 951 5 view .LVU749
	mov	r3, #15
	mov	r2, #288
	mov	r1, r6
	str	r6, [sp]
	.loc 1 949 29 view .LVU750
	strh	r7, [ip, #2]	@ movhi
	.loc 1 951 5 is_stmt 1 view .LVU751
	bl	tdefl_optimize_huffman_table
.LVL189:
	.loc 1 952 5 view .LVU752
	mov	r3, #15
	mov	r2, #32
	mov	r0, r4
	mov	r1, r7
	str	r6, [sp]
	bl	tdefl_optimize_huffman_table
.LVL190:
	.loc 1 954 5 view .LVU753
	.loc 1 954 45 view .LVU754
	add	r3, r4, #36864
	.loc 1 954 24 is_stmt 0 view .LVU755
	ldr	r5, .L298
	.loc 1 954 45 view .LVU756
	ldr	r0, .L298+4
	add	r2, r3, #48
	b	.L190
.LVL191:
.L281:
	.loc 1 954 45 is_stmt 1 discriminator 1 view .LVU757
	cmp	r5, r0
	beq	.L280
.LVL192:
.L190:
	.loc 1 955 9 view .LVU758
	.loc 1 955 12 is_stmt 0 view .LVU759
	ldrb	r1, [r2, #-1]!	@ zero_extendqisi2
	mov	r7, r5
.LVL193:
	.loc 1 955 12 view .LVU760
	cmp	r1, #0
	.loc 1 955 51 view .LVU761
	sub	r5, r5, #1
.LVL194:
	.loc 1 955 12 view .LVU762
	beq	.L281
.LBB1537:
	.loc 1 1009 18 view .LVU763
	mov	r5, r7
.LVL195:
	.loc 1 1009 39 view .LVU764
	sub	r2, r7, #256
	sub	r2, r2, #1
	str	r2, [sp, #16]
.LVL196:
.L191:
	.loc 1 1009 39 view .LVU765
.LBE1537:
	.loc 1 957 46 is_stmt 1 discriminator 1 view .LVU766
	.loc 1 954 24 is_stmt 0 discriminator 1 view .LVU767
	mov	r6, #30
	add	r2, r3, #80
	b	.L194
.LVL197:
.L192:
	.loc 1 957 46 is_stmt 1 discriminator 1 view .LVU768
	cmp	r6, #1
	beq	.L282
.LVL198:
.L194:
	.loc 1 958 9 view .LVU769
	.loc 1 958 12 is_stmt 0 view .LVU770
	ldrb	r1, [r2, #-1]!	@ zero_extendqisi2
	mov	fp, r6
.LVL199:
	.loc 1 958 12 view .LVU771
	cmp	r1, #0
	.loc 1 958 52 view .LVU772
	sub	r6, r6, #1
.LVL200:
	.loc 1 958 12 view .LVU773
	beq	.L192
.LBB1538:
	.loc 1 1010 18 view .LVU774
	str	r6, [sp, #12]
.LVL201:
	.loc 1 1010 18 view .LVU775
	mov	r6, fp
.LVL202:
.L193:
	.loc 1 1010 18 view .LVU776
.LBE1538:
	.loc 1 961 5 is_stmt 1 view .LVU777
	.loc 1 966 22 is_stmt 0 view .LVU778
	mov	r8, #0
	add	r10, sp, #24
	.loc 1 961 5 view .LVU779
	add	r1, r4, #36608
	mov	r2, r7
	add	r1, r1, #18
	mov	r0, r10
	str	r3, [sp, #20]
	bl	memcpy
.LVL203:
	.loc 1 962 5 is_stmt 1 view .LVU780
	ldr	r3, [sp, #20]
	mov	r2, fp
	add	r1, r3, #50
	add	r0, r10, r7
	bl	memcpy
.LVL204:
	.loc 1 963 5 view .LVU781
	.loc 1 964 5 view .LVU782
	.loc 1 965 5 view .LVU783
	.loc 1 966 5 view .LVU784
	.loc 1 968 5 view .LVU785
	add	r0, r4, #34304
	mov	r2, #38
	mov	r1, r8
	add	r0, r0, #18
	bl	memset
.LVL205:
	.loc 1 969 5 view .LVU786
	.loc 1 969 19 view .LVU787
.LBB1539:
	.loc 1 991 296 is_stmt 0 view .LVU788
	ldr	r3, [sp, #8]
.LBE1539:
	.loc 1 963 46 view .LVU789
	add	r5, r5, r6
.LVL206:
.LBB1540:
	.loc 1 991 296 view .LVU790
	add	r3, r3, #1584
	add	r6, r10, r5
.LVL207:
	.loc 1 991 296 view .LVU791
.LBE1540:
	.loc 1 947 159 view .LVU792
	mov	r9, #255
	.loc 1 965 17 view .LVU793
	mov	r7, r8
.LVL208:
	.loc 1 964 27 view .LVU794
	mov	r5, r8
.LBB1541:
	.loc 1 991 296 view .LVU795
	mov	fp, r3
.LVL209:
	.loc 1 991 296 view .LVU796
	b	.L205
.LVL210:
.L285:
	.loc 1 974 15 is_stmt 1 view .LVU797
	.loc 1 974 18 is_stmt 0 view .LVU798
	cmp	r8, #0
	beq	.L196
	.loc 1 974 39 is_stmt 1 discriminator 1 view .LVU799
	.loc 1 974 42 is_stmt 0 discriminator 1 view .LVU800
	cmp	r8, #2
	bls	.L283
	.loc 1 974 269 is_stmt 1 discriminator 4 view .LVU801
	.loc 1 974 378 is_stmt 0 discriminator 4 view .LVU802
	mov	r2, #16
	.loc 1 974 294 discriminator 4 view .LVU803
	ldrh	r3, [fp, #2]
	.loc 1 974 429 discriminator 4 view .LVU804
	sub	r8, r8, #3
.LVL211:
	.loc 1 974 294 discriminator 4 view .LVU805
	add	r3, r3, #1
	.loc 1 974 292 discriminator 4 view .LVU806
	strh	r3, [fp, #2]	@ movhi
	.loc 1 974 335 is_stmt 1 discriminator 4 view .LVU807
	.loc 1 974 378 is_stmt 0 discriminator 4 view .LVU808
	add	r3, r5, #664
	add	r3, sp, r3
	.loc 1 974 427 discriminator 4 view .LVU809
	strb	r8, [r3, #-319]
	.loc 1 974 378 discriminator 4 view .LVU810
	strb	r2, [r3, #-320]
	.loc 1 974 384 is_stmt 1 discriminator 4 view .LVU811
.LVL212:
	.loc 1 974 423 is_stmt 0 discriminator 4 view .LVU812
	add	r5, r5, #2
.LVL213:
.L196:
	.loc 1 974 490 is_stmt 1 discriminator 9 view .LVU813
	.loc 1 975 13 discriminator 9 view .LVU814
	.loc 1 975 16 is_stmt 0 discriminator 9 view .LVU815
	add	r7, r7, #1
.LVL214:
	.loc 1 975 16 discriminator 9 view .LVU816
	cmp	r7, #138
	movne	r8, #0
	bne	.L198
	.loc 1 977 19 is_stmt 1 discriminator 9 view .LVU817
	.loc 1 977 38 discriminator 9 view .LVU818
	.loc 1 977 212 discriminator 9 view .LVU819
	.loc 1 977 435 discriminator 9 view .LVU820
	.loc 1 977 593 is_stmt 0 discriminator 9 view .LVU821
	mov	r7, #0
.LVL215:
	.loc 1 977 544 discriminator 9 view .LVU822
	mov	r0, #18
	.loc 1 977 593 discriminator 9 view .LVU823
	mov	r2, #127
	.loc 1 977 639 discriminator 9 view .LVU824
	mov	r8, r7
	.loc 1 977 460 discriminator 9 view .LVU825
	ldrh	r3, [fp, #6]
	.loc 1 977 544 discriminator 9 view .LVU826
	add	r1, r5, #664
	.loc 1 977 460 discriminator 9 view .LVU827
	add	r3, r3, #1
	.loc 1 977 458 discriminator 9 view .LVU828
	strh	r3, [fp, #6]	@ movhi
	.loc 1 977 501 is_stmt 1 discriminator 9 view .LVU829
	.loc 1 977 540 is_stmt 0 discriminator 9 view .LVU830
	add	r3, r5, #1
.LVL216:
	.loc 1 977 593 discriminator 9 view .LVU831
	add	r3, r3, #664
.LVL217:
	.loc 1 977 593 discriminator 9 view .LVU832
	add	r3, sp, r3
.LVL218:
	.loc 1 977 544 discriminator 9 view .LVU833
	add	r1, sp, r1
	strb	r0, [r1, #-320]
	.loc 1 977 550 is_stmt 1 discriminator 9 view .LVU834
	.loc 1 977 589 is_stmt 0 discriminator 9 view .LVU835
	add	r5, r5, #2
.LVL219:
	.loc 1 977 627 is_stmt 1 discriminator 9 view .LVU836
	.loc 1 977 593 is_stmt 0 discriminator 9 view .LVU837
	strb	r2, [r3, #-320]
.LVL220:
.L198:
	.loc 1 991 494 is_stmt 1 discriminator 9 view .LVU838
	.loc 1 994 9 discriminator 9 view .LVU839
	.loc 1 994 9 is_stmt 0 discriminator 9 view .LVU840
.LBE1541:
	.loc 1 969 48 is_stmt 1 discriminator 9 view .LVU841
	.loc 1 969 19 discriminator 9 view .LVU842
	cmp	r6, r10
	beq	.L284
.LVL221:
.L205:
.LBB1542:
	.loc 1 971 9 view .LVU843
	mov	r3, r9
	.loc 1 971 18 is_stmt 0 view .LVU844
	ldrb	r9, [r10], #1	@ zero_extendqisi2
.LVL222:
	.loc 1 972 9 is_stmt 1 view .LVU845
	.loc 1 972 12 is_stmt 0 view .LVU846
	cmp	r9, #0
	beq	.L285
	.loc 1 982 15 is_stmt 1 view .LVU847
	.loc 1 982 18 is_stmt 0 view .LVU848
	cmp	r7, #0
	beq	.L199
	.loc 1 982 34 is_stmt 1 discriminator 1 view .LVU849
	.loc 1 982 37 is_stmt 0 discriminator 1 view .LVU850
	cmp	r7, #2
	bls	.L286
	.loc 1 982 342 discriminator 4 view .LVU851
	add	r0, r5, #664
	.loc 1 982 211 discriminator 4 view .LVU852
	cmp	r7, #10
	.loc 1 982 342 discriminator 4 view .LVU853
	add	r0, sp, r0
	.loc 1 982 393 discriminator 4 view .LVU854
	uxtb	r7, r7
.LVL223:
	.loc 1 974 374 discriminator 4 view .LVU855
	add	r2, r5, #1
	.loc 1 982 208 is_stmt 1 discriminator 4 view .LVU856
	.loc 1 974 423 is_stmt 0 discriminator 4 view .LVU857
	add	r1, r5, #2
	.loc 1 982 211 discriminator 4 view .LVU858
	bhi	.L201
	.loc 1 982 233 is_stmt 1 discriminator 8 view .LVU859
	.loc 1 982 387 is_stmt 0 discriminator 8 view .LVU860
	mov	r5, r1
	.loc 1 982 342 discriminator 8 view .LVU861
	mov	r1, #17
	.loc 1 982 391 discriminator 8 view .LVU862
	add	r2, r2, #664
	add	r2, sp, r2
	.loc 1 982 393 discriminator 8 view .LVU863
	sub	r7, r7, #3
	.loc 1 982 342 discriminator 8 view .LVU864
	strb	r1, [r0, #-320]
	.loc 1 982 391 discriminator 8 view .LVU865
	strb	r7, [r2, #-320]
	.loc 1 982 258 discriminator 8 view .LVU866
	ldrh	r2, [fp, #4]
	add	r2, r2, #1
	.loc 1 982 256 discriminator 8 view .LVU867
	strh	r2, [fp, #4]	@ movhi
	.loc 1 982 299 is_stmt 1 discriminator 8 view .LVU868
	.loc 1 982 348 discriminator 8 view .LVU869
.L199:
.LVL224:
	.loc 1 982 643 discriminator 12 view .LVU870
	.loc 1 983 13 discriminator 12 view .LVU871
	.loc 1 983 16 is_stmt 0 discriminator 12 view .LVU872
	cmp	r9, r3
	beq	.L202
	.loc 1 985 19 is_stmt 1 view .LVU873
	.loc 1 985 22 is_stmt 0 view .LVU874
	cmp	r8, #0
	beq	.L203
	.loc 1 985 43 is_stmt 1 discriminator 1 view .LVU875
	.loc 1 985 46 is_stmt 0 discriminator 1 view .LVU876
	cmp	r8, #2
	bls	.L287
	.loc 1 985 273 is_stmt 1 discriminator 4 view .LVU877
	.loc 1 985 382 is_stmt 0 discriminator 4 view .LVU878
	mov	r2, #16
	.loc 1 985 298 discriminator 4 view .LVU879
	ldrh	r3, [fp, #2]
	.loc 1 985 433 discriminator 4 view .LVU880
	sub	r8, r8, #3
.LVL225:
	.loc 1 985 298 discriminator 4 view .LVU881
	add	r3, r3, #1
	.loc 1 985 296 discriminator 4 view .LVU882
	strh	r3, [fp, #2]	@ movhi
	.loc 1 985 339 is_stmt 1 discriminator 4 view .LVU883
	.loc 1 985 382 is_stmt 0 discriminator 4 view .LVU884
	add	r3, r5, #664
	add	r3, sp, r3
	.loc 1 985 431 discriminator 4 view .LVU885
	strb	r8, [r3, #-319]
	.loc 1 985 382 discriminator 4 view .LVU886
	strb	r2, [r3, #-320]
	.loc 1 985 388 is_stmt 1 discriminator 4 view .LVU887
.LVL226:
	.loc 1 985 427 is_stmt 0 discriminator 4 view .LVU888
	add	r5, r5, #2
.LVL227:
.L203:
	.loc 1 985 494 is_stmt 1 discriminator 9 view .LVU889
	.loc 1 986 17 discriminator 9 view .LVU890
	mov	r8, #0
	add	r2, r4, r9, lsl #1
	.loc 1 986 47 is_stmt 0 discriminator 9 view .LVU891
	add	r2, r2, #34304
	.loc 1 986 49 discriminator 9 view .LVU892
	ldrh	r3, [r2, #18]
.LBE1542:
	.loc 1 969 19 discriminator 9 view .LVU893
	cmp	r6, r10
.LBB1543:
	.loc 1 986 49 discriminator 9 view .LVU894
	add	r3, r3, #1
	.loc 1 986 47 discriminator 9 view .LVU895
	strh	r3, [r2, #18]	@ movhi
	.loc 1 987 17 is_stmt 1 discriminator 9 view .LVU896
.LVL228:
	.loc 1 987 60 is_stmt 0 discriminator 9 view .LVU897
	add	r3, r5, #664
	add	r3, sp, r3
	mov	r7, r8
	strb	r9, [r3, #-320]
.LVL229:
	.loc 1 991 494 is_stmt 1 discriminator 9 view .LVU898
	.loc 1 994 9 discriminator 9 view .LVU899
	.loc 1 994 9 is_stmt 0 discriminator 9 view .LVU900
.LBE1543:
	.loc 1 969 48 is_stmt 1 discriminator 9 view .LVU901
	.loc 1 969 19 discriminator 9 view .LVU902
.LBB1544:
	.loc 1 987 56 is_stmt 0 discriminator 9 view .LVU903
	add	r5, r5, #1
.LVL230:
	.loc 1 987 56 discriminator 9 view .LVU904
.LBE1544:
	.loc 1 969 19 discriminator 9 view .LVU905
	bne	.L205
.LVL231:
.L284:
	.loc 1 996 5 is_stmt 1 view .LVU906
	.loc 1 996 8 is_stmt 0 view .LVU907
	cmp	r8, #0
	beq	.L206
	.loc 1 998 11 is_stmt 1 discriminator 1 view .LVU908
	.loc 1 998 35 discriminator 1 view .LVU909
	.loc 1 998 38 is_stmt 0 discriminator 1 view .LVU910
	cmp	r8, #2
	bhi	.L207
	.loc 1 998 63 is_stmt 1 discriminator 3 view .LVU911
	add	r3, r4, r9, lsl #1
	.loc 1 998 98 is_stmt 0 discriminator 3 view .LVU912
	add	r3, r3, #34304
	.loc 1 998 100 discriminator 3 view .LVU913
	ldrh	r2, [r3, #18]
	.loc 1 998 238 discriminator 3 view .LVU914
	add	r0, sp, #344
	.loc 1 998 100 discriminator 3 view .LVU915
	add	r2, r2, r8
	.loc 1 998 98 discriminator 3 view .LVU916
	strh	r2, [r3, #18]	@ movhi
	.loc 1 998 168 is_stmt 1 discriminator 3 view .LVU917
	.loc 1 998 175 discriminator 3 view .LVU918
.LVL232:
	.loc 1 998 238 is_stmt 0 discriminator 3 view .LVU919
	add	r0, r0, r5
	mov	r1, r9
	mov	r2, r8
	.loc 1 998 234 discriminator 3 view .LVU920
	add	r5, r5, r8
	.loc 1 998 238 discriminator 3 view .LVU921
	bl	memset
.LVL233:
.L208:
	.loc 1 1002 639 is_stmt 1 discriminator 12 view .LVU922
	.loc 1 1005 5 discriminator 12 view .LVU923
	mov	ip, #0
	mov	r3, #7
	mov	r2, #19
	mov	r1, #2
	mov	r0, r4
	str	ip, [sp]
	bl	tdefl_optimize_huffman_table
.LVL234:
	.loc 1 1007 5 discriminator 12 view .LVU924
.LBB1545:
	.loc 1 1007 10 discriminator 12 view .LVU925
	.loc 1 1007 28 discriminator 12 view .LVU926
	.loc 1 1007 4 discriminator 12 view .LVU927
	.loc 1 1007 6 discriminator 12 view .LVU928
	.loc 1 1007 31 is_stmt 0 discriminator 12 view .LVU929
	mov	r2, #2
	.loc 1 1007 35 discriminator 12 view .LVU930
	ldr	r1, [r4, #68]
	.loc 1 1007 22 discriminator 12 view .LVU931
	ldr	r3, [r4, #72]
.LBE1545:
.LBB1546:
	.loc 1 1009 122 discriminator 12 view .LVU932
	ldr	r0, [r4, #52]
.LBE1546:
.LBB1547:
	.loc 1 1007 22 discriminator 12 view .LVU933
	orr	r3, r3, r2, lsl r1
	.loc 1 1007 62 discriminator 12 view .LVU934
	add	r1, r1, r2
	.loc 1 1007 90 discriminator 12 view .LVU935
	cmp	r1, #7
	.loc 1 1007 62 discriminator 12 view .LVU936
	mov	ip, r1
.LBE1547:
.LBB1548:
	.loc 1 1009 103 discriminator 12 view .LVU937
	ldr	r2, [r4, #48]
.LBE1548:
.LBB1549:
	.loc 1 1007 22 discriminator 12 view .LVU938
	str	r3, [r4, #72]
	.loc 1 1007 49 is_stmt 1 discriminator 12 view .LVU939
	.loc 1 1007 62 is_stmt 0 discriminator 12 view .LVU940
	str	r1, [r4, #68]
	.loc 1 1007 70 is_stmt 1 discriminator 12 view .LVU941
	.loc 1 1007 90 discriminator 12 view .LVU942
	bls	.L214
.L213:
	.loc 1 1007 98 discriminator 8 view .LVU943
	.loc 1 1007 101 is_stmt 0 discriminator 8 view .LVU944
	cmp	r2, r0
	bcs	.L212
	.loc 1 1007 143 is_stmt 1 discriminator 4 view .LVU945
	.loc 1 1007 160 is_stmt 0 discriminator 4 view .LVU946
	add	r1, r2, #1
	str	r1, [r4, #48]
	.loc 1 1007 165 discriminator 4 view .LVU947
	strb	r3, [r2]
	.loc 1 1007 210 discriminator 4 view .LVU948
	ldr	r3, [r4, #72]
.LBE1549:
.LBB1550:
	.loc 1 1009 103 discriminator 4 view .LVU949
	ldr	r2, [r4, #48]
	.loc 1 1009 122 discriminator 4 view .LVU950
	ldr	r0, [r4, #52]
	ldr	r1, [r4, #68]
.L212:
	.loc 1 1009 122 discriminator 4 view .LVU951
.LBE1550:
.LBB1551:
	.loc 1 1007 194 is_stmt 1 discriminator 6 view .LVU952
	.loc 1 1007 230 is_stmt 0 discriminator 6 view .LVU953
	sub	r1, r1, #8
	.loc 1 1007 210 discriminator 6 view .LVU954
	lsr	r3, r3, #8
	.loc 1 1007 90 discriminator 6 view .LVU955
	cmp	r1, #7
	.loc 1 1007 230 discriminator 6 view .LVU956
	mov	ip, r1
	.loc 1 1007 210 discriminator 6 view .LVU957
	str	r3, [r4, #72]
	.loc 1 1007 217 is_stmt 1 discriminator 6 view .LVU958
	.loc 1 1007 230 is_stmt 0 discriminator 6 view .LVU959
	str	r1, [r4, #68]
	.loc 1 1007 90 is_stmt 1 discriminator 6 view .LVU960
	bhi	.L213
.L214:
	.loc 1 1007 90 is_stmt 0 discriminator 6 view .LVU961
.LBE1551:
	.loc 1 1007 8 is_stmt 1 discriminator 9 view .LVU962
	.loc 1 1009 5 discriminator 9 view .LVU963
.LBB1552:
	.loc 1 1009 10 discriminator 9 view .LVU964
.LVL235:
	.loc 1 1009 46 discriminator 9 view .LVU965
	.loc 1 1009 4 discriminator 9 view .LVU966
	.loc 1 1009 6 discriminator 9 view .LVU967
	.loc 1 1009 22 is_stmt 0 discriminator 9 view .LVU968
	ldr	r1, [sp, #16]
	orr	r3, r3, r1, lsl ip
	.loc 1 1009 62 discriminator 9 view .LVU969
	add	r1, ip, #5
	.loc 1 1009 90 discriminator 9 view .LVU970
	cmp	r1, #7
	.loc 1 1009 22 discriminator 9 view .LVU971
	str	r3, [r4, #72]
	.loc 1 1009 49 is_stmt 1 discriminator 9 view .LVU972
	.loc 1 1009 62 is_stmt 0 discriminator 9 view .LVU973
	str	r1, [r4, #68]
	.loc 1 1009 70 is_stmt 1 discriminator 9 view .LVU974
	.loc 1 1009 90 discriminator 9 view .LVU975
	bhi	.L218
	b	.L215
.L288:
	.loc 1 1009 103 is_stmt 0 view .LVU976
	ldr	r2, [r4, #48]
	.loc 1 1009 122 view .LVU977
	ldr	r0, [r4, #52]
.L218:
	.loc 1 1009 98 is_stmt 1 discriminator 8 view .LVU978
	.loc 1 1009 101 is_stmt 0 discriminator 8 view .LVU979
	cmp	r2, r0
	.loc 1 1009 143 is_stmt 1 discriminator 8 view .LVU980
	.loc 1 1009 160 is_stmt 0 discriminator 8 view .LVU981
	addcc	r1, r2, #1
	strcc	r1, [r4, #48]
	.loc 1 1009 165 discriminator 8 view .LVU982
	strbcc	r3, [r2]
	.loc 1 1009 230 discriminator 8 view .LVU983
	ldr	r2, [r4, #68]
	.loc 1 1009 210 discriminator 8 view .LVU984
	ldrcc	r3, [r4, #72]
	.loc 1 1009 194 is_stmt 1 discriminator 8 view .LVU985
	.loc 1 1009 230 is_stmt 0 discriminator 8 view .LVU986
	sub	r1, r2, #8
	.loc 1 1009 210 discriminator 8 view .LVU987
	lsr	r3, r3, #8
	.loc 1 1009 90 discriminator 8 view .LVU988
	cmp	r1, #7
	.loc 1 1009 210 discriminator 8 view .LVU989
	str	r3, [r4, #72]
	.loc 1 1009 217 is_stmt 1 discriminator 8 view .LVU990
	.loc 1 1009 230 is_stmt 0 discriminator 8 view .LVU991
	str	r1, [r4, #68]
	.loc 1 1009 90 is_stmt 1 discriminator 8 view .LVU992
	bhi	.L288
.LBE1552:
	.loc 1 1009 8 discriminator 9 view .LVU993
	.loc 1 1010 5 discriminator 9 view .LVU994
.LBB1553:
	.loc 1 1010 10 discriminator 9 view .LVU995
.LVL236:
	.loc 1 1010 45 discriminator 9 view .LVU996
	.loc 1 1010 4 discriminator 9 view .LVU997
	.loc 1 1010 6 discriminator 9 view .LVU998
	.loc 1 1010 22 is_stmt 0 discriminator 9 view .LVU999
	ldr	r0, [sp, #12]
	.loc 1 1010 62 discriminator 9 view .LVU1000
	sub	r2, r2, #3
	.loc 1 1010 22 discriminator 9 view .LVU1001
	orr	r3, r3, r0, lsl r1
	.loc 1 1010 90 discriminator 9 view .LVU1002
	cmp	r2, #7
	.loc 1 1010 62 discriminator 9 view .LVU1003
	strd	r2, [r4, #68]
	.loc 1 1010 70 is_stmt 1 discriminator 9 view .LVU1004
	.loc 1 1010 90 discriminator 9 view .LVU1005
	bls	.L219
.L279:
	.loc 1 1010 103 is_stmt 0 view .LVU1006
	ldr	r2, [r4, #48]
	.loc 1 1010 122 view .LVU1007
	ldr	r0, [r4, #52]
.L221:
	.loc 1 1010 98 is_stmt 1 discriminator 8 view .LVU1008
	.loc 1 1010 101 is_stmt 0 discriminator 8 view .LVU1009
	cmp	r2, r0
	.loc 1 1010 143 is_stmt 1 discriminator 8 view .LVU1010
	.loc 1 1010 160 is_stmt 0 discriminator 8 view .LVU1011
	addcc	r1, r2, #1
	strcc	r1, [r4, #48]
	.loc 1 1010 165 discriminator 8 view .LVU1012
	strbcc	r3, [r2]
	.loc 1 1010 230 discriminator 8 view .LVU1013
	ldr	r2, [r4, #68]
	.loc 1 1010 210 discriminator 8 view .LVU1014
	ldrcc	r3, [r4, #72]
	.loc 1 1010 194 is_stmt 1 discriminator 8 view .LVU1015
	.loc 1 1010 230 is_stmt 0 discriminator 8 view .LVU1016
	sub	r2, r2, #8
	.loc 1 1010 210 discriminator 8 view .LVU1017
	lsr	r3, r3, #8
	.loc 1 1010 90 discriminator 8 view .LVU1018
	cmp	r2, #7
	.loc 1 1010 230 discriminator 8 view .LVU1019
	strd	r2, [r4, #68]
	.loc 1 1010 90 is_stmt 1 discriminator 8 view .LVU1020
	bhi	.L279
.L219:
	.loc 1 1010 90 is_stmt 0 discriminator 8 view .LVU1021
.LBE1553:
	.loc 1 1002 581 view .LVU1022
	mov	r1, #15
	.loc 1 1012 26 view .LVU1023
	mov	r0, #18
	ldr	ip, .L298+8
	b	.L224
.LVL237:
.L289:
	.loc 1 1012 69 is_stmt 1 discriminator 2 view .LVU1024
	.loc 1 1012 48 is_stmt 0 discriminator 2 view .LVU1025
	subs	r0, r0, #1
.LVL238:
	.loc 1 1012 48 discriminator 2 view .LVU1026
	bcc	.L249
.LVL239:
	.loc 1 1013 74 view .LVU1027
	ldrb	r1, [ip], #-1	@ zero_extendqisi2
.LVL240:
.L224:
	.loc 1 1013 9 is_stmt 1 view .LVU1028
	.loc 1 1013 36 is_stmt 0 view .LVU1029
	add	r1, r4, r1
	add	r1, r1, #37120
	.loc 1 1013 12 view .LVU1030
	ldrb	r1, [r1, #82]	@ zero_extendqisi2
	cmp	r1, #0
	beq	.L289
	.loc 1 1015 62 view .LVU1031
	cmp	r0, #3
	movlt	r0, #3
.LVL241:
.LBB1554:
	.loc 1 1016 41 view .LVU1032
	sub	r1, r0, #3
	.loc 1 1016 22 view .LVU1033
	orr	r3, r3, r1, lsl r2
.L223:
.LBE1554:
	.loc 1 1015 5 is_stmt 1 view .LVU1034
	.loc 1 1016 5 view .LVU1035
.LBB1555:
	.loc 1 1016 10 view .LVU1036
.LVL242:
	.loc 1 1016 46 view .LVU1037
	.loc 1 1016 4 view .LVU1038
	.loc 1 1016 6 view .LVU1039
	.loc 1 1016 62 is_stmt 0 view .LVU1040
	add	r2, r2, #4
	.loc 1 1016 90 view .LVU1041
	cmp	r2, #7
	.loc 1 1016 62 view .LVU1042
	strd	r2, [r4, #68]
	.loc 1 1016 70 is_stmt 1 view .LVU1043
	.loc 1 1016 90 view .LVU1044
	bls	.L228
.L225:
	.loc 1 1016 98 discriminator 8 view .LVU1045
	.loc 1 1016 103 is_stmt 0 discriminator 8 view .LVU1046
	ldr	r2, [r4, #48]
	.loc 1 1016 101 discriminator 8 view .LVU1047
	ldr	r1, [r4, #52]
	cmp	r2, r1
	.loc 1 1016 143 is_stmt 1 discriminator 8 view .LVU1048
	.loc 1 1016 160 is_stmt 0 discriminator 8 view .LVU1049
	addcc	r1, r2, #1
	strcc	r1, [r4, #48]
	.loc 1 1016 165 discriminator 8 view .LVU1050
	strbcc	r3, [r2]
	.loc 1 1016 230 discriminator 8 view .LVU1051
	ldr	r2, [r4, #68]
	.loc 1 1016 210 discriminator 8 view .LVU1052
	ldrcc	r3, [r4, #72]
	.loc 1 1016 194 is_stmt 1 discriminator 8 view .LVU1053
	.loc 1 1016 230 is_stmt 0 discriminator 8 view .LVU1054
	sub	r2, r2, #8
	.loc 1 1016 210 discriminator 8 view .LVU1055
	lsr	r3, r3, #8
	.loc 1 1016 90 discriminator 8 view .LVU1056
	cmp	r2, #7
	.loc 1 1016 230 discriminator 8 view .LVU1057
	strd	r2, [r4, #68]
	.loc 1 1016 90 is_stmt 1 discriminator 8 view .LVU1058
	bhi	.L225
.L228:
.LVL243:
	.loc 1 1016 90 is_stmt 0 discriminator 8 view .LVU1059
.LBE1555:
	.loc 1 1017 24 is_stmt 1 view .LVU1060
	mov	r3, #16
	ldr	ip, .L298+12
	add	lr, ip, r0
.LVL244:
.L226:
	.loc 1 1018 9 view .LVU1061
.LBB1556:
	.loc 1 1018 14 view .LVU1062
	.loc 1 1018 52 is_stmt 0 view .LVU1063
	add	r3, r4, r3
	add	r3, r3, #37120
	.loc 1 1018 22 view .LVU1064
	ldrb	r1, [r3, #82]	@ zero_extendqisi2
.LVL245:
	.loc 1 1018 96 is_stmt 1 view .LVU1065
	.loc 1 1018 8 view .LVU1066
	.loc 1 1018 20 is_stmt 0 view .LVU1067
	cmp	r1, #7
	bhi	.L290
	.loc 1 1018 10 is_stmt 1 discriminator 2 view .LVU1068
	.loc 1 1018 39 is_stmt 0 discriminator 2 view .LVU1069
	ldr	r3, [r4, #68]
	.loc 1 1018 26 discriminator 2 view .LVU1070
	ldr	r2, [r4, #72]
	orr	r2, r2, r1, lsl r3
	.loc 1 1018 66 discriminator 2 view .LVU1071
	add	r3, r3, #3
	.loc 1 1018 94 discriminator 2 view .LVU1072
	cmp	r3, #7
	.loc 1 1018 26 discriminator 2 view .LVU1073
	str	r2, [r4, #72]
	.loc 1 1018 53 is_stmt 1 discriminator 2 view .LVU1074
	.loc 1 1018 66 is_stmt 0 discriminator 2 view .LVU1075
	str	r3, [r4, #68]
	.loc 1 1018 74 is_stmt 1 discriminator 2 view .LVU1076
	.loc 1 1018 94 discriminator 2 view .LVU1077
	bls	.L234
.LVL246:
.L230:
	.loc 1 1018 102 discriminator 8 view .LVU1078
	.loc 1 1018 107 is_stmt 0 discriminator 8 view .LVU1079
	ldr	r1, [r4, #48]
	.loc 1 1018 105 discriminator 8 view .LVU1080
	ldr	r0, [r4, #52]
	cmp	r1, r0
	.loc 1 1018 147 is_stmt 1 discriminator 8 view .LVU1081
	.loc 1 1018 164 is_stmt 0 discriminator 8 view .LVU1082
	addcc	r3, r1, #1
	strcc	r3, [r4, #48]
	.loc 1 1018 169 discriminator 8 view .LVU1083
	strbcc	r2, [r1]
	ldrcc	r3, [r4, #68]
	.loc 1 1018 198 is_stmt 1 discriminator 8 view .LVU1084
	.loc 1 1018 214 is_stmt 0 discriminator 8 view .LVU1085
	ldrcc	r2, [r4, #72]
	.loc 1 1018 234 discriminator 8 view .LVU1086
	sub	r3, r3, #8
	.loc 1 1018 214 discriminator 8 view .LVU1087
	lsr	r2, r2, #8
	.loc 1 1018 94 discriminator 8 view .LVU1088
	cmp	r3, #7
	.loc 1 1018 214 discriminator 8 view .LVU1089
	str	r2, [r4, #72]
	.loc 1 1018 221 is_stmt 1 discriminator 8 view .LVU1090
	.loc 1 1018 234 is_stmt 0 discriminator 8 view .LVU1091
	str	r3, [r4, #68]
	.loc 1 1018 94 is_stmt 1 discriminator 8 view .LVU1092
	bhi	.L230
.L234:
	.loc 1 1018 94 is_stmt 0 discriminator 8 view .LVU1093
.LBE1556:
	.loc 1 1018 12 is_stmt 1 view .LVU1094
	.loc 1 1017 44 view .LVU1095
.LVL247:
	.loc 1 1017 24 view .LVU1096
	cmp	ip, lr
	beq	.L291
.LBB1557:
	.loc 1 1018 90 is_stmt 0 view .LVU1097
	ldrb	r3, [ip], #1	@ zero_extendqisi2
.LVL248:
	.loc 1 1018 90 view .LVU1098
	b	.L226
.LVL249:
.L202:
	.loc 1 1018 90 view .LVU1099
.LBE1557:
.LBB1558:
	.loc 1 989 18 is_stmt 1 view .LVU1100
	.loc 1 989 21 is_stmt 0 view .LVU1101
	add	r8, r8, #1
.LVL250:
	.loc 1 989 21 view .LVU1102
	cmp	r8, #6
	movne	r7, #0
	bne	.L198
	.loc 1 991 19 is_stmt 1 discriminator 4 view .LVU1103
	.loc 1 991 43 discriminator 4 view .LVU1104
	.loc 1 991 273 discriminator 4 view .LVU1105
	.loc 1 991 382 is_stmt 0 discriminator 4 view .LVU1106
	mov	r1, #16
	add	r2, r5, #664
	add	r2, sp, r2
	strb	r1, [r2, #-320]
	.loc 1 991 486 discriminator 4 view .LVU1107
	mov	r8, #0
.LVL251:
	.loc 1 991 431 discriminator 4 view .LVU1108
	mov	r2, #3
	.loc 1 991 298 discriminator 4 view .LVU1109
	ldrh	r3, [fp, #2]
	.loc 1 991 431 discriminator 4 view .LVU1110
	mov	r7, r8
	.loc 1 991 298 discriminator 4 view .LVU1111
	add	r3, r3, #1
	.loc 1 991 296 discriminator 4 view .LVU1112
	strh	r3, [fp, #2]	@ movhi
	.loc 1 991 339 is_stmt 1 discriminator 4 view .LVU1113
	.loc 1 991 378 is_stmt 0 discriminator 4 view .LVU1114
	add	r3, r5, #1
.LVL252:
	.loc 1 991 388 is_stmt 1 discriminator 4 view .LVU1115
	.loc 1 991 431 is_stmt 0 discriminator 4 view .LVU1116
	add	r3, r3, #664
.LVL253:
	.loc 1 991 431 discriminator 4 view .LVU1117
	add	r3, sp, r3
.LVL254:
	.loc 1 991 431 discriminator 4 view .LVU1118
	strb	r2, [r3, #-320]
	.loc 1 991 427 discriminator 4 view .LVU1119
	add	r5, r5, #2
.LVL255:
	.loc 1 991 469 is_stmt 1 discriminator 4 view .LVU1120
	.loc 1 991 469 is_stmt 0 discriminator 4 view .LVU1121
	b	.L198
.LVL256:
.L201:
	.loc 1 982 431 is_stmt 1 discriminator 9 view .LVU1122
	.loc 1 982 585 is_stmt 0 discriminator 9 view .LVU1123
	mov	r5, r1
	.loc 1 982 540 discriminator 9 view .LVU1124
	mov	r1, #18
	.loc 1 982 589 discriminator 9 view .LVU1125
	add	r2, r2, #664
	add	r2, sp, r2
	.loc 1 982 591 discriminator 9 view .LVU1126
	sub	r7, r7, #11
	.loc 1 982 540 discriminator 9 view .LVU1127
	strb	r1, [r0, #-320]
	.loc 1 982 589 discriminator 9 view .LVU1128
	strb	r7, [r2, #-320]
	.loc 1 982 456 discriminator 9 view .LVU1129
	ldrh	r2, [fp, #6]
	add	r2, r2, #1
	.loc 1 982 454 discriminator 9 view .LVU1130
	strh	r2, [fp, #6]	@ movhi
	.loc 1 982 497 is_stmt 1 discriminator 9 view .LVU1131
	.loc 1 982 546 discriminator 9 view .LVU1132
.LVL257:
	.loc 1 982 546 is_stmt 0 discriminator 9 view .LVU1133
	b	.L199
.LVL258:
.L283:
	.loc 1 974 67 is_stmt 1 discriminator 3 view .LVU1134
	add	r2, r4, r3, lsl #1
	.loc 1 974 102 is_stmt 0 discriminator 3 view .LVU1135
	add	r2, r2, #34304
	.loc 1 974 242 discriminator 3 view .LVU1136
	mov	r1, r3
	.loc 1 974 104 discriminator 3 view .LVU1137
	ldrh	r3, [r2, #18]
	.loc 1 974 242 discriminator 3 view .LVU1138
	add	r0, sp, #344
	.loc 1 974 104 discriminator 3 view .LVU1139
	add	r3, r3, r8
	.loc 1 974 102 discriminator 3 view .LVU1140
	strh	r3, [r2, #18]	@ movhi
	.loc 1 974 172 is_stmt 1 discriminator 3 view .LVU1141
	.loc 1 974 179 discriminator 3 view .LVU1142
.LVL259:
	.loc 1 974 242 is_stmt 0 discriminator 3 view .LVU1143
	add	r0, r0, r5
	mov	r2, r8
	.loc 1 974 238 discriminator 3 view .LVU1144
	add	r5, r5, r8
	.loc 1 974 242 discriminator 3 view .LVU1145
	bl	memset
.LVL260:
	.loc 1 974 242 discriminator 3 view .LVU1146
	b	.L196
.LVL261:
.L286:
	.loc 1 982 57 is_stmt 1 discriminator 3 view .LVU1147
	str	r3, [sp, #20]
	.loc 1 982 79 is_stmt 0 discriminator 3 view .LVU1148
	ldr	r3, [sp, #8]
	.loc 1 982 196 discriminator 3 view .LVU1149
	add	r0, sp, #344
	.loc 1 982 79 discriminator 3 view .LVU1150
	add	r1, r3, #1552
	.loc 1 982 81 discriminator 3 view .LVU1151
	ldrh	r2, [r1, #2]
	.loc 1 982 196 discriminator 3 view .LVU1152
	add	r0, r0, r5
	.loc 1 982 81 discriminator 3 view .LVU1153
	add	r2, r2, r7
	.loc 1 982 79 discriminator 3 view .LVU1154
	strh	r2, [r1, #2]	@ movhi
	.loc 1 982 131 is_stmt 1 discriminator 3 view .LVU1155
	.loc 1 982 138 discriminator 3 view .LVU1156
.LVL262:
	.loc 1 982 196 is_stmt 0 discriminator 3 view .LVU1157
	mov	r2, r7
	mov	r1, #0
	bl	memset
.LVL263:
	.loc 1 982 192 discriminator 3 view .LVU1158
	add	r5, r5, r7
	ldr	r3, [sp, #20]
	b	.L199
.LVL264:
.L206:
	.loc 1 982 192 discriminator 3 view .LVU1159
.LBE1558:
	.loc 1 1002 11 is_stmt 1 view .LVU1160
	.loc 1 1002 14 is_stmt 0 view .LVU1161
	cmp	r7, #0
	beq	.L208
	.loc 1 1002 30 is_stmt 1 discriminator 1 view .LVU1162
	.loc 1 1002 33 is_stmt 0 discriminator 1 view .LVU1163
	cmp	r7, #2
	bls	.L292
	.loc 1 1002 207 discriminator 4 view .LVU1164
	cmp	r7, #10
	.loc 1 998 370 discriminator 4 view .LVU1165
	add	r2, r5, #1
	.loc 1 1002 204 is_stmt 1 discriminator 4 view .LVU1166
	.loc 1 1002 389 is_stmt 0 discriminator 4 view .LVU1167
	uxtb	r7, r7
.LVL265:
	.loc 1 998 419 discriminator 4 view .LVU1168
	add	r3, r5, #2
	.loc 1 1002 207 discriminator 4 view .LVU1169
	bhi	.L210
	.loc 1 1002 229 is_stmt 1 discriminator 8 view .LVU1170
	.loc 1 1002 338 is_stmt 0 discriminator 8 view .LVU1171
	add	r0, r5, #664
	.loc 1 1002 383 discriminator 8 view .LVU1172
	mov	r5, r3
	.loc 1 1002 338 discriminator 8 view .LVU1173
	mov	r3, #17
	.loc 1 1002 252 discriminator 8 view .LVU1174
	ldr	r1, [sp, #8]
	.loc 1 1002 338 discriminator 8 view .LVU1175
	add	r0, sp, r0
	.loc 1 1002 252 discriminator 8 view .LVU1176
	add	r1, r1, #1584
	.loc 1 1002 338 discriminator 8 view .LVU1177
	strb	r3, [r0, #-320]
	.loc 1 1002 254 discriminator 8 view .LVU1178
	ldrh	r3, [r1, #4]
	.loc 1 1002 387 discriminator 8 view .LVU1179
	add	r2, r2, #664
	add	r2, sp, r2
	.loc 1 1002 389 discriminator 8 view .LVU1180
	sub	r7, r7, #3
	.loc 1 1002 254 discriminator 8 view .LVU1181
	add	r3, r3, #1
	.loc 1 1002 387 discriminator 8 view .LVU1182
	strb	r7, [r2, #-320]
	.loc 1 1002 252 discriminator 8 view .LVU1183
	strh	r3, [r1, #4]	@ movhi
	.loc 1 1002 295 is_stmt 1 discriminator 8 view .LVU1184
	.loc 1 1002 344 discriminator 8 view .LVU1185
	.loc 1 1002 344 is_stmt 0 discriminator 8 view .LVU1186
	b	.L208
.LVL266:
.L291:
	.loc 1 1020 34 view .LVU1187
	mov	r6, #0
.LBB1559:
.LBB1560:
	.loc 1 1024 21 view .LVU1188
	mov	r9, #1
.LVL267:
	.loc 1 1024 21 view .LVU1189
.LBE1560:
.LBB1561:
	.loc 1 1026 104 view .LVU1190
	ldr	r10, .L298+16
	add	r0, sp, #344
.LVL268:
.L232:
	.loc 1 1026 104 view .LVU1191
.LBE1561:
.LBE1559:
	.loc 1 1020 63 discriminator 9 view .LVU1192
	cmp	r5, r6
	add	r7, r0, r6
.LVL269:
.LBB1566:
	.loc 1 1026 16 is_stmt 1 discriminator 9 view .LVU1193
.LBE1566:
	.loc 1 1020 63 discriminator 9 view .LVU1194
	bls	.L293
.L245:
.LBB1567:
	.loc 1 1022 9 view .LVU1195
	.loc 1 1022 41 is_stmt 0 view .LVU1196
	ldrb	lr, [r7], #1	@ zero_extendqisi2
	.loc 1 1022 65 view .LVU1197
	add	r8, r6, #1
.LVL270:
	.loc 1 1023 8 is_stmt 1 view .LVU1198
	.loc 1 1023 20 is_stmt 0 view .LVU1199
	cmp	lr, #18
	bhi	.L294
	.loc 1 1024 9 is_stmt 1 view .LVU1200
.LBB1562:
	.loc 1 1024 14 view .LVU1201
	.loc 1 1024 92 is_stmt 0 view .LVU1202
	add	r2, r4, lr
	.loc 1 1024 47 view .LVU1203
	add	r3, lr, #17920
	.loc 1 1024 92 view .LVU1204
	add	r2, r2, #37120
	.loc 1 1024 63 view .LVU1205
	ldrb	r1, [r2, #82]	@ zero_extendqisi2
	.loc 1 1024 47 view .LVU1206
	add	r3, r3, #104
	add	r3, r4, r3, lsl #1
	.loc 1 1024 22 view .LVU1207
	ldrh	ip, [r3, #2]
.LVL271:
	.loc 1 1024 55 is_stmt 1 view .LVU1208
	.loc 1 1024 8 view .LVU1209
	.loc 1 1024 21 is_stmt 0 view .LVU1210
	lsl	r3, r9, r1
	.loc 1 1024 29 view .LVU1211
	sub	r3, r3, #1
	.loc 1 1024 20 view .LVU1212
	cmp	r3, ip
	bcc	.L295
	.loc 1 1024 10 is_stmt 1 discriminator 2 view .LVU1213
	.loc 1 1024 39 is_stmt 0 discriminator 2 view .LVU1214
	ldr	r3, [r4, #68]
	.loc 1 1024 26 discriminator 2 view .LVU1215
	ldr	r2, [r4, #72]
	.loc 1 1024 66 discriminator 2 view .LVU1216
	add	r1, r3, r1
.LVL272:
	.loc 1 1024 26 discriminator 2 view .LVU1217
	orr	r2, r2, ip, lsl r3
	.loc 1 1024 94 discriminator 2 view .LVU1218
	cmp	r1, #7
	.loc 1 1024 66 discriminator 2 view .LVU1219
	mov	r3, r1
	.loc 1 1024 26 discriminator 2 view .LVU1220
	str	r2, [r4, #72]
.LVL273:
	.loc 1 1024 53 is_stmt 1 discriminator 2 view .LVU1221
	.loc 1 1024 66 is_stmt 0 discriminator 2 view .LVU1222
	str	r1, [r4, #68]
	.loc 1 1024 74 is_stmt 1 discriminator 2 view .LVU1223
	.loc 1 1024 94 discriminator 2 view .LVU1224
	bls	.L237
.LVL274:
.L239:
	.loc 1 1024 102 discriminator 8 view .LVU1225
	.loc 1 1024 107 is_stmt 0 discriminator 8 view .LVU1226
	ldr	r1, [r4, #48]
	.loc 1 1024 105 discriminator 8 view .LVU1227
	ldr	ip, [r4, #52]
	cmp	r1, ip
	.loc 1 1024 147 is_stmt 1 discriminator 8 view .LVU1228
	.loc 1 1024 164 is_stmt 0 discriminator 8 view .LVU1229
	addcc	r3, r1, #1
	strcc	r3, [r4, #48]
	.loc 1 1024 169 discriminator 8 view .LVU1230
	strbcc	r2, [r1]
	ldrcc	r3, [r4, #68]
	.loc 1 1024 198 is_stmt 1 discriminator 8 view .LVU1231
	.loc 1 1024 214 is_stmt 0 discriminator 8 view .LVU1232
	ldrcc	r2, [r4, #72]
	.loc 1 1024 234 discriminator 8 view .LVU1233
	sub	r3, r3, #8
	.loc 1 1024 214 discriminator 8 view .LVU1234
	lsr	r2, r2, #8
	.loc 1 1024 94 discriminator 8 view .LVU1235
	cmp	r3, #7
	.loc 1 1024 234 discriminator 8 view .LVU1236
	mov	r1, r3
	.loc 1 1024 214 discriminator 8 view .LVU1237
	str	r2, [r4, #72]
	.loc 1 1024 221 is_stmt 1 discriminator 8 view .LVU1238
	.loc 1 1024 234 is_stmt 0 discriminator 8 view .LVU1239
	str	r3, [r4, #68]
	.loc 1 1024 94 is_stmt 1 discriminator 8 view .LVU1240
	bhi	.L239
.L237:
	.loc 1 1024 94 is_stmt 0 discriminator 8 view .LVU1241
.LBE1562:
	.loc 1 1024 12 is_stmt 1 discriminator 9 view .LVU1242
	.loc 1 1025 9 discriminator 9 view .LVU1243
	.loc 1 1025 12 is_stmt 0 discriminator 9 view .LVU1244
	cmp	lr, #15
	bhi	.L296
	.loc 1 1022 65 view .LVU1245
	mov	r6, r8
.LVL275:
	.loc 1 1026 16 is_stmt 1 view .LVU1246
.LBE1567:
	.loc 1 1020 63 view .LVU1247
	cmp	r5, r6
	bhi	.L245
.LVL276:
.L293:
	.loc 1 1028 1 is_stmt 0 view .LVU1248
	add	sp, sp, #668
	.cfi_remember_state
	.cfi_def_cfa_offset 36
	@ sp needed
	pop	{r4, r5, r6, r7, r8, r9, r10, fp, pc}
.LVL277:
.L296:
	.cfi_restore_state
.LBB1568:
	.loc 1 1026 13 is_stmt 1 view .LVU1249
.LBB1563:
	.loc 1 1026 18 view .LVU1250
	.loc 1 1026 104 is_stmt 0 view .LVU1251
	add	lr, r10, lr
.LVL278:
	.loc 1 1026 50 view .LVU1252
	add	r2, r8, #664
	.loc 1 1026 87 view .LVU1253
	ldrb	r3, [lr, #-16]	@ zero_extendqisi2
	.loc 1 1026 50 view .LVU1254
	add	r8, sp, r2
.LVL279:
	.loc 1 1026 26 view .LVU1255
	ldrb	ip, [r8, #-320]	@ zero_extendqisi2
	.loc 1 1026 25 view .LVU1256
	lsl	r2, r9, r3
.LVL280:
	.loc 1 1026 33 view .LVU1257
	sub	r2, r2, #1
	.loc 1 1026 24 view .LVU1258
	cmp	r2, ip
	.loc 1 1026 74 view .LVU1259
	add	r6, r6, #2
.LVL281:
	.loc 1 1026 79 is_stmt 1 view .LVU1260
	.loc 1 1026 12 view .LVU1261
	.loc 1 1026 24 is_stmt 0 view .LVU1262
	bcc	.L297
	.loc 1 1026 14 is_stmt 1 discriminator 2 view .LVU1263
	.loc 1 1026 30 is_stmt 0 discriminator 2 view .LVU1264
	ldr	r2, [r4, #72]
	.loc 1 1026 70 discriminator 2 view .LVU1265
	add	r3, r3, r1
.LVL282:
	.loc 1 1026 30 discriminator 2 view .LVU1266
	orr	r2, r2, ip, lsl r1
	.loc 1 1026 98 discriminator 2 view .LVU1267
	cmp	r3, #7
	.loc 1 1026 70 discriminator 2 view .LVU1268
	str	r3, [r4, #68]
	.loc 1 1026 30 discriminator 2 view .LVU1269
	str	r2, [r4, #72]
	.loc 1 1026 57 is_stmt 1 discriminator 2 view .LVU1270
	.loc 1 1026 78 discriminator 2 view .LVU1271
	.loc 1 1026 98 discriminator 2 view .LVU1272
	bls	.L232
.L242:
	.loc 1 1026 106 discriminator 8 view .LVU1273
	.loc 1 1026 111 is_stmt 0 discriminator 8 view .LVU1274
	ldr	r3, [r4, #48]
	.loc 1 1026 109 discriminator 8 view .LVU1275
	ldr	r1, [r4, #52]
	cmp	r3, r1
	.loc 1 1026 151 is_stmt 1 discriminator 8 view .LVU1276
	.loc 1 1026 168 is_stmt 0 discriminator 8 view .LVU1277
	addcc	r1, r3, #1
	strcc	r1, [r4, #48]
	.loc 1 1026 173 discriminator 8 view .LVU1278
	strbcc	r2, [r3]
	.loc 1 1026 238 discriminator 8 view .LVU1279
	ldr	r3, [r4, #68]
	.loc 1 1026 218 discriminator 8 view .LVU1280
	ldrcc	r2, [r4, #72]
	.loc 1 1026 202 is_stmt 1 discriminator 8 view .LVU1281
	.loc 1 1026 238 is_stmt 0 discriminator 8 view .LVU1282
	sub	r3, r3, #8
	.loc 1 1026 218 discriminator 8 view .LVU1283
	lsr	r2, r2, #8
	.loc 1 1026 98 discriminator 8 view .LVU1284
	cmp	r3, #7
	.loc 1 1026 218 discriminator 8 view .LVU1285
	str	r2, [r4, #72]
	.loc 1 1026 225 is_stmt 1 discriminator 8 view .LVU1286
	.loc 1 1026 238 is_stmt 0 discriminator 8 view .LVU1287
	str	r3, [r4, #68]
	.loc 1 1026 98 is_stmt 1 discriminator 8 view .LVU1288
	bhi	.L242
	b	.L232
.LVL283:
.L207:
	.loc 1 1026 98 is_stmt 0 discriminator 8 view .LVU1289
.LBE1563:
.LBE1568:
	.loc 1 998 265 is_stmt 1 discriminator 4 view .LVU1290
	.loc 1 998 374 is_stmt 0 discriminator 4 view .LVU1291
	mov	r1, #16
	.loc 1 998 288 discriminator 4 view .LVU1292
	ldr	r3, [sp, #8]
	.loc 1 998 425 discriminator 4 view .LVU1293
	sub	r8, r8, #3
.LVL284:
	.loc 1 998 288 discriminator 4 view .LVU1294
	add	r2, r3, #1584
	.loc 1 998 290 discriminator 4 view .LVU1295
	ldrh	r3, [r2, #2]
	add	r3, r3, #1
	.loc 1 998 288 discriminator 4 view .LVU1296
	strh	r3, [r2, #2]	@ movhi
	.loc 1 998 331 is_stmt 1 discriminator 4 view .LVU1297
	.loc 1 998 374 is_stmt 0 discriminator 4 view .LVU1298
	add	r3, r5, #648
	add	r3, r3, r1
	add	r3, sp, r3
	.loc 1 998 423 discriminator 4 view .LVU1299
	strb	r8, [r3, #-319]
	.loc 1 998 374 discriminator 4 view .LVU1300
	strb	r1, [r3, #-320]
	.loc 1 998 380 is_stmt 1 discriminator 4 view .LVU1301
.LVL285:
	.loc 1 998 419 is_stmt 0 discriminator 4 view .LVU1302
	add	r5, r5, #2
.LVL286:
	.loc 1 998 419 discriminator 4 view .LVU1303
	b	.L208
.LVL287:
.L249:
	.loc 1 998 419 discriminator 4 view .LVU1304
	mov	r0, #3
.LVL288:
	.loc 1 998 419 discriminator 4 view .LVU1305
	b	.L223
.LVL289:
.L287:
.LBB1569:
	.loc 1 985 71 is_stmt 1 discriminator 3 view .LVU1306
	add	r2, r4, r3, lsl #1
	.loc 1 985 106 is_stmt 0 discriminator 3 view .LVU1307
	add	r2, r2, #34304
	.loc 1 985 246 discriminator 3 view .LVU1308
	mov	r1, r3
	.loc 1 985 108 discriminator 3 view .LVU1309
	ldrh	r3, [r2, #18]
	.loc 1 985 246 discriminator 3 view .LVU1310
	add	r0, sp, #344
	.loc 1 985 108 discriminator 3 view .LVU1311
	add	r3, r3, r8
	.loc 1 985 106 discriminator 3 view .LVU1312
	strh	r3, [r2, #18]	@ movhi
	.loc 1 985 176 is_stmt 1 discriminator 3 view .LVU1313
	.loc 1 985 183 discriminator 3 view .LVU1314
.LVL290:
	.loc 1 985 246 is_stmt 0 discriminator 3 view .LVU1315
	add	r0, r0, r5
	mov	r2, r8
	.loc 1 985 242 discriminator 3 view .LVU1316
	add	r5, r5, r8
	.loc 1 985 246 discriminator 3 view .LVU1317
	bl	memset
.LVL291:
	.loc 1 985 246 discriminator 3 view .LVU1318
	b	.L203
.LVL292:
.L282:
	.loc 1 985 246 discriminator 3 view .LVU1319
.LBE1569:
	mov	fp, r6
	str	r1, [sp, #12]
	b	.L193
.LVL293:
.L280:
	.loc 1 985 246 discriminator 3 view .LVU1320
	mov	r7, r5
	str	r1, [sp, #16]
	b	.L191
.LVL294:
.L292:
	.loc 1 1002 53 is_stmt 1 discriminator 3 view .LVU1321
	.loc 1 1002 75 is_stmt 0 discriminator 3 view .LVU1322
	ldr	r3, [sp, #8]
	.loc 1 1002 192 discriminator 3 view .LVU1323
	add	r0, sp, #344
	.loc 1 1002 75 discriminator 3 view .LVU1324
	add	r2, r3, #1552
	.loc 1 1002 77 discriminator 3 view .LVU1325
	ldrh	r3, [r2, #2]
	.loc 1 1002 192 discriminator 3 view .LVU1326
	mov	r1, r8
	.loc 1 1002 77 discriminator 3 view .LVU1327
	add	r3, r3, r7
	.loc 1 1002 75 discriminator 3 view .LVU1328
	strh	r3, [r2, #2]	@ movhi
	.loc 1 1002 127 is_stmt 1 discriminator 3 view .LVU1329
	.loc 1 1002 134 discriminator 3 view .LVU1330
.LVL295:
	.loc 1 1002 192 is_stmt 0 discriminator 3 view .LVU1331
	add	r0, r0, r5
	mov	r2, r7
	.loc 1 1002 188 discriminator 3 view .LVU1332
	add	r5, r5, r7
	.loc 1 1002 192 discriminator 3 view .LVU1333
	bl	memset
.LVL296:
	.loc 1 1002 192 discriminator 3 view .LVU1334
	b	.L208
.LVL297:
.L215:
	.loc 1 1009 8 is_stmt 1 view .LVU1335
	.loc 1 1010 5 view .LVU1336
.LBB1570:
	.loc 1 1010 10 view .LVU1337
	.loc 1 1010 45 view .LVU1338
	.loc 1 1010 4 view .LVU1339
	.loc 1 1010 6 view .LVU1340
	.loc 1 1010 22 is_stmt 0 view .LVU1341
	ldr	lr, [sp, #12]
	.loc 1 1010 62 view .LVU1342
	add	ip, ip, #10
	.loc 1 1010 22 view .LVU1343
	orr	r3, r3, lr, lsl r1
	.loc 1 1010 62 view .LVU1344
	str	ip, [r4, #68]
	.loc 1 1010 22 view .LVU1345
	str	r3, [r4, #72]
	.loc 1 1010 49 is_stmt 1 view .LVU1346
	.loc 1 1010 70 view .LVU1347
	.loc 1 1010 90 view .LVU1348
	b	.L221
.LVL298:
.L210:
	.loc 1 1010 90 is_stmt 0 view .LVU1349
.LBE1570:
	.loc 1 1002 427 is_stmt 1 discriminator 9 view .LVU1350
	.loc 1 1002 536 is_stmt 0 discriminator 9 view .LVU1351
	mov	r0, #18
	add	r1, r5, #664
	.loc 1 1002 581 discriminator 9 view .LVU1352
	mov	r5, r3
	.loc 1 1002 450 discriminator 9 view .LVU1353
	ldr	r3, [sp, #8]
	.loc 1 1002 585 discriminator 9 view .LVU1354
	add	r2, r2, #664
	.loc 1 1002 450 discriminator 9 view .LVU1355
	add	r3, r3, #1584
	.loc 1 1002 585 discriminator 9 view .LVU1356
	add	r2, sp, r2
	.loc 1 1002 536 discriminator 9 view .LVU1357
	add	r1, sp, r1
	.loc 1 1002 587 discriminator 9 view .LVU1358
	sub	r7, r7, #11
	.loc 1 1002 536 discriminator 9 view .LVU1359
	strb	r0, [r1, #-320]
	.loc 1 1002 585 discriminator 9 view .LVU1360
	strb	r7, [r2, #-320]
	.loc 1 1002 452 discriminator 9 view .LVU1361
	ldrh	r2, [r3, #6]
	add	r2, r2, #1
	.loc 1 1002 450 discriminator 9 view .LVU1362
	strh	r2, [r3, #6]	@ movhi
	.loc 1 1002 493 is_stmt 1 discriminator 9 view .LVU1363
	.loc 1 1002 542 discriminator 9 view .LVU1364
	.loc 1 1002 542 is_stmt 0 discriminator 9 view .LVU1365
	b	.L208
.LVL299:
.L297:
.LBB1571:
.LBB1564:
	.loc 1 1026 26 discriminator 1 view .LVU1366
	ldr	r3, .L298+20
.LVL300:
	.loc 1 1026 26 discriminator 1 view .LVU1367
	ldr	r2, .L298+24
	ldr	r1, .L298+28
	ldr	r0, .L298+32
	bl	__assert_func
.LVL301:
.L290:
	.loc 1 1026 26 discriminator 1 view .LVU1368
.LBE1564:
.LBE1571:
.LBB1572:
	.loc 1 1018 22 discriminator 1 view .LVU1369
	ldr	r3, .L298+20
	ldr	r2, .L298+24
	ldr	r1, .L298+36
.LVL302:
	.loc 1 1018 22 discriminator 1 view .LVU1370
	ldr	r0, .L298+32
	bl	__assert_func
.LVL303:
.L295:
	.loc 1 1018 22 discriminator 1 view .LVU1371
.LBE1572:
.LBB1573:
.LBB1565:
	.loc 1 1024 22 discriminator 1 view .LVU1372
	mov	r1, #1024
.LVL304:
	.loc 1 1024 22 discriminator 1 view .LVU1373
	ldr	r3, .L298+20
	ldr	r2, .L298+24
.LVL305:
	.loc 1 1024 22 discriminator 1 view .LVU1374
	ldr	r0, .L298+32
	bl	__assert_func
.LVL306:
.L294:
	.loc 1 1024 22 discriminator 1 view .LVU1375
.LBE1565:
	.loc 1 1023 22 discriminator 1 view .LVU1376
	ldr	r3, .L298+40
	ldr	r2, .L298+24
	ldr	r1, .L298+44
	ldr	r0, .L298+32
	bl	__assert_func
.LVL307:
.L299:
	.loc 1 1023 22 discriminator 1 view .LVU1377
	.align	2
.L298:
	.word	286
	.word	257
	.word	.LANCHOR0+17
	.word	.LANCHOR0+1
	.word	.LC3
	.word	.LC0
	.word	.LANCHOR0+20
	.word	1026
	.word	.LC1
	.word	1018
	.word	.LC2
	.word	1023
.LBE1573:
	.cfi_endproc
.LFE29:
	.size	tdefl_start_dynamic_block, .-tdefl_start_dynamic_block
	.section	.rodata.str1.4
	.align	2
.LC4:
	.ascii	"d->m_huff_code_sizes[0][s_tdefl_len_sym[match_len]]"
	.ascii	"\000"
	.align	2
.LC5:
	.ascii	"d->m_huff_code_sizes[1][sym]\000"
	.align	2
.LC6:
	.ascii	"d->m_huff_code_sizes[0][lit]\000"
	.section	.text.tdefl_compress_block,"ax",%progbits
	.align	2
	.syntax unified
	.arm
	.fpu vfp
	.type	tdefl_compress_block, %function
tdefl_compress_block:
.LVL308:
.LFB32:
	.loc 1 1198 1 is_stmt 1 view -0
	.cfi_startproc
	@ args = 0, pretend = 0, frame = 0
	@ frame_needed = 0, uses_anonymous_args = 0
	.loc 1 1199 5 view .LVU1379
	.loc 1 1198 1 is_stmt 0 view .LVU1380
	push	{r4, r5, r6, r7, r8, r9, lr}
	.cfi_def_cfa_offset 28
	.cfi_offset 4, -28
	.cfi_offset 5, -24
	.cfi_offset 6, -20
	.cfi_offset 7, -16
	.cfi_offset 8, -12
	.cfi_offset 9, -8
	.cfi_offset 14, -4
	.loc 1 1199 8 view .LVU1381
	cmp	r1, #0
	.loc 1 1198 1 view .LVU1382
	mov	r4, r0
	sub	sp, sp, #12
	.cfi_def_cfa_offset 40
	.loc 1 1199 8 view .LVU1383
	beq	.L301
	.loc 1 1200 9 is_stmt 1 view .LVU1384
.LVL309:
.LBB1587:
.LBI1587:
	.loc 1 1030 13 view .LVU1385
.LBB1588:
	.loc 1 1032 5 view .LVU1386
	.loc 1 1033 5 view .LVU1387
	.loc 1 1035 5 view .LVU1388
	.loc 1 1035 19 view .LVU1389
	.loc 1 1036 14 is_stmt 0 view .LVU1390
	add	r6, r0, #36608
	mov	r2, #144
	mov	r1, #8
.LVL310:
	.loc 1 1036 14 view .LVU1391
	add	r0, r6, #18
.LVL311:
	.loc 1 1036 14 view .LVU1392
	bl	memset
.LVL312:
	.loc 1 1040 14 view .LVU1393
	add	r5, r4, #36864
	.loc 1 1038 14 view .LVU1394
	mov	r2, #112
	mov	r1, #9
	add	r0, r6, #162
	bl	memset
.LVL313:
	.loc 1 1040 14 view .LVU1395
	mov	r2, #24
	mov	r1, #7
	add	r0, r5, #18
	bl	memset
.LVL314:
	.loc 1 1042 14 view .LVU1396
	ldr	r3, .L362
	.loc 1 1044 5 view .LVU1397
	add	r0, r5, #50
	.loc 1 1042 14 view .LVU1398
	str	r3, [r5, #42]	@ unaligned
	str	r3, [r5, #46]	@ unaligned
	.loc 1 1044 5 is_stmt 1 view .LVU1399
	.loc 1 1046 5 is_stmt 0 view .LVU1400
	mov	r5, #1
	.loc 1 1044 5 view .LVU1401
	mov	r2, #32
	mov	r1, #5
	bl	memset
.LVL315:
	.loc 1 1046 5 is_stmt 1 view .LVU1402
	mov	r3, #15
	mov	r2, #288
	mov	r1, #0
	mov	r0, r4
	str	r5, [sp]
	bl	tdefl_optimize_huffman_table
.LVL316:
	.loc 1 1047 5 view .LVU1403
	mov	r3, #15
	mov	r2, #32
	mov	r1, r5
	mov	r0, r4
	str	r5, [sp]
	bl	tdefl_optimize_huffman_table
.LVL317:
	.loc 1 1049 5 view .LVU1404
.LBB1589:
	.loc 1 1049 10 view .LVU1405
	.loc 1 1049 28 view .LVU1406
	.loc 1 1049 4 view .LVU1407
	.loc 1 1049 6 view .LVU1408
	.loc 1 1049 35 is_stmt 0 view .LVU1409
	ldr	r3, [r4, #68]
	.loc 1 1049 22 view .LVU1410
	ldr	r2, [r4, #72]
	orr	r2, r2, r5, lsl r3
	.loc 1 1049 62 view .LVU1411
	add	r3, r3, #2
	.loc 1 1049 90 view .LVU1412
	cmp	r3, #7
	.loc 1 1049 22 view .LVU1413
	str	r2, [r4, #72]
	.loc 1 1049 49 is_stmt 1 view .LVU1414
	.loc 1 1049 62 is_stmt 0 view .LVU1415
	str	r3, [r4, #68]
	.loc 1 1049 70 is_stmt 1 view .LVU1416
	.loc 1 1049 90 view .LVU1417
	bls	.L303
.L302:
	.loc 1 1049 98 view .LVU1418
	.loc 1 1049 103 is_stmt 0 view .LVU1419
	ldr	r1, [r4, #48]
	.loc 1 1049 101 view .LVU1420
	ldr	r0, [r4, #52]
	cmp	r1, r0
	.loc 1 1049 143 is_stmt 1 view .LVU1421
	.loc 1 1049 160 is_stmt 0 view .LVU1422
	addcc	r3, r1, #1
	strcc	r3, [r4, #48]
	.loc 1 1049 165 view .LVU1423
	strbcc	r2, [r1]
	ldrcc	r3, [r4, #68]
	.loc 1 1049 194 is_stmt 1 view .LVU1424
	.loc 1 1049 210 is_stmt 0 view .LVU1425
	ldrcc	r2, [r4, #72]
	.loc 1 1049 230 view .LVU1426
	sub	r3, r3, #8
	.loc 1 1049 210 view .LVU1427
	lsr	r2, r2, #8
	.loc 1 1049 90 view .LVU1428
	cmp	r3, #7
	.loc 1 1049 210 view .LVU1429
	str	r2, [r4, #72]
	.loc 1 1049 217 is_stmt 1 view .LVU1430
	.loc 1 1049 230 is_stmt 0 view .LVU1431
	str	r3, [r4, #68]
	.loc 1 1049 90 is_stmt 1 view .LVU1432
	bhi	.L302
.LVL318:
.L303:
	.loc 1 1049 90 is_stmt 0 view .LVU1433
.LBE1589:
.LBE1588:
.LBE1587:
	.loc 1 1203 5 is_stmt 1 view .LVU1434
.LBB1590:
.LBI1590:
	.loc 1 1149 16 view .LVU1435
.LBB1591:
	.loc 1 1151 5 view .LVU1436
	.loc 1 1152 5 view .LVU1437
	.loc 1 1154 5 view .LVU1438
	.loc 1 1155 5 view .LVU1439
	.loc 1 1155 50 is_stmt 0 view .LVU1440
	ldr	r8, [r4, #40]
	.loc 1 1155 20 view .LVU1441
	add	r1, r4, #37376
	add	r1, r1, #114
.LVL319:
	.loc 1 1155 50 is_stmt 1 view .LVU1442
	cmp	r8, r1
	bls	.L335
	.loc 1 1154 11 is_stmt 0 view .LVU1443
	mov	r0, #1
.LBB1592:
.LBB1593:
	.loc 1 1187 25 view .LVU1444
	mov	lr, r0
.LBE1593:
.LBE1592:
.LBB1596:
	.loc 1 1165 51 view .LVU1445
	ldr	ip, .L362+4
	.loc 1 1169 16 view .LVU1446
	ldr	r5, .L362+8
.LVL320:
.L306:
	.loc 1 1169 16 view .LVU1447
.LBE1596:
	.loc 1 1157 9 is_stmt 1 view .LVU1448
	.loc 1 1158 21 is_stmt 0 view .LVU1449
	ldrb	r3, [r1]	@ zero_extendqisi2
.LVL321:
	.loc 1 1158 13 is_stmt 1 view .LVU1450
	.loc 1 1157 12 is_stmt 0 view .LVU1451
	cmp	r0, #1
	.loc 1 1158 34 view .LVU1452
	orreq	r0, r3, #256
	.loc 1 1158 31 view .LVU1453
	addeq	r1, r1, #1
.LVL322:
	.loc 1 1159 9 is_stmt 1 view .LVU1454
	.loc 1 1159 12 is_stmt 0 view .LVU1455
	tst	r0, #1
.LBB1605:
	.loc 1 1162 21 view .LVU1456
	ldrb	r7, [r1]	@ zero_extendqisi2
.LBE1605:
	.loc 1 1159 12 view .LVU1457
	beq	.L310
.LBB1606:
	.loc 1 1161 13 is_stmt 1 view .LVU1458
	.loc 1 1162 13 view .LVU1459
.LVL323:
	.loc 1 1165 51 is_stmt 0 view .LVU1460
	add	r3, ip, r7, lsl #1
	ldrh	r3, [r3, #48]
	ldrh	r6, [r1, #1]	@ unaligned
.LVL324:
	.loc 1 1163 13 is_stmt 1 view .LVU1461
	.loc 1 1165 35 is_stmt 0 view .LVU1462
	add	r2, r4, r3
	add	r2, r2, #36608
	ldrb	r8, [r2, #18]	@ zero_extendqisi2
	.loc 1 1163 23 view .LVU1463
	add	r1, r1, #3
.LVL325:
	.loc 1 1165 12 is_stmt 1 view .LVU1464
	.loc 1 1165 24 is_stmt 0 view .LVU1465
	cmp	r8, #0
	beq	.L353
	.loc 1 1166 13 is_stmt 1 view .LVU1466
.LBB1597:
	.loc 1 1166 18 view .LVU1467
	.loc 1 1166 51 is_stmt 0 view .LVU1468
	add	r3, r3, #17408
	add	r3, r3, #40
	add	r3, r4, r3, lsl #1
	.loc 1 1166 26 view .LVU1469
	ldrh	r9, [r3, #2]
.LVL326:
	.loc 1 1166 81 is_stmt 1 view .LVU1470
	.loc 1 1166 12 view .LVU1471
	.loc 1 1166 25 is_stmt 0 view .LVU1472
	lsl	r3, lr, r8
	.loc 1 1166 33 view .LVU1473
	sub	r3, r3, #1
	.loc 1 1166 24 view .LVU1474
	cmp	r9, r3
	bhi	.L354
	.loc 1 1166 14 is_stmt 1 view .LVU1475
	.loc 1 1166 43 is_stmt 0 view .LVU1476
	ldr	r3, [r4, #68]
	.loc 1 1166 30 view .LVU1477
	ldr	r2, [r4, #72]
	.loc 1 1166 70 view .LVU1478
	add	r8, r8, r3
.LVL327:
	.loc 1 1166 30 view .LVU1479
	orr	r2, r2, r9, lsl r3
	.loc 1 1166 98 view .LVU1480
	cmp	r8, #7
	.loc 1 1166 70 view .LVU1481
	mov	r3, r8
	.loc 1 1166 30 view .LVU1482
	str	r2, [r4, #72]
.LVL328:
	.loc 1 1166 57 is_stmt 1 view .LVU1483
	.loc 1 1166 70 is_stmt 0 view .LVU1484
	str	r8, [r4, #68]
	.loc 1 1166 78 is_stmt 1 view .LVU1485
	.loc 1 1166 98 view .LVU1486
	bls	.L313
.LVL329:
.L315:
	.loc 1 1166 106 view .LVU1487
	.loc 1 1166 109 is_stmt 0 view .LVU1488
	ldrd	r8, [r4, #48]
	cmp	r8, r9
	.loc 1 1166 151 is_stmt 1 view .LVU1489
	.loc 1 1166 168 is_stmt 0 view .LVU1490
	addcc	r3, r8, #1
	strcc	r3, [r4, #48]
	.loc 1 1166 173 view .LVU1491
	strbcc	r2, [r8]
	ldrcc	r3, [r4, #68]
	.loc 1 1166 202 is_stmt 1 view .LVU1492
	.loc 1 1166 218 is_stmt 0 view .LVU1493
	ldrcc	r2, [r4, #72]
	.loc 1 1166 238 view .LVU1494
	sub	r3, r3, #8
	.loc 1 1166 218 view .LVU1495
	lsr	r2, r2, #8
	.loc 1 1166 98 view .LVU1496
	cmp	r3, #7
	.loc 1 1166 238 view .LVU1497
	mov	r8, r3
	.loc 1 1166 218 view .LVU1498
	str	r2, [r4, #72]
	.loc 1 1166 225 is_stmt 1 view .LVU1499
	.loc 1 1166 238 is_stmt 0 view .LVU1500
	str	r3, [r4, #68]
	.loc 1 1166 98 is_stmt 1 view .LVU1501
	bhi	.L315
.L313:
	.loc 1 1166 98 is_stmt 0 view .LVU1502
.LBE1597:
	.loc 1 1166 16 is_stmt 1 view .LVU1503
	.loc 1 1167 13 view .LVU1504
.LBB1598:
	.loc 1 1167 18 view .LVU1505
	.loc 1 1167 74 is_stmt 0 view .LVU1506
	add	r3, ip, r7
	ldrb	r3, [r3, #584]	@ zero_extendqisi2
	.loc 1 1167 56 view .LVU1507
	add	r2, ip, r3, lsl #2
	.loc 1 1167 26 view .LVU1508
	ldr	r2, [r2, #840]
	.loc 1 1167 25 view .LVU1509
	lsl	r9, lr, r3
	.loc 1 1167 26 view .LVU1510
	and	r7, r7, r2
.LVL330:
	.loc 1 1167 88 is_stmt 1 view .LVU1511
	.loc 1 1167 12 view .LVU1512
	.loc 1 1167 33 is_stmt 0 view .LVU1513
	sub	r2, r9, #1
	.loc 1 1167 24 view .LVU1514
	cmp	r7, r2
	bhi	.L355
	.loc 1 1167 14 is_stmt 1 view .LVU1515
	.loc 1 1167 30 is_stmt 0 view .LVU1516
	ldr	r2, [r4, #72]
	.loc 1 1167 70 view .LVU1517
	add	r3, r3, r8
.LVL331:
	.loc 1 1167 30 view .LVU1518
	orr	r2, r2, r7, lsl r8
	.loc 1 1167 98 view .LVU1519
	cmp	r3, #7
	.loc 1 1167 30 view .LVU1520
	str	r2, [r4, #72]
	.loc 1 1167 57 is_stmt 1 view .LVU1521
	.loc 1 1167 70 is_stmt 0 view .LVU1522
	str	r3, [r4, #68]
	.loc 1 1167 78 is_stmt 1 view .LVU1523
	.loc 1 1167 98 view .LVU1524
	bls	.L317
.LVL332:
.L319:
	.loc 1 1167 106 view .LVU1525
	.loc 1 1167 111 is_stmt 0 view .LVU1526
	ldr	r3, [r4, #48]
	.loc 1 1167 109 view .LVU1527
	ldr	r7, [r4, #52]
	cmp	r3, r7
	.loc 1 1167 151 is_stmt 1 view .LVU1528
	.loc 1 1167 168 is_stmt 0 view .LVU1529
	addcc	r7, r3, #1
	strcc	r7, [r4, #48]
	.loc 1 1167 173 view .LVU1530
	strbcc	r2, [r3]
	.loc 1 1167 238 view .LVU1531
	ldr	r3, [r4, #68]
	.loc 1 1167 218 view .LVU1532
	ldrcc	r2, [r4, #72]
	.loc 1 1167 202 is_stmt 1 view .LVU1533
	.loc 1 1167 238 is_stmt 0 view .LVU1534
	sub	r3, r3, #8
	.loc 1 1167 218 view .LVU1535
	lsr	r2, r2, #8
	.loc 1 1167 98 view .LVU1536
	cmp	r3, #7
	.loc 1 1167 218 view .LVU1537
	str	r2, [r4, #72]
	.loc 1 1167 225 is_stmt 1 view .LVU1538
	.loc 1 1167 238 is_stmt 0 view .LVU1539
	str	r3, [r4, #68]
	.loc 1 1167 98 is_stmt 1 view .LVU1540
	bhi	.L319
.L317:
	.loc 1 1167 98 is_stmt 0 view .LVU1541
.LBE1598:
	.loc 1 1167 16 is_stmt 1 view .LVU1542
	.loc 1 1169 13 view .LVU1543
	.loc 1 1169 16 is_stmt 0 view .LVU1544
	cmp	r6, r5
	.loc 1 1171 17 is_stmt 1 view .LVU1545
	.loc 1 1171 45 is_stmt 0 view .LVU1546
	addls	r2, ip, r6
	.loc 1 1176 45 view .LVU1547
	addhi	r2, ip, r6, lsr #8
	.loc 1 1171 21 view .LVU1548
	ldrbls	r8, [r2, #908]	@ zero_extendqisi2
.LVL333:
	.loc 1 1172 17 is_stmt 1 view .LVU1549
	.loc 1 1176 21 is_stmt 0 view .LVU1550
	ldrbhi	r8, [r2, #1932]	@ zero_extendqisi2
.LVL334:
	.loc 1 1172 32 view .LVU1551
	ldrbls	r7, [r2, #1420]	@ zero_extendqisi2
.LVL335:
	.loc 1 1176 17 is_stmt 1 view .LVU1552
	.loc 1 1177 17 view .LVU1553
	.loc 1 1177 32 is_stmt 0 view .LVU1554
	ldrbhi	r7, [r2, #2060]	@ zero_extendqisi2
.LVL336:
	.loc 1 1179 12 is_stmt 1 view .LVU1555
	.loc 1 1179 35 is_stmt 0 view .LVU1556
	add	r2, r4, r8
	add	r2, r2, #36864
	ldrb	r2, [r2, #50]	@ zero_extendqisi2
	.loc 1 1179 24 view .LVU1557
	cmp	r2, #0
	beq	.L356
	.loc 1 1180 13 is_stmt 1 view .LVU1558
.LBB1599:
	.loc 1 1180 18 view .LVU1559
	.loc 1 1180 51 is_stmt 0 view .LVU1560
	add	r8, r8, #17664
.LVL337:
	.loc 1 1180 51 view .LVU1561
	add	r8, r8, #72
.LVL338:
	.loc 1 1180 51 view .LVU1562
	add	r8, r4, r8, lsl #1
.LVL339:
	.loc 1 1180 26 view .LVU1563
	ldrh	r9, [r8, #2]
.LVL340:
	.loc 1 1180 58 is_stmt 1 view .LVU1564
	.loc 1 1180 12 view .LVU1565
	.loc 1 1180 25 is_stmt 0 view .LVU1566
	lsl	r8, lr, r2
	.loc 1 1180 33 view .LVU1567
	sub	r8, r8, #1
	.loc 1 1180 24 view .LVU1568
	cmp	r9, r8
	bhi	.L357
	.loc 1 1180 14 is_stmt 1 view .LVU1569
	.loc 1 1180 30 is_stmt 0 view .LVU1570
	ldr	r8, [r4, #72]
	.loc 1 1180 70 view .LVU1571
	add	r2, r2, r3
.LVL341:
	.loc 1 1180 98 view .LVU1572
	cmp	r2, #7
	.loc 1 1180 30 view .LVU1573
	orr	r3, r8, r9, lsl r3
	.loc 1 1180 70 view .LVU1574
	strd	r2, [r4, #68]
	.loc 1 1180 78 is_stmt 1 view .LVU1575
	.loc 1 1180 98 view .LVU1576
	bls	.L324
.L326:
	.loc 1 1180 106 view .LVU1577
	.loc 1 1180 111 is_stmt 0 view .LVU1578
	ldr	r2, [r4, #48]
	.loc 1 1180 109 view .LVU1579
	ldr	r8, [r4, #52]
	cmp	r2, r8
	.loc 1 1180 151 is_stmt 1 view .LVU1580
	.loc 1 1180 168 is_stmt 0 view .LVU1581
	addcc	r8, r2, #1
	strcc	r8, [r4, #48]
	.loc 1 1180 173 view .LVU1582
	strbcc	r3, [r2]
	.loc 1 1180 238 view .LVU1583
	ldr	r2, [r4, #68]
	.loc 1 1180 218 view .LVU1584
	ldrcc	r3, [r4, #72]
	.loc 1 1180 202 is_stmt 1 view .LVU1585
	.loc 1 1180 238 is_stmt 0 view .LVU1586
	sub	r2, r2, #8
	.loc 1 1180 218 view .LVU1587
	lsr	r3, r3, #8
	.loc 1 1180 98 view .LVU1588
	cmp	r2, #7
	.loc 1 1180 238 view .LVU1589
	strd	r2, [r4, #68]
	.loc 1 1180 98 is_stmt 1 view .LVU1590
	bhi	.L326
.L324:
	.loc 1 1180 98 is_stmt 0 view .LVU1591
.LBE1599:
	.loc 1 1180 16 is_stmt 1 view .LVU1592
	.loc 1 1181 13 view .LVU1593
.LBB1600:
	.loc 1 1181 18 view .LVU1594
	.loc 1 1181 57 is_stmt 0 view .LVU1595
	add	r3, ip, r7, lsl #2
	.loc 1 1181 26 view .LVU1596
	ldr	r8, [r3, #840]
	.loc 1 1181 25 view .LVU1597
	lsl	r3, lr, r7
	.loc 1 1181 26 view .LVU1598
	and	r6, r6, r8
.LVL342:
	.loc 1 1181 75 is_stmt 1 view .LVU1599
	.loc 1 1181 12 view .LVU1600
	.loc 1 1181 33 is_stmt 0 view .LVU1601
	sub	r3, r3, #1
	.loc 1 1181 24 view .LVU1602
	cmp	r6, r3
	bhi	.L358
	.loc 1 1181 14 is_stmt 1 view .LVU1603
	.loc 1 1181 30 is_stmt 0 view .LVU1604
	ldr	r3, [r4, #72]
	.loc 1 1181 70 view .LVU1605
	add	r7, r7, r2
.LVL343:
	.loc 1 1181 30 view .LVU1606
	orr	r3, r3, r6, lsl r2
	.loc 1 1181 98 view .LVU1607
	cmp	r7, #7
	.loc 1 1181 30 view .LVU1608
	str	r3, [r4, #72]
	.loc 1 1181 57 is_stmt 1 view .LVU1609
	.loc 1 1181 70 is_stmt 0 view .LVU1610
	str	r7, [r4, #68]
	.loc 1 1181 78 is_stmt 1 view .LVU1611
	.loc 1 1181 98 view .LVU1612
	bls	.L352
.LVL344:
.L330:
	.loc 1 1181 106 view .LVU1613
	.loc 1 1181 111 is_stmt 0 view .LVU1614
	ldr	r2, [r4, #48]
	.loc 1 1181 109 view .LVU1615
	ldr	r6, [r4, #52]
	cmp	r2, r6
	.loc 1 1181 151 is_stmt 1 view .LVU1616
	.loc 1 1181 168 is_stmt 0 view .LVU1617
	addcc	r6, r2, #1
	strcc	r6, [r4, #48]
	.loc 1 1181 173 view .LVU1618
	strbcc	r3, [r2]
	.loc 1 1181 238 view .LVU1619
	ldr	r2, [r4, #68]
	.loc 1 1181 218 view .LVU1620
	ldrcc	r3, [r4, #72]
	.loc 1 1181 202 is_stmt 1 view .LVU1621
	.loc 1 1181 238 is_stmt 0 view .LVU1622
	sub	r2, r2, #8
	.loc 1 1181 218 view .LVU1623
	lsr	r3, r3, #8
	.loc 1 1181 98 view .LVU1624
	cmp	r2, #7
	.loc 1 1181 238 view .LVU1625
	strd	r2, [r4, #68]
	.loc 1 1181 98 is_stmt 1 view .LVU1626
	bhi	.L330
.LVL345:
.L352:
	.loc 1 1181 98 is_stmt 0 view .LVU1627
	ldr	r8, [r4, #40]
.L328:
	.loc 1 1181 98 view .LVU1628
.LBE1600:
.LBE1606:
.LBB1607:
	.loc 1 1187 16 is_stmt 1 view .LVU1629
.LBE1607:
	.loc 1 1155 77 view .LVU1630
	.loc 1 1155 50 is_stmt 0 view .LVU1631
	cmp	r8, r1
	.loc 1 1155 77 view .LVU1632
	lsr	r0, r0, #1
.LVL346:
	.loc 1 1155 50 is_stmt 1 view .LVU1633
	bhi	.L306
.LVL347:
.L335:
	.loc 1 1191 5 view .LVU1634
.LBB1608:
	.loc 1 1191 10 view .LVU1635
	.loc 1 1191 17 is_stmt 0 view .LVU1636
	mvn	r3, #0
	.loc 1 1191 87 view .LVU1637
	add	r2, r4, #36864
	.loc 1 1191 58 view .LVU1638
	ldrb	r1, [r2, #18]	@ zero_extendqisi2
.LVL348:
	.loc 1 1191 43 view .LVU1639
	add	r2, r4, #35328
	.loc 1 1191 25 view .LVU1640
	mvn	r3, r3, lsl r1
	.loc 1 1191 18 view .LVU1641
	ldrh	r0, [r2, #82]
.LVL349:
	.loc 1 1191 50 is_stmt 1 view .LVU1642
	.loc 1 1191 4 view .LVU1643
	.loc 1 1191 16 is_stmt 0 view .LVU1644
	cmp	r0, r3
	bhi	.L359
	.loc 1 1191 6 is_stmt 1 view .LVU1645
	.loc 1 1191 35 is_stmt 0 view .LVU1646
	ldr	r3, [r4, #68]
	.loc 1 1191 22 view .LVU1647
	ldr	r2, [r4, #72]
	orr	r2, r2, r0, lsl r3
	.loc 1 1191 62 view .LVU1648
	add	r3, r1, r3
	.loc 1 1191 90 view .LVU1649
	cmp	r3, #7
.LBE1608:
	.loc 1 1193 14 view .LVU1650
	ldr	r1, [r4, #48]
.LVL350:
	.loc 1 1193 33 view .LVU1651
	ldr	r0, [r4, #52]
.LVL351:
.LBB1609:
	.loc 1 1191 22 view .LVU1652
	str	r2, [r4, #72]
	.loc 1 1191 49 is_stmt 1 view .LVU1653
	.loc 1 1191 62 is_stmt 0 view .LVU1654
	str	r3, [r4, #68]
	.loc 1 1191 70 is_stmt 1 view .LVU1655
	.loc 1 1191 90 view .LVU1656
	bls	.L336
.LVL352:
.L338:
	.loc 1 1191 98 view .LVU1657
	.loc 1 1191 101 is_stmt 0 view .LVU1658
	cmp	r1, r0
	bcs	.L337
	.loc 1 1191 143 is_stmt 1 view .LVU1659
	.loc 1 1191 160 is_stmt 0 view .LVU1660
	add	r3, r1, #1
	str	r3, [r4, #48]
	.loc 1 1191 165 view .LVU1661
	strb	r2, [r1]
	.loc 1 1191 210 view .LVU1662
	ldr	r2, [r4, #72]
.LBE1609:
	.loc 1 1193 14 view .LVU1663
	ldr	r1, [r4, #48]
	.loc 1 1193 33 view .LVU1664
	ldr	r0, [r4, #52]
	ldr	r3, [r4, #68]
.L337:
.LBB1610:
	.loc 1 1191 194 is_stmt 1 view .LVU1665
	.loc 1 1191 230 is_stmt 0 view .LVU1666
	sub	r3, r3, #8
	.loc 1 1191 210 view .LVU1667
	lsr	r2, r2, #8
	.loc 1 1191 90 view .LVU1668
	cmp	r3, #7
	.loc 1 1191 210 view .LVU1669
	str	r2, [r4, #72]
	.loc 1 1191 217 is_stmt 1 view .LVU1670
	.loc 1 1191 230 is_stmt 0 view .LVU1671
	str	r3, [r4, #68]
	.loc 1 1191 90 is_stmt 1 view .LVU1672
	bhi	.L338
.L336:
	.loc 1 1191 90 is_stmt 0 view .LVU1673
.LBE1610:
	.loc 1 1191 8 is_stmt 1 view .LVU1674
	.loc 1 1193 5 view .LVU1675
.LVL353:
	.loc 1 1193 5 is_stmt 0 view .LVU1676
.LBE1591:
.LBE1590:
	.loc 1 1204 1 view .LVU1677
	cmp	r1, r0
	movcs	r0, #0
	movcc	r0, #1
	add	sp, sp, #12
	.cfi_remember_state
	.cfi_def_cfa_offset 28
	@ sp needed
	pop	{r4, r5, r6, r7, r8, r9, pc}
.LVL354:
.L310:
	.cfi_restore_state
.LBB1618:
.LBB1616:
.LBB1611:
	.loc 1 1185 13 is_stmt 1 view .LVU1678
	.loc 1 1186 35 is_stmt 0 view .LVU1679
	add	r3, r4, r7
	add	r3, r3, #36608
	ldrb	r6, [r3, #18]	@ zero_extendqisi2
	.loc 1 1185 37 view .LVU1680
	add	r1, r1, #1
.LVL355:
	.loc 1 1186 12 is_stmt 1 view .LVU1681
	.loc 1 1186 24 is_stmt 0 view .LVU1682
	cmp	r6, #0
	beq	.L360
	.loc 1 1187 13 is_stmt 1 view .LVU1683
.LBB1594:
	.loc 1 1187 18 view .LVU1684
	.loc 1 1187 51 is_stmt 0 view .LVU1685
	add	r7, r7, #17408
	add	r7, r7, #40
	add	r7, r4, r7, lsl #1
	.loc 1 1187 26 view .LVU1686
	ldrh	r7, [r7, #2]
.LVL356:
	.loc 1 1187 58 is_stmt 1 view .LVU1687
	.loc 1 1187 12 view .LVU1688
	.loc 1 1187 25 is_stmt 0 view .LVU1689
	lsl	r3, lr, r6
	.loc 1 1187 33 view .LVU1690
	sub	r3, r3, #1
	.loc 1 1187 24 view .LVU1691
	cmp	r7, r3
	bhi	.L361
	.loc 1 1187 14 is_stmt 1 view .LVU1692
	.loc 1 1187 43 is_stmt 0 view .LVU1693
	ldr	r3, [r4, #68]
	.loc 1 1187 30 view .LVU1694
	ldr	r2, [r4, #72]
	orr	r2, r2, r7, lsl r3
	.loc 1 1187 70 view .LVU1695
	add	r3, r6, r3
	.loc 1 1187 98 view .LVU1696
	cmp	r3, #7
	.loc 1 1187 30 view .LVU1697
	str	r2, [r4, #72]
.LVL357:
	.loc 1 1187 57 is_stmt 1 view .LVU1698
	.loc 1 1187 70 is_stmt 0 view .LVU1699
	str	r3, [r4, #68]
	.loc 1 1187 78 is_stmt 1 view .LVU1700
	.loc 1 1187 98 view .LVU1701
	bls	.L328
.LVL358:
.L334:
	.loc 1 1187 106 view .LVU1702
	.loc 1 1187 109 is_stmt 0 view .LVU1703
	ldrd	r6, [r4, #48]
	cmp	r6, r7
	.loc 1 1187 151 is_stmt 1 view .LVU1704
	.loc 1 1187 168 is_stmt 0 view .LVU1705
	addcc	r3, r6, #1
	strcc	r3, [r4, #48]
	.loc 1 1187 173 view .LVU1706
	strbcc	r2, [r6]
	ldrcc	r3, [r4, #68]
	.loc 1 1187 202 is_stmt 1 view .LVU1707
	.loc 1 1187 218 is_stmt 0 view .LVU1708
	ldrcc	r2, [r4, #72]
	.loc 1 1187 238 view .LVU1709
	sub	r3, r3, #8
	.loc 1 1187 218 view .LVU1710
	lsr	r2, r2, #8
	.loc 1 1187 98 view .LVU1711
	cmp	r3, #7
	.loc 1 1187 218 view .LVU1712
	str	r2, [r4, #72]
	.loc 1 1187 225 is_stmt 1 view .LVU1713
	.loc 1 1187 238 is_stmt 0 view .LVU1714
	str	r3, [r4, #68]
	.loc 1 1187 98 is_stmt 1 view .LVU1715
	bhi	.L334
	b	.L352
.LVL359:
.L301:
	.loc 1 1187 98 is_stmt 0 view .LVU1716
.LBE1594:
.LBE1611:
.LBE1616:
.LBE1618:
	.loc 1 1202 9 is_stmt 1 view .LVU1717
	bl	tdefl_start_dynamic_block
.LVL360:
	.loc 1 1202 9 is_stmt 0 view .LVU1718
	b	.L303
.LVL361:
.L353:
.LBB1619:
.LBB1617:
.LBB1612:
	.loc 1 1165 26 view .LVU1719
	ldr	r3, .L362+12
	ldr	r2, .L362+16
	ldr	r1, .L362+20
.LVL362:
	.loc 1 1165 26 view .LVU1720
	ldr	r0, .L362+24
.LVL363:
	.loc 1 1165 26 view .LVU1721
	bl	__assert_func
.LVL364:
.L361:
	.loc 1 1165 26 view .LVU1722
.LBE1612:
.LBB1613:
.LBB1595:
	.loc 1 1187 26 view .LVU1723
	ldr	r3, .L362+28
	ldr	r2, .L362+16
	ldr	r1, .L362+32
.LVL365:
	.loc 1 1187 26 view .LVU1724
	ldr	r0, .L362+24
.LVL366:
	.loc 1 1187 26 view .LVU1725
	bl	__assert_func
.LVL367:
.L360:
	.loc 1 1187 26 view .LVU1726
.LBE1595:
	.loc 1 1186 26 view .LVU1727
	ldr	r3, .L362+36
	ldr	r2, .L362+16
	ldr	r1, .L362+40
.LVL368:
	.loc 1 1186 26 view .LVU1728
	ldr	r0, .L362+24
.LVL369:
	.loc 1 1186 26 view .LVU1729
	bl	__assert_func
.LVL370:
.L359:
	.loc 1 1186 26 view .LVU1730
.LBE1613:
.LBB1614:
	.loc 1 1191 18 view .LVU1731
	ldr	r3, .L362+28
	ldr	r2, .L362+16
	ldr	r1, .L362+44
.LVL371:
	.loc 1 1191 18 view .LVU1732
	ldr	r0, .L362+24
.LVL372:
	.loc 1 1191 18 view .LVU1733
	bl	__assert_func
.LVL373:
.L358:
	.loc 1 1191 18 view .LVU1734
.LBE1614:
.LBB1615:
.LBB1601:
	.loc 1 1181 26 view .LVU1735
	ldr	r3, .L362+28
	ldr	r2, .L362+16
	ldr	r1, .L362+48
.LVL374:
	.loc 1 1181 26 view .LVU1736
	ldr	r0, .L362+24
.LVL375:
	.loc 1 1181 26 view .LVU1737
	bl	__assert_func
.LVL376:
.L357:
	.loc 1 1181 26 view .LVU1738
.LBE1601:
.LBB1602:
	.loc 1 1180 26 view .LVU1739
	ldr	r3, .L362+28
	ldr	r2, .L362+16
.LVL377:
	.loc 1 1180 26 view .LVU1740
	ldr	r1, .L362+52
.LVL378:
	.loc 1 1180 26 view .LVU1741
	ldr	r0, .L362+24
.LVL379:
	.loc 1 1180 26 view .LVU1742
	bl	__assert_func
.LVL380:
.L356:
	.loc 1 1180 26 view .LVU1743
.LBE1602:
	.loc 1 1179 26 view .LVU1744
	ldr	r3, .L362+56
	ldr	r2, .L362+16
	ldr	r1, .L362+60
.LVL381:
	.loc 1 1179 26 view .LVU1745
	ldr	r0, .L362+24
.LVL382:
	.loc 1 1179 26 view .LVU1746
	bl	__assert_func
.LVL383:
.L355:
.LBB1603:
	.loc 1 1167 26 view .LVU1747
	ldr	r3, .L362+28
.LVL384:
	.loc 1 1167 26 view .LVU1748
	ldr	r2, .L362+16
	ldr	r1, .L362+64
.LVL385:
	.loc 1 1167 26 view .LVU1749
	ldr	r0, .L362+24
.LVL386:
	.loc 1 1167 26 view .LVU1750
	bl	__assert_func
.LVL387:
.L354:
	.loc 1 1167 26 view .LVU1751
.LBE1603:
.LBB1604:
	.loc 1 1166 26 view .LVU1752
	ldr	r3, .L362+28
	ldr	r2, .L362+16
	ldr	r1, .L362+68
.LVL388:
	.loc 1 1166 26 view .LVU1753
	ldr	r0, .L362+24
.LVL389:
	.loc 1 1166 26 view .LVU1754
	bl	__assert_func
.LVL390:
.L363:
	.loc 1 1166 26 view .LVU1755
	.align	2
.L362:
	.word	134744072
	.word	.LANCHOR0
	.word	511
	.word	.LC4
	.word	.LANCHOR0+560
	.word	1165
	.word	.LC1
	.word	.LC0
	.word	1187
	.word	.LC6
	.word	1186
	.word	1191
	.word	1181
	.word	1180
	.word	.LC5
	.word	1179
	.word	1167
	.word	1166
.LBE1604:
.LBE1615:
.LBE1617:
.LBE1619:
	.cfi_endproc
.LFE32:
	.size	tdefl_compress_block, .-tdefl_compress_block
	.section	.rodata.str1.4
	.align	2
.LC7:
	.ascii	"!d->m_output_flush_remaining\000"
	.align	2
.LC8:
	.ascii	"d->m_pOutput_buf < d->m_pOutput_buf_end\000"
	.section	.text.tdefl_flush_block,"ax",%progbits
	.align	2
	.syntax unified
	.arm
	.fpu vfp
	.type	tdefl_flush_block, %function
tdefl_flush_block:
.LVL391:
.LFB33:
	.loc 1 1207 1 is_stmt 1 view -0
	.cfi_startproc
	@ args = 0, pretend = 0, frame = 0
	@ frame_needed = 0, uses_anonymous_args = 0
	.loc 1 1208 5 view .LVU1757
	.loc 1 1209 5 view .LVU1758
	.loc 1 1210 5 view .LVU1759
	.loc 1 1211 5 view .LVU1760
	.loc 1 1211 41 is_stmt 0 view .LVU1761
	ldr	r3, [r0, #8]
	.loc 1 1207 1 view .LVU1762
	push	{r4, r5, r6, r7, r8, r9, r10, lr}
	.cfi_def_cfa_offset 32
	.cfi_offset 4, -32
	.cfi_offset 5, -28
	.cfi_offset 6, -24
	.cfi_offset 7, -20
	.cfi_offset 8, -16
	.cfi_offset 9, -12
	.cfi_offset 10, -8
	.cfi_offset 14, -4
	.loc 1 1211 77 view .LVU1763
	ands	r3, r3, #524288
	.loc 1 1207 1 view .LVU1764
	mov	r4, r0
	mov	r8, r1
	.loc 1 1211 77 view .LVU1765
	beq	.L365
	.loc 1 1211 100 discriminator 1 view .LVU1766
	ldr	r3, [r0, #28]
	ldr	r1, [r0, #64]
.LVL392:
	.loc 1 1211 77 discriminator 1 view .LVU1767
	ldr	r2, [r0, #36]
	.loc 1 1211 100 discriminator 1 view .LVU1768
	sub	r3, r3, r1
	.loc 1 1211 77 discriminator 1 view .LVU1769
	cmp	r3, r2
	movhi	r3, #0
	movls	r3, #1
.L365:
.LVL393:
	.loc 1 1212 5 is_stmt 1 discriminator 6 view .LVU1770
	.loc 1 1212 182 is_stmt 0 discriminator 6 view .LVU1771
	ldr	r2, [r4]
	cmp	r2, #0
	beq	.L470
.LVL394:
.L366:
	.loc 1 1212 182 discriminator 4 view .LVU1772
	ldr	r5, .L481
	add	r5, r4, r5
.L367:
.LVL395:
	.loc 1 1214 5 is_stmt 1 discriminator 6 view .LVU1773
	.loc 1 1217 6 is_stmt 0 discriminator 6 view .LVU1774
	ldr	r6, [r4, #92]
	.loc 1 1215 66 discriminator 6 view .LVU1775
	add	r2, r5, #84992
	add	r2, r2, #188
	.loc 1 1217 16 discriminator 6 view .LVU1776
	cmp	r6, #0
	.loc 1 1214 22 discriminator 6 view .LVU1777
	str	r5, [r4, #48]
	.loc 1 1215 5 is_stmt 1 discriminator 6 view .LVU1778
	.loc 1 1215 26 is_stmt 0 discriminator 6 view .LVU1779
	str	r2, [r4, #52]
	.loc 1 1217 4 is_stmt 1 discriminator 6 view .LVU1780
	.loc 1 1217 16 is_stmt 0 discriminator 6 view .LVU1781
	bne	.L471
	.loc 1 1218 5 is_stmt 1 view .LVU1782
	.loc 1 1221 36 is_stmt 0 view .LVU1783
	ldr	r1, [r4, #44]
	.loc 1 1218 27 view .LVU1784
	str	r6, [r4, #88]
	.loc 1 1219 5 is_stmt 1 view .LVU1785
	.loc 1 1221 5 view .LVU1786
	.loc 1 1221 34 is_stmt 0 view .LVU1787
	ldrb	r2, [r1]	@ zero_extendqisi2
	.loc 1 1221 50 view .LVU1788
	ldr	r0, [r4, #56]
	asr	r2, r2, r0
	.loc 1 1221 23 view .LVU1789
	strb	r2, [r1]
	.loc 1 1222 5 is_stmt 1 view .LVU1790
	.loc 1 1222 23 is_stmt 0 view .LVU1791
	ldr	r2, [r4, #40]
	.loc 1 1222 47 view .LVU1792
	ldr	r1, [r4, #56]
	.loc 1 1222 23 view .LVU1793
	cmp	r1, #8
	subeq	r2, r2, #1
	str	r2, [r4, #40]
	.loc 1 1224 5 is_stmt 1 view .LVU1794
	.loc 1 1224 21 is_stmt 0 view .LVU1795
	ldr	r2, [r4, #8]
	.loc 1 1224 8 view .LVU1796
	tst	r2, #4096
	beq	.L369
	.loc 1 1224 48 discriminator 1 view .LVU1797
	ldr	r2, [r4, #100]
.LBB1620:
	.loc 1 1226 26 discriminator 1 view .LVU1798
	ldr	r7, [r4, #72]
.LBE1620:
	.loc 1 1224 48 discriminator 1 view .LVU1799
	cmp	r2, #0
.LBB1621:
	.loc 1 1226 39 discriminator 1 view .LVU1800
	ldr	r9, [r4, #68]
.LBE1621:
	.loc 1 1224 48 discriminator 1 view .LVU1801
	bne	.L467
	.loc 1 1226 9 is_stmt 1 discriminator 2 view .LVU1802
.LBB1622:
	.loc 1 1226 14 discriminator 2 view .LVU1803
.LVL396:
	.loc 1 1226 35 discriminator 2 view .LVU1804
	.loc 1 1226 8 discriminator 2 view .LVU1805
	.loc 1 1226 10 discriminator 2 view .LVU1806
	.loc 1 1226 35 is_stmt 0 discriminator 2 view .LVU1807
	mov	r2, #120
	.loc 1 1226 26 discriminator 2 view .LVU1808
	orr	r7, r7, r2, lsl r9
	.loc 1 1226 66 discriminator 2 view .LVU1809
	add	r2, r9, #8
	.loc 1 1226 94 discriminator 2 view .LVU1810
	cmp	r2, #7
.LBE1622:
.LBB1623:
	.loc 1 1227 107 discriminator 2 view .LVU1811
	ldr	r10, [r4, #48]
	.loc 1 1227 126 discriminator 2 view .LVU1812
	ldr	r0, [r4, #52]
.LBE1623:
.LBB1624:
	.loc 1 1226 26 discriminator 2 view .LVU1813
	str	r7, [r4, #72]
	.loc 1 1226 53 is_stmt 1 discriminator 2 view .LVU1814
	.loc 1 1226 66 is_stmt 0 discriminator 2 view .LVU1815
	str	r2, [r4, #68]
	.loc 1 1226 74 is_stmt 1 discriminator 2 view .LVU1816
	.loc 1 1226 94 discriminator 2 view .LVU1817
	bls	.L372
.L374:
	.loc 1 1226 102 discriminator 8 view .LVU1818
	.loc 1 1226 105 is_stmt 0 discriminator 8 view .LVU1819
	cmp	r10, r0
	bcs	.L373
	.loc 1 1226 147 is_stmt 1 discriminator 4 view .LVU1820
	.loc 1 1226 164 is_stmt 0 discriminator 4 view .LVU1821
	add	r2, r10, #1
	str	r2, [r4, #48]
	.loc 1 1226 169 discriminator 4 view .LVU1822
	strb	r7, [r10]
	.loc 1 1226 214 discriminator 4 view .LVU1823
	ldr	r7, [r4, #72]
.LBE1624:
.LBB1625:
	.loc 1 1227 107 discriminator 4 view .LVU1824
	ldr	r10, [r4, #48]
	.loc 1 1227 126 discriminator 4 view .LVU1825
	ldr	r0, [r4, #52]
.L373:
	.loc 1 1227 126 discriminator 4 view .LVU1826
.LBE1625:
.LBB1626:
	.loc 1 1226 198 is_stmt 1 discriminator 6 view .LVU1827
	.loc 1 1226 234 is_stmt 0 discriminator 6 view .LVU1828
	ldr	r9, [r4, #68]
	.loc 1 1226 214 discriminator 6 view .LVU1829
	lsr	r7, r7, #8
	.loc 1 1226 234 discriminator 6 view .LVU1830
	sub	r2, r9, #8
	.loc 1 1226 94 discriminator 6 view .LVU1831
	cmp	r2, #7
	.loc 1 1226 214 discriminator 6 view .LVU1832
	str	r7, [r4, #72]
	.loc 1 1226 221 is_stmt 1 discriminator 6 view .LVU1833
	.loc 1 1226 234 is_stmt 0 discriminator 6 view .LVU1834
	str	r2, [r4, #68]
	.loc 1 1226 94 is_stmt 1 discriminator 6 view .LVU1835
	bhi	.L374
.L375:
	.loc 1 1226 94 is_stmt 0 discriminator 6 view .LVU1836
.LBE1626:
	.loc 1 1226 12 is_stmt 1 discriminator 2 view .LVU1837
	.loc 1 1227 9 discriminator 2 view .LVU1838
.LBB1627:
	.loc 1 1227 14 discriminator 2 view .LVU1839
.LVL397:
	.loc 1 1227 35 discriminator 2 view .LVU1840
	.loc 1 1227 8 discriminator 2 view .LVU1841
	.loc 1 1227 10 discriminator 2 view .LVU1842
	.loc 1 1227 35 is_stmt 0 discriminator 2 view .LVU1843
	mov	r1, #1
	.loc 1 1227 26 discriminator 2 view .LVU1844
	orr	r7, r7, r1, lsl r2
	.loc 1 1227 66 discriminator 2 view .LVU1845
	str	r9, [r4, #68]
	.loc 1 1227 26 discriminator 2 view .LVU1846
	str	r7, [r4, #72]
	.loc 1 1227 53 is_stmt 1 discriminator 2 view .LVU1847
	.loc 1 1227 74 discriminator 2 view .LVU1848
	.loc 1 1227 94 discriminator 2 view .LVU1849
	b	.L377
.L472:
	.loc 1 1227 126 is_stmt 0 view .LVU1850
	ldr	r0, [r4, #52]
.L377:
	.loc 1 1227 102 is_stmt 1 discriminator 8 view .LVU1851
	.loc 1 1227 105 is_stmt 0 discriminator 8 view .LVU1852
	cmp	r10, r0
	.loc 1 1227 147 is_stmt 1 discriminator 8 view .LVU1853
	.loc 1 1227 164 is_stmt 0 discriminator 8 view .LVU1854
	addcc	r2, r10, #1
	strcc	r2, [r4, #48]
	.loc 1 1227 169 discriminator 8 view .LVU1855
	strbcc	r7, [r10]
	.loc 1 1227 234 discriminator 8 view .LVU1856
	ldr	r9, [r4, #68]
	.loc 1 1227 214 discriminator 8 view .LVU1857
	ldrcc	r7, [r4, #72]
	.loc 1 1227 234 discriminator 8 view .LVU1858
	sub	r9, r9, #8
.LBE1627:
	.loc 1 1232 23 discriminator 8 view .LVU1859
	ldrcc	r10, [r4, #48]
.LBB1628:
	.loc 1 1227 198 is_stmt 1 discriminator 8 view .LVU1860
	.loc 1 1227 214 is_stmt 0 discriminator 8 view .LVU1861
	lsr	r7, r7, #8
	.loc 1 1227 94 discriminator 8 view .LVU1862
	cmp	r9, #7
	.loc 1 1227 214 discriminator 8 view .LVU1863
	str	r7, [r4, #72]
	.loc 1 1227 221 is_stmt 1 discriminator 8 view .LVU1864
	.loc 1 1227 234 is_stmt 0 discriminator 8 view .LVU1865
	str	r9, [r4, #68]
	.loc 1 1227 94 is_stmt 1 discriminator 8 view .LVU1866
	bhi	.L472
	b	.L371
.LVL398:
.L369:
	.loc 1 1227 94 is_stmt 0 discriminator 8 view .LVU1867
.LBE1628:
.LBB1629:
	.loc 1 1226 26 view .LVU1868
	ldr	r7, [r4, #72]
	.loc 1 1226 39 view .LVU1869
	ldr	r9, [r4, #68]
.L467:
	.loc 1 1226 39 view .LVU1870
.LBE1629:
	.loc 1 1232 23 view .LVU1871
	ldr	r10, [r4, #48]
.L371:
	.loc 1 1227 12 is_stmt 1 discriminator 9 view .LVU1872
	.loc 1 1230 5 discriminator 9 view .LVU1873
.LBB1630:
	.loc 1 1230 10 discriminator 9 view .LVU1874
.LVL399:
	.loc 1 1230 48 discriminator 9 view .LVU1875
	.loc 1 1230 4 discriminator 9 view .LVU1876
	.loc 1 1230 6 discriminator 9 view .LVU1877
	.loc 1 1230 31 is_stmt 0 discriminator 9 view .LVU1878
	sub	r2, r8, #4
	clz	r2, r2
	lsr	r2, r2, #5
	.loc 1 1230 22 discriminator 9 view .LVU1879
	orr	r7, r7, r2, lsl r9
	.loc 1 1230 62 discriminator 9 view .LVU1880
	add	r9, r9, #1
	.loc 1 1230 90 discriminator 9 view .LVU1881
	cmp	r9, #7
	.loc 1 1230 22 discriminator 9 view .LVU1882
	str	r7, [r4, #72]
	.loc 1 1230 49 is_stmt 1 discriminator 9 view .LVU1883
	.loc 1 1230 62 is_stmt 0 discriminator 9 view .LVU1884
	str	r9, [r4, #68]
	.loc 1 1230 70 is_stmt 1 discriminator 9 view .LVU1885
	.loc 1 1230 90 discriminator 9 view .LVU1886
	bls	.L378
.L380:
	.loc 1 1230 98 discriminator 8 view .LVU1887
	.loc 1 1230 101 is_stmt 0 discriminator 8 view .LVU1888
	ldr	r0, [r4, #52]
	cmp	r0, r10
	.loc 1 1230 143 is_stmt 1 discriminator 8 view .LVU1889
	.loc 1 1230 160 is_stmt 0 discriminator 8 view .LVU1890
	addhi	r2, r10, #1
	strhi	r2, [r4, #48]
	.loc 1 1230 165 discriminator 8 view .LVU1891
	strbhi	r7, [r10]
	.loc 1 1230 230 discriminator 8 view .LVU1892
	ldr	r9, [r4, #68]
	.loc 1 1230 210 discriminator 8 view .LVU1893
	ldrhi	r7, [r4, #72]
	.loc 1 1230 230 discriminator 8 view .LVU1894
	sub	r9, r9, #8
.LBE1630:
	.loc 1 1232 23 discriminator 8 view .LVU1895
	ldrhi	r10, [r4, #48]
.LBB1631:
	.loc 1 1230 194 is_stmt 1 discriminator 8 view .LVU1896
	.loc 1 1230 210 is_stmt 0 discriminator 8 view .LVU1897
	lsr	r7, r7, #8
	.loc 1 1230 90 discriminator 8 view .LVU1898
	cmp	r9, #7
	.loc 1 1230 210 discriminator 8 view .LVU1899
	str	r7, [r4, #72]
	.loc 1 1230 217 is_stmt 1 discriminator 8 view .LVU1900
	.loc 1 1230 230 is_stmt 0 discriminator 8 view .LVU1901
	str	r9, [r4, #68]
	.loc 1 1230 90 is_stmt 1 discriminator 8 view .LVU1902
	bhi	.L380
.L378:
	.loc 1 1230 90 is_stmt 0 discriminator 8 view .LVU1903
.LBE1631:
	.loc 1 1230 8 is_stmt 1 discriminator 9 view .LVU1904
	.loc 1 1232 5 discriminator 9 view .LVU1905
.LVL400:
	.loc 1 1233 5 discriminator 9 view .LVU1906
	.loc 1 1234 5 discriminator 9 view .LVU1907
	.loc 1 1236 5 discriminator 9 view .LVU1908
	.loc 1 1236 8 is_stmt 0 discriminator 9 view .LVU1909
	cmp	r3, #0
	beq	.L381
.LVL401:
	.loc 1 1241 30 view .LVU1910
	ldr	r2, [r4, #64]
	ldr	r3, [r4, #28]
.LVL402:
	.loc 1 1241 30 view .LVU1911
	sub	r3, r3, r2
	.loc 1 1240 126 view .LVU1912
	ldr	r2, [r4, #36]
	cmp	r2, r3
	bcs	.L382
.LVL403:
.L403:
	.loc 1 1263 9 is_stmt 1 view .LVU1913
	.loc 1 1265 9 is_stmt 0 view .LVU1914
	mov	r1, #1
	mov	r0, r4
	.loc 1 1263 26 view .LVU1915
	str	r10, [r4, #48]
	.loc 1 1264 9 is_stmt 1 view .LVU1916
	.loc 1 1264 25 is_stmt 0 view .LVU1917
	str	r7, [r4, #72]
	.loc 1 1264 55 view .LVU1918
	str	r9, [r4, #68]
	.loc 1 1265 9 is_stmt 1 view .LVU1919
	bl	tdefl_compress_block
.LVL404:
	ldr	ip, [r4, #48]
	ldr	r0, [r4, #52]
.LVL405:
.L383:
	.loc 1 1268 5 view .LVU1920
	.loc 1 1268 8 is_stmt 0 view .LVU1921
	cmp	r8, #0
	.loc 1 1301 5 view .LVU1922
	moveq	r7, ip
	.loc 1 1268 8 view .LVU1923
	beq	.L410
	.loc 1 1270 9 is_stmt 1 view .LVU1924
	.loc 1 1270 12 is_stmt 0 view .LVU1925
	cmp	r8, #4
	.loc 1 1272 18 view .LVU1926
	ldr	r3, [r4, #68]
	.loc 1 1270 12 view .LVU1927
	beq	.L473
.LBB1632:
	.loc 1 1288 13 is_stmt 1 discriminator 2 view .LVU1928
.LVL406:
	.loc 1 1289 13 discriminator 2 view .LVU1929
.LBB1633:
	.loc 1 1289 18 discriminator 2 view .LVU1930
	.loc 1 1289 36 discriminator 2 view .LVU1931
	.loc 1 1289 12 discriminator 2 view .LVU1932
	.loc 1 1289 14 discriminator 2 view .LVU1933
	.loc 1 1289 57 discriminator 2 view .LVU1934
	.loc 1 1289 70 is_stmt 0 discriminator 2 view .LVU1935
	add	r3, r3, #3
	.loc 1 1289 98 discriminator 2 view .LVU1936
	cmp	r3, #7
	.loc 1 1289 70 discriminator 2 view .LVU1937
	str	r3, [r4, #68]
	.loc 1 1289 78 is_stmt 1 discriminator 2 view .LVU1938
	.loc 1 1289 98 discriminator 2 view .LVU1939
	bls	.L415
	.loc 1 1289 185 is_stmt 0 view .LVU1940
	ldr	r2, [r4, #72]
.L417:
	.loc 1 1289 106 is_stmt 1 discriminator 8 view .LVU1941
	.loc 1 1289 109 is_stmt 0 discriminator 8 view .LVU1942
	cmp	ip, r0
	bcs	.L416
	.loc 1 1289 151 is_stmt 1 discriminator 4 view .LVU1943
	.loc 1 1289 168 is_stmt 0 discriminator 4 view .LVU1944
	add	r3, ip, #1
	str	r3, [r4, #48]
	.loc 1 1289 173 discriminator 4 view .LVU1945
	strb	r2, [ip]
	.loc 1 1289 218 discriminator 4 view .LVU1946
	ldr	r2, [r4, #72]
	ldr	ip, [r4, #48]
	ldr	r0, [r4, #52]
.L416:
	.loc 1 1289 202 is_stmt 1 discriminator 6 view .LVU1947
	.loc 1 1289 238 is_stmt 0 discriminator 6 view .LVU1948
	ldr	r3, [r4, #68]
	.loc 1 1289 218 discriminator 6 view .LVU1949
	lsr	r2, r2, #8
	.loc 1 1289 238 discriminator 6 view .LVU1950
	sub	r3, r3, #8
	.loc 1 1289 98 discriminator 6 view .LVU1951
	cmp	r3, #7
	.loc 1 1289 218 discriminator 6 view .LVU1952
	str	r2, [r4, #72]
	.loc 1 1289 225 is_stmt 1 discriminator 6 view .LVU1953
	.loc 1 1289 238 is_stmt 0 discriminator 6 view .LVU1954
	str	r3, [r4, #68]
	.loc 1 1289 98 is_stmt 1 discriminator 6 view .LVU1955
	bhi	.L417
.L415:
	.loc 1 1289 98 is_stmt 0 discriminator 6 view .LVU1956
.LBE1633:
	.loc 1 1289 16 is_stmt 1 discriminator 9 view .LVU1957
	.loc 1 1290 13 discriminator 9 view .LVU1958
	.loc 1 1290 16 is_stmt 0 discriminator 9 view .LVU1959
	cmp	r3, #0
.LBB1634:
	.loc 1 1292 115 discriminator 9 view .LVU1960
	mov	r7, ip
.LBE1634:
.LBB1635:
	.loc 1 1296 47 discriminator 9 view .LVU1961
	ldrdeq	r2, [r4, #68]
.LBE1635:
	.loc 1 1290 16 discriminator 9 view .LVU1962
	bne	.L474
.L421:
.LBE1632:
.LBB1641:
	.loc 1 1278 28 discriminator 2 view .LVU1963
	mov	r1, #2
.LBE1641:
.LBB1644:
	.loc 1 1294 35 discriminator 2 view .LVU1964
	ldr	ip, .L481+4
.LVL407:
.L425:
	.loc 1 1296 17 is_stmt 1 discriminator 2 view .LVU1965
.LBB1636:
	.loc 1 1296 22 discriminator 2 view .LVU1966
	.loc 1 1296 49 discriminator 2 view .LVU1967
	.loc 1 1296 16 discriminator 2 view .LVU1968
	.loc 1 1296 18 discriminator 2 view .LVU1969
	.loc 1 1296 34 is_stmt 0 discriminator 2 view .LVU1970
	orr	r3, r3, r6, lsl r2
	.loc 1 1296 74 discriminator 2 view .LVU1971
	add	r2, r2, #16
	.loc 1 1296 102 discriminator 2 view .LVU1972
	cmp	r2, #7
	.loc 1 1296 34 discriminator 2 view .LVU1973
	strd	r2, [r4, #68]
	.loc 1 1296 61 is_stmt 1 discriminator 2 view .LVU1974
	.loc 1 1296 82 discriminator 2 view .LVU1975
	.loc 1 1296 102 discriminator 2 view .LVU1976
	bls	.L422
.L424:
	.loc 1 1296 110 discriminator 8 view .LVU1977
	.loc 1 1296 113 is_stmt 0 discriminator 8 view .LVU1978
	cmp	r7, r0
	bcs	.L423
	.loc 1 1296 155 is_stmt 1 discriminator 4 view .LVU1979
	.loc 1 1296 172 is_stmt 0 discriminator 4 view .LVU1980
	add	r2, r7, #1
	str	r2, [r4, #48]
	.loc 1 1296 177 discriminator 4 view .LVU1981
	strb	r3, [r7]
	.loc 1 1296 222 discriminator 4 view .LVU1982
	ldr	r3, [r4, #72]
.LBE1636:
.LBE1644:
	.loc 1 1301 5 discriminator 4 view .LVU1983
	ldr	r7, [r4, #48]
	.loc 1 1301 24 discriminator 4 view .LVU1984
	ldr	r0, [r4, #52]
.L423:
.LBB1645:
.LBB1637:
	.loc 1 1296 206 is_stmt 1 discriminator 6 view .LVU1985
	.loc 1 1296 242 is_stmt 0 discriminator 6 view .LVU1986
	ldr	r2, [r4, #68]
	.loc 1 1296 222 discriminator 6 view .LVU1987
	lsr	r3, r3, #8
	.loc 1 1296 242 discriminator 6 view .LVU1988
	sub	r2, r2, #8
	.loc 1 1296 102 discriminator 6 view .LVU1989
	cmp	r2, #7
	.loc 1 1296 242 discriminator 6 view .LVU1990
	strd	r2, [r4, #68]
	.loc 1 1296 102 is_stmt 1 discriminator 6 view .LVU1991
	bhi	.L424
.L422:
	.loc 1 1296 102 is_stmt 0 discriminator 6 view .LVU1992
.LBE1637:
	.loc 1 1296 20 is_stmt 1 discriminator 9 view .LVU1993
	.loc 1 1294 31 discriminator 9 view .LVU1994
.LVL408:
	.loc 1 1294 25 discriminator 9 view .LVU1995
	cmp	r1, #1
	beq	.L410
.LBB1638:
	.loc 1 1296 47 is_stmt 0 view .LVU1996
	ldrd	r2, [r4, #68]
	mov	r1, #1
.LBE1638:
	.loc 1 1294 35 view .LVU1997
	eor	r6, r6, ip
.LVL409:
	.loc 1 1294 35 view .LVU1998
	b	.L425
.LVL410:
.L473:
	.loc 1 1294 35 view .LVU1999
.LBE1645:
	.loc 1 1272 13 is_stmt 1 view .LVU2000
	.loc 1 1272 16 is_stmt 0 view .LVU2001
	cmp	r3, #0
	.loc 1 1301 5 view .LVU2002
	moveq	r7, ip
	.loc 1 1272 16 view .LVU2003
	beq	.L409
	.loc 1 1274 17 is_stmt 1 view .LVU2004
.LBB1646:
	.loc 1 1274 22 view .LVU2005
.LVL411:
	.loc 1 1274 40 view .LVU2006
	.loc 1 1274 16 view .LVU2007
	.loc 1 1274 18 view .LVU2008
	.loc 1 1274 61 view .LVU2009
	.loc 1 1274 74 is_stmt 0 view .LVU2010
	mov	r3, #8
	.loc 1 1274 115 view .LVU2011
	mov	r7, ip
	.loc 1 1274 189 view .LVU2012
	ldr	r2, [r4, #72]
	.loc 1 1274 74 view .LVU2013
	str	r3, [r4, #68]
.LVL412:
	.loc 1 1274 82 is_stmt 1 view .LVU2014
	.loc 1 1274 102 view .LVU2015
.L408:
	.loc 1 1274 110 discriminator 8 view .LVU2016
	.loc 1 1274 113 is_stmt 0 discriminator 8 view .LVU2017
	cmp	r7, r0
	bcs	.L407
	.loc 1 1274 155 is_stmt 1 discriminator 4 view .LVU2018
	.loc 1 1274 172 is_stmt 0 discriminator 4 view .LVU2019
	add	r3, r7, #1
	str	r3, [r4, #48]
	.loc 1 1274 177 discriminator 4 view .LVU2020
	strb	r2, [r7]
	.loc 1 1274 222 discriminator 4 view .LVU2021
	ldr	r2, [r4, #72]
.LBE1646:
	.loc 1 1301 5 discriminator 4 view .LVU2022
	ldr	r7, [r4, #48]
	.loc 1 1301 24 discriminator 4 view .LVU2023
	ldr	r0, [r4, #52]
.L407:
.LBB1647:
	.loc 1 1274 206 is_stmt 1 discriminator 6 view .LVU2024
	.loc 1 1274 242 is_stmt 0 discriminator 6 view .LVU2025
	ldr	r3, [r4, #68]
	.loc 1 1274 222 discriminator 6 view .LVU2026
	lsr	r2, r2, #8
	.loc 1 1274 242 discriminator 6 view .LVU2027
	sub	r3, r3, #8
	.loc 1 1274 102 discriminator 6 view .LVU2028
	cmp	r3, #7
	.loc 1 1274 222 discriminator 6 view .LVU2029
	str	r2, [r4, #72]
	.loc 1 1274 229 is_stmt 1 discriminator 6 view .LVU2030
	.loc 1 1274 242 is_stmt 0 discriminator 6 view .LVU2031
	str	r3, [r4, #68]
	.loc 1 1274 102 is_stmt 1 discriminator 6 view .LVU2032
	bhi	.L408
.LVL413:
.L409:
	.loc 1 1274 102 is_stmt 0 discriminator 6 view .LVU2033
.LBE1647:
	.loc 1 1274 20 is_stmt 1 discriminator 9 view .LVU2034
	.loc 1 1276 13 discriminator 9 view .LVU2035
	.loc 1 1276 28 is_stmt 0 discriminator 9 view .LVU2036
	ldr	r2, [r4, #8]
	.loc 1 1276 16 discriminator 9 view .LVU2037
	tst	r2, #4096
	beq	.L410
.LBB1648:
	.loc 1 1278 17 is_stmt 1 view .LVU2038
	.loc 1 1278 28 is_stmt 0 view .LVU2039
	mov	ip, #4
	ldr	r1, [r4, #24]
.LVL414:
	.loc 1 1279 17 is_stmt 1 view .LVU2040
	.loc 1 1279 31 view .LVU2041
.L414:
	.loc 1 1281 21 view .LVU2042
.LBB1642:
	.loc 1 1281 26 view .LVU2043
	.loc 1 1281 59 view .LVU2044
	.loc 1 1281 20 view .LVU2045
	.loc 1 1281 22 view .LVU2046
	.loc 1 1281 38 is_stmt 0 view .LVU2047
	ldr	r2, [r4, #72]
	.loc 1 1281 34 view .LVU2048
	lsr	lr, r1, #24
.LVL415:
	.loc 1 1281 38 view .LVU2049
	orr	r2, r2, lr, lsl r3
	.loc 1 1281 78 view .LVU2050
	add	r3, r3, #8
	.loc 1 1281 106 view .LVU2051
	cmp	r3, #7
	.loc 1 1281 38 view .LVU2052
	str	r2, [r4, #72]
	.loc 1 1281 65 is_stmt 1 view .LVU2053
	.loc 1 1281 78 is_stmt 0 view .LVU2054
	str	r3, [r4, #68]
	.loc 1 1281 86 is_stmt 1 view .LVU2055
	.loc 1 1281 106 view .LVU2056
	bls	.L411
.L413:
	.loc 1 1281 114 discriminator 8 view .LVU2057
	.loc 1 1281 117 is_stmt 0 discriminator 8 view .LVU2058
	cmp	r7, r0
	bcs	.L412
	.loc 1 1281 159 is_stmt 1 discriminator 4 view .LVU2059
	.loc 1 1281 176 is_stmt 0 discriminator 4 view .LVU2060
	add	r3, r7, #1
	str	r3, [r4, #48]
	.loc 1 1281 181 discriminator 4 view .LVU2061
	strb	r2, [r7]
	.loc 1 1281 226 discriminator 4 view .LVU2062
	ldr	r2, [r4, #72]
.LBE1642:
.LBE1648:
	.loc 1 1301 5 discriminator 4 view .LVU2063
	ldr	r7, [r4, #48]
	.loc 1 1301 24 discriminator 4 view .LVU2064
	ldr	r0, [r4, #52]
	ldr	r3, [r4, #68]
.L412:
.LBB1649:
.LBB1643:
	.loc 1 1281 210 is_stmt 1 discriminator 6 view .LVU2065
	.loc 1 1281 246 is_stmt 0 discriminator 6 view .LVU2066
	sub	r3, r3, #8
	.loc 1 1281 226 discriminator 6 view .LVU2067
	lsr	r2, r2, #8
	.loc 1 1281 106 discriminator 6 view .LVU2068
	cmp	r3, #7
	.loc 1 1281 226 discriminator 6 view .LVU2069
	str	r2, [r4, #72]
	.loc 1 1281 233 is_stmt 1 discriminator 6 view .LVU2070
	.loc 1 1281 246 is_stmt 0 discriminator 6 view .LVU2071
	str	r3, [r4, #68]
	.loc 1 1281 106 is_stmt 1 discriminator 6 view .LVU2072
	bhi	.L413
.L411:
	.loc 1 1281 106 is_stmt 0 discriminator 6 view .LVU2073
.LBE1643:
	.loc 1 1281 24 is_stmt 1 discriminator 9 view .LVU2074
	.loc 1 1282 21 discriminator 9 view .LVU2075
	.loc 1 1279 31 is_stmt 0 discriminator 9 view .LVU2076
	subs	ip, ip, #1
.LVL416:
	.loc 1 1282 23 discriminator 9 view .LVU2077
	lsl	r1, r1, #8
.LVL417:
	.loc 1 1279 37 is_stmt 1 discriminator 9 view .LVU2078
	.loc 1 1279 31 discriminator 9 view .LVU2079
	bne	.L414
.LVL418:
.L410:
	.loc 1 1279 31 is_stmt 0 discriminator 9 view .LVU2080
.LBE1649:
	.loc 1 1301 4 is_stmt 1 view .LVU2081
	.loc 1 1301 16 is_stmt 0 view .LVU2082
	cmp	r7, r0
	bcs	.L475
	.loc 1 1303 5 is_stmt 1 view .LVU2083
	add	r0, r4, #33024
	mov	r2, #576
	mov	r1, #0
	add	r0, r0, #146
	bl	memset
.LVL419:
	.loc 1 1304 5 view .LVU2084
	add	r0, r4, #33536
	mov	r2, #64
	mov	r1, #0
	add	r0, r0, #210
	bl	memset
.LVL420:
	.loc 1 1306 5 view .LVU2085
	.loc 1 1306 42 is_stmt 0 view .LVU2086
	add	r3, r4, #37376
	add	r2, r3, #115
	.loc 1 1308 25 view .LVU2087
	mov	r1, #8
	.loc 1 1306 23 view .LVU2088
	str	r2, [r4, #40]
	.loc 1 1310 25 view .LVU2089
	mov	r2, #0
	.loc 1 1307 22 view .LVU2090
	add	r3, r3, #114
	.loc 1 1307 5 is_stmt 1 view .LVU2091
	.loc 1 1309 31 is_stmt 0 view .LVU2092
	ldr	r0, [r4, #60]
	.loc 1 1307 20 view .LVU2093
	str	r3, [r4, #44]
	.loc 1 1308 5 is_stmt 1 view .LVU2094
	.loc 1 1309 31 is_stmt 0 view .LVU2095
	ldr	r3, [r4, #64]
	.loc 1 1313 8 view .LVU2096
	subs	r7, r7, r5
	.loc 1 1309 31 view .LVU2097
	add	r3, r3, r0
	str	r3, [r4, #64]
	.loc 1 1311 21 view .LVU2098
	ldr	r3, [r4, #100]
	.loc 1 1308 25 view .LVU2099
	str	r1, [r4, #56]
	.loc 1 1309 5 is_stmt 1 view .LVU2100
	.loc 1 1310 5 view .LVU2101
	.loc 1 1311 21 is_stmt 0 view .LVU2102
	add	r3, r3, #1
	str	r3, [r4, #100]
	.loc 1 1310 25 view .LVU2103
	str	r2, [r4, #60]
	.loc 1 1311 5 is_stmt 1 view .LVU2104
	.loc 1 1313 5 view .LVU2105
.LVL421:
	.loc 1 1313 8 is_stmt 0 view .LVU2106
	beq	.L469
	.loc 1 1315 9 is_stmt 1 view .LVU2107
	.loc 1 1315 14 is_stmt 0 view .LVU2108
	ldr	r6, [r4]
	.loc 1 1212 182 view .LVU2109
	ldr	r0, .L481
	.loc 1 1315 12 view .LVU2110
	cmp	r6, #0
	.loc 1 1212 182 view .LVU2111
	add	r0, r4, r0
	.loc 1 1315 12 view .LVU2112
	beq	.L429
	.loc 1 1317 13 is_stmt 1 view .LVU2113
	.loc 1 1317 44 is_stmt 0 view .LVU2114
	ldr	r3, [r4, #132]
	ldr	ip, [r4, #112]
	.loc 1 1317 32 view .LVU2115
	ldr	r2, [r4, #120]
	.loc 1 1317 44 view .LVU2116
	sub	r3, r3, ip
	.loc 1 1317 32 view .LVU2117
	str	r3, [r2]
	.loc 1 1318 13 is_stmt 1 view .LVU2118
	.loc 1 1318 19 is_stmt 0 view .LVU2119
	mov	r1, r7
	ldr	r2, [r4, #4]
	blx	r6
.LVL422:
	.loc 1 1318 16 view .LVU2120
	cmp	r0, #0
	beq	.L430
.LVL423:
.L469:
	.loc 1 1338 13 view .LVU2121
	ldr	r0, [r4, #92]
	pop	{r4, r5, r6, r7, r8, r9, r10, pc}
.LVL424:
.L381:
	.loc 1 1237 9 is_stmt 1 view .LVU2122
	.loc 1 1237 68 is_stmt 0 view .LVU2123
	ldr	r3, [r4, #8]
.LVL425:
	.loc 1 1237 32 view .LVU2124
	tst	r3, #262144
	movne	r1, #1
	bne	.L386
	.loc 1 1237 32 discriminator 2 view .LVU2125
	ldr	r1, [r4, #60]
	cmp	r1, #47
	movhi	r1, #0
	movls	r1, #1
.L386:
	.loc 1 1237 32 discriminator 6 view .LVU2126
	mov	r0, r4
	bl	tdefl_compress_block
.LVL426:
	.loc 1 1240 32 discriminator 6 view .LVU2127
	ldr	r3, [r4, #60]
	.loc 1 1240 26 discriminator 6 view .LVU2128
	cmp	r3, #0
.LVL427:
	.loc 1 1240 5 is_stmt 1 discriminator 6 view .LVU2129
	.loc 1 1240 26 is_stmt 0 discriminator 6 view .LVU2130
	beq	.L387
	.loc 1 1240 74 discriminator 3 view .LVU2131
	ldr	ip, [r4, #48]
	sub	r2, ip, r10
	.loc 1 1240 94 discriminator 3 view .LVU2132
	add	r2, r2, #1
	.loc 1 1240 52 discriminator 3 view .LVU2133
	cmp	r3, r2
	bls	.L476
.LVL428:
.L387:
	.loc 1 1261 10 is_stmt 1 view .LVU2134
	.loc 1 1261 13 is_stmt 0 view .LVU2135
	cmp	r0, #0
	beq	.L403
	ldr	ip, [r4, #48]
	ldr	r0, [r4, #52]
	b	.L383
.LVL429:
.L476:
	.loc 1 1241 30 discriminator 4 view .LVU2136
	ldr	r2, [r4, #64]
	ldr	r3, [r4, #28]
	sub	r3, r3, r2
	.loc 1 1240 126 discriminator 4 view .LVU2137
	ldr	r2, [r4, #36]
	cmp	r3, r2
	bhi	.L387
.L382:
.LBB1650:
	.loc 1 1243 9 is_stmt 1 view .LVU2138
	.loc 1 1244 9 view .LVU2139
.LBB1651:
	.loc 1 1246 66 is_stmt 0 view .LVU2140
	add	r9, r9, #2
.LVL430:
	.loc 1 1246 94 view .LVU2141
	cmp	r9, #7
	ldr	r0, [r4, #52]
	.loc 1 1246 66 view .LVU2142
	str	r9, [r4, #68]
.LBE1651:
	.loc 1 1244 26 view .LVU2143
	str	r10, [r4, #48]
	.loc 1 1245 9 is_stmt 1 view .LVU2144
	.loc 1 1245 25 is_stmt 0 view .LVU2145
	str	r7, [r4, #72]
	.loc 1 1246 9 is_stmt 1 view .LVU2146
.LBB1652:
	.loc 1 1246 14 view .LVU2147
.LVL431:
	.loc 1 1246 32 view .LVU2148
	.loc 1 1246 8 view .LVU2149
	.loc 1 1246 10 view .LVU2150
	.loc 1 1246 53 view .LVU2151
	.loc 1 1246 74 view .LVU2152
	.loc 1 1246 94 view .LVU2153
	bhi	.L384
	b	.L385
.L477:
	.loc 1 1246 94 is_stmt 0 view .LVU2154
.LBE1652:
.LBB1653:
	.loc 1 1249 111 view .LVU2155
	ldr	r10, [r4, #48]
.L384:
	.loc 1 1249 111 view .LVU2156
.LBE1653:
.LBB1654:
	.loc 1 1246 102 is_stmt 1 discriminator 8 view .LVU2157
	.loc 1 1246 105 is_stmt 0 discriminator 8 view .LVU2158
	cmp	r0, r10
	.loc 1 1246 147 is_stmt 1 discriminator 8 view .LVU2159
	.loc 1 1246 164 is_stmt 0 discriminator 8 view .LVU2160
	addhi	r3, r10, #1
	strhi	r3, [r4, #48]
	.loc 1 1246 169 discriminator 8 view .LVU2161
	strbhi	r7, [r10]
	.loc 1 1246 234 discriminator 8 view .LVU2162
	ldr	r3, [r4, #68]
	.loc 1 1246 214 discriminator 8 view .LVU2163
	ldrhi	r7, [r4, #72]
	.loc 1 1246 234 discriminator 8 view .LVU2164
	sub	r3, r3, #8
	ldrhi	r0, [r4, #52]
	.loc 1 1246 198 is_stmt 1 discriminator 8 view .LVU2165
	.loc 1 1246 214 is_stmt 0 discriminator 8 view .LVU2166
	lsr	r7, r7, #8
	.loc 1 1246 94 discriminator 8 view .LVU2167
	cmp	r3, #7
	.loc 1 1246 214 discriminator 8 view .LVU2168
	str	r7, [r4, #72]
	.loc 1 1246 221 is_stmt 1 discriminator 8 view .LVU2169
	.loc 1 1246 234 is_stmt 0 discriminator 8 view .LVU2170
	str	r3, [r4, #68]
	.loc 1 1246 94 is_stmt 1 discriminator 8 view .LVU2171
	bhi	.L477
.LBE1654:
	.loc 1 1246 12 discriminator 9 view .LVU2172
	.loc 1 1247 9 discriminator 9 view .LVU2173
	.loc 1 1247 12 is_stmt 0 discriminator 9 view .LVU2174
	cmp	r3, #0
	bne	.L478
.L390:
.LBB1655:
	.loc 1 1253 34 view .LVU2175
	mov	lr, #2
	ldr	r9, [r4, #60]
.LVL432:
	.loc 1 1253 34 view .LVU2176
	ldr	ip, [r4, #48]
.LBE1655:
	.loc 1 1251 49 view .LVU2177
	ldr	r1, .L481+4
.L397:
	.loc 1 1253 13 is_stmt 1 view .LVU2178
.LBB1656:
	.loc 1 1253 18 view .LVU2179
.LVL433:
	.loc 1 1253 63 view .LVU2180
	.loc 1 1253 12 view .LVU2181
	.loc 1 1253 14 view .LVU2182
	.loc 1 1253 70 is_stmt 0 view .LVU2183
	add	r2, r3, #16
	.loc 1 1253 98 view .LVU2184
	cmp	r2, #7
	.loc 1 1253 70 view .LVU2185
	str	r2, [r4, #68]
	.loc 1 1253 26 view .LVU2186
	uxth	r2, r9
	.loc 1 1253 30 view .LVU2187
	orr	r2, r7, r2, lsl r3
	str	r2, [r4, #72]
	.loc 1 1253 57 is_stmt 1 view .LVU2188
	.loc 1 1253 78 view .LVU2189
	.loc 1 1253 98 view .LVU2190
	bls	.L436
.L395:
	.loc 1 1253 106 discriminator 8 view .LVU2191
	.loc 1 1253 109 is_stmt 0 discriminator 8 view .LVU2192
	cmp	ip, r0
	bcs	.L394
	.loc 1 1253 151 is_stmt 1 discriminator 4 view .LVU2193
	.loc 1 1253 168 is_stmt 0 discriminator 4 view .LVU2194
	add	r3, ip, #1
	str	r3, [r4, #48]
	.loc 1 1253 173 discriminator 4 view .LVU2195
	strb	r2, [ip]
	.loc 1 1253 218 discriminator 4 view .LVU2196
	ldr	r2, [r4, #72]
	ldr	ip, [r4, #48]
	ldr	r0, [r4, #52]
.L394:
	.loc 1 1253 202 is_stmt 1 discriminator 6 view .LVU2197
	.loc 1 1253 238 is_stmt 0 discriminator 6 view .LVU2198
	ldr	r3, [r4, #68]
	.loc 1 1253 218 discriminator 6 view .LVU2199
	lsr	r2, r2, #8
	.loc 1 1253 238 discriminator 6 view .LVU2200
	sub	r3, r3, #8
	.loc 1 1253 98 discriminator 6 view .LVU2201
	cmp	r3, #7
	.loc 1 1253 218 discriminator 6 view .LVU2202
	str	r2, [r4, #72]
	.loc 1 1253 225 is_stmt 1 discriminator 6 view .LVU2203
	.loc 1 1253 238 is_stmt 0 discriminator 6 view .LVU2204
	str	r3, [r4, #68]
	.loc 1 1253 98 is_stmt 1 discriminator 6 view .LVU2205
	bhi	.L395
.LBE1656:
	.loc 1 1251 49 is_stmt 0 view .LVU2206
	ldr	r3, [r4, #60]
.L393:
	.loc 1 1253 16 is_stmt 1 discriminator 9 view .LVU2207
	.loc 1 1251 27 discriminator 9 view .LVU2208
.LVL434:
	.loc 1 1251 49 is_stmt 0 discriminator 9 view .LVU2209
	eor	r9, r3, r1
.LVL435:
	.loc 1 1251 21 discriminator 9 view .LVU2210
	cmp	lr, #1
	.loc 1 1251 49 discriminator 9 view .LVU2211
	str	r9, [r4, #60]
	.loc 1 1251 21 is_stmt 1 discriminator 9 view .LVU2212
.LBB1657:
	.loc 1 1257 43 is_stmt 0 view .LVU2213
	movne	lr, #1
	.loc 1 1257 30 view .LVU2214
	ldrne	r7, [r4, #72]
	.loc 1 1257 43 view .LVU2215
	ldrne	r3, [r4, #68]
	bne	.L397
.L396:
.LVL436:
	.loc 1 1257 43 view .LVU2216
.LBE1657:
	.loc 1 1255 23 is_stmt 1 view .LVU2217
	cmp	r3, r1
	beq	.L383
	.loc 1 1255 16 is_stmt 0 view .LVU2218
	mov	r1, #0
	ldr	r3, [r4, #68]
.LBB1658:
	.loc 1 1257 75 view .LVU2219
	ldr	lr, .L481+8
.LVL437:
.L398:
	.loc 1 1257 75 view .LVU2220
.LBE1658:
	.loc 1 1257 13 is_stmt 1 view .LVU2221
.LBB1659:
	.loc 1 1257 18 view .LVU2222
	.loc 1 1257 103 view .LVU2223
	.loc 1 1257 12 view .LVU2224
	.loc 1 1257 14 view .LVU2225
	.loc 1 1257 70 is_stmt 0 view .LVU2226
	ldr	r2, [r4, #64]
	add	r2, r1, r2
	.loc 1 1257 75 view .LVU2227
	and	r2, r2, lr
	.loc 1 1257 42 view .LVU2228
	add	r2, r4, r2
	.loc 1 1257 26 view .LVU2229
	ldrb	r7, [r2, #144]	@ zero_extendqisi2
	.loc 1 1257 30 view .LVU2230
	ldr	r2, [r4, #72]
	orr	r2, r2, r7, lsl r3
	.loc 1 1257 70 view .LVU2231
	add	r3, r3, #8
	.loc 1 1257 98 view .LVU2232
	cmp	r3, #7
	.loc 1 1257 30 view .LVU2233
	str	r2, [r4, #72]
.LVL438:
	.loc 1 1257 57 is_stmt 1 view .LVU2234
	.loc 1 1257 70 is_stmt 0 view .LVU2235
	str	r3, [r4, #68]
	.loc 1 1257 78 is_stmt 1 view .LVU2236
	.loc 1 1257 98 view .LVU2237
	bls	.L402
.L399:
	.loc 1 1257 106 discriminator 8 view .LVU2238
	.loc 1 1257 109 is_stmt 0 discriminator 8 view .LVU2239
	cmp	ip, r0
	bcs	.L401
	.loc 1 1257 151 is_stmt 1 discriminator 4 view .LVU2240
	.loc 1 1257 168 is_stmt 0 discriminator 4 view .LVU2241
	add	r3, ip, #1
	str	r3, [r4, #48]
	.loc 1 1257 173 discriminator 4 view .LVU2242
	strb	r2, [ip]
	.loc 1 1257 218 discriminator 4 view .LVU2243
	ldr	r2, [r4, #72]
	ldr	r3, [r4, #68]
	ldr	ip, [r4, #48]
	ldr	r0, [r4, #52]
.L401:
	.loc 1 1257 202 is_stmt 1 discriminator 6 view .LVU2244
	.loc 1 1257 238 is_stmt 0 discriminator 6 view .LVU2245
	sub	r3, r3, #8
	.loc 1 1257 218 discriminator 6 view .LVU2246
	lsr	r2, r2, #8
	.loc 1 1257 98 discriminator 6 view .LVU2247
	cmp	r3, #7
	.loc 1 1257 218 discriminator 6 view .LVU2248
	str	r2, [r4, #72]
	.loc 1 1257 225 is_stmt 1 discriminator 6 view .LVU2249
	.loc 1 1257 238 is_stmt 0 discriminator 6 view .LVU2250
	str	r3, [r4, #68]
	.loc 1 1257 98 is_stmt 1 discriminator 6 view .LVU2251
	bhi	.L399
.L402:
	.loc 1 1257 98 is_stmt 0 discriminator 6 view .LVU2252
.LBE1659:
	.loc 1 1257 16 is_stmt 1 view .LVU2253
	.loc 1 1255 46 view .LVU2254
	.loc 1 1255 23 is_stmt 0 view .LVU2255
	ldr	r2, [r4, #60]
	.loc 1 1255 46 view .LVU2256
	add	r1, r1, #1
.LVL439:
	.loc 1 1255 23 is_stmt 1 view .LVU2257
	cmp	r2, r1
	bhi	.L398
	b	.L383
.LVL440:
.L470:
	.loc 1 1255 23 is_stmt 0 view .LVU2258
.LBE1650:
	.loc 1 1212 69 discriminator 1 view .LVU2259
	ldr	r2, [r4, #124]
	.loc 1 1212 92 discriminator 1 view .LVU2260
	ldr	r1, [r4, #140]
	.loc 1 1212 89 discriminator 1 view .LVU2261
	ldr	r2, [r2]
	.loc 1 1212 64 discriminator 1 view .LVU2262
	ldr	r0, .L481+12
.LVL441:
	.loc 1 1212 89 discriminator 1 view .LVU2263
	sub	r2, r2, r1
	.loc 1 1212 64 discriminator 1 view .LVU2264
	cmp	r2, r0
	bls	.L366
	.loc 1 1212 182 discriminator 3 view .LVU2265
	ldr	r5, [r4, #116]
	add	r5, r5, r1
	b	.L367
.LVL442:
.L474:
.LBB1663:
	.loc 1 1292 17 is_stmt 1 view .LVU2266
.LBB1639:
	.loc 1 1292 22 view .LVU2267
	.loc 1 1292 40 view .LVU2268
	.loc 1 1292 16 view .LVU2269
	.loc 1 1292 18 view .LVU2270
	.loc 1 1292 61 view .LVU2271
	.loc 1 1292 74 is_stmt 0 view .LVU2272
	mov	r3, #8
	str	r3, [r4, #68]
	.loc 1 1292 82 is_stmt 1 view .LVU2273
	.loc 1 1292 102 view .LVU2274
	.loc 1 1292 189 is_stmt 0 view .LVU2275
	ldr	r3, [r4, #72]
.L420:
	.loc 1 1292 110 is_stmt 1 discriminator 8 view .LVU2276
	.loc 1 1292 113 is_stmt 0 discriminator 8 view .LVU2277
	cmp	r7, r0
	bcs	.L419
	.loc 1 1292 155 is_stmt 1 discriminator 4 view .LVU2278
	.loc 1 1292 172 is_stmt 0 discriminator 4 view .LVU2279
	add	r2, r7, #1
	str	r2, [r4, #48]
	.loc 1 1292 177 discriminator 4 view .LVU2280
	strb	r3, [r7]
	.loc 1 1292 222 discriminator 4 view .LVU2281
	ldr	r3, [r4, #72]
.LBE1639:
.LBE1663:
	.loc 1 1301 5 discriminator 4 view .LVU2282
	ldr	r7, [r4, #48]
	.loc 1 1301 24 discriminator 4 view .LVU2283
	ldr	r0, [r4, #52]
.L419:
.LBB1664:
.LBB1640:
	.loc 1 1292 206 is_stmt 1 discriminator 6 view .LVU2284
	.loc 1 1292 242 is_stmt 0 discriminator 6 view .LVU2285
	ldr	r2, [r4, #68]
	.loc 1 1292 222 discriminator 6 view .LVU2286
	lsr	r3, r3, #8
	.loc 1 1292 242 discriminator 6 view .LVU2287
	sub	r2, r2, #8
	.loc 1 1292 102 discriminator 6 view .LVU2288
	cmp	r2, #7
	.loc 1 1292 242 discriminator 6 view .LVU2289
	strd	r2, [r4, #68]
	.loc 1 1292 102 is_stmt 1 discriminator 6 view .LVU2290
	bhi	.L420
	b	.L421
.LVL443:
.L478:
	.loc 1 1292 102 is_stmt 0 discriminator 6 view .LVU2291
.LBE1640:
.LBE1664:
.LBB1665:
.LBB1660:
	.loc 1 1249 111 view .LVU2292
	ldr	r10, [r4, #48]
.L385:
	.loc 1 1249 111 view .LVU2293
.LBE1660:
	.loc 1 1249 13 is_stmt 1 view .LVU2294
.LBB1661:
	.loc 1 1249 18 view .LVU2295
.LVL444:
	.loc 1 1249 36 view .LVU2296
	.loc 1 1249 12 view .LVU2297
	.loc 1 1249 14 view .LVU2298
	.loc 1 1249 57 view .LVU2299
	.loc 1 1249 70 is_stmt 0 view .LVU2300
	mov	r3, #8
	str	r3, [r4, #68]
	.loc 1 1249 78 is_stmt 1 view .LVU2301
	.loc 1 1249 98 view .LVU2302
	b	.L392
.L479:
	.loc 1 1249 111 is_stmt 0 view .LVU2303
	ldr	r10, [r4, #48]
.L392:
	.loc 1 1249 106 is_stmt 1 discriminator 8 view .LVU2304
	.loc 1 1249 109 is_stmt 0 discriminator 8 view .LVU2305
	cmp	r0, r10
	.loc 1 1249 151 is_stmt 1 discriminator 8 view .LVU2306
	.loc 1 1249 168 is_stmt 0 discriminator 8 view .LVU2307
	addhi	r3, r10, #1
	strhi	r3, [r4, #48]
	.loc 1 1249 173 discriminator 8 view .LVU2308
	strbhi	r7, [r10]
	.loc 1 1249 238 discriminator 8 view .LVU2309
	ldr	r3, [r4, #68]
	.loc 1 1249 218 discriminator 8 view .LVU2310
	ldrhi	r7, [r4, #72]
	.loc 1 1249 238 discriminator 8 view .LVU2311
	sub	r3, r3, #8
	ldrhi	r0, [r4, #52]
	.loc 1 1249 202 is_stmt 1 discriminator 8 view .LVU2312
	.loc 1 1249 218 is_stmt 0 discriminator 8 view .LVU2313
	lsr	r7, r7, #8
	.loc 1 1249 98 discriminator 8 view .LVU2314
	cmp	r3, #7
	.loc 1 1249 218 discriminator 8 view .LVU2315
	str	r7, [r4, #72]
	.loc 1 1249 225 is_stmt 1 discriminator 8 view .LVU2316
	.loc 1 1249 238 is_stmt 0 discriminator 8 view .LVU2317
	str	r3, [r4, #68]
	.loc 1 1249 98 is_stmt 1 discriminator 8 view .LVU2318
	bhi	.L479
	b	.L390
.LVL445:
.L429:
	.loc 1 1249 98 is_stmt 0 discriminator 8 view .LVU2319
.LBE1661:
.LBE1665:
	.loc 1 1321 14 is_stmt 1 view .LVU2320
	.loc 1 1321 17 is_stmt 0 view .LVU2321
	cmp	r5, r0
.LBB1666:
	.loc 1 1323 87 view .LVU2322
	ldr	r3, [r4, #140]
.LBE1666:
	.loc 1 1321 17 view .LVU2323
	beq	.L480
	.loc 1 1334 13 is_stmt 1 view .LVU2324
	.loc 1 1334 30 is_stmt 0 view .LVU2325
	add	r3, r3, r7
	.loc 1 1338 13 view .LVU2326
	ldr	r0, [r4, #92]
	.loc 1 1338 5 is_stmt 1 view .LVU2327
	.loc 1 1334 30 is_stmt 0 view .LVU2328
	str	r3, [r4, #140]
	.loc 1 1339 1 view .LVU2329
	pop	{r4, r5, r6, r7, r8, r9, r10, pc}
.LVL446:
.L436:
.LBB1667:
.LBB1662:
	.loc 1 1253 98 view .LVU2330
	mov	r3, r9
	b	.L393
.LVL447:
.L372:
	.loc 1 1253 98 view .LVU2331
.LBE1662:
.LBE1667:
.LBB1668:
	.loc 1 1227 66 view .LVU2332
	add	r9, r9, #16
	b	.L375
.LVL448:
.L480:
	.loc 1 1227 66 view .LVU2333
.LBE1668:
.LBB1669:
	.loc 1 1323 13 is_stmt 1 view .LVU2334
	.loc 1 1323 64 is_stmt 0 view .LVU2335
	ldr	r2, [r4, #124]
	.loc 1 1324 13 view .LVU2336
	mov	r1, r5
	.loc 1 1323 84 view .LVU2337
	ldr	r5, [r2]
.LVL449:
	.loc 1 1324 13 view .LVU2338
	ldr	r0, [r4, #116]
	.loc 1 1323 84 view .LVU2339
	sub	r5, r5, r3
	.loc 1 1323 33 view .LVU2340
	cmp	r5, r7
	movcs	r5, r7
.LVL450:
	.loc 1 1324 13 is_stmt 1 view .LVU2341
	add	r0, r0, r3
	mov	r2, r5
	bl	memcpy
.LVL451:
	.loc 1 1325 13 view .LVU2342
	.loc 1 1325 30 is_stmt 0 view .LVU2343
	ldr	r3, [r4, #140]
	.loc 1 1326 16 view .LVU2344
	subs	r0, r7, r5
	.loc 1 1325 30 view .LVU2345
	add	r3, r3, r5
	str	r3, [r4, #140]
	.loc 1 1326 13 is_stmt 1 view .LVU2346
.LVL452:
	.loc 1 1326 16 is_stmt 0 view .LVU2347
	beq	.L469
	.loc 1 1328 17 is_stmt 1 view .LVU2348
	.loc 1 1328 39 is_stmt 0 view .LVU2349
	str	r5, [r4, #88]
	.loc 1 1329 17 is_stmt 1 view .LVU2350
	.loc 1 1329 45 is_stmt 0 view .LVU2351
	str	r0, [r4, #92]
	pop	{r4, r5, r6, r7, r8, r9, r10, pc}
.LVL453:
.L430:
	.loc 1 1329 45 view .LVU2352
.LBE1669:
	.loc 1 1319 17 is_stmt 1 view .LVU2353
	.loc 1 1319 49 is_stmt 0 view .LVU2354
	mvn	r3, #0
	mov	r0, r3
	strb	r3, [r4, #108]
	pop	{r4, r5, r6, r7, r8, r9, r10, pc}
.LVL454:
.L471:
	.loc 1 1217 18 discriminator 1 view .LVU2355
	ldr	r3, .L481+16
.LVL455:
	.loc 1 1217 18 discriminator 1 view .LVU2356
	ldr	r2, .L481+20
	ldr	r1, .L481+24
	ldr	r0, .L481+28
	bl	__assert_func
.LVL456:
.L475:
	.loc 1 1301 18 discriminator 1 view .LVU2357
	ldr	r3, .L481+32
	ldr	r2, .L481+20
	ldr	r1, .L481+36
	ldr	r0, .L481+28
	bl	__assert_func
.LVL457:
.L482:
	.align	2
.L481:
	.word	234098
	.word	65535
	.word	32767
	.word	85195
	.word	.LC7
	.word	.LANCHOR0+2188
	.word	1217
	.word	.LC1
	.word	.LC8
	.word	1301
	.cfi_endproc
.LFE33:
	.size	tdefl_flush_block, .-tdefl_flush_block
	.section	.rodata.str1.4
	.align	2
.LC9:
	.ascii	"pArray->m_element_size\000"
	.section	.text.mz_zip_array_ensure_capacity,"ax",%progbits
	.align	2
	.syntax unified
	.arm
	.fpu vfp
	.type	mz_zip_array_ensure_capacity, %function
mz_zip_array_ensure_capacity:
.LVL458:
.LFB61:
	.loc 1 3200 1 is_stmt 1 view -0
	.cfi_startproc
	@ args = 0, pretend = 0, frame = 0
	@ frame_needed = 0, uses_anonymous_args = 0
	.loc 1 3201 5 view .LVU2359
	.loc 1 3202 5 view .LVU2360
	.loc 1 3200 1 is_stmt 0 view .LVU2361
	push	{r4, r5, r6, lr}
	.cfi_def_cfa_offset 16
	.cfi_offset 4, -16
	.cfi_offset 5, -12
	.cfi_offset 6, -8
	.cfi_offset 14, -4
	.loc 1 3200 1 view .LVU2362
	mov	r4, r2
.LVL459:
	.loc 1 3203 4 is_stmt 1 view .LVU2363
	.loc 1 3203 10 is_stmt 0 view .LVU2364
	ldr	r2, [r1, #12]
.LVL460:
	.loc 1 3203 16 view .LVU2365
	cmp	r2, #0
	beq	.L496
	.loc 1 3204 15 view .LVU2366
	ldr	ip, [r1, #8]
	mov	r5, r1
	.loc 1 3204 5 is_stmt 1 view .LVU2367
	.loc 1 3204 8 is_stmt 0 view .LVU2368
	cmp	ip, r4
	bcs	.L488
	.loc 1 3206 5 is_stmt 1 view .LVU2369
	.loc 1 3206 8 is_stmt 0 view .LVU2370
	cmp	r3, #0
	beq	.L486
	.loc 1 3208 9 is_stmt 1 view .LVU2371
	cmp	ip, #1
	movcc	ip, #1
.LVL461:
	.loc 1 3209 29 view .LVU2372
	cmp	ip, r4
	bcs	.L489
.L487:
	.loc 1 3210 13 view .LVU2373
	.loc 1 3210 26 is_stmt 0 view .LVU2374
	lsl	ip, ip, #1
.LVL462:
	.loc 1 3209 29 is_stmt 1 view .LVU2375
	cmp	r4, ip
	bhi	.L487
.L489:
	.loc 1 3209 29 is_stmt 0 view .LVU2376
	mov	r4, ip
.LVL463:
.L486:
	.loc 1 3212 5 is_stmt 1 view .LVU2377
	.loc 1 3212 26 is_stmt 0 view .LVU2378
	mov	r3, r4
.LVL464:
	.loc 1 3212 26 view .LVU2379
	ldr	r6, [r0, #40]
	ldr	r1, [r5]
.LVL465:
	.loc 1 3212 26 view .LVU2380
	ldr	r0, [r0, #44]
.LVL466:
	.loc 1 3212 26 view .LVU2381
	blx	r6
.LVL467:
	.loc 1 3212 8 view .LVU2382
	subs	r3, r0, #0
	beq	.L490
	.loc 1 3214 5 is_stmt 1 view .LVU2383
	.loc 1 3216 12 is_stmt 0 view .LVU2384
	mov	r0, #1
.LVL468:
	.loc 1 3214 17 view .LVU2385
	str	r3, [r5]
	.loc 1 3215 5 is_stmt 1 view .LVU2386
	.loc 1 3215 24 is_stmt 0 view .LVU2387
	str	r4, [r5, #8]
	.loc 1 3216 5 is_stmt 1 view .LVU2388
	.loc 1 3216 12 is_stmt 0 view .LVU2389
	pop	{r4, r5, r6, pc}
.LVL469:
.L488:
	.loc 1 3205 16 view .LVU2390
	mov	r0, #1
.LVL470:
	.loc 1 3205 16 view .LVU2391
	pop	{r4, r5, r6, pc}
.LVL471:
.L490:
	.loc 1 3213 16 view .LVU2392
	mov	r0, r3
.LVL472:
	.loc 1 3217 1 view .LVU2393
	pop	{r4, r5, r6, pc}
.LVL473:
.L496:
	.loc 1 3203 18 discriminator 1 view .LVU2394
	ldr	r3, .L497
.LVL474:
	.loc 1 3203 18 discriminator 1 view .LVU2395
	ldr	r2, .L497+4
	ldr	r1, .L497+8
.LVL475:
	.loc 1 3203 18 discriminator 1 view .LVU2396
	ldr	r0, .L497+12
.LVL476:
	.loc 1 3203 18 discriminator 1 view .LVU2397
	bl	__assert_func
.LVL477:
.L498:
	.align	2
.L497:
	.word	.LC9
	.word	.LANCHOR0+2208
	.word	3203
	.word	.LC1
	.cfi_endproc
.LFE61:
	.size	mz_zip_array_ensure_capacity, .-mz_zip_array_ensure_capacity
	.section	.text.mz_zip_reader_end_internal,"ax",%progbits
	.align	2
	.syntax unified
	.arm
	.fpu vfp
	.type	mz_zip_reader_end_internal, %function
mz_zip_reader_end_internal:
.LVL478:
.LFB77:
	.loc 1 3719 1 is_stmt 1 view -0
	.cfi_startproc
	@ args = 0, pretend = 0, frame = 0
	@ frame_needed = 0, uses_anonymous_args = 0
	.loc 1 3720 5 view .LVU2399
	.loc 1 3722 5 view .LVU2400
	.loc 1 3719 1 is_stmt 0 view .LVU2401
	push	{r4, r5, r6, r7, r8, r9, r10, lr}
	.cfi_def_cfa_offset 32
	.cfi_offset 4, -32
	.cfi_offset 5, -28
	.cfi_offset 6, -24
	.cfi_offset 7, -20
	.cfi_offset 8, -16
	.cfi_offset 9, -12
	.cfi_offset 10, -8
	.cfi_offset 14, -4
	.loc 1 3722 8 view .LVU2402
	subs	r4, r0, #0
	.loc 1 3723 16 view .LVU2403
	moveq	r5, r4
	.loc 1 3722 8 view .LVU2404
	beq	.L499
	.loc 1 3725 15 view .LVU2405
	ldr	r7, [r4, #64]
	mov	r5, r1
	.loc 1 3725 5 is_stmt 1 view .LVU2406
	.loc 1 3725 8 is_stmt 0 view .LVU2407
	cmp	r7, #0
	beq	.L501
	.loc 1 3725 27 discriminator 1 view .LVU2408
	ldr	r3, [r4, #32]
	cmp	r3, #0
	beq	.L501
	.loc 1 3725 57 discriminator 2 view .LVU2409
	ldr	r3, [r4, #36]
	.loc 1 3725 48 discriminator 2 view .LVU2410
	cmp	r3, #0
	beq	.L501
	.loc 1 3725 68 discriminator 3 view .LVU2411
	ldrb	r10, [r4, #20]	@ zero_extendqisi2
	cmp	r10, #1
	bne	.L501
	.loc 1 3733 5 is_stmt 1 view .LVU2412
.LBB1670:
	.loc 1 3735 9 view .LVU2413
.LVL479:
	.loc 1 3736 9 view .LVU2414
	.loc 1 3736 24 is_stmt 0 view .LVU2415
	mov	r6, #0
.LBB1671:
.LBB1672:
	.loc 1 3195 5 view .LVU2416
	mov	r9, r7
.LBE1672:
.LBE1671:
.LBB1674:
.LBB1675:
	mov	r8, r7
.LBE1675:
.LBE1674:
.LBB1677:
.LBB1678:
	ldr	r1, [r7]
.LVL480:
	.loc 1 3195 5 view .LVU2417
	ldr	r0, [r4, #44]
.LVL481:
	.loc 1 3195 5 view .LVU2418
.LBE1678:
.LBE1677:
	.loc 1 3736 24 view .LVU2419
	str	r6, [r4, #64]
	.loc 1 3738 9 is_stmt 1 view .LVU2420
.LVL482:
.LBB1680:
.LBI1677:
	.loc 1 3193 59 view .LVU2421
.LBB1679:
	.loc 1 3195 5 view .LVU2422
	blx	r3
.LVL483:
	.loc 1 3196 5 view .LVU2423
	str	r6, [r7]	@ unaligned
	str	r6, [r7, #4]	@ unaligned
	str	r6, [r7, #8]	@ unaligned
	str	r6, [r7, #12]	@ unaligned
.LVL484:
	.loc 1 3196 5 is_stmt 0 view .LVU2424
.LBE1679:
.LBE1680:
	.loc 1 3739 9 is_stmt 1 view .LVU2425
.LBB1681:
.LBI1671:
	.loc 1 3193 59 view .LVU2426
.LBB1673:
	.loc 1 3195 5 view .LVU2427
	ldr	r1, [r9, #16]!
.LVL485:
	.loc 1 3195 5 is_stmt 0 view .LVU2428
	ldr	r0, [r4, #44]
	ldr	r3, [r4, #36]
	blx	r3
.LVL486:
	.loc 1 3196 5 is_stmt 1 view .LVU2429
	str	r6, [r7, #16]	@ unaligned
	str	r6, [r9, #4]	@ unaligned
	str	r6, [r9, #8]	@ unaligned
	str	r6, [r9, #12]	@ unaligned
.LVL487:
	.loc 1 3196 5 is_stmt 0 view .LVU2430
.LBE1673:
.LBE1681:
	.loc 1 3740 9 is_stmt 1 view .LVU2431
.LBB1682:
.LBI1674:
	.loc 1 3193 59 view .LVU2432
.LBB1676:
	.loc 1 3195 5 view .LVU2433
	ldr	r1, [r8, #32]!
.LVL488:
	.loc 1 3195 5 is_stmt 0 view .LVU2434
	ldr	r0, [r4, #44]
	ldr	r3, [r4, #36]
	blx	r3
.LVL489:
	.loc 1 3196 5 is_stmt 1 view .LVU2435
	str	r6, [r7, #32]	@ unaligned
	str	r6, [r8, #4]	@ unaligned
	str	r6, [r8, #8]	@ unaligned
	str	r6, [r8, #12]	@ unaligned
.LVL490:
	.loc 1 3196 5 is_stmt 0 view .LVU2436
.LBE1676:
.LBE1682:
	.loc 1 3743 9 is_stmt 1 view .LVU2437
	.loc 1 3743 19 is_stmt 0 view .LVU2438
	ldr	r0, [r7, #60]
	.loc 1 3743 12 view .LVU2439
	cmp	r0, r6
.LBE1670:
	.loc 1 3720 13 view .LVU2440
	moveq	r5, r10
.LVL491:
.LBB1683:
	.loc 1 3743 12 view .LVU2441
	beq	.L503
	.loc 1 3745 13 is_stmt 1 view .LVU2442
	.loc 1 3745 16 is_stmt 0 view .LVU2443
	ldrb	r3, [r4, #21]	@ zero_extendqisi2
	cmp	r3, #4
	beq	.L504
.L506:
.LBE1683:
	.loc 1 3720 13 view .LVU2444
	mov	r5, #1
.L505:
.LVL492:
.LBB1684:
	.loc 1 3754 13 is_stmt 1 view .LVU2445
	.loc 1 3754 29 is_stmt 0 view .LVU2446
	mov	r3, #0
	str	r3, [r7, #60]
.LVL493:
.L503:
	.loc 1 3758 9 is_stmt 1 view .LVU2447
	ldr	r3, [r4, #36]
	mov	r1, r7
	ldr	r0, [r4, #44]
	blx	r3
.LVL494:
	.loc 1 3758 9 is_stmt 0 view .LVU2448
.LBE1684:
	.loc 1 3760 5 is_stmt 1 view .LVU2449
	.loc 1 3760 22 is_stmt 0 view .LVU2450
	mov	r3, #0
	strb	r3, [r4, #20]
	.loc 1 3762 5 is_stmt 1 view .LVU2451
.LVL495:
.L499:
	.loc 1 3763 1 is_stmt 0 view .LVU2452
	mov	r0, r5
	pop	{r4, r5, r6, r7, r8, r9, r10, pc}
.LVL496:
.L501:
	.loc 1 3727 9 is_stmt 1 view .LVU2453
	.loc 1 3727 12 is_stmt 0 view .LVU2454
	cmp	r5, #0
	beq	.L499
	.loc 1 3728 13 is_stmt 1 view .LVU2455
	.loc 1 3728 32 is_stmt 0 view .LVU2456
	mov	r3, #24
	.loc 1 3730 16 view .LVU2457
	mov	r5, #0
	.loc 1 3728 32 view .LVU2458
	strb	r3, [r4, #22]
	.loc 1 3763 1 view .LVU2459
	mov	r0, r5
.LVL497:
	.loc 1 3763 1 view .LVU2460
	pop	{r4, r5, r6, r7, r8, r9, r10, pc}
.LVL498:
.L504:
.LBB1685:
	.loc 1 3747 17 is_stmt 1 view .LVU2461
	.loc 1 3747 21 is_stmt 0 view .LVU2462
	bl	fclose
.LVL499:
	.loc 1 3747 20 view .LVU2463
	cmn	r0, #1
	bne	.L506
	.loc 1 3749 21 is_stmt 1 view .LVU2464
	.loc 1 3749 24 is_stmt 0 view .LVU2465
	cmp	r5, #0
	.loc 1 3750 25 is_stmt 1 view .LVU2466
	.loc 1 3750 44 is_stmt 0 view .LVU2467
	movne	r3, #21
	.loc 1 3751 28 view .LVU2468
	movne	r5, r6
	.loc 1 3750 44 view .LVU2469
	strbne	r3, [r4, #22]
	b	.L505
.LBE1685:
	.cfi_endproc
.LFE77:
	.size	mz_zip_reader_end_internal, .-mz_zip_reader_end_internal
	.section	.text.mz_zip_writer_end_internal,"ax",%progbits
	.align	2
	.syntax unified
	.arm
	.fpu vfp
	.type	mz_zip_writer_end_internal, %function
mz_zip_writer_end_internal:
.LVL500:
.LFB122:
	.loc 1 5504 1 is_stmt 1 view -0
	.cfi_startproc
	@ args = 0, pretend = 0, frame = 0
	@ frame_needed = 0, uses_anonymous_args = 0
	.loc 1 5505 5 view .LVU2471
	.loc 1 5506 5 view .LVU2472
	.loc 1 5508 5 view .LVU2473
	.loc 1 5504 1 is_stmt 0 view .LVU2474
	push	{r4, r5, r6, r7, r8, r9, r10, lr}
	.cfi_def_cfa_offset 32
	.cfi_offset 4, -32
	.cfi_offset 5, -28
	.cfi_offset 6, -24
	.cfi_offset 7, -20
	.cfi_offset 8, -16
	.cfi_offset 9, -12
	.cfi_offset 10, -8
	.cfi_offset 14, -4
	.loc 1 5508 8 view .LVU2475
	subs	r4, r0, #0
	.loc 1 5512 16 view .LVU2476
	moveq	r7, r4
	.loc 1 5508 8 view .LVU2477
	beq	.L521
	.loc 1 5508 26 discriminator 1 view .LVU2478
	ldr	r6, [r4, #64]
	mov	r7, r1
	.loc 1 5508 17 discriminator 1 view .LVU2479
	cmp	r6, #0
	beq	.L523
	.loc 1 5508 38 discriminator 2 view .LVU2480
	ldr	r3, [r4, #32]
	cmp	r3, #0
	beq	.L523
	.loc 1 5508 68 discriminator 3 view .LVU2481
	ldr	r2, [r4, #36]
	.loc 1 5508 59 discriminator 3 view .LVU2482
	cmp	r2, #0
	beq	.L523
	.loc 1 5508 125 discriminator 4 view .LVU2483
	ldrb	r3, [r4, #20]	@ zero_extendqisi2
	.loc 1 5508 79 discriminator 4 view .LVU2484
	sub	r3, r3, #2
	cmp	r3, #1
	bhi	.L523
	.loc 1 5515 5 is_stmt 1 view .LVU2485
.LVL501:
	.loc 1 5516 5 view .LVU2486
	.loc 1 5516 20 is_stmt 0 view .LVU2487
	mov	r5, #0
.LBB1686:
.LBB1687:
	.loc 1 3195 5 view .LVU2488
	mov	r9, r6
.LBE1687:
.LBE1686:
.LBB1689:
.LBB1690:
	mov	r8, r6
.LBE1690:
.LBE1689:
.LBB1692:
.LBB1693:
	ldr	r1, [r6]
.LVL502:
	.loc 1 3195 5 view .LVU2489
	ldr	r0, [r4, #44]
.LVL503:
	.loc 1 3195 5 view .LVU2490
.LBE1693:
.LBE1692:
	.loc 1 5516 20 view .LVU2491
	str	r5, [r4, #64]
	.loc 1 5517 5 is_stmt 1 view .LVU2492
.LVL504:
.LBB1695:
.LBI1692:
	.loc 1 3193 59 view .LVU2493
.LBB1694:
	.loc 1 3195 5 view .LVU2494
	blx	r2
.LVL505:
	.loc 1 3196 5 view .LVU2495
	str	r5, [r6]	@ unaligned
	str	r5, [r6, #4]	@ unaligned
	str	r5, [r6, #8]	@ unaligned
	str	r5, [r6, #12]	@ unaligned
.LVL506:
	.loc 1 3196 5 is_stmt 0 view .LVU2496
.LBE1694:
.LBE1695:
	.loc 1 5518 5 is_stmt 1 view .LVU2497
.LBB1696:
.LBI1686:
	.loc 1 3193 59 view .LVU2498
.LBB1688:
	.loc 1 3195 5 view .LVU2499
	ldr	r1, [r9, #16]!
.LVL507:
	.loc 1 3195 5 is_stmt 0 view .LVU2500
	ldr	r0, [r4, #44]
	ldr	r3, [r4, #36]
	blx	r3
.LVL508:
	.loc 1 3196 5 is_stmt 1 view .LVU2501
	str	r5, [r6, #16]	@ unaligned
	str	r5, [r9, #4]	@ unaligned
	str	r5, [r9, #8]	@ unaligned
	str	r5, [r9, #12]	@ unaligned
.LVL509:
	.loc 1 3196 5 is_stmt 0 view .LVU2502
.LBE1688:
.LBE1696:
	.loc 1 5519 5 is_stmt 1 view .LVU2503
.LBB1697:
.LBI1689:
	.loc 1 3193 59 view .LVU2504
.LBB1691:
	.loc 1 3195 5 view .LVU2505
	ldr	r1, [r8, #32]!
.LVL510:
	.loc 1 3195 5 is_stmt 0 view .LVU2506
	ldr	r0, [r4, #44]
	ldr	r3, [r4, #36]
	blx	r3
.LVL511:
	.loc 1 3196 5 is_stmt 1 view .LVU2507
	str	r5, [r6, #32]	@ unaligned
	str	r5, [r8, #4]	@ unaligned
	str	r5, [r8, #8]	@ unaligned
	str	r5, [r8, #12]	@ unaligned
.LVL512:
	.loc 1 3196 5 is_stmt 0 view .LVU2508
.LBE1691:
.LBE1697:
	.loc 1 5522 5 is_stmt 1 view .LVU2509
	.loc 1 5522 15 is_stmt 0 view .LVU2510
	ldr	r0, [r6, #60]
	.loc 1 5522 8 view .LVU2511
	cmp	r0, r5
	.loc 1 5506 13 view .LVU2512
	moveq	r7, #1
.LVL513:
	.loc 1 5522 8 view .LVU2513
	beq	.L525
	.loc 1 5524 9 is_stmt 1 view .LVU2514
	.loc 1 5524 12 is_stmt 0 view .LVU2515
	ldrb	r3, [r4, #21]	@ zero_extendqisi2
	cmp	r3, #4
	beq	.L526
.L528:
	.loc 1 5506 13 view .LVU2516
	mov	r7, #1
.L527:
.LVL514:
	.loc 1 5534 9 is_stmt 1 view .LVU2517
	.loc 1 5534 25 is_stmt 0 view .LVU2518
	mov	r3, #0
	str	r3, [r6, #60]
.LVL515:
.L525:
	.loc 1 5538 5 is_stmt 1 view .LVU2519
	.loc 1 5538 8 is_stmt 0 view .LVU2520
	ldr	r3, .L549
	ldr	r2, [r4, #52]
	cmp	r2, r3
	beq	.L548
.L529:
	.loc 1 5544 5 is_stmt 1 view .LVU2521
	ldr	r3, [r4, #36]
	mov	r1, r6
	ldr	r0, [r4, #44]
	blx	r3
.LVL516:
	.loc 1 5545 5 view .LVU2522
	.loc 1 5545 22 is_stmt 0 view .LVU2523
	mov	r3, #0
	strb	r3, [r4, #20]
	.loc 1 5546 5 is_stmt 1 view .LVU2524
.LVL517:
.L521:
	.loc 1 5547 1 is_stmt 0 view .LVU2525
	mov	r0, r7
	pop	{r4, r5, r6, r7, r8, r9, r10, pc}
.LVL518:
.L523:
	.loc 1 5510 9 is_stmt 1 view .LVU2526
	.loc 1 5510 12 is_stmt 0 view .LVU2527
	cmp	r7, #0
	beq	.L521
.LVL519:
.LBB1698:
.LBB1699:
	.loc 1 3323 9 is_stmt 1 view .LVU2528
	.loc 1 3323 28 is_stmt 0 view .LVU2529
	mov	r3, #24
.LBE1699:
.LBE1698:
	.loc 1 5512 16 view .LVU2530
	mov	r7, #0
.LBB1701:
.LBB1700:
	.loc 1 3323 28 view .LVU2531
	strb	r3, [r4, #22]
.LBE1700:
.LBE1701:
	.loc 1 5547 1 view .LVU2532
	mov	r0, r7
.LVL520:
	.loc 1 5547 1 view .LVU2533
	pop	{r4, r5, r6, r7, r8, r9, r10, pc}
.LVL521:
.L548:
	.loc 1 5538 62 discriminator 1 view .LVU2534
	ldr	r1, [r6, #72]
	.loc 1 5538 52 discriminator 1 view .LVU2535
	cmp	r1, #0
	beq	.L529
	.loc 1 5540 9 is_stmt 1 view .LVU2536
	ldr	r3, [r4, #36]
	ldr	r0, [r4, #44]
	blx	r3
.LVL522:
	.loc 1 5541 9 view .LVU2537
	.loc 1 5541 24 is_stmt 0 view .LVU2538
	mov	r3, #0
	str	r3, [r6, #72]
	b	.L529
.LVL523:
.L526:
	.loc 1 5526 13 is_stmt 1 view .LVU2539
	.loc 1 5526 17 is_stmt 0 view .LVU2540
	bl	fclose
.LVL524:
	.loc 1 5526 16 view .LVU2541
	cmn	r0, #1
	bne	.L528
	.loc 1 5528 17 is_stmt 1 view .LVU2542
	.loc 1 5528 20 is_stmt 0 view .LVU2543
	cmp	r7, #0
	.loc 1 5529 21 is_stmt 1 view .LVU2544
.LVL525:
.LBB1702:
.LBI1702:
	.loc 1 3320 62 view .LVU2545
.LBB1703:
	.loc 1 3322 5 view .LVU2546
	.loc 1 3323 9 view .LVU2547
	.loc 1 3323 28 is_stmt 0 view .LVU2548
	movne	r3, #21
.LBE1703:
.LBE1702:
	.loc 1 5530 24 view .LVU2549
	movne	r7, r5
.LBB1705:
.LBB1704:
	.loc 1 3323 28 view .LVU2550
	strbne	r3, [r4, #22]
	.loc 1 3324 5 is_stmt 1 view .LVU2551
	.loc 1 3324 12 is_stmt 0 view .LVU2552
	b	.L527
.L550:
	.align	2
.L549:
	.word	mz_zip_heap_write_func
.LBE1704:
.LBE1705:
	.cfi_endproc
.LFE122:
	.size	mz_zip_writer_end_internal, .-mz_zip_writer_end_internal
	.section	.text.mz_zip_file_read_func,"ax",%progbits
	.align	2
	.syntax unified
	.arm
	.fpu vfp
	.type	mz_zip_file_read_func, %function
mz_zip_file_read_func:
.LVL526:
.LFB82:
	.loc 1 3833 1 is_stmt 1 view -0
	.cfi_startproc
	@ args = 8, pretend = 0, frame = 0
	@ frame_needed = 0, uses_anonymous_args = 0
	.loc 1 3834 5 view .LVU2554
	.loc 1 3833 1 is_stmt 0 view .LVU2555
	push	{r4, r5, r6, r7, r8, lr}
	.cfi_def_cfa_offset 24
	.cfi_offset 4, -24
	.cfi_offset 5, -20
	.cfi_offset 6, -16
	.cfi_offset 7, -12
	.cfi_offset 8, -8
	.cfi_offset 14, -4
	mov	r6, r0
.LVL527:
	.loc 1 3835 5 is_stmt 1 view .LVU2556
	.loc 1 3833 1 is_stmt 0 view .LVU2557
	mov	r4, r2
	mov	r5, r3
	.loc 1 3835 24 view .LVU2558
	ldr	r3, [r0, #64]
	.loc 1 3833 1 view .LVU2559
	sub	sp, sp, #8
	.cfi_def_cfa_offset 32
	.loc 1 3835 24 view .LVU2560
	ldr	r0, [r3, #60]
.LVL528:
	.loc 1 3833 1 view .LVU2561
	ldr	r7, [sp, #32]
	ldr	r8, [sp, #36]
	.loc 1 3835 24 view .LVU2562
	bl	ftello
.LVL529:
	.loc 1 3837 21 view .LVU2563
	ldr	ip, [r6, #64]
	.loc 1 3837 14 view .LVU2564
	ldr	r3, [ip, #64]
	adds	r2, r4, r3
	ldr	r3, [ip, #68]
	adc	r3, r5, r3
	.loc 1 3839 8 view .LVU2565
	cmp	r3, #0
.LVL530:
	.loc 1 3837 5 is_stmt 1 view .LVU2566
	.loc 1 3839 5 view .LVU2567
	.loc 1 3839 8 is_stmt 0 view .LVU2568
	blt	.L553
	.loc 1 3839 34 discriminator 1 view .LVU2569
	cmp	r3, r1
	cmpeq	r2, r0
	.loc 1 3839 76 discriminator 1 view .LVU2570
	ldr	r0, [ip, #60]
.LVL531:
	.loc 1 3839 34 discriminator 1 view .LVU2571
	beq	.L554
	.loc 1 3839 76 discriminator 2 view .LVU2572
	mov	r1, #0
	str	r1, [sp]
.LVL532:
	.loc 1 3839 76 discriminator 2 view .LVU2573
	bl	fseeko
.LVL533:
	.loc 1 3839 72 discriminator 2 view .LVU2574
	cmp	r0, #0
	bne	.L553
	.loc 1 3842 34 view .LVU2575
	ldr	ip, [r6, #64]
.L554:
	.loc 1 3842 5 is_stmt 1 view .LVU2576
	.loc 1 3842 12 is_stmt 0 view .LVU2577
	mov	r2, r8
	mov	r1, #1
	mov	r0, r7
	ldr	r3, [ip, #60]
	.loc 1 3843 1 view .LVU2578
	add	sp, sp, #8
	.cfi_remember_state
	.cfi_def_cfa_offset 24
	@ sp needed
	pop	{r4, r5, r6, r7, r8, lr}
	.cfi_restore 14
	.cfi_restore 8
	.cfi_restore 7
	.cfi_restore 6
	.cfi_restore 5
	.cfi_restore 4
	.cfi_def_cfa_offset 0
.LVL534:
	.loc 1 3842 12 view .LVU2579
	b	fread
.LVL535:
.L553:
	.cfi_restore_state
	.loc 1 3843 1 view .LVU2580
	mov	r0, #0
	add	sp, sp, #8
	.cfi_def_cfa_offset 24
	@ sp needed
	pop	{r4, r5, r6, r7, r8, pc}
	.loc 1 3843 1 view .LVU2581
	.cfi_endproc
.LFE82:
	.size	mz_zip_file_read_func, .-mz_zip_file_read_func
	.section	.text.mz_zip_file_write_callback,"ax",%progbits
	.align	2
	.syntax unified
	.arm
	.fpu vfp
	.type	mz_zip_file_write_callback, %function
mz_zip_file_write_callback:
.LVL536:
.LFB108:
	.loc 1 5016 1 is_stmt 1 view -0
	.cfi_startproc
	@ args = 8, pretend = 0, frame = 0
	@ frame_needed = 0, uses_anonymous_args = 0
	@ link register save eliminated.
	.loc 1 5017 5 view .LVU2583
	.loc 1 5019 5 view .LVU2584
	.loc 1 5016 1 is_stmt 0 view .LVU2585
	mov	r3, r0
	.loc 1 5019 12 view .LVU2586
	ldm	sp, {r0, r2}
.LVL537:
	.loc 1 5019 12 view .LVU2587
	mov	r1, #1
	b	fwrite
.LVL538:
	.loc 1 5019 12 view .LVU2588
	.cfi_endproc
.LFE108:
	.size	mz_zip_file_write_callback, .-mz_zip_file_write_callback
	.section	.text.mz_zip_file_write_func,"ax",%progbits
	.align	2
	.syntax unified
	.arm
	.fpu vfp
	.type	mz_zip_file_write_func, %function
mz_zip_file_write_func:
.LVL539:
.LFB127:
	.loc 1 5638 1 is_stmt 1 view -0
	.cfi_startproc
	@ args = 8, pretend = 0, frame = 0
	@ frame_needed = 0, uses_anonymous_args = 0
	.loc 1 5639 5 view .LVU2590
	.loc 1 5638 1 is_stmt 0 view .LVU2591
	push	{r4, r5, r6, r7, r8, lr}
	.cfi_def_cfa_offset 24
	.cfi_offset 4, -24
	.cfi_offset 5, -20
	.cfi_offset 6, -16
	.cfi_offset 7, -12
	.cfi_offset 8, -8
	.cfi_offset 14, -4
	mov	r6, r0
.LVL540:
	.loc 1 5640 5 is_stmt 1 view .LVU2592
	.loc 1 5638 1 is_stmt 0 view .LVU2593
	mov	r4, r2
	mov	r5, r3
	.loc 1 5640 24 view .LVU2594
	ldr	r3, [r0, #64]
	.loc 1 5638 1 view .LVU2595
	sub	sp, sp, #8
	.cfi_def_cfa_offset 32
	.loc 1 5640 24 view .LVU2596
	ldr	r0, [r3, #60]
.LVL541:
	.loc 1 5638 1 view .LVU2597
	ldr	r7, [sp, #32]
	ldr	r8, [sp, #36]
	.loc 1 5640 24 view .LVU2598
	bl	ftello
.LVL542:
	.loc 1 5642 21 view .LVU2599
	ldr	ip, [r6, #64]
	.loc 1 5642 14 view .LVU2600
	ldr	r3, [ip, #64]
	adds	r2, r4, r3
	ldr	r3, [ip, #68]
	adc	r3, r5, r3
	.loc 1 5644 8 view .LVU2601
	cmp	r3, #0
.LVL543:
	.loc 1 5642 5 is_stmt 1 view .LVU2602
	.loc 1 5644 5 view .LVU2603
	.loc 1 5644 8 is_stmt 0 view .LVU2604
	blt	.L559
	.loc 1 5644 34 discriminator 1 view .LVU2605
	cmp	r3, r1
	cmpeq	r2, r0
	.loc 1 5644 76 discriminator 1 view .LVU2606
	ldr	r0, [ip, #60]
.LVL544:
	.loc 1 5644 34 discriminator 1 view .LVU2607
	beq	.L560
	.loc 1 5644 76 discriminator 2 view .LVU2608
	mov	r1, #0
	str	r1, [sp]
.LVL545:
	.loc 1 5644 76 discriminator 2 view .LVU2609
	bl	fseeko
.LVL546:
	.loc 1 5644 72 discriminator 2 view .LVU2610
	cmp	r0, #0
	bne	.L559
	.loc 1 5650 35 view .LVU2611
	ldr	ip, [r6, #64]
.L560:
	.loc 1 5650 5 is_stmt 1 view .LVU2612
	.loc 1 5650 12 is_stmt 0 view .LVU2613
	mov	r2, r8
	mov	r1, #1
	mov	r0, r7
	ldr	r3, [ip, #60]
	.loc 1 5651 1 view .LVU2614
	add	sp, sp, #8
	.cfi_remember_state
	.cfi_def_cfa_offset 24
	@ sp needed
	pop	{r4, r5, r6, r7, r8, lr}
	.cfi_restore 14
	.cfi_restore 8
	.cfi_restore 7
	.cfi_restore 6
	.cfi_restore 5
	.cfi_restore 4
	.cfi_def_cfa_offset 0
.LVL547:
	.loc 1 5650 12 view .LVU2615
	b	fwrite
.LVL548:
.L559:
	.cfi_restore_state
	.loc 1 5646 9 is_stmt 1 view .LVU2616
.LBB1706:
.LBI1706:
	.loc 1 3320 62 view .LVU2617
.LBB1707:
	.loc 1 3322 5 view .LVU2618
	.loc 1 3323 9 view .LVU2619
	.loc 1 3323 28 is_stmt 0 view .LVU2620
	mov	r3, #22
.LBE1707:
.LBE1706:
	.loc 1 5651 1 view .LVU2621
	mov	r0, #0
.LBB1709:
.LBB1708:
	.loc 1 3323 28 view .LVU2622
	strb	r3, [r6, #22]
	.loc 1 3324 5 is_stmt 1 view .LVU2623
.LVL549:
	.loc 1 3324 5 is_stmt 0 view .LVU2624
.LBE1708:
.LBE1709:
	.loc 1 5647 9 is_stmt 1 view .LVU2625
	.loc 1 5651 1 is_stmt 0 view .LVU2626
	add	sp, sp, #8
	.cfi_def_cfa_offset 24
	@ sp needed
	pop	{r4, r5, r6, r7, r8, pc}
	.loc 1 5651 1 view .LVU2627
	.cfi_endproc
.LFE127:
	.size	mz_zip_file_write_func, .-mz_zip_file_write_func
	.section	.text.mz_zip_writer_add_put_buf_callback,"ax",%progbits
	.align	2
	.syntax unified
	.arm
	.fpu vfp
	.type	mz_zip_writer_add_put_buf_callback, %function
mz_zip_writer_add_put_buf_callback:
.LVL550:
.LFB134:
	.loc 1 5832 1 is_stmt 1 view -0
	.cfi_startproc
	@ args = 0, pretend = 0, frame = 0
	@ frame_needed = 0, uses_anonymous_args = 0
	.loc 1 5833 5 view .LVU2629
	.loc 1 5832 1 is_stmt 0 view .LVU2630
	push	{r4, r5, lr}
	.cfi_def_cfa_offset 12
	.cfi_offset 4, -12
	.cfi_offset 5, -8
	.cfi_offset 14, -4
	mov	r4, r2
.LVL551:
	.loc 1 5834 5 is_stmt 1 view .LVU2631
	.loc 1 5834 20 is_stmt 0 view .LVU2632
	ldr	r3, [r2]
	.loc 1 5832 1 view .LVU2633
	sub	sp, sp, #12
	.cfi_def_cfa_offset 24
	.loc 1 5834 14 view .LVU2634
	ldr	r2, [r3, #60]
.LVL552:
	.loc 1 5834 14 view .LVU2635
	strd	r0, [sp]
	.loc 1 5832 1 view .LVU2636
	mov	r5, r1
	.loc 1 5834 14 view .LVU2637
	mov	r0, r2
.LVL553:
	.loc 1 5834 14 view .LVU2638
	ldr	r1, [r3, #52]
.LVL554:
	.loc 1 5834 14 view .LVU2639
	ldrd	r2, [r4, #8]
	blx	r1
.LVL555:
	.loc 1 5834 8 view .LVU2640
	cmp	r0, r5
	.loc 1 5835 16 view .LVU2641
	movne	r0, #0
	.loc 1 5834 8 view .LVU2642
	bne	.L564
.LVL556:
.LBB1712:
.LBI1712:
	.loc 1 5831 16 is_stmt 1 view .LVU2643
.LBB1713:
	.loc 1 5837 5 view .LVU2644
	.loc 1 5837 36 is_stmt 0 view .LVU2645
	ldr	r2, [r4, #8]
	mov	r3, r0
	ldr	ip, [r4, #12]
	.loc 1 5838 25 view .LVU2646
	ldr	r1, [r4, #16]
	.loc 1 5837 36 view .LVU2647
	adds	r2, r2, r0
	adc	ip, ip, r0, asr #31
	.loc 1 5838 25 view .LVU2648
	adds	r1, r1, r0
	mov	r0, #1
.LVL557:
	.loc 1 5837 36 view .LVU2649
	str	r2, [r4, #8]
	.loc 1 5838 25 view .LVU2650
	ldr	r2, [r4, #20]
	str	r1, [r4, #16]
	adc	r3, r2, r3, asr #31
.LVL558:
	.loc 1 5837 36 view .LVU2651
	str	ip, [r4, #12]
	.loc 1 5838 5 is_stmt 1 view .LVU2652
	.loc 1 5838 25 is_stmt 0 view .LVU2653
	str	r3, [r4, #20]
	.loc 1 5839 5 is_stmt 1 view .LVU2654
.LVL559:
.L564:
	.loc 1 5839 5 is_stmt 0 view .LVU2655
.LBE1713:
.LBE1712:
	.loc 1 5840 1 view .LVU2656
	add	sp, sp, #12
	.cfi_def_cfa_offset 12
	@ sp needed
	pop	{r4, r5, pc}
	.loc 1 5840 1 view .LVU2657
	.cfi_endproc
.LFE134:
	.size	mz_zip_writer_add_put_buf_callback, .-mz_zip_writer_add_put_buf_callback
	.section	.text.mz_zip_reader_init_internal,"ax",%progbits
	.align	2
	.syntax unified
	.arm
	.fpu vfp
	.type	mz_zip_reader_init_internal, %function
mz_zip_reader_init_internal:
.LVL560:
.LFB71:
	.loc 1 3328 1 is_stmt 1 view -0
	.cfi_startproc
	@ args = 0, pretend = 0, frame = 0
	@ frame_needed = 0, uses_anonymous_args = 0
	.loc 1 3329 5 view .LVU2659
	.loc 1 3330 5 view .LVU2660
	.loc 1 3328 1 is_stmt 0 view .LVU2661
	push	{r4, r5, r6, lr}
	.cfi_def_cfa_offset 16
	.cfi_offset 4, -16
	.cfi_offset 5, -12
	.cfi_offset 6, -8
	.cfi_offset 14, -4
	.loc 1 3330 8 view .LVU2662
	subs	r4, r0, #0
	beq	.L576
	.loc 1 3330 17 discriminator 1 view .LVU2663
	ldr	r3, [r4, #64]
	cmp	r3, #0
	beq	.L578
.L570:
	.loc 1 3331 9 is_stmt 1 view .LVU2664
.LVL561:
.LBB1722:
.LBI1722:
	.loc 1 3320 62 view .LVU2665
.LBB1723:
	.loc 1 3322 5 view .LVU2666
	.loc 1 3323 9 view .LVU2667
	.loc 1 3323 28 is_stmt 0 view .LVU2668
	mov	r3, #24
.LBE1723:
.LBE1722:
	.loc 1 3331 16 view .LVU2669
	mov	r0, #0
.LVL562:
.LBB1725:
.LBB1724:
	.loc 1 3323 28 view .LVU2670
	strb	r3, [r4, #22]
	pop	{r4, r5, r6, pc}
.LVL563:
.L578:
	.loc 1 3323 28 view .LVU2671
.LBE1724:
.LBE1725:
	.loc 1 3330 37 discriminator 2 view .LVU2672
	ldrb	r3, [r4, #20]	@ zero_extendqisi2
	cmp	r3, #0
	bne	.L570
.LBB1726:
.LBB1727:
	.loc 1 3340 26 view .LVU2673
	vldr.64	d7, .L580	@ int
	.loc 1 3342 25 view .LVU2674
	mov	r6, #0
	.loc 1 3333 14 view .LVU2675
	ldr	r3, [r4, #32]
	mov	r5, r1
.LVL564:
	.loc 1 3333 14 view .LVU2676
.LBE1727:
.LBI1726:
	.loc 1 3327 16 is_stmt 1 view .LVU2677
.LBB1730:
	.loc 1 3333 5 view .LVU2678
	.loc 1 3333 8 is_stmt 0 view .LVU2679
	cmp	r3, #0
	.loc 1 3334 9 is_stmt 1 view .LVU2680
	.loc 1 3334 24 is_stmt 0 view .LVU2681
	ldreq	r2, .L580+8
	.loc 1 3345 59 view .LVU2682
	mov	r1, #1
.LVL565:
	.loc 1 3334 24 view .LVU2683
	moveq	r3, r2
	streq	r2, [r4, #32]
	.loc 1 3335 5 is_stmt 1 view .LVU2684
	.loc 1 3335 8 is_stmt 0 view .LVU2685
	ldr	r2, [r4, #36]
	.loc 1 3340 26 view .LVU2686
	vstr.64	d7, [r4]	@ int
	.loc 1 3335 8 view .LVU2687
	cmp	r2, #0
	.loc 1 3336 9 is_stmt 1 view .LVU2688
	.loc 1 3336 23 is_stmt 0 view .LVU2689
	ldreq	r2, .L580+12
	.loc 1 3341 40 view .LVU2690
	vstr.64	d7, [r4, #8]	@ int
	.loc 1 3336 23 view .LVU2691
	streq	r2, [r4, #36]
	.loc 1 3337 5 is_stmt 1 view .LVU2692
	.loc 1 3337 8 is_stmt 0 view .LVU2693
	ldr	r2, [r4, #40]
	.loc 1 3345 59 view .LVU2694
	ldr	r0, [r4, #44]
.LVL566:
	.loc 1 3337 8 view .LVU2695
	cmp	r2, #0
	.loc 1 3338 9 is_stmt 1 view .LVU2696
	.loc 1 3340 5 view .LVU2697
	.loc 1 3341 5 view .LVU2698
	.loc 1 3342 5 view .LVU2699
	.loc 1 3338 26 is_stmt 0 view .LVU2700
	ldreq	r2, .L580+16
	.loc 1 3342 25 view .LVU2701
	str	r6, [r4, #16]
	.loc 1 3343 5 is_stmt 1 view .LVU2702
	.loc 1 3338 26 is_stmt 0 view .LVU2703
	streq	r2, [r4, #40]
	.loc 1 3343 24 view .LVU2704
	strb	r6, [r4, #22]
	.loc 1 3345 5 is_stmt 1 view .LVU2705
	.loc 1 3345 59 is_stmt 0 view .LVU2706
	mov	r2, #88
	blx	r3
.LVL567:
	.loc 1 3345 8 view .LVU2707
	cmp	r0, r6
	.loc 1 3345 32 view .LVU2708
	str	r0, [r4, #64]
	.loc 1 3345 8 view .LVU2709
	beq	.L579
	.loc 1 3348 5 is_stmt 1 view .LVU2710
	mov	r1, r6
	mov	r2, #88
	bl	memset
.LVL568:
	.loc 1 3349 5 view .LVU2711
	.loc 1 3349 54 is_stmt 0 view .LVU2712
	mov	r2, #1
	.loc 1 3350 62 view .LVU2713
	mov	r1, #4
	.loc 1 3349 11 view .LVU2714
	ldr	r3, [r4, #64]
	.loc 1 3358 12 view .LVU2715
	mov	r0, r2
	.loc 1 3352 34 view .LVU2716
	str	r5, [r3, #48]
	.loc 1 3353 29 view .LVU2717
	str	r6, [r3, #52]
	.loc 1 3354 54 view .LVU2718
	str	r6, [r3, #56]
	.loc 1 3349 54 view .LVU2719
	str	r2, [r3, #12]
	.loc 1 3350 5 is_stmt 1 view .LVU2720
	.loc 1 3350 62 is_stmt 0 view .LVU2721
	str	r1, [r3, #28]
	.loc 1 3351 5 is_stmt 1 view .LVU2722
	.loc 1 3351 69 is_stmt 0 view .LVU2723
	str	r1, [r3, #44]
	.loc 1 3352 5 is_stmt 1 view .LVU2724
	.loc 1 3353 5 view .LVU2725
	.loc 1 3354 5 view .LVU2726
	.loc 1 3356 5 view .LVU2727
	.loc 1 3356 22 is_stmt 0 view .LVU2728
	strb	r2, [r4, #20]
	.loc 1 3358 5 is_stmt 1 view .LVU2729
	.loc 1 3358 12 is_stmt 0 view .LVU2730
	pop	{r4, r5, r6, pc}
.L579:
	.loc 1 3346 9 is_stmt 1 view .LVU2731
.LVL569:
.LBB1728:
.LBI1728:
	.loc 1 3320 62 view .LVU2732
.LBB1729:
	.loc 1 3322 5 view .LVU2733
	.loc 1 3323 9 view .LVU2734
	.loc 1 3323 28 is_stmt 0 view .LVU2735
	mov	r2, #16
	strb	r2, [r4, #22]
	.loc 1 3324 5 is_stmt 1 view .LVU2736
.LVL570:
	.loc 1 3324 5 is_stmt 0 view .LVU2737
.LBE1729:
.LBE1728:
	.loc 1 3346 16 view .LVU2738
	pop	{r4, r5, r6, pc}
.LVL571:
.L576:
	.loc 1 3346 16 view .LVU2739
.LBE1730:
.LBE1726:
	.loc 1 3331 16 view .LVU2740
	mov	r0, r4
.LVL572:
	.loc 1 3359 1 view .LVU2741
	pop	{r4, r5, r6, pc}
.L581:
	.align	3
.L580:
	.word	0
	.word	0
	.word	miniz_def_alloc_func
	.word	miniz_def_free_func
	.word	miniz_def_realloc_func
	.cfi_endproc
.LFE71:
	.size	mz_zip_reader_init_internal, .-mz_zip_reader_init_internal
	.section	.text.mz_zip_writer_create_local_dir_header.constprop.0,"ax",%progbits
	.align	2
	.syntax unified
	.arm
	.fpu vfp
	.type	mz_zip_writer_create_local_dir_header.constprop.0, %function
mz_zip_writer_create_local_dir_header.constprop.0:
.LVL573:
.LFB193:
	.loc 1 5879 16 is_stmt 1 view -0
	.cfi_startproc
	@ args = 12, pretend = 0, frame = 0
	@ frame_needed = 0, uses_anonymous_args = 0
	.loc 1 5881 5 view .LVU2743
	.loc 1 5882 5 view .LVU2744
	.loc 1 5879 16 is_stmt 0 view .LVU2745
	push	{r4, r5, r6, r7, r8, r9, r10, lr}
	.cfi_def_cfa_offset 32
	.cfi_offset 4, -32
	.cfi_offset 5, -28
	.cfi_offset 6, -24
	.cfi_offset 7, -20
	.cfi_offset 8, -16
	.cfi_offset 9, -12
	.cfi_offset 10, -8
	.cfi_offset 14, -4
	.loc 1 5879 16 view .LVU2746
	mov	r6, r1
	mov	r5, r2
	.loc 1 5882 5 view .LVU2747
	mov	r1, #0
.LVL574:
	.loc 1 5882 5 view .LVU2748
	mov	r2, #30
.LVL575:
	.loc 1 5879 16 view .LVU2749
	mov	r4, r0
	mov	r9, r3
	ldrh	r8, [sp, #32]
	ldrh	r7, [sp, #36]
	ldrh	r10, [sp, #40]
	.loc 1 5882 5 view .LVU2750
	bl	memset
.LVL576:
	.loc 1 5883 5 is_stmt 1 view .LVU2751
.LBB1753:
.LBI1753:
	.loc 1 5448 59 view .LVU2752
.LBB1754:
	.loc 1 5450 5 view .LVU2753
	.loc 1 5450 10 is_stmt 0 view .LVU2754
	mov	r3, #80
	strb	r3, [r4]
	.loc 1 5451 5 is_stmt 1 view .LVU2755
.LBE1754:
.LBE1753:
.LBB1758:
.LBB1759:
	.loc 1 5446 12 is_stmt 0 view .LVU2756
	lsr	r3, r10, #8
.LBE1759:
.LBE1758:
	.loc 1 5884 5 view .LVU2757
	cmp	r9, #0
.LBB1763:
.LBB1764:
	.loc 1 5446 12 view .LVU2758
	lsr	r2, r6, #8
.LBE1764:
.LBE1763:
.LBB1768:
.LBB1760:
	strb	r3, [r4, #13]
.LBE1760:
.LBE1768:
.LBB1769:
.LBB1770:
	lsr	r3, r5, #8
.LBE1770:
.LBE1769:
.LBB1774:
.LBB1755:
	.loc 1 5451 10 view .LVU2759
	mov	r1, #75
.LBE1755:
.LBE1774:
	.loc 1 5884 5 view .LVU2760
	movne	ip, #20
	moveq	ip, #0
.LBB1775:
.LBB1765:
	.loc 1 5446 12 view .LVU2761
	strb	r2, [r4, #27]
.LBE1765:
.LBE1775:
.LBB1776:
.LBB1771:
	strb	r3, [r4, #29]
.LBE1771:
.LBE1776:
.LBB1777:
.LBB1756:
	.loc 1 5452 10 view .LVU2762
	mov	r2, #3
	.loc 1 5453 10 view .LVU2763
	mov	r3, #4
.LBE1756:
.LBE1777:
.LBB1778:
.LBB1779:
	.loc 1 5445 12 view .LVU2764
	strb	r8, [r4, #6]
.LBE1779:
.LBE1778:
.LBB1783:
.LBB1784:
	strb	r7, [r4, #10]
.LBE1784:
.LBE1783:
.LBB1788:
.LBB1780:
	.loc 1 5446 12 view .LVU2765
	lsr	r8, r8, #8
.LBE1780:
.LBE1788:
.LBB1789:
.LBB1785:
	lsr	r7, r7, #8
.LBE1785:
.LBE1789:
	.loc 1 5895 1 view .LVU2766
	mov	r0, #1
.LBB1790:
.LBB1791:
	.loc 1 5445 12 view .LVU2767
	strb	r9, [r4, #8]
.LBE1791:
.LBE1790:
.LBB1793:
.LBB1781:
	.loc 1 5446 12 view .LVU2768
	strb	r8, [r4, #7]
.LBE1781:
.LBE1793:
.LBB1794:
.LBB1786:
	strb	r7, [r4, #11]
.LBE1786:
.LBE1794:
.LBB1795:
.LBB1761:
	.loc 1 5445 12 view .LVU2769
	strb	r10, [r4, #12]
.LBE1761:
.LBE1795:
.LBB1796:
.LBB1766:
	strb	r6, [r4, #26]
.LBE1766:
.LBE1796:
.LBB1797:
.LBB1772:
	strb	r5, [r4, #28]
.LBE1772:
.LBE1797:
.LBB1798:
.LBB1799:
	.loc 1 5445 10 view .LVU2770
	strb	ip, [r4, #4]
.LBE1799:
.LBE1798:
.LBB1801:
.LBB1757:
	.loc 1 5451 10 view .LVU2771
	strb	r1, [r4, #1]
	.loc 1 5452 5 is_stmt 1 view .LVU2772
	.loc 1 5452 10 is_stmt 0 view .LVU2773
	strb	r2, [r4, #2]
	.loc 1 5453 5 is_stmt 1 view .LVU2774
	.loc 1 5453 10 is_stmt 0 view .LVU2775
	strb	r3, [r4, #3]
.LVL577:
	.loc 1 5453 10 view .LVU2776
.LBE1757:
.LBE1801:
	.loc 1 5884 5 is_stmt 1 view .LVU2777
.LBB1802:
.LBI1798:
	.loc 1 5443 59 view .LVU2778
.LBB1800:
	.loc 1 5445 5 view .LVU2779
	.loc 1 5446 5 view .LVU2780
	.loc 1 5446 5 is_stmt 0 view .LVU2781
.LBE1800:
.LBE1802:
	.loc 1 5885 5 is_stmt 1 view .LVU2782
.LBB1803:
.LBI1778:
	.loc 1 5443 59 view .LVU2783
.LBB1782:
	.loc 1 5445 5 view .LVU2784
	.loc 1 5446 5 view .LVU2785
	.loc 1 5446 5 is_stmt 0 view .LVU2786
.LBE1782:
.LBE1803:
	.loc 1 5886 5 is_stmt 1 view .LVU2787
.LBB1804:
.LBI1790:
	.loc 1 5443 59 view .LVU2788
.LBB1792:
	.loc 1 5445 5 view .LVU2789
	.loc 1 5446 5 view .LVU2790
	.loc 1 5446 5 is_stmt 0 view .LVU2791
.LBE1792:
.LBE1804:
	.loc 1 5887 5 is_stmt 1 view .LVU2792
.LBB1805:
.LBI1783:
	.loc 1 5443 59 view .LVU2793
.LBB1787:
	.loc 1 5445 5 view .LVU2794
	.loc 1 5446 5 view .LVU2795
	.loc 1 5446 5 is_stmt 0 view .LVU2796
.LBE1787:
.LBE1805:
	.loc 1 5888 5 is_stmt 1 view .LVU2797
.LBB1806:
.LBI1758:
	.loc 1 5443 59 view .LVU2798
.LBB1762:
	.loc 1 5445 5 view .LVU2799
	.loc 1 5446 5 view .LVU2800
	.loc 1 5446 5 is_stmt 0 view .LVU2801
.LBE1762:
.LBE1806:
	.loc 1 5889 5 is_stmt 1 view .LVU2802
	.loc 1 5890 5 view .LVU2803
	.loc 1 5891 5 view .LVU2804
	.loc 1 5892 5 view .LVU2805
.LBB1807:
.LBI1763:
	.loc 1 5443 59 view .LVU2806
.LBB1767:
	.loc 1 5445 5 view .LVU2807
	.loc 1 5446 5 view .LVU2808
	.loc 1 5446 5 is_stmt 0 view .LVU2809
.LBE1767:
.LBE1807:
	.loc 1 5893 5 is_stmt 1 view .LVU2810
.LBB1808:
.LBI1769:
	.loc 1 5443 59 view .LVU2811
.LBB1773:
	.loc 1 5445 5 view .LVU2812
	.loc 1 5446 5 view .LVU2813
	.loc 1 5446 5 is_stmt 0 view .LVU2814
.LBE1773:
.LBE1808:
	.loc 1 5894 5 is_stmt 1 view .LVU2815
	.loc 1 5895 1 is_stmt 0 view .LVU2816
	pop	{r4, r5, r6, r7, r8, r9, r10, pc}
	.cfi_endproc
.LFE193:
	.size	mz_zip_writer_create_local_dir_header.constprop.0, .-mz_zip_writer_create_local_dir_header.constprop.0
	.section	.text.mz_zip_writer_add_to_central_dir,"ax",%progbits
	.align	2
	.syntax unified
	.arm
	.fpu vfp
	.type	mz_zip_writer_add_to_central_dir, %function
mz_zip_writer_add_to_central_dir:
.LVL578:
.LFB138:
	.loc 1 5928 1 is_stmt 1 view -0
	.cfi_startproc
	@ args = 76, pretend = 0, frame = 104
	@ frame_needed = 0, uses_anonymous_args = 0
	.loc 1 5929 5 view .LVU2818
	.loc 1 5928 1 is_stmt 0 view .LVU2819
	push	{r4, r5, r6, r7, r8, r9, r10, fp, lr}
	.cfi_def_cfa_offset 36
	.cfi_offset 4, -36
	.cfi_offset 5, -32
	.cfi_offset 6, -28
	.cfi_offset 7, -24
	.cfi_offset 8, -20
	.cfi_offset 9, -16
	.cfi_offset 10, -12
	.cfi_offset 11, -8
	.cfi_offset 14, -4
	.loc 1 5929 28 view .LVU2820
	ldr	r4, [r0, #64]
.LVL579:
	.loc 1 5930 5 is_stmt 1 view .LVU2821
	.loc 1 5928 1 is_stmt 0 view .LVU2822
	sub	sp, sp, #108
	.cfi_def_cfa_offset 144
	.loc 1 5928 1 view .LVU2823
	str	r1, [sp, #28]
	.loc 1 5934 8 view .LVU2824
	ldr	r1, [r4, #52]
.LVL580:
	.loc 1 5928 1 view .LVU2825
	ldr	r8, [sp, #204]
	.loc 1 5936 12 view .LVU2826
	clz	r1, r1
	cmp	r8, #0
	lsr	r1, r1, #5
	moveq	r1, #0
	.loc 1 5928 1 view .LVU2827
	str	r3, [sp, #32]
	ldr	r3, [sp, #172]
.LVL581:
	.loc 1 5936 12 view .LVU2828
	cmp	r1, #0
	.loc 1 5928 1 view .LVU2829
	mov	r5, r0
	str	r3, [sp, #20]
	ldrh	r3, [sp, #180]
.LBB1901:
.LBB1902:
	.loc 1 3323 28 view .LVU2830
	movne	r3, #3
.LBE1902:
.LBE1901:
	.loc 1 5928 1 view .LVU2831
	mov	r9, r2
	ldrh	r2, [sp, #184]
.LVL582:
	.loc 1 5928 1 view .LVU2832
	ldr	ip, [sp, #160]
	str	r2, [sp]
	ldrh	r2, [sp, #188]
	.loc 1 5930 65 view .LVU2833
	ldr	r6, [r4, #4]
	.loc 1 5928 1 view .LVU2834
	str	r2, [sp, #4]
	ldrh	r2, [sp, #192]
	str	ip, [sp, #12]
	str	r2, [sp, #8]
	ldr	ip, [sp, #164]
	ldr	r2, [sp, #200]
	.loc 1 5937 20 view .LVU2835
	movne	r0, #0
.LVL583:
	.loc 1 5928 1 view .LVU2836
	ldrh	fp, [sp, #144]
	ldrh	r10, [sp, #152]
	ldr	r7, [sp, #168]
	str	ip, [sp, #16]
	str	r2, [sp, #24]
	.loc 1 5930 15 view .LVU2837
	str	r6, [sp, #52]
	.loc 1 5931 5 is_stmt 1 view .LVU2838
.LVL584:
	.loc 1 5932 5 view .LVU2839
	.loc 1 5934 5 view .LVU2840
	.loc 1 5936 9 view .LVU2841
.LBB1904:
.LBB1903:
	.loc 1 3323 28 is_stmt 0 view .LVU2842
	strbne	r3, [r5, #22]
.LBE1903:
.LBE1904:
	.loc 1 5936 12 view .LVU2843
	bne	.L586
	.loc 1 5941 5 is_stmt 1 view .LVU2844
	.loc 1 5941 8 is_stmt 0 view .LVU2845
	mvn	ip, #1
	.loc 1 5941 134 view .LVU2846
	ldr	r0, [sp, #216]
	add	r2, r10, #46
	adds	r2, r2, r0
	adc	r0, r1, #0
	adds	r2, r2, fp
	adc	r0, r0, #0
	adds	r2, r2, r9
	adc	r0, r0, #0
	adds	r2, r2, r6
	adc	r0, r0, #0
	.loc 1 5941 8 view .LVU2847
	cmp	ip, r2
	sbcs	r0, r1, r0
	bcs	.L589
	.loc 1 5942 9 is_stmt 1 view .LVU2848
.LVL585:
.LBB1905:
.LBI1905:
	.loc 1 3320 62 view .LVU2849
.LBB1906:
	.loc 1 3322 5 view .LVU2850
	.loc 1 3323 9 view .LVU2851
	.loc 1 3323 28 is_stmt 0 view .LVU2852
	mov	r3, #15
.LBE1906:
.LBE1905:
	.loc 1 5942 16 view .LVU2853
	mov	r0, r1
.LBB1908:
.LBB1907:
	.loc 1 3323 28 view .LVU2854
	strb	r3, [r5, #22]
	.loc 1 3324 5 is_stmt 1 view .LVU2855
.LVL586:
.L586:
	.loc 1 3324 5 is_stmt 0 view .LVU2856
.LBE1907:
.LBE1908:
	.loc 1 5960 1 view .LVU2857
	add	sp, sp, #108
	.cfi_remember_state
	.cfi_def_cfa_offset 36
	@ sp needed
	pop	{r4, r5, r6, r7, r8, r9, r10, fp, pc}
.LVL587:
.L589:
	.cfi_restore_state
	.loc 1 5944 5 is_stmt 1 view .LVU2858
	str	r3, [sp, #44]
	.loc 1 5944 10 is_stmt 0 view .LVU2859
	ldr	r3, [sp, #216]
.LBB1909:
.LBB1910:
	.loc 1 5904 5 view .LVU2860
	mov	r2, #38
.LBE1910:
.LBE1909:
	.loc 1 5944 10 view .LVU2861
	add	r0, fp, r3
	uxth	r3, r0
.LBB1987:
.LBB1983:
	.loc 1 5904 5 view .LVU2862
	add	r0, sp, #60
	str	r1, [sp, #40]
.LBE1983:
.LBE1987:
	.loc 1 5944 10 view .LVU2863
	str	r3, [sp, #36]
.LVL588:
.LBB1988:
.LBI1909:
	.loc 1 5897 16 is_stmt 1 view .LVU2864
.LBB1984:
	.loc 1 5903 5 view .LVU2865
	.loc 1 5904 5 view .LVU2866
	bl	memset
.LVL589:
	.loc 1 5905 5 view .LVU2867
.LBB1911:
.LBI1911:
	.loc 1 5448 59 view .LVU2868
.LBB1912:
	.loc 1 5450 5 view .LVU2869
	.loc 1 5451 5 view .LVU2870
	.loc 1 5452 5 view .LVU2871
	.loc 1 5453 5 view .LVU2872
.LBE1912:
.LBE1911:
	.loc 1 5912 5 is_stmt 0 view .LVU2873
	mvn	r2, #1
.LBB1915:
.LBB1916:
	.loc 1 5445 10 view .LVU2874
	ldr	r3, [sp]
.LBE1916:
.LBE1915:
	.loc 1 5912 5 view .LVU2875
	ldr	r1, [sp, #40]
.LBB1919:
.LBB1917:
	.loc 1 5445 10 view .LVU2876
	strh	r3, [sp, #64]	@ movhi
.LBE1917:
.LBE1919:
.LBB1920:
.LBB1921:
	ldr	r3, [sp, #4]
	strh	r3, [sp, #68]	@ movhi
.LBE1921:
.LBE1920:
.LBB1923:
.LBB1924:
	ldr	r3, [sp, #8]
	strh	r3, [sp, #70]	@ movhi
.LBE1924:
.LBE1923:
	.loc 1 5906 5 view .LVU2877
	ldr	r3, [sp, #44]
	cmp	r3, #0
.LBB1926:
.LBB1927:
	.loc 1 5445 12 view .LVU2878
	strb	r3, [sp, #66]
.LBE1927:
.LBE1926:
.LBB1929:
.LBB1930:
	.loc 1 5450 10 view .LVU2879
	ldr	r3, [sp, #176]
	str	r3, [sp, #72]
.LBE1930:
.LBE1929:
	.loc 1 5906 5 view .LVU2880
	movne	r3, #20
	moveq	r3, #0
	.loc 1 5912 5 view .LVU2881
	cmp	r2, r7
	ldr	r2, [sp, #20]
.LBB1932:
.LBB1933:
	.loc 1 5445 10 view .LVU2882
	strb	r3, [sp, #62]
.LBE1933:
.LBE1932:
	.loc 1 5912 5 view .LVU2883
	sbcs	r1, r1, r2
	movcc	r7, #255
.LVL590:
.LBB1935:
.LBB1913:
	.loc 1 5450 10 view .LVU2884
	ldr	r3, .L635
.LBE1913:
.LBE1935:
	movcc	r2, r7
.LBB1936:
.LBB1914:
	str	r3, [sp, #56]
.LVL591:
	.loc 1 5450 10 view .LVU2885
.LBE1914:
.LBE1936:
	.loc 1 5906 5 is_stmt 1 view .LVU2886
.LBB1937:
.LBI1932:
	.loc 1 5443 59 view .LVU2887
.LBB1934:
	.loc 1 5445 5 view .LVU2888
	.loc 1 5446 5 view .LVU2889
	.loc 1 5446 5 is_stmt 0 view .LVU2890
.LBE1934:
.LBE1937:
	.loc 1 5907 5 is_stmt 1 view .LVU2891
.LBB1938:
.LBI1915:
	.loc 1 5443 59 view .LVU2892
.LBB1918:
	.loc 1 5445 5 view .LVU2893
	.loc 1 5446 5 view .LVU2894
	.loc 1 5446 5 is_stmt 0 view .LVU2895
.LBE1918:
.LBE1938:
	.loc 1 5908 5 is_stmt 1 view .LVU2896
.LBB1939:
.LBI1926:
	.loc 1 5443 59 view .LVU2897
.LBB1928:
	.loc 1 5445 5 view .LVU2898
	.loc 1 5446 5 view .LVU2899
	.loc 1 5446 5 is_stmt 0 view .LVU2900
.LBE1928:
.LBE1939:
	.loc 1 5909 5 is_stmt 1 view .LVU2901
.LBB1940:
.LBI1920:
	.loc 1 5443 59 view .LVU2902
.LBB1922:
	.loc 1 5445 5 view .LVU2903
	.loc 1 5446 5 view .LVU2904
	.loc 1 5446 5 is_stmt 0 view .LVU2905
.LBE1922:
.LBE1940:
	.loc 1 5910 5 is_stmt 1 view .LVU2906
.LBB1941:
.LBI1923:
	.loc 1 5443 59 view .LVU2907
.LBB1925:
	.loc 1 5445 5 view .LVU2908
	.loc 1 5446 5 view .LVU2909
	.loc 1 5446 5 is_stmt 0 view .LVU2910
.LBE1925:
.LBE1941:
	.loc 1 5911 5 is_stmt 1 view .LVU2911
.LBB1942:
.LBI1929:
	.loc 1 5448 59 view .LVU2912
.LBB1931:
	.loc 1 5450 5 view .LVU2913
	.loc 1 5451 5 view .LVU2914
	.loc 1 5452 5 view .LVU2915
	.loc 1 5453 5 view .LVU2916
	.loc 1 5453 5 is_stmt 0 view .LVU2917
.LBE1931:
.LBE1942:
	.loc 1 5912 5 is_stmt 1 view .LVU2918
	movcc	r3, r7
.LBB1943:
.LBB1944:
	.loc 1 5452 25 is_stmt 0 view .LVU2919
	lsrcs	r3, r7, #16
	.loc 1 5452 12 view .LVU2920
	uxtbcs	r3, r3
	.loc 1 5452 10 view .LVU2921
	strb	r3, [sp, #78]
.LBE1944:
.LBE1943:
	.loc 1 5913 5 view .LVU2922
	mvn	r3, #1
.LBB1950:
.LBB1945:
	.loc 1 5451 25 view .LVU2923
	lsrcs	r2, r7, #8
	.loc 1 5451 12 view .LVU2924
	uxtbcs	r2, r2
.LBE1945:
.LBE1950:
	movcc	r1, r7
.LVL592:
.LBB1951:
.LBI1943:
	.loc 1 5448 59 is_stmt 1 view .LVU2925
.LBB1946:
	.loc 1 5450 5 view .LVU2926
	.loc 1 5451 10 is_stmt 0 view .LVU2927
	strb	r2, [sp, #77]
.LBE1946:
.LBE1951:
	.loc 1 5913 5 view .LVU2928
	ldr	r2, [sp, #12]
.LBB1952:
.LBB1947:
	.loc 1 5450 12 view .LVU2929
	uxtbcs	r1, r7
	.loc 1 5453 12 view .LVU2930
	lsrcs	r7, r7, #24
.LBE1947:
.LBE1952:
	.loc 1 5913 5 view .LVU2931
	cmp	r3, r2
	mov	r3, #0
.LBB1953:
.LBB1948:
	.loc 1 5450 10 view .LVU2932
	strb	r1, [sp, #76]
	.loc 1 5451 5 is_stmt 1 view .LVU2933
	.loc 1 5452 5 view .LVU2934
	.loc 1 5453 5 view .LVU2935
.LBE1948:
.LBE1953:
	.loc 1 5913 5 is_stmt 0 view .LVU2936
	ldr	r1, [sp, #16]
.LBB1954:
.LBB1949:
	.loc 1 5453 10 view .LVU2937
	strb	r7, [sp, #79]
.LVL593:
	.loc 1 5453 10 view .LVU2938
.LBE1949:
.LBE1954:
	.loc 1 5913 5 is_stmt 1 view .LVU2939
	sbcs	r3, r3, r1
	bcc	.L612
.LBB1955:
.LBB1956:
	.loc 1 5451 25 is_stmt 0 view .LVU2940
	mov	r3, r2
	lsr	r1, r2, #8
	.loc 1 5452 25 view .LVU2941
	lsr	r2, r2, #16
	.loc 1 5450 12 view .LVU2942
	uxtb	r0, r3
	.loc 1 5451 12 view .LVU2943
	uxtb	r1, r1
	.loc 1 5452 12 view .LVU2944
	uxtb	r2, r2
	.loc 1 5453 12 view .LVU2945
	lsr	r3, r3, #24
.L592:
.LVL594:
	.loc 1 5453 12 view .LVU2946
.LBE1956:
.LBI1955:
	.loc 1 5448 59 is_stmt 1 view .LVU2947
.LBB1957:
	.loc 1 5450 5 view .LVU2948
	.loc 1 5453 10 is_stmt 0 view .LVU2949
	strb	r3, [sp, #83]
.LBE1957:
.LBE1955:
.LBB1960:
.LBB1961:
	.loc 1 5445 10 view .LVU2950
	ldr	r3, [sp, #36]
.LBE1961:
.LBE1960:
.LBB1964:
.LBB1958:
	.loc 1 5452 10 view .LVU2951
	strb	r2, [sp, #82]
.LBE1958:
.LBE1964:
.LBB1965:
.LBB1962:
	.loc 1 5445 10 view .LVU2952
	strh	r3, [sp, #86]	@ movhi
.LBE1962:
.LBE1965:
.LBB1966:
.LBB1967:
	.loc 1 5450 12 view .LVU2953
	ldr	r3, [sp, #208]
.LBE1967:
.LBE1966:
	.loc 1 5918 5 view .LVU2954
	ldr	r2, [sp, #24]
.LBB1970:
.LBB1968:
	.loc 1 5450 12 view .LVU2955
	strb	r3, [sp, #94]
.LBE1968:
.LBE1970:
	.loc 1 5918 5 view .LVU2956
	mvn	r3, #1
	cmp	r3, r2
	mov	r3, #0
	sbcs	r3, r3, r8
.LBB1971:
.LBB1959:
	.loc 1 5450 10 view .LVU2957
	strb	r0, [sp, #80]
	.loc 1 5451 5 is_stmt 1 view .LVU2958
	.loc 1 5451 10 is_stmt 0 view .LVU2959
	strb	r1, [sp, #81]
	.loc 1 5452 5 is_stmt 1 view .LVU2960
	.loc 1 5453 5 view .LVU2961
.LVL595:
	.loc 1 5453 5 is_stmt 0 view .LVU2962
.LBE1959:
.LBE1971:
	.loc 1 5914 5 is_stmt 1 view .LVU2963
.LBB1972:
.LBI1972:
	.loc 1 5443 59 view .LVU2964
.LBB1973:
	.loc 1 5445 5 view .LVU2965
	.loc 1 5446 5 view .LVU2966
	.loc 1 5445 10 is_stmt 0 view .LVU2967
	strh	r9, [sp, #84]	@ movhi
.LVL596:
	.loc 1 5445 10 view .LVU2968
.LBE1973:
.LBE1972:
	.loc 1 5915 5 is_stmt 1 view .LVU2969
.LBB1974:
.LBI1960:
	.loc 1 5443 59 view .LVU2970
.LBB1963:
	.loc 1 5445 5 view .LVU2971
	.loc 1 5446 5 view .LVU2972
	.loc 1 5446 5 is_stmt 0 view .LVU2973
.LBE1963:
.LBE1974:
	.loc 1 5916 5 is_stmt 1 view .LVU2974
.LBB1975:
.LBI1975:
	.loc 1 5443 59 view .LVU2975
.LBB1976:
	.loc 1 5445 5 view .LVU2976
	.loc 1 5446 5 view .LVU2977
	.loc 1 5445 10 is_stmt 0 view .LVU2978
	strh	r10, [sp, #88]	@ movhi
.LVL597:
	.loc 1 5445 10 view .LVU2979
.LBE1976:
.LBE1975:
	.loc 1 5917 5 is_stmt 1 view .LVU2980
.LBB1977:
.LBI1966:
	.loc 1 5448 59 view .LVU2981
.LBB1969:
	.loc 1 5450 5 view .LVU2982
	.loc 1 5451 5 view .LVU2983
	.loc 1 5452 5 view .LVU2984
	.loc 1 5453 5 view .LVU2985
	.loc 1 5453 5 is_stmt 0 view .LVU2986
.LBE1969:
.LBE1977:
	.loc 1 5918 5 is_stmt 1 view .LVU2987
	bcc	.L613
.LBB1978:
.LBB1979:
	.loc 1 5451 25 is_stmt 0 view .LVU2988
	mov	r3, r2
	lsr	r1, r2, #8
	.loc 1 5452 25 view .LVU2989
	lsr	r2, r2, #16
	.loc 1 5450 12 view .LVU2990
	uxtb	r0, r3
	.loc 1 5451 12 view .LVU2991
	uxtb	r1, r1
	.loc 1 5452 12 view .LVU2992
	uxtb	r2, r2
	.loc 1 5453 12 view .LVU2993
	lsr	r3, r3, #24
.L593:
.LVL598:
	.loc 1 5453 12 view .LVU2994
.LBE1979:
.LBI1978:
	.loc 1 5448 59 is_stmt 1 view .LVU2995
.LBB1980:
	.loc 1 5450 5 view .LVU2996
	.loc 1 5453 10 is_stmt 0 view .LVU2997
	strb	r3, [sp, #101]
.LBE1980:
.LBE1978:
.LBE1984:
.LBE1988:
.LBB1989:
.LBB1990:
.LBB1991:
.LBB1992:
	.loc 1 3231 8 view .LVU2998
	ldr	r3, [r4, #8]
.LBE1992:
.LBE1991:
	.loc 1 3248 10 view .LVU2999
	add	r7, r6, #46
.LBB1997:
.LBB1993:
	.loc 1 3231 8 view .LVU3000
	cmp	r7, r3
.LBE1993:
.LBE1997:
.LBE1990:
.LBE1989:
.LBB2003:
.LBB1985:
.LBB1982:
.LBB1981:
	.loc 1 5450 10 view .LVU3001
	strb	r0, [sp, #98]
	.loc 1 5451 5 is_stmt 1 view .LVU3002
	.loc 1 5451 10 is_stmt 0 view .LVU3003
	strb	r1, [sp, #99]
	.loc 1 5452 5 is_stmt 1 view .LVU3004
	.loc 1 5452 10 is_stmt 0 view .LVU3005
	strb	r2, [sp, #100]
	.loc 1 5453 5 is_stmt 1 view .LVU3006
.LVL599:
	.loc 1 5453 5 is_stmt 0 view .LVU3007
.LBE1981:
.LBE1982:
	.loc 1 5919 5 is_stmt 1 view .LVU3008
	.loc 1 5919 5 is_stmt 0 view .LVU3009
.LBE1985:
.LBE2003:
	.loc 1 5947 5 is_stmt 1 view .LVU3010
.LBB2004:
.LBI1989:
	.loc 1 3245 62 view .LVU3011
.LBB2001:
	.loc 1 3247 5 view .LVU3012
	.loc 1 3248 5 view .LVU3013
.LBB1998:
.LBI1991:
	.loc 1 3229 62 view .LVU3014
.LBB1994:
	.loc 1 3231 5 view .LVU3015
	.loc 1 3231 8 is_stmt 0 view .LVU3016
	bhi	.L594
.L598:
	.loc 1 3236 5 is_stmt 1 view .LVU3017
.LBE1994:
.LBE1998:
	.loc 1 3250 56 is_stmt 0 view .LVU3018
	ldr	r2, [r4, #12]
	.loc 1 3250 5 view .LVU3019
	ldr	r0, [r4]
	add	r3, r2, r2, lsl #1
	mla	r0, r2, r6, r0
	rsb	r2, r2, r3, lsl #3
.LBB1999:
.LBB1995:
	.loc 1 3236 20 view .LVU3020
	str	r7, [r4, #4]
	.loc 1 3237 5 is_stmt 1 view .LVU3021
.LVL600:
	.loc 1 3237 5 is_stmt 0 view .LVU3022
.LBE1995:
.LBE1999:
	.loc 1 3250 5 is_stmt 1 view .LVU3023
	lsl	r2, r2, #1
	add	r1, sp, #56
	bl	memcpy
.LVL601:
	.loc 1 3251 5 view .LVU3024
	.loc 1 3251 5 is_stmt 0 view .LVU3025
.LBE2001:
.LBE2004:
.LBB2005:
.LBI2005:
	.loc 1 3245 62 is_stmt 1 view .LVU3026
.LBB2006:
	.loc 1 3247 5 view .LVU3027
	.loc 1 3247 12 is_stmt 0 view .LVU3028
	ldr	r7, [r4, #4]
.LVL602:
	.loc 1 3248 5 is_stmt 1 view .LVU3029
.LBB2007:
.LBB2008:
	.loc 1 3231 8 is_stmt 0 view .LVU3030
	ldr	r3, [r4, #8]
.LBE2008:
.LBE2007:
	.loc 1 3248 10 view .LVU3031
	add	r8, r9, r7
.LVL603:
.LBB2012:
.LBI2007:
	.loc 1 3229 62 is_stmt 1 view .LVU3032
.LBB2009:
	.loc 1 3231 5 view .LVU3033
	.loc 1 3231 8 is_stmt 0 view .LVU3034
	cmp	r8, r3
	bhi	.L630
.L596:
	.loc 1 3236 5 is_stmt 1 view .LVU3035
.LBE2009:
.LBE2012:
	.loc 1 3250 56 is_stmt 0 view .LVU3036
	ldr	r3, [r4, #12]
	.loc 1 3250 5 view .LVU3037
	ldr	r0, [r4]
	mul	r2, r3, r9
	mla	r0, r3, r7, r0
.LBB2013:
.LBB2010:
	.loc 1 3236 20 view .LVU3038
	str	r8, [r4, #4]
	.loc 1 3237 5 is_stmt 1 view .LVU3039
.LVL604:
	.loc 1 3237 5 is_stmt 0 view .LVU3040
.LBE2010:
.LBE2013:
	.loc 1 3250 5 is_stmt 1 view .LVU3041
	ldr	r1, [sp, #28]
	bl	memcpy
.LVL605:
	.loc 1 3251 5 view .LVU3042
	.loc 1 3251 5 is_stmt 0 view .LVU3043
.LBE2006:
.LBE2005:
.LBB2016:
.LBI2016:
	.loc 1 3245 62 is_stmt 1 view .LVU3044
.LBB2017:
	.loc 1 3247 5 view .LVU3045
	.loc 1 3247 12 is_stmt 0 view .LVU3046
	ldr	r7, [r4, #4]
.LVL606:
	.loc 1 3248 5 is_stmt 1 view .LVU3047
.LBB2018:
.LBB2019:
	.loc 1 3231 8 is_stmt 0 view .LVU3048
	ldr	r3, [r4, #8]
.LBE2019:
.LBE2018:
	.loc 1 3248 10 view .LVU3049
	add	r8, fp, r7
.LVL607:
.LBB2023:
.LBI2018:
	.loc 1 3229 62 is_stmt 1 view .LVU3050
.LBB2020:
	.loc 1 3231 5 view .LVU3051
	.loc 1 3231 8 is_stmt 0 view .LVU3052
	cmp	r8, r3
	bhi	.L631
.L600:
	.loc 1 3236 5 is_stmt 1 view .LVU3053
.LBE2020:
.LBE2023:
	.loc 1 3250 56 is_stmt 0 view .LVU3054
	ldr	r3, [r4, #12]
	.loc 1 3250 5 view .LVU3055
	ldr	r0, [r4]
	mul	r2, r3, fp
	mla	r0, r3, r7, r0
.LBB2024:
.LBB2021:
	.loc 1 3236 20 view .LVU3056
	str	r8, [r4, #4]
	.loc 1 3237 5 is_stmt 1 view .LVU3057
.LVL608:
	.loc 1 3237 5 is_stmt 0 view .LVU3058
.LBE2021:
.LBE2024:
	.loc 1 3250 5 is_stmt 1 view .LVU3059
	ldr	r1, [sp, #32]
	bl	memcpy
.LVL609:
	.loc 1 3251 5 view .LVU3060
	.loc 1 3251 5 is_stmt 0 view .LVU3061
.LBE2017:
.LBE2016:
.LBB2027:
.LBI2027:
	.loc 1 3245 62 is_stmt 1 view .LVU3062
.LBB2028:
	.loc 1 3247 5 view .LVU3063
	.loc 1 3247 12 is_stmt 0 view .LVU3064
	ldr	r8, [r4, #4]
.LVL610:
	.loc 1 3248 5 is_stmt 1 view .LVU3065
	.loc 1 3248 10 is_stmt 0 view .LVU3066
	ldr	r2, [sp, #216]
.LBB2029:
.LBB2030:
	.loc 1 3231 8 view .LVU3067
	ldr	r3, [r4, #8]
.LBE2030:
.LBE2029:
	.loc 1 3248 10 view .LVU3068
	add	r7, r2, r8
.LVL611:
.LBB2034:
.LBI2029:
	.loc 1 3229 62 is_stmt 1 view .LVU3069
.LBB2031:
	.loc 1 3231 5 view .LVU3070
	.loc 1 3231 8 is_stmt 0 view .LVU3071
	cmp	r7, r3
	bhi	.L632
.L602:
	.loc 1 3236 5 is_stmt 1 view .LVU3072
.LBE2031:
.LBE2034:
	.loc 1 3250 56 is_stmt 0 view .LVU3073
	ldr	r3, [r4, #12]
	.loc 1 3250 5 view .LVU3074
	ldr	r2, [sp, #216]
	ldr	r0, [r4]
	mul	r2, r3, r2
	mla	r0, r3, r8, r0
.LBB2035:
.LBB2032:
	.loc 1 3236 20 view .LVU3075
	str	r7, [r4, #4]
	.loc 1 3237 5 is_stmt 1 view .LVU3076
.LVL612:
	.loc 1 3237 5 is_stmt 0 view .LVU3077
.LBE2032:
.LBE2035:
	.loc 1 3250 5 is_stmt 1 view .LVU3078
	ldr	r1, [sp, #212]
	bl	memcpy
.LVL613:
	.loc 1 3251 5 view .LVU3079
	.loc 1 3251 5 is_stmt 0 view .LVU3080
.LBE2028:
.LBE2027:
.LBB2038:
.LBI2038:
	.loc 1 3245 62 is_stmt 1 view .LVU3081
.LBB2039:
	.loc 1 3247 5 view .LVU3082
	.loc 1 3247 12 is_stmt 0 view .LVU3083
	ldr	r8, [r4, #4]
.LVL614:
	.loc 1 3248 5 is_stmt 1 view .LVU3084
.LBB2040:
.LBB2041:
	.loc 1 3231 8 is_stmt 0 view .LVU3085
	ldr	r3, [r4, #8]
.LBE2041:
.LBE2040:
	.loc 1 3248 10 view .LVU3086
	add	r7, r10, r8
.LVL615:
.LBB2045:
.LBI2040:
	.loc 1 3229 62 is_stmt 1 view .LVU3087
.LBB2042:
	.loc 1 3231 5 view .LVU3088
	.loc 1 3231 8 is_stmt 0 view .LVU3089
	cmp	r7, r3
	bhi	.L633
.L604:
	.loc 1 3236 5 is_stmt 1 view .LVU3090
.LBE2042:
.LBE2045:
	.loc 1 3250 56 is_stmt 0 view .LVU3091
	ldr	r3, [r4, #12]
	.loc 1 3250 5 view .LVU3092
	ldr	r0, [r4]
	mul	r2, r3, r10
	mla	r0, r3, r8, r0
.LBB2046:
.LBB2043:
	.loc 1 3236 20 view .LVU3093
	str	r7, [r4, #4]
	.loc 1 3237 5 is_stmt 1 view .LVU3094
.LVL616:
	.loc 1 3237 5 is_stmt 0 view .LVU3095
.LBE2043:
.LBE2046:
	.loc 1 3250 5 is_stmt 1 view .LVU3096
	ldr	r1, [sp, #148]
	bl	memcpy
.LVL617:
	.loc 1 3251 5 view .LVU3097
	.loc 1 3251 5 is_stmt 0 view .LVU3098
.LBE2039:
.LBE2038:
.LBB2049:
.LBI2049:
	.loc 1 3245 62 is_stmt 1 view .LVU3099
.LBB2050:
	.loc 1 3247 5 view .LVU3100
	.loc 1 3247 12 is_stmt 0 view .LVU3101
	ldr	r8, [r4, #20]
.LVL618:
	.loc 1 3248 5 is_stmt 1 view .LVU3102
.LBB2051:
.LBB2052:
	.loc 1 3231 8 is_stmt 0 view .LVU3103
	ldr	r3, [r4, #24]
.LBE2052:
.LBE2051:
	.loc 1 3248 10 view .LVU3104
	add	r7, r8, #1
.LVL619:
.LBB2056:
.LBI2051:
	.loc 1 3229 62 is_stmt 1 view .LVU3105
.LBB2053:
	.loc 1 3231 5 view .LVU3106
	.loc 1 3231 8 is_stmt 0 view .LVU3107
	cmp	r7, r3
	bhi	.L634
.L606:
	.loc 1 3236 5 is_stmt 1 view .LVU3108
.LBE2053:
.LBE2056:
	.loc 1 3250 56 is_stmt 0 view .LVU3109
	ldr	r2, [r4, #28]
	.loc 1 3250 5 view .LVU3110
	ldr	r0, [r4, #16]
.LBB2057:
.LBB2054:
	.loc 1 3236 20 view .LVU3111
	str	r7, [r4, #20]
	.loc 1 3237 5 is_stmt 1 view .LVU3112
.LVL620:
	.loc 1 3237 5 is_stmt 0 view .LVU3113
.LBE2054:
.LBE2057:
	.loc 1 3250 5 is_stmt 1 view .LVU3114
	mla	r0, r2, r8, r0
	add	r1, sp, #52
	bl	memcpy
.LVL621:
	.loc 1 3251 5 view .LVU3115
	.loc 1 3251 5 is_stmt 0 view .LVU3116
.LBE2050:
.LBE2049:
	.loc 1 5959 12 view .LVU3117
	mov	r0, #1
	.loc 1 5960 1 view .LVU3118
	add	sp, sp, #108
	.cfi_remember_state
	.cfi_def_cfa_offset 36
	@ sp needed
	pop	{r4, r5, r6, r7, r8, r9, r10, fp, pc}
.LVL622:
.L612:
	.cfi_restore_state
.LBB2060:
.LBB1986:
	.loc 1 5960 1 view .LVU3119
	mov	r3, #255
	mov	r2, r3
	mov	r1, r3
	mov	r0, r3
	b	.L592
.L613:
	.loc 1 5960 1 view .LVU3120
	mov	r3, #255
	mov	r2, r3
	mov	r1, r3
	mov	r0, r3
	b	.L593
.LVL623:
.L631:
	.loc 1 5960 1 view .LVU3121
.LBE1986:
.LBE2060:
.LBB2061:
.LBB2026:
.LBB2025:
.LBB2022:
	.loc 1 3233 9 is_stmt 1 view .LVU3122
	.loc 1 3233 14 is_stmt 0 view .LVU3123
	mov	r3, #1
	mov	r2, r8
	mov	r1, r4
	mov	r0, r5
	bl	mz_zip_array_ensure_capacity
.LVL624:
	.loc 1 3233 12 view .LVU3124
	cmp	r0, #0
	bne	.L600
.LVL625:
.L597:
	.loc 1 3233 12 view .LVU3125
.LBE2022:
.LBE2025:
.LBE2026:
.LBE2061:
	.loc 1 5955 9 is_stmt 1 view .LVU3126
.LBB2062:
.LBI2062:
	.loc 1 3229 62 view .LVU3127
.LBB2063:
	.loc 1 3231 5 view .LVU3128
	.loc 1 3231 8 is_stmt 0 view .LVU3129
	ldr	r3, [r4, #8]
	cmp	r6, r3
	bhi	.L607
.L609:
	.loc 1 3236 5 is_stmt 1 view .LVU3130
	.loc 1 3236 20 is_stmt 0 view .LVU3131
	str	r6, [r4, #4]
	.loc 1 3237 5 is_stmt 1 view .LVU3132
.L608:
.LVL626:
	.loc 1 3237 5 is_stmt 0 view .LVU3133
.LBE2063:
.LBE2062:
	.loc 1 5956 9 is_stmt 1 view .LVU3134
.LBB2065:
.LBI2065:
	.loc 1 3320 62 view .LVU3135
.LBB2066:
	.loc 1 3322 5 view .LVU3136
	.loc 1 3323 9 view .LVU3137
	.loc 1 3323 28 is_stmt 0 view .LVU3138
	mov	r3, #16
.LBE2066:
.LBE2065:
	.loc 1 5956 16 view .LVU3139
	mov	r0, #0
.LBB2068:
.LBB2067:
	.loc 1 3323 28 view .LVU3140
	strb	r3, [r5, #22]
	.loc 1 3324 5 is_stmt 1 view .LVU3141
.LVL627:
	.loc 1 3324 5 is_stmt 0 view .LVU3142
.LBE2067:
.LBE2068:
	.loc 1 5960 1 view .LVU3143
	add	sp, sp, #108
	.cfi_remember_state
	.cfi_def_cfa_offset 36
	@ sp needed
	pop	{r4, r5, r6, r7, r8, r9, r10, fp, pc}
.LVL628:
.L594:
	.cfi_restore_state
.LBB2069:
.LBB2002:
.LBB2000:
.LBB1996:
	.loc 1 3233 9 is_stmt 1 view .LVU3144
	.loc 1 3233 14 is_stmt 0 view .LVU3145
	mov	r3, #1
	mov	r2, r7
	mov	r1, r4
	mov	r0, r5
	bl	mz_zip_array_ensure_capacity
.LVL629:
	.loc 1 3233 12 view .LVU3146
	cmp	r0, #0
	bne	.L598
	b	.L597
.LVL630:
.L630:
	.loc 1 3233 12 view .LVU3147
.LBE1996:
.LBE2000:
.LBE2002:
.LBE2069:
.LBB2070:
.LBB2015:
.LBB2014:
.LBB2011:
	.loc 1 3233 9 is_stmt 1 view .LVU3148
	.loc 1 3233 14 is_stmt 0 view .LVU3149
	mov	r3, #1
	mov	r2, r8
	mov	r1, r4
	mov	r0, r5
	bl	mz_zip_array_ensure_capacity
.LVL631:
	.loc 1 3233 12 view .LVU3150
	cmp	r0, #0
	bne	.L596
	b	.L597
.LVL632:
.L632:
	.loc 1 3233 12 view .LVU3151
.LBE2011:
.LBE2014:
.LBE2015:
.LBE2070:
.LBB2071:
.LBB2037:
.LBB2036:
.LBB2033:
	.loc 1 3233 9 is_stmt 1 view .LVU3152
	.loc 1 3233 14 is_stmt 0 view .LVU3153
	mov	r3, #1
	mov	r2, r7
.LVL633:
	.loc 1 3233 14 view .LVU3154
	mov	r1, r4
	mov	r0, r5
	bl	mz_zip_array_ensure_capacity
.LVL634:
	.loc 1 3233 12 view .LVU3155
	cmp	r0, #0
	bne	.L602
	b	.L597
.LVL635:
.L633:
	.loc 1 3233 12 view .LVU3156
.LBE2033:
.LBE2036:
.LBE2037:
.LBE2071:
.LBB2072:
.LBB2048:
.LBB2047:
.LBB2044:
	.loc 1 3233 9 is_stmt 1 view .LVU3157
	.loc 1 3233 14 is_stmt 0 view .LVU3158
	mov	r3, #1
	mov	r2, r7
	mov	r1, r4
	mov	r0, r5
	bl	mz_zip_array_ensure_capacity
.LVL636:
	.loc 1 3233 12 view .LVU3159
	cmp	r0, #0
	bne	.L604
	b	.L597
.LVL637:
.L634:
	.loc 1 3233 12 view .LVU3160
.LBE2044:
.LBE2047:
.LBE2048:
.LBE2072:
.LBB2073:
.LBB2059:
.LBB2058:
.LBB2055:
	.loc 1 3233 9 is_stmt 1 view .LVU3161
	.loc 1 3233 14 is_stmt 0 view .LVU3162
	mov	r3, #1
	mov	r2, r7
	mov	r0, r5
	add	r1, r4, #16
	bl	mz_zip_array_ensure_capacity
.LVL638:
	.loc 1 3233 12 view .LVU3163
	cmp	r0, #0
	bne	.L606
	b	.L597
.LVL639:
.L607:
	.loc 1 3233 12 view .LVU3164
.LBE2055:
.LBE2058:
.LBE2059:
.LBE2073:
.LBB2074:
.LBB2064:
	.loc 1 3233 9 is_stmt 1 view .LVU3165
	.loc 1 3233 14 is_stmt 0 view .LVU3166
	mov	r3, #0
	mov	r2, r6
	mov	r1, r4
	mov	r0, r5
	bl	mz_zip_array_ensure_capacity
.LVL640:
	.loc 1 3233 12 view .LVU3167
	cmp	r0, #0
	bne	.L609
	b	.L608
.L636:
	.align	2
.L635:
	.word	33639248
.LBE2064:
.LBE2074:
	.cfi_endproc
.LFE138:
	.size	mz_zip_writer_add_to_central_dir, .-mz_zip_writer_add_to_central_dir
	.section	.text.mz_zip_time_t_to_dos_time.constprop.0,"ax",%progbits
	.align	2
	.syntax unified
	.arm
	.fpu vfp
	.type	mz_zip_time_t_to_dos_time.constprop.0, %function
mz_zip_time_t_to_dos_time.constprop.0:
.LVL641:
.LFB195:
	.loc 1 3270 13 is_stmt 1 view -0
	.cfi_startproc
	@ args = 0, pretend = 0, frame = 8
	@ frame_needed = 0, uses_anonymous_args = 0
	.loc 1 3283 5 view .LVU3169
	.loc 1 3270 13 is_stmt 0 view .LVU3170
	push	{r4, r5, lr}
	.cfi_def_cfa_offset 12
	.cfi_offset 4, -12
	.cfi_offset 5, -8
	.cfi_offset 14, -4
	sub	sp, sp, #12
	.cfi_def_cfa_offset 24
	.loc 1 3270 13 view .LVU3171
	strd	r0, [sp]
	.loc 1 3283 21 view .LVU3172
	mov	r0, sp
	.loc 1 3270 13 view .LVU3173
	mov	r5, r2
	mov	r4, r3
	.loc 1 3283 21 view .LVU3174
	bl	localtime
.LVL642:
	.loc 1 3286 5 is_stmt 1 view .LVU3175
	.loc 1 3286 68 is_stmt 0 view .LVU3176
	ldr	ip, [r0, #4]
	.loc 1 3286 45 view .LVU3177
	ldr	r3, [r0, #8]
	.loc 1 3286 68 view .LVU3178
	lsl	ip, ip, #5
	.loc 1 3286 52 view .LVU3179
	add	ip, ip, r3, lsl #11
	.loc 1 3286 90 view .LVU3180
	ldr	r3, [r0]
	.loc 1 3287 80 view .LVU3181
	ldr	r1, [r0, #16]
	.loc 1 3286 18 view .LVU3182
	add	ip, ip, r3, asr #1
	.loc 1 3287 51 view .LVU3183
	ldr	r3, [r0, #20]
	.loc 1 3287 80 view .LVU3184
	add	r1, r1, #1
	.loc 1 3287 18 view .LVU3185
	ldr	r2, [r0, #12]
	.loc 1 3287 51 view .LVU3186
	sub	r3, r3, #80
	.loc 1 3287 85 view .LVU3187
	lsl	r1, r1, #5
	.loc 1 3287 65 view .LVU3188
	add	r1, r1, r3, lsl #9
	.loc 1 3287 18 view .LVU3189
	add	r1, r1, r2
	.loc 1 3286 16 view .LVU3190
	strh	ip, [r5]	@ movhi
	.loc 1 3287 5 is_stmt 1 view .LVU3191
	.loc 1 3287 16 is_stmt 0 view .LVU3192
	strh	r1, [r4]	@ movhi
	.loc 1 3288 1 view .LVU3193
	add	sp, sp, #12
	.cfi_def_cfa_offset 12
	@ sp needed
	pop	{r4, r5, pc}
	.loc 1 3288 1 view .LVU3194
	.cfi_endproc
.LFE195:
	.size	mz_zip_time_t_to_dos_time.constprop.0, .-mz_zip_time_t_to_dos_time.constprop.0
	.section	.text.mz_zip_reader_read_central_dir,"ax",%progbits
	.align	2
	.syntax unified
	.arm
	.fpu vfp
	.type	mz_zip_reader_read_central_dir, %function
mz_zip_reader_read_central_dir:
.LVL643:
.LFB75:
	.loc 1 3489 1 is_stmt 1 view -0
	.cfi_startproc
	@ args = 0, pretend = 0, frame = 4224
	@ frame_needed = 0, uses_anonymous_args = 0
	.loc 1 3490 5 view .LVU3196
	.loc 1 3491 5 view .LVU3197
	.loc 1 3492 5 view .LVU3198
	.loc 1 3493 5 view .LVU3199
	.loc 1 3495 5 view .LVU3200
	.loc 1 3496 5 view .LVU3201
	.loc 1 3489 1 is_stmt 0 view .LVU3202
	push	{r4, r5, r6, r7, r8, r9, r10, fp, lr}
	.cfi_def_cfa_offset 36
	.cfi_offset 4, -36
	.cfi_offset 5, -32
	.cfi_offset 6, -28
	.cfi_offset 7, -24
	.cfi_offset 8, -20
	.cfi_offset 9, -16
	.cfi_offset 10, -12
	.cfi_offset 11, -8
	.cfi_offset 14, -4
	.loc 1 3507 13 view .LVU3203
	ldr	r6, [r0]
	ldr	r2, [r0, #4]
	.loc 1 3489 1 view .LVU3204
	sub	sp, sp, #4224
	.cfi_def_cfa_offset 4260
	.loc 1 3507 8 view .LVU3205
	cmp	r6, #22
	.loc 1 3489 1 view .LVU3206
	sub	sp, sp, #12
	.cfi_def_cfa_offset 4272
.LVL644:
	.loc 1 3497 5 is_stmt 1 view .LVU3207
	.loc 1 3507 8 is_stmt 0 view .LVU3208
	sbcs	r3, r2, #0
	.loc 1 3489 1 view .LVU3209
	mov	r4, r0
	str	r1, [sp, #12]
.LVL645:
	.loc 1 3498 5 is_stmt 1 view .LVU3210
	.loc 1 3499 5 view .LVU3211
	.loc 1 3501 5 view .LVU3212
	.loc 1 3502 5 view .LVU3213
	.loc 1 3504 5 view .LVU3214
	.loc 1 3507 5 view .LVU3215
	.loc 1 3507 8 is_stmt 0 view .LVU3216
	bcs	.L640
.LVL646:
.L651:
	.loc 1 3508 9 is_stmt 1 view .LVU3217
.LBB2171:
.LBI2171:
	.loc 1 3320 62 view .LVU3218
.LBB2172:
	.loc 1 3322 5 view .LVU3219
	.loc 1 3323 9 view .LVU3220
	.loc 1 3323 28 is_stmt 0 view .LVU3221
	mov	r3, #8
.LBE2172:
.LBE2171:
	.loc 1 3508 16 view .LVU3222
	mov	r0, #0
.LBB2174:
.LBB2173:
	.loc 1 3323 28 view .LVU3223
	strb	r3, [r4, #22]
	.loc 1 3324 5 is_stmt 1 view .LVU3224
.LVL647:
.L639:
	.loc 1 3324 5 is_stmt 0 view .LVU3225
.LBE2173:
.LBE2174:
	.loc 1 3710 1 view .LVU3226
	add	sp, sp, #4224
	add	sp, sp, #12
	.cfi_remember_state
	.cfi_def_cfa_offset 36
	@ sp needed
	pop	{r4, r5, r6, r7, r8, r9, r10, fp, pc}
.LVL648:
.L640:
	.cfi_restore_state
	.loc 1 3510 5 is_stmt 1 view .LVU3227
.LBB2175:
.LBI2175:
	.loc 1 3442 16 view .LVU3228
.LBB2176:
	.loc 1 3444 5 view .LVU3229
	.loc 1 3445 5 view .LVU3230
	.loc 1 3446 5 view .LVU3231
	.loc 1 3449 5 view .LVU3232
	.loc 1 3453 5 view .LVU3233
	.loc 1 3453 153 is_stmt 0 view .LVU3234
	cmp	r6, #4096
	sbcs	r3, r2, #0
	mov	r7, r6
	movlt	r7, #4096
	mov	r3, r2
	movlt	r3, #0
.LBB2177:
	.loc 1 3461 16 view .LVU3235
	ldr	r10, .L828
.LBE2177:
	.loc 1 3453 18 view .LVU3236
	subs	r7, r7, #4096
.LBB2184:
.LBB2178:
	.loc 1 3464 16 view .LVU3237
	ldr	fp, .L828+4
.LBE2178:
	.loc 1 3478 29 view .LVU3238
	ldr	r9, .L828+8
.LBE2184:
	.loc 1 3453 18 view .LVU3239
	sbc	r5, r3, #0
.LVL649:
	.loc 1 3453 18 view .LVU3240
	add	r8, sp, #136
.LVL650:
.L650:
	.loc 1 3454 5 is_stmt 1 view .LVU3241
.LBB2185:
	.loc 1 3456 9 view .LVU3242
	.loc 1 3456 69 is_stmt 0 view .LVU3243
	subs	r6, r6, r7
	sbc	r2, r2, r5
	.loc 1 3456 20 view .LVU3244
	rsbs	r3, r6, #4096
	rscs	r2, r2, #0
	.loc 1 3458 13 view .LVU3245
	ldr	r0, [r4, #60]
	.loc 1 3458 17 view .LVU3246
	ldr	r1, [r4, #48]
	.loc 1 3456 20 view .LVU3247
	bcc	.L643
.LVL651:
	.loc 1 3458 9 is_stmt 1 view .LVU3248
	.loc 1 3458 13 is_stmt 0 view .LVU3249
	mov	r2, r7
	mov	r3, r5
	str	r6, [sp, #4]
	str	r8, [sp]
	blx	r1
.LVL652:
	.loc 1 3458 12 view .LVU3250
	cmp	r6, r0
	bne	.L644
	.loc 1 3461 9 is_stmt 1 view .LVU3251
.LVL653:
	.loc 1 3461 27 view .LVU3252
	subs	r0, r6, #4
.LVL654:
	.loc 1 3461 27 is_stmt 0 view .LVU3253
	bmi	.L645
.LVL655:
.L728:
	.loc 1 3461 27 view .LVU3254
	adds	r6, r0, r7
.LBB2179:
	.loc 1 3463 21 view .LVU3255
	add	r2, r8, r0
.LBE2179:
	.loc 1 3461 16 view .LVU3256
	adc	r1, r5, r0, asr #31
.LBB2180:
	.loc 1 3463 21 view .LVU3257
	sub	r2, r2, r6
	b	.L648
.LVL656:
.L646:
	.loc 1 3463 21 view .LVU3258
.LBE2180:
	.loc 1 3461 27 view .LVU3259
	subs	r6, r6, #1
	sbc	r1, r1, #0
	cmn	r0, #1
	beq	.L645
.LVL657:
.L648:
.LBB2181:
	.loc 1 3463 13 is_stmt 1 view .LVU3260
	.loc 1 3464 13 view .LVU3261
.LBE2181:
	.loc 1 3461 33 view .LVU3262
.LBB2182:
	.loc 1 3463 21 is_stmt 0 view .LVU3263
	ldr	r3, [r2, r6]	@ unaligned
.LBE2182:
	.loc 1 3461 33 view .LVU3264
	sub	r0, r0, #1
.LVL658:
	.loc 1 3461 27 is_stmt 1 view .LVU3265
.LBB2183:
	.loc 1 3464 16 is_stmt 0 view .LVU3266
	cmp	r3, fp
	bne	.L646
	.loc 1 3466 17 is_stmt 1 view .LVU3267
	.loc 1 3466 43 is_stmt 0 view .LVU3268
	ldr	ip, [r4]
	ldr	r3, [r4, #4]
	subs	ip, ip, r6
	sbc	r3, r3, r1
	.loc 1 3466 20 view .LVU3269
	cmp	ip, #22
	sbcs	r3, r3, #0
	bcc	.L646
.LBE2183:
	.loc 1 3471 9 is_stmt 1 view .LVU3270
	.loc 1 3473 13 view .LVU3271
.LVL659:
	.loc 1 3474 13 view .LVU3272
.LBE2185:
	.loc 1 3484 5 view .LVU3273
	.loc 1 3485 5 view .LVU3274
	.loc 1 3485 5 is_stmt 0 view .LVU3275
.LBE2176:
.LBE2175:
	.loc 1 3514 5 is_stmt 1 view .LVU3276
	.loc 1 3514 9 is_stmt 0 view .LVU3277
	mov	r3, #22
	str	r8, [sp]
	str	r3, [sp, #4]
	mov	r2, r6
	mov	r3, r1
	ldr	r7, [r4, #48]
	ldr	r0, [r4, #60]
	str	r1, [sp, #16]
	blx	r7
.LVL660:
	.loc 1 3514 8 view .LVU3278
	cmp	r0, #22
	bne	.L811
	.loc 1 3517 8 view .LVU3279
	ldr	r3, [r8]
	ldr	r1, [sp, #16]
	.loc 1 3517 5 is_stmt 1 view .LVU3280
	.loc 1 3517 8 is_stmt 0 view .LVU3281
	cmp	r3, fp
	bne	.L651
	.loc 1 3520 5 is_stmt 1 view .LVU3282
	.loc 1 3520 8 is_stmt 0 view .LVU3283
	cmp	r6, #76
	sbcs	r3, r1, #0
	blt	.L810
	.loc 1 3522 9 is_stmt 1 view .LVU3284
	.loc 1 3522 60 is_stmt 0 view .LVU3285
	subs	r2, r6, #20
	.loc 1 3522 13 view .LVU3286
	sbc	r3, r1, #0
	mov	r1, #20
	str	r1, [sp, #4]
	add	r1, sp, #60
	str	r1, [sp]
	ldr	r1, [r4, #48]
	ldr	r0, [r4, #60]
	blx	r1
.LVL661:
	.loc 1 3522 12 view .LVU3287
	cmp	r0, #20
	beq	.L780
.LVL662:
.L810:
	.loc 1 3522 12 view .LVU3288
	ldr	r7, [r4, #64]
.L653:
	.loc 1 3541 5 is_stmt 1 view .LVU3289
	.loc 1 3548 8 is_stmt 0 view .LVU3290
	ldr	r1, [r7, #52]
	.loc 1 3541 108 view .LVU3291
	ldrh	fp, [r8, #10]
	ldrh	r0, [r8, #4]
	.loc 1 3548 8 view .LVU3292
	cmp	r1, #0
	ldrh	r2, [r8, #8]
	ldrh	r3, [r8, #6]
	.loc 1 3546 248 view .LVU3293
	ldr	r9, [r8, #16]
	.loc 1 3545 15 view .LVU3294
	ldr	r6, [sp, #148]
.LVL663:
	.loc 1 3546 14 view .LVU3295
	moveq	r8, r1
	.loc 1 3541 25 view .LVU3296
	str	fp, [r4, #16]
	.loc 1 3542 5 is_stmt 1 view .LVU3297
.LVL664:
	.loc 1 3543 5 view .LVU3298
	.loc 1 3544 5 view .LVU3299
	.loc 1 3545 5 view .LVU3300
	.loc 1 3546 5 view .LVU3301
	.loc 1 3548 5 view .LVU3302
	.loc 1 3543 19 is_stmt 0 view .LVU3303
	streq	r0, [sp, #16]
	.loc 1 3548 8 view .LVU3304
	beq	.L656
.LBB2189:
	.loc 1 3550 9 is_stmt 1 view .LVU3305
	.loc 1 3553 19 is_stmt 0 view .LVU3306
	ldr	r3, [r8, #-52]
	.loc 1 3550 19 view .LVU3307
	ldr	r0, [r8, #-60]
.LVL665:
	.loc 1 3551 9 is_stmt 1 view .LVU3308
	.loc 1 3556 12 is_stmt 0 view .LVU3309
	cmp	r3, #44
	.loc 1 3553 19 view .LVU3310
	ldr	r3, [r8, #-48]
	.loc 1 3551 19 view .LVU3311
	ldr	fp, [sp, #112]
	.loc 1 3556 12 view .LVU3312
	sbcs	r3, r3, #0
	.loc 1 3551 19 view .LVU3313
	ldr	lr, [sp, #116]
.LVL666:
	.loc 1 3552 9 is_stmt 1 view .LVU3314
	.loc 1 3552 19 is_stmt 0 view .LVU3315
	ldr	r2, [sp, #104]
	ldr	ip, [sp, #108]
.LVL667:
	.loc 1 3553 9 is_stmt 1 view .LVU3316
	.loc 1 3554 9 view .LVU3317
	.loc 1 3554 19 is_stmt 0 view .LVU3318
	ldr	r6, [sp, #120]
	ldr	r1, [sp, #124]
.LVL668:
	.loc 1 3556 9 is_stmt 1 view .LVU3319
	.loc 1 3556 12 is_stmt 0 view .LVU3320
	bcc	.L664
	.loc 1 3559 9 is_stmt 1 view .LVU3321
	.loc 1 3559 12 is_stmt 0 view .LVU3322
	cmp	r0, #1
	bne	.L662
	.loc 1 3563 9 is_stmt 1 view .LVU3323
	.loc 1 3563 12 is_stmt 0 view .LVU3324
	mvn	r3, #0
	mov	r0, #0
	cmp	r3, fp
	sbcs	lr, r0, lr
.LVL669:
	.loc 1 3563 12 view .LVU3325
	bcc	.L660
	.loc 1 3566 9 is_stmt 1 view .LVU3326
	.loc 1 3568 12 is_stmt 0 view .LVU3327
	cmp	r3, r2
	sbcs	ip, r0, ip
.LVL670:
	.loc 1 3566 29 view .LVU3328
	str	fp, [r4, #16]
	.loc 1 3568 9 is_stmt 1 view .LVU3329
	.loc 1 3568 12 is_stmt 0 view .LVU3330
	bcc	.L660
	.loc 1 3571 9 is_stmt 1 view .LVU3331
.LVL671:
	.loc 1 3574 9 view .LVU3332
	.loc 1 3574 12 is_stmt 0 view .LVU3333
	cmp	r3, r6
	sbcs	r1, r0, r1
.LVL672:
.LBB2190:
.LBB2191:
	.loc 1 3323 28 view .LVU3334
	movcc	r3, #15
	strbcc	r3, [r4, #22]
.LBE2191:
.LBE2190:
	.loc 1 3574 12 view .LVU3335
	bcc	.L639
	.loc 1 3577 9 is_stmt 1 view .LVU3336
.LVL673:
	.loc 1 3579 9 view .LVU3337
	.loc 1 3579 23 is_stmt 0 view .LVU3338
	ldr	r3, [r8, #-40]
	.loc 1 3583 18 view .LVU3339
	ldr	r9, [sp, #128]
.LVL674:
	.loc 1 3579 23 view .LVU3340
	str	r3, [sp, #16]
.LVL675:
	.loc 1 3581 9 is_stmt 1 view .LVU3341
	.loc 1 3581 25 is_stmt 0 view .LVU3342
	ldr	r3, [r8, #-36]
.LVL676:
	.loc 1 3583 9 is_stmt 1 view .LVU3343
	.loc 1 3583 18 is_stmt 0 view .LVU3344
	ldr	r8, [sp, #132]
.LVL677:
.L656:
	.loc 1 3583 18 view .LVU3345
.LBE2189:
	.loc 1 3586 5 is_stmt 1 view .LVU3346
	.loc 1 3586 8 is_stmt 0 view .LVU3347
	cmp	r2, fp
	bne	.L662
	.loc 1 3589 5 is_stmt 1 view .LVU3348
	.loc 1 3589 8 is_stmt 0 view .LVU3349
	ldr	r1, [sp, #16]
	orrs	r2, r1, r3
.LVL678:
	.loc 1 3589 8 view .LVU3350
	beq	.L663
	.loc 1 3589 50 discriminator 1 view .LVU3351
	cmp	r3, #1
	cmpeq	r1, #1
	bne	.L662
.L663:
	.loc 1 3592 5 is_stmt 1 view .LVU3352
	.loc 1 3592 41 is_stmt 0 view .LVU3353
	add	r3, fp, fp, lsl #1
.LVL679:
	.loc 1 3592 41 view .LVU3354
	rsb	r3, fp, r3, lsl #3
	.loc 1 3592 8 view .LVU3355
	cmp	r6, r3, lsl #1
	bcc	.L664
	.loc 1 3595 5 is_stmt 1 view .LVU3356
	.loc 1 3595 8 is_stmt 0 view .LVU3357
	ldr	r0, [r4]
	.loc 1 3595 19 view .LVU3358
	adds	r1, r6, r9
	.loc 1 3595 8 view .LVU3359
	ldr	r3, [r4, #4]
	.loc 1 3595 19 view .LVU3360
	adc	r2, r8, #0
	.loc 1 3595 8 view .LVU3361
	cmp	r0, r1
	sbcs	r3, r3, r2
	bcc	.L664
	.loc 1 3497 40 view .LVU3362
	ldr	r3, [sp, #12]
	.loc 1 3600 8 view .LVU3363
	cmp	fp, #0
	.loc 1 3497 40 view .LVU3364
	and	r5, r3, #2048
	.loc 1 3598 5 is_stmt 1 view .LVU3365
	.loc 1 3598 40 is_stmt 0 view .LVU3366
	str	r9, [r4, #8]
	str	r8, [r4, #12]
	.loc 1 3600 5 is_stmt 1 view .LVU3367
	.loc 1 3600 8 is_stmt 0 view .LVU3368
	bne	.L665
.LVL680:
.L676:
	.loc 1 3706 5 is_stmt 1 view .LVU3369
	.loc 1 3706 8 is_stmt 0 view .LVU3370
	cmp	r5, #0
	beq	.L812
.LVL681:
.L667:
	.loc 1 3709 12 view .LVU3371
	mov	r0, #1
	.loc 1 3710 1 view .LVU3372
	add	sp, sp, #4224
	add	sp, sp, #12
	.cfi_remember_state
	.cfi_def_cfa_offset 36
	@ sp needed
	pop	{r4, r5, r6, r7, r8, r9, r10, fp, pc}
.LVL682:
.L645:
	.cfi_restore_state
.LBB2204:
.LBB2188:
.LBB2186:
	.loc 1 3471 9 is_stmt 1 view .LVU3373
	.loc 1 3478 9 view .LVU3374
	.loc 1 3478 12 is_stmt 0 view .LVU3375
	orrs	r3, r7, r5
	beq	.L644
	.loc 1 3478 29 view .LVU3376
	mov	r1, #0
	.loc 1 3478 38 view .LVU3377
	ldr	r6, [r4]
	ldr	r2, [r4, #4]
	.loc 1 3478 55 view .LVU3378
	subs	r0, r6, r7
.LVL683:
	.loc 1 3478 55 view .LVU3379
	sbc	r3, r2, r5
	.loc 1 3478 29 view .LVU3380
	cmp	r9, r0
	sbcs	r3, r1, r3
	bcc	.L644
	.loc 1 3481 9 is_stmt 1 view .LVU3381
	.loc 1 3481 113 is_stmt 0 view .LVU3382
	ldr	r3, .L828+12
	cmp	r7, r3
	sbcs	r0, r5, #0
	movlt	r7, r3
.LVL684:
	.loc 1 3481 113 view .LVU3383
	movlt	r5, r1
	.loc 1 3481 22 view .LVU3384
	ldr	r3, .L828+16
	adds	r7, r7, r3
	sbc	r5, r5, #0
.LVL685:
	.loc 1 3481 22 view .LVU3385
.LBE2186:
	.loc 1 3454 5 is_stmt 1 view .LVU3386
	.loc 1 3455 5 is_stmt 0 view .LVU3387
	b	.L650
.L643:
.LVL686:
.LBB2187:
	.loc 1 3458 9 is_stmt 1 view .LVU3388
	.loc 1 3458 13 is_stmt 0 view .LVU3389
	mov	r3, #4096
	mov	r2, r7
	str	r3, [sp, #4]
	str	r8, [sp]
	mov	r3, r5
	blx	r1
.LVL687:
	.loc 1 3458 12 view .LVU3390
	cmp	r0, #4096
	.loc 1 3461 16 view .LVU3391
	moveq	r0, r10
	beq	.L728
.LVL688:
.L644:
	.loc 1 3461 16 view .LVU3392
.LBE2187:
.LBE2188:
.LBE2204:
	.loc 1 3511 9 is_stmt 1 view .LVU3393
.LBB2205:
.LBI2205:
	.loc 1 3320 62 view .LVU3394
.LBB2206:
	.loc 1 3322 5 view .LVU3395
	.loc 1 3323 9 view .LVU3396
	.loc 1 3323 28 is_stmt 0 view .LVU3397
	mov	r3, #7
.LBE2206:
.LBE2205:
	.loc 1 3511 16 view .LVU3398
	mov	r0, #0
.LBB2208:
.LBB2207:
	.loc 1 3323 28 view .LVU3399
	strb	r3, [r4, #22]
	.loc 1 3324 5 is_stmt 1 view .LVU3400
.LVL689:
	.loc 1 3324 5 is_stmt 0 view .LVU3401
.LBE2207:
.LBE2208:
	.loc 1 3710 1 view .LVU3402
	add	sp, sp, #4224
	add	sp, sp, #12
	.cfi_remember_state
	.cfi_def_cfa_offset 36
	@ sp needed
	pop	{r4, r5, r6, r7, r8, r9, r10, fp, pc}
.LVL690:
.L811:
	.cfi_restore_state
.LBB2209:
	.loc 1 3615 13 is_stmt 1 view .LVU3403
.LBB2210:
.LBI2210:
	.loc 1 3320 62 view .LVU3404
.LBB2211:
	.loc 1 3322 5 view .LVU3405
	.loc 1 3323 9 view .LVU3406
	.loc 1 3323 28 is_stmt 0 view .LVU3407
	mov	r3, #20
.LBE2211:
.LBE2210:
	.loc 1 3615 20 view .LVU3408
	mov	r0, #0
.LBB2213:
.LBB2212:
	.loc 1 3323 28 view .LVU3409
	strb	r3, [r4, #22]
	.loc 1 3324 5 is_stmt 1 view .LVU3410
.LVL691:
	.loc 1 3324 5 is_stmt 0 view .LVU3411
.LBE2212:
.LBE2213:
.LBE2209:
	.loc 1 3710 1 view .LVU3412
	add	sp, sp, #4224
	add	sp, sp, #12
	.cfi_remember_state
	.cfi_def_cfa_offset 36
	@ sp needed
	pop	{r4, r5, r6, r7, r8, r9, r10, fp, pc}
.LVL692:
.L662:
	.cfi_restore_state
.LBB2259:
	.loc 1 3560 13 is_stmt 1 view .LVU3413
.LBB2192:
.LBI2192:
	.loc 1 3320 62 view .LVU3414
.LBB2193:
	.loc 1 3322 5 view .LVU3415
	.loc 1 3323 9 view .LVU3416
	.loc 1 3323 28 is_stmt 0 view .LVU3417
	mov	r3, #10
.LBE2193:
.LBE2192:
	.loc 1 3560 20 view .LVU3418
	mov	r0, #0
.LBB2195:
.LBB2194:
	.loc 1 3323 28 view .LVU3419
	strb	r3, [r4, #22]
	.loc 1 3324 5 is_stmt 1 view .LVU3420
.LVL693:
	.loc 1 3324 5 is_stmt 0 view .LVU3421
.LBE2194:
.LBE2195:
	.loc 1 3560 20 view .LVU3422
	b	.L639
.LVL694:
.L665:
	.loc 1 3560 20 view .LVU3423
.LBE2259:
.LBB2260:
	.loc 1 3602 9 is_stmt 1 view .LVU3424
	.loc 1 3604 9 view .LVU3425
.LBB2214:
.LBI2214:
	.loc 1 3229 62 view .LVU3426
.LBB2215:
	.loc 1 3231 5 view .LVU3427
	.loc 1 3231 8 is_stmt 0 view .LVU3428
	ldr	r3, [r7, #8]
	cmp	r6, r3
	movls	r10, r7
	bhi	.L813
.L668:
	.loc 1 3236 5 is_stmt 1 view .LVU3429
.LBE2215:
.LBE2214:
.LBB2218:
.LBB2219:
	.loc 1 3231 8 is_stmt 0 view .LVU3430
	ldr	r3, [r10, #24]
.LBE2219:
.LBE2218:
.LBB2224:
.LBB2216:
	.loc 1 3236 20 view .LVU3431
	str	r6, [r7, #4]
	.loc 1 3237 5 is_stmt 1 view .LVU3432
.LVL695:
	.loc 1 3237 5 is_stmt 0 view .LVU3433
.LBE2216:
.LBE2224:
.LBB2225:
.LBI2218:
	.loc 1 3229 62 is_stmt 1 view .LVU3434
.LBB2220:
	.loc 1 3231 5 view .LVU3435
	.loc 1 3231 8 is_stmt 0 view .LVU3436
	cmp	r3, fp
	movcs	r7, r10
	bcc	.L814
.LVL696:
.L670:
	.loc 1 3236 5 is_stmt 1 view .LVU3437
.LBE2220:
.LBE2225:
	.loc 1 3608 12 is_stmt 0 view .LVU3438
	cmp	r5, #0
.LBB2226:
.LBB2221:
	.loc 1 3236 20 view .LVU3439
	str	fp, [r10, #20]
	.loc 1 3237 5 is_stmt 1 view .LVU3440
.LVL697:
	.loc 1 3237 5 is_stmt 0 view .LVU3441
.LBE2221:
.LBE2226:
	.loc 1 3608 9 is_stmt 1 view .LVU3442
	.loc 1 3608 12 is_stmt 0 view .LVU3443
	bne	.L672
	.loc 1 3610 13 is_stmt 1 view .LVU3444
.LBB2227:
.LBB2228:
	.loc 1 3231 8 is_stmt 0 view .LVU3445
	ldr	r3, [r7, #40]
.LBE2228:
.LBE2227:
	.loc 1 3610 18 view .LVU3446
	ldr	r10, [r4, #16]
.LVL698:
.LBB2232:
.LBI2227:
	.loc 1 3229 62 is_stmt 1 view .LVU3447
.LBB2229:
	.loc 1 3231 5 view .LVU3448
	.loc 1 3231 8 is_stmt 0 view .LVU3449
	cmp	r10, r3
	movls	r3, r7
	bhi	.L815
.L673:
	.loc 1 3236 5 is_stmt 1 view .LVU3450
	.loc 1 3236 20 is_stmt 0 view .LVU3451
	str	r10, [r7, #36]
	.loc 1 3237 5 is_stmt 1 view .LVU3452
.LVL699:
	.loc 1 3236 20 is_stmt 0 view .LVU3453
	mov	r7, r3
.L672:
	.loc 1 3236 20 view .LVU3454
.LBE2229:
.LBE2232:
	.loc 1 3614 9 is_stmt 1 view .LVU3455
	.loc 1 3614 13 is_stmt 0 view .LVU3456
	str	r6, [sp, #4]
	ldr	r3, [r7]
	mov	r2, r9
	str	r3, [sp]
	ldr	r1, [r4, #48]
	mov	r3, r8
	ldr	r0, [r4, #60]
	blx	r1
.LVL700:
	.loc 1 3614 12 view .LVU3457
	cmp	r0, r6
	bne	.L811
	.loc 1 3618 9 is_stmt 1 view .LVU3458
	.loc 1 3619 38 is_stmt 0 view .LVU3459
	ldr	r3, [r4, #16]
	.loc 1 3618 35 view .LVU3460
	ldr	lr, [r4, #64]
	.loc 1 3619 38 view .LVU3461
	cmp	r3, #0
	.loc 1 3618 11 view .LVU3462
	ldr	r3, [lr]
	str	r3, [sp, #12]
.LVL701:
	.loc 1 3619 9 is_stmt 1 view .LVU3463
	.loc 1 3619 38 view .LVU3464
	beq	.L676
.LBB2233:
	.loc 1 3621 13 view .LVU3465
	.loc 1 3622 13 view .LVU3466
	.loc 1 3624 13 view .LVU3467
	.loc 1 3624 16 is_stmt 0 view .LVU3468
	cmp	r6, #45
	bls	.L664
.LBE2233:
	.loc 1 3619 31 view .LVU3469
	mov	r1, #0
.LBB2246:
	.loc 1 3633 25 view .LVU3470
	mov	r10, r5
	.loc 1 3632 23 view .LVU3471
	mov	r8, r1
.LVL702:
	.loc 1 3632 23 view .LVU3472
.LBE2246:
	.loc 1 3618 11 view .LVU3473
	ldr	r3, [sp, #12]
	.loc 1 3618 11 view .LVU3474
	b	.L677
.LVL703:
.L680:
.LBB2247:
	.loc 1 3678 13 is_stmt 1 view .LVU3475
	.loc 1 3678 16 is_stmt 0 view .LVU3476
	cmn	r0, #1
	cmnne	r2, #1
	beq	.L685
	.loc 1 3680 17 is_stmt 1 view .LVU3477
	.loc 1 3680 315 is_stmt 0 view .LVU3478
	cmp	r8, #0
	cmpeq	r2, r0
	movne	ip, #1
	moveq	ip, #0
	.loc 1 3680 238 view .LVU3479
	ldr	r5, [r3, #10]	@ unaligned
	.loc 1 3680 315 view .LVU3480
	cmp	r5, #0
	movne	ip, #0
	andeq	ip, ip, #1
	cmp	ip, #0
	bne	.L664
	.loc 1 3680 346 discriminator 3 view .LVU3481
	subs	r0, r0, #0
	.loc 1 3680 346 discriminator 3 view .LVU3482
	movne	r0, #1
.LVL704:
	.loc 1 3680 346 discriminator 3 view .LVU3483
	cmp	r2, #0
	movne	r0, #0
	cmp	r0, #0
	bne	.L664
.L685:
	.loc 1 3684 13 is_stmt 1 view .LVU3484
	.loc 1 3684 24 is_stmt 0 view .LVU3485
	ldrh	r0, [r3, #34]	@ unaligned
.LVL705:
	.loc 1 3685 13 is_stmt 1 view .LVU3486
	.loc 1 3685 16 is_stmt 0 view .LVU3487
	ldr	ip, .L828+20
	cmp	r0, ip
	beq	.L662
	.loc 1 3685 43 discriminator 1 view .LVU3488
	ldr	ip, [sp, #16]
	cmp	ip, r0
	cmpne	r0, #1
	movne	r0, #1
	moveq	r0, #0
	bne	.L662
	.loc 1 3688 13 is_stmt 1 view .LVU3489
	.loc 1 3688 16 is_stmt 0 view .LVU3490
	cmp	r8, r0
	cmneq	r2, #1
	beq	.L686
	.loc 1 3690 17 is_stmt 1 view .LVU3491
	.loc 1 3690 265 is_stmt 0 view .LVU3492
	ldr	r0, [r3, #42]	@ unaligned
	.loc 1 3690 20 view .LVU3493
	ldr	ip, [r4]
	.loc 1 3690 378 view .LVU3494
	adds	r2, r0, r2
.LVL706:
	.loc 1 3690 378 view .LVU3495
	adc	r0, r8, #0
	adds	r2, r2, #30
	adc	r0, r0, #0
	.loc 1 3690 20 view .LVU3496
	cmp	ip, r2
	ldr	r2, [r4, #4]
	sbcs	r2, r2, r0
	bcc	.L664
.L686:
	.loc 1 3694 13 is_stmt 1 view .LVU3497
.LVL707:
	.loc 1 3695 13 view .LVU3498
	.loc 1 3695 16 is_stmt 0 view .LVU3499
	ldrh	r2, [r3, #8]	@ unaligned
	tst	r2, #8192
	bne	.L816
	.loc 1 3698 13 is_stmt 1 view .LVU3500
	.loc 1 3698 293 is_stmt 0 view .LVU3501
	ldrh	r0, [r3, #30]	@ unaligned
	.loc 1 3698 142 view .LVU3502
	ldrh	r2, [r3, #28]	@ unaligned
	.loc 1 3698 223 view .LVU3503
	add	r2, r2, r0
	.loc 1 3698 443 view .LVU3504
	ldrh	r0, [r3, #32]	@ unaligned
	.loc 1 3698 36 view .LVU3505
	add	r2, r2, #46
	add	r2, r2, r0
.LVL708:
	.loc 1 3698 16 view .LVU3506
	cmp	r2, r6
	bhi	.L664
	.loc 1 3701 13 is_stmt 1 discriminator 2 view .LVU3507
	.loc 1 3701 15 is_stmt 0 discriminator 2 view .LVU3508
	sub	r6, r6, r2
.LVL709:
	.loc 1 3702 13 is_stmt 1 discriminator 2 view .LVU3509
	.loc 1 3702 15 is_stmt 0 discriminator 2 view .LVU3510
	add	r3, r3, r2
.LVL710:
	.loc 1 3702 15 discriminator 2 view .LVU3511
.LBE2247:
	.loc 1 3619 61 is_stmt 1 discriminator 2 view .LVU3512
	.loc 1 3619 38 is_stmt 0 discriminator 2 view .LVU3513
	ldr	r2, [r4, #16]
.LVL711:
	.loc 1 3619 61 discriminator 2 view .LVU3514
	add	r1, r1, #1
.LVL712:
	.loc 1 3619 38 is_stmt 1 discriminator 2 view .LVU3515
	cmp	r2, r1
	bls	.L817
.LBB2248:
	.loc 1 3621 13 view .LVU3516
	.loc 1 3622 13 view .LVU3517
	.loc 1 3624 13 view .LVU3518
	.loc 1 3624 16 is_stmt 0 view .LVU3519
	cmp	r6, #45
	bls	.L664
.LVL713:
.L677:
	.loc 1 3624 200 discriminator 1 view .LVU3520
	ldr	r2, [r3]	@ unaligned
	.loc 1 3624 54 discriminator 1 view .LVU3521
	ldr	r0, .L828+24
	cmp	r2, r0
	bne	.L664
	.loc 1 3627 13 is_stmt 1 view .LVU3522
	.loc 1 3627 95 is_stmt 0 view .LVU3523
	ldr	r0, [sp, #12]
	.loc 1 3627 79 view .LVU3524
	ldr	r2, [lr, #16]
	.loc 1 3629 16 view .LVU3525
	cmp	r10, #0
	.loc 1 3627 95 view .LVU3526
	sub	r0, r3, r0
	.loc 1 3627 79 view .LVU3527
	str	r0, [r2, r1, lsl #2]
	.loc 1 3629 13 is_stmt 1 view .LVU3528
	.loc 1 3630 17 view .LVU3529
	.loc 1 3632 13 view .LVU3530
	.loc 1 3630 90 is_stmt 0 view .LVU3531
	ldreq	r2, [lr, #32]
	streq	r1, [r2, r1, lsl #2]
	.loc 1 3638 16 view .LVU3532
	ldr	r2, [lr, #56]
	.loc 1 3636 27 view .LVU3533
	ldrh	r5, [r3, #30]	@ unaligned
	.loc 1 3638 69 view .LVU3534
	clz	r2, r2
	cmp	r5, #0
	lsr	r2, r2, #5
	moveq	r2, #0
	cmp	r2, #0
	.loc 1 3633 274 view .LVU3535
	ldr	r0, [r3, #24]	@ unaligned
	.loc 1 3632 266 view .LVU3536
	ldr	r2, [r3, #20]	@ unaligned
.LVL714:
	.loc 1 3633 13 is_stmt 1 view .LVU3537
	.loc 1 3634 13 view .LVU3538
	.loc 1 3634 264 is_stmt 0 view .LVU3539
	ldr	r9, [r3, #42]	@ unaligned
.LVL715:
	.loc 1 3635 13 is_stmt 1 view .LVU3540
	ldrh	r7, [r3, #28]	@ unaligned
.LVL716:
	.loc 1 3636 13 view .LVU3541
	.loc 1 3638 13 view .LVU3542
	.loc 1 3638 69 is_stmt 0 view .LVU3543
	beq	.L680
	.loc 1 3640 66 view .LVU3544
	cmp	r0, r2
	movcc	ip, r2
	movcs	ip, r0
	.loc 1 3640 172 view .LVU3545
	cmp	ip, r9
	movcc	ip, r9
	.loc 1 3639 33 view .LVU3546
	cmp	r8, r8
	cmneq	ip, #1
	bne	.L680
.LBB2234:
	.loc 1 3643 17 is_stmt 1 view .LVU3547
.LVL717:
	.loc 1 3645 17 view .LVU3548
.LBB2235:
	.loc 1 3647 21 view .LVU3549
	.loc 1 3647 86 is_stmt 0 view .LVU3550
	add	ip, r7, #46
	.loc 1 3647 37 view .LVU3551
	add	ip, r3, ip
.LVL718:
	.loc 1 3647 37 view .LVU3552
	b	.L684
.LVL719:
.L819:
.LBB2236:
	.loc 1 3672 46 view .LVU3553
	mvn	fp, #3
	.loc 1 3658 41 view .LVU3554
	ldrh	r7, [ip, #2]	@ unaligned
	ldrh	r9, [ip]	@ unaligned
.LVL720:
	.loc 1 3658 25 is_stmt 1 view .LVU3555
	.loc 1 3660 25 view .LVU3556
	.loc 1 3672 46 is_stmt 0 view .LVU3557
	sub	fp, fp, r7
	.loc 1 3660 46 view .LVU3558
	add	r7, r7, #4
	.loc 1 3660 28 view .LVU3559
	cmp	r7, r5
	bhi	.L664
	.loc 1 3663 28 view .LVU3560
	cmp	r9, #1
	beq	.L818
.LBE2236:
	.loc 1 3673 30 view .LVU3561
	adds	r5, r5, fp
.LVL721:
.LBB2237:
	.loc 1 3671 37 view .LVU3562
	add	ip, ip, r7
.LVL722:
	.loc 1 3672 25 is_stmt 1 view .LVU3563
	.loc 1 3672 25 is_stmt 0 view .LVU3564
.LBE2237:
	.loc 1 3673 30 is_stmt 1 view .LVU3565
	beq	.L680
.L684:
.LVL723:
	.loc 1 3649 21 view .LVU3566
.LBB2238:
	.loc 1 3651 25 view .LVU3567
	.loc 1 3652 25 view .LVU3568
	.loc 1 3654 25 view .LVU3569
	.loc 1 3657 25 view .LVU3570
	.loc 1 3663 25 view .LVU3571
	.loc 1 3671 25 view .LVU3572
	.loc 1 3654 28 is_stmt 0 view .LVU3573
	cmp	r5, #3
	bhi	.L819
.LVL724:
.L664:
	.loc 1 3654 28 view .LVU3574
.LBE2238:
.LBE2235:
.LBE2234:
.LBE2248:
.LBE2260:
.LBB2261:
	.loc 1 3557 13 is_stmt 1 view .LVU3575
.LBB2196:
.LBI2196:
	.loc 1 3320 62 view .LVU3576
.LBB2197:
	.loc 1 3322 5 view .LVU3577
	.loc 1 3323 9 view .LVU3578
	.loc 1 3323 28 is_stmt 0 view .LVU3579
	mov	r3, #9
.LBE2197:
.LBE2196:
	.loc 1 3557 20 view .LVU3580
	mov	r0, #0
.LBB2199:
.LBB2198:
	.loc 1 3323 28 view .LVU3581
	strb	r3, [r4, #22]
	.loc 1 3324 5 is_stmt 1 view .LVU3582
.LVL725:
	.loc 1 3324 5 is_stmt 0 view .LVU3583
.LBE2198:
.LBE2199:
	.loc 1 3557 20 view .LVU3584
	b	.L639
.LVL726:
.L780:
	.loc 1 3557 20 view .LVU3585
.LBE2261:
	.loc 1 3524 13 is_stmt 1 view .LVU3586
	.loc 1 3524 16 is_stmt 0 view .LVU3587
	ldr	r3, .L828+28
	ldr	r2, [r8, #-76]
	cmp	r2, r3
	bne	.L810
	.loc 1 3526 17 is_stmt 1 view .LVU3588
	.loc 1 3526 46 is_stmt 0 view .LVU3589
	ldrd	r2, [sp, #68]
.LVL727:
	.loc 1 3527 17 is_stmt 1 view .LVU3590
	.loc 1 3527 74 is_stmt 0 view .LVU3591
	ldr	r1, [r4]
	ldr	r0, [r4, #4]
	subs	r1, r1, #56
	sbc	r0, r0, #0
	.loc 1 3527 20 view .LVU3592
	cmp	r1, r2
	sbcs	r0, r0, r3
	bcc	.L651
	.loc 1 3530 17 is_stmt 1 view .LVU3593
	.loc 1 3530 21 is_stmt 0 view .LVU3594
	mov	r1, #56
	str	r1, [sp, #4]
	sub	r1, r8, #56
	str	r1, [sp]
	ldr	r1, [r4, #48]
	ldr	r0, [r4, #60]
	blx	r1
.LVL728:
	.loc 1 3530 20 view .LVU3595
	cmp	r0, #56
	bne	.L810
	.loc 1 3532 21 is_stmt 1 view .LVU3596
	.loc 1 3532 24 is_stmt 0 view .LVU3597
	ldr	r3, .L828+32
	ldr	r2, [r8, #-56]
	.loc 1 3534 29 view .LVU3598
	ldr	r7, [r4, #64]
	.loc 1 3532 24 view .LVU3599
	cmp	r2, r3
	.loc 1 3534 25 is_stmt 1 view .LVU3600
	.loc 1 3534 49 is_stmt 0 view .LVU3601
	moveq	r3, #1
	streq	r3, [r7, #52]
	b	.L653
.LVL729:
.L660:
.LBB2262:
	.loc 1 3564 13 is_stmt 1 view .LVU3602
.LBB2200:
.LBI2200:
	.loc 1 3320 62 view .LVU3603
.LBB2201:
	.loc 1 3322 5 view .LVU3604
	.loc 1 3323 9 view .LVU3605
	.loc 1 3323 28 is_stmt 0 view .LVU3606
	mov	r3, #2
.LBE2201:
.LBE2200:
	.loc 1 3564 20 view .LVU3607
	mov	r0, #0
.LBB2203:
.LBB2202:
	.loc 1 3323 28 view .LVU3608
	strb	r3, [r4, #22]
	.loc 1 3324 5 is_stmt 1 view .LVU3609
.LVL730:
	.loc 1 3324 5 is_stmt 0 view .LVU3610
.LBE2202:
.LBE2203:
	.loc 1 3564 20 view .LVU3611
	b	.L639
.LVL731:
.L817:
	.loc 1 3564 20 view .LVU3612
.LBE2262:
.LBB2263:
	mov	r5, r10
	b	.L676
.LVL732:
.L816:
.LBB2249:
	.loc 1 3696 17 is_stmt 1 view .LVU3613
.LBB2241:
.LBI2241:
	.loc 1 3320 62 view .LVU3614
.LBB2242:
	.loc 1 3322 5 view .LVU3615
	.loc 1 3323 9 view .LVU3616
	.loc 1 3323 28 is_stmt 0 view .LVU3617
	mov	r3, #5
.LVL733:
	.loc 1 3323 28 view .LVU3618
.LBE2242:
.LBE2241:
	.loc 1 3696 24 view .LVU3619
	mov	r0, #0
.LBB2244:
.LBB2243:
	.loc 1 3323 28 view .LVU3620
	strb	r3, [r4, #22]
	.loc 1 3324 5 is_stmt 1 view .LVU3621
.LVL734:
	.loc 1 3324 5 is_stmt 0 view .LVU3622
.LBE2243:
.LBE2244:
	.loc 1 3696 24 view .LVU3623
	b	.L639
.LVL735:
.L818:
.LBB2245:
.LBB2240:
.LBB2239:
	.loc 1 3666 29 is_stmt 1 view .LVU3624
	.loc 1 3666 53 is_stmt 0 view .LVU3625
	str	r9, [lr, #52]
.LVL736:
	.loc 1 3667 29 is_stmt 1 view .LVU3626
	.loc 1 3667 78 is_stmt 0 view .LVU3627
	str	r9, [lr, #56]
	.loc 1 3668 29 is_stmt 1 view .LVU3628
	b	.L680
.LVL737:
.L814:
	.loc 1 3668 29 is_stmt 0 view .LVU3629
.LBE2239:
.LBE2240:
.LBE2245:
.LBE2249:
.LBB2250:
.LBB2222:
	.loc 1 3233 9 is_stmt 1 view .LVU3630
	.loc 1 3233 14 is_stmt 0 view .LVU3631
	mov	r3, #0
	mov	r2, fp
	mov	r0, r4
	add	r1, r10, #16
	bl	mz_zip_array_ensure_capacity
.LVL738:
	.loc 1 3233 12 view .LVU3632
	cmp	r0, #0
.LBE2222:
.LBE2250:
	.loc 1 3610 49 view .LVU3633
	ldrne	r7, [r4, #64]
.LBB2251:
.LBB2223:
	.loc 1 3233 12 view .LVU3634
	bne	.L670
.LVL739:
.L674:
	.loc 1 3233 12 view .LVU3635
.LBE2223:
.LBE2251:
	.loc 1 3606 13 is_stmt 1 view .LVU3636
.LBB2252:
.LBI2252:
	.loc 1 3320 62 view .LVU3637
.LBB2253:
	.loc 1 3322 5 view .LVU3638
	.loc 1 3323 9 view .LVU3639
	.loc 1 3323 28 is_stmt 0 view .LVU3640
	mov	r3, #16
.LBE2253:
.LBE2252:
	.loc 1 3606 20 view .LVU3641
	mov	r0, #0
.LBB2255:
.LBB2254:
	.loc 1 3323 28 view .LVU3642
	strb	r3, [r4, #22]
	.loc 1 3324 5 is_stmt 1 view .LVU3643
.LVL740:
	.loc 1 3324 5 is_stmt 0 view .LVU3644
.LBE2254:
.LBE2255:
	.loc 1 3606 20 view .LVU3645
	b	.L639
.LVL741:
.L813:
.LBB2256:
.LBB2217:
	.loc 1 3233 9 is_stmt 1 view .LVU3646
	.loc 1 3233 14 is_stmt 0 view .LVU3647
	mov	r3, #0
	mov	r2, r6
	mov	r1, r7
	mov	r0, r4
	bl	mz_zip_array_ensure_capacity
.LVL742:
	.loc 1 3233 12 view .LVU3648
	cmp	r0, #0
	beq	.L674
.LBE2217:
.LBE2256:
	.loc 1 3605 46 view .LVU3649
	ldr	r10, [r4, #64]
	.loc 1 3605 15 view .LVU3650
	ldr	fp, [r4, #16]
	b	.L668
.LVL743:
.L812:
	.loc 1 3605 15 view .LVU3651
.LBE2263:
	.loc 1 3707 9 is_stmt 1 view .LVU3652
	ldr	r3, [r4, #16]
.LBB2264:
.LBB2265:
	.loc 1 3399 8 is_stmt 0 view .LVU3653
	cmp	r3, #1
	str	r3, [sp, #12]
.LBE2265:
.LBI2264:
	.loc 1 3390 13 is_stmt 1 view .LVU3654
.LVL744:
.LBB2367:
	.loc 1 3392 5 view .LVU3655
	.loc 1 3393 5 view .LVU3656
	.loc 1 3394 5 view .LVU3657
	.loc 1 3395 5 view .LVU3658
	.loc 1 3396 5 view .LVU3659
	.loc 1 3397 5 view .LVU3660
	.loc 1 3399 5 view .LVU3661
	.loc 1 3399 8 is_stmt 0 view .LVU3662
	bls	.L667
	ldr	r2, [r4, #64]
	mov	r1, #2
	mov	lr, r5
	.loc 1 3402 14 view .LVU3663
	ldr	fp, [r2, #32]
	str	r2, [sp, #28]
	.loc 1 3402 5 is_stmt 1 view .LVU3664
.LVL745:
	.loc 1 3404 5 view .LVU3665
	.loc 1 3404 5 is_stmt 0 view .LVU3666
	mov	r2, #1
	mov	ip, r5
	.loc 1 3404 19 view .LVU3667
	sub	r3, r3, #2
.LVL746:
	.loc 1 3404 11 view .LVU3668
	lsr	r3, r3, #1
.LVL747:
	.loc 1 3404 11 view .LVU3669
	umlal	r2, lr, r3, r1
.LVL748:
.L691:
	.loc 1 3405 5 is_stmt 1 view .LVU3670
.LBB2266:
	.loc 1 3407 9 view .LVU3671
	.loc 1 3408 9 view .LVU3672
	.loc 1 3410 13 view .LVU3673
	.loc 1 3410 16 is_stmt 0 view .LVU3674
	ldr	r1, [sp, #12]
	adds	r5, r3, r3
	adc	r6, ip, ip
	cmp	r2, r1
	sbcs	r1, lr, #0
.LVL749:
	.loc 1 3410 16 view .LVU3675
	bcs	.L705
.LBB2267:
.LBB2268:
	.loc 1 3363 113 view .LVU3676
	mov	r0, r2
	mov	r4, lr
.LBE2268:
.LBE2267:
.LBE2266:
.LBB2302:
.LBB2303:
.LBB2304:
	.loc 1 3363 106 view .LVU3677
	ldr	r1, [sp, #28]
.LBE2304:
.LBE2303:
.LBE2302:
.LBB2348:
	.loc 1 3413 18 view .LVU3678
	ldr	r8, [fp, r3, lsl #2]
.LBE2348:
.LBB2349:
.LBB2315:
.LBB2305:
	.loc 1 3363 106 view .LVU3679
	ldr	r7, [r1, #16]
	.loc 1 3363 61 view .LVU3680
	ldr	r1, [r1]
.LBE2305:
.LBE2315:
.LBE2349:
.LBB2350:
	.loc 1 3407 26 view .LVU3681
	str	r3, [sp, #32]
.LBE2350:
.LBB2351:
.LBB2316:
.LBB2306:
	.loc 1 3363 61 view .LVU3682
	str	r1, [sp, #16]
.LBE2306:
.LBE2316:
.LBE2351:
.LBB2352:
.LBB2279:
.LBB2269:
	.loc 1 3363 113 view .LVU3683
	add	r1, r7, r8, lsl #2
.LBE2269:
.LBE2279:
.LBE2352:
.LBB2353:
.LBB2317:
.LBB2307:
	.loc 1 3363 106 view .LVU3684
	str	r7, [sp, #20]
.LBE2307:
.LBE2317:
.LBE2353:
.LBB2354:
	.loc 1 3413 18 view .LVU3685
	str	r8, [sp, #48]
.LBB2280:
.LBB2270:
	.loc 1 3363 113 view .LVU3686
	str	r1, [sp, #44]
.LVL750:
.L706:
	.loc 1 3363 113 view .LVU3687
.LBE2270:
.LBE2280:
	.loc 1 3412 13 is_stmt 1 view .LVU3688
	.loc 1 3412 45 is_stmt 0 view .LVU3689
	ldr	r1, [sp, #12]
	.loc 1 3412 31 view .LVU3690
	adds	r5, r5, #2
	adc	r6, r6, #0
	.loc 1 3412 45 view .LVU3691
	cmp	r5, r1
.LBB2281:
.LBB2282:
	.loc 1 3363 113 view .LVU3692
	ldr	r1, [fp, r0, lsl #2]
	.loc 1 3363 21 view .LVU3693
	ldr	r5, [sp, #20]
.LBE2282:
.LBE2281:
	.loc 1 3412 45 view .LVU3694
	sbcs	r6, r6, #0
.LBB2288:
.LBB2283:
	.loc 1 3363 21 view .LVU3695
	ldr	r7, [r5, r1, lsl #2]
	ldr	r1, [sp, #16]
	add	r7, r1, r7
	ldrh	r1, [r7, #28]	@ unaligned
	str	r1, [sp, #24]
.LBE2283:
.LBE2288:
	.loc 1 3412 121 view .LVU3696
	lsl	r1, r0, #2
	movcs	r1, r0
	.loc 1 3412 45 view .LVU3697
	bcc	.L820
.L692:
	.loc 1 3413 13 is_stmt 1 view .LVU3698
	.loc 1 3413 90 is_stmt 0 view .LVU3699
	ldr	r0, [sp, #32]
.LBB2289:
.LBB2271:
	.loc 1 3363 21 view .LVU3700
	ldr	r5, [sp, #44]
.LBE2271:
.LBE2289:
	.loc 1 3413 90 view .LVU3701
	lsl	r0, r0, #2
.LBB2290:
.LBB2272:
	.loc 1 3364 21 view .LVU3702
	ldr	r6, [sp, #20]
.LBE2272:
.LBE2290:
	.loc 1 3413 90 view .LVU3703
	str	r0, [sp, #40]
	.loc 1 3413 18 view .LVU3704
	ldr	r0, [fp, r1, lsl #2]
.LBB2291:
.LBB2273:
	.loc 1 3363 21 view .LVU3705
	ldr	r7, [r5]
	.loc 1 3364 21 view .LVU3706
	ldr	r8, [r6, r0, lsl #2]
	.loc 1 3363 21 view .LVU3707
	ldr	r5, [sp, #16]
.LBE2273:
.LBE2291:
	.loc 1 3413 18 view .LVU3708
	str	r0, [sp, #24]
.LVL751:
.LBB2292:
.LBI2267:
	.loc 1 3361 62 is_stmt 1 view .LVU3709
.LBB2274:
	.loc 1 3363 5 view .LVU3710
	.loc 1 3363 21 is_stmt 0 view .LVU3711
	add	r7, r5, r7
.LVL752:
	.loc 1 3364 5 is_stmt 1 view .LVU3712
	.loc 1 3364 21 is_stmt 0 view .LVU3713
	add	r8, r5, r8
.LVL753:
	.loc 1 3365 5 is_stmt 1 view .LVU3714
	.loc 1 3365 13 is_stmt 0 view .LVU3715
	ldrh	r0, [r7, #28]	@ unaligned
.LVL754:
	.loc 1 3365 176 view .LVU3716
	ldrh	r5, [r8, #28]	@ unaligned
	.loc 1 3367 8 view .LVU3717
	add	r7, r7, #46
.LVL755:
	.loc 1 3369 8 view .LVU3718
	cmp	r0, r5
	addls	r10, r7, r0
	addhi	r10, r7, r5
.LBE2274:
.LBE2292:
	.loc 1 3413 106 view .LVU3719
	lsl	r6, r1, #2
.LBB2293:
.LBB2275:
	.loc 1 3370 15 view .LVU3720
	cmp	r7, r10
	.loc 1 3365 13 view .LVU3721
	str	r0, [sp, #32]
.LVL756:
	.loc 1 3365 176 view .LVU3722
	str	r5, [sp, #36]
.LVL757:
	.loc 1 3366 5 is_stmt 1 view .LVU3723
	.loc 1 3367 5 view .LVU3724
	.loc 1 3368 5 view .LVU3725
	.loc 1 3369 5 view .LVU3726
	.loc 1 3370 5 view .LVU3727
	.loc 1 3370 15 view .LVU3728
.LBE2275:
.LBE2293:
	.loc 1 3413 106 is_stmt 0 view .LVU3729
	str	r6, [sp, #52]
.LBB2294:
.LBB2276:
	.loc 1 3370 15 view .LVU3730
	bcs	.L737
	mov	r6, r7
	add	r8, r8, #45
.LVL758:
	.loc 1 3370 15 view .LVU3731
	b	.L702
.LVL759:
.L821:
	.loc 1 3370 15 view .LVU3732
	cmp	r6, r10
	.loc 1 3374 11 view .LVU3733
	mov	r7, r6
.LVL760:
	.loc 1 3375 9 is_stmt 1 view .LVU3734
	.loc 1 3370 15 view .LVU3735
	beq	.L699
.LVL761:
.L702:
	.loc 1 3374 9 view .LVU3736
	mov	r7, r6
.LVL762:
	.loc 1 3372 9 view .LVU3737
	.loc 1 3372 22 is_stmt 0 view .LVU3738
	ldrb	r0, [r6], #1	@ zero_extendqisi2
	.loc 1 3372 16 view .LVU3739
	sub	r5, r0, #65
	cmp	r5, #25
	.loc 1 3372 98 view .LVU3740
	ldrb	r5, [r8, #1]!	@ zero_extendqisi2
	.loc 1 3372 16 view .LVU3741
	add	r9, r0, #32
	uxtbls	r0, r9
.LVL763:
	.loc 1 3372 92 view .LVU3742
	sub	r9, r5, #65
	cmp	r9, #25
	addls	r5, r5, #32
	uxtbls	r5, r5
.LVL764:
	.loc 1 3372 12 view .LVU3743
	cmp	r0, r5
	beq	.L821
.LVL765:
.L699:
	.loc 1 3377 5 is_stmt 1 view .LVU3744
	.loc 1 3377 41 is_stmt 0 view .LVU3745
	cmp	r10, r7
	.loc 1 3377 32 view .LVU3746
	ldreq	r0, [sp, #32]
.LVL766:
	.loc 1 3377 32 view .LVU3747
	ldreq	r5, [sp, #36]
.LVL767:
	.loc 1 3377 46 view .LVU3748
	cmp	r0, r5
	movcs	r0, #0
	movcc	r0, #1
.LVL768:
	.loc 1 3377 46 view .LVU3749
.LBE2276:
.LBE2294:
	.loc 1 3413 16 view .LVU3750
	cmp	r0, #0
	beq	.L705
	.loc 1 3415 13 is_stmt 1 view .LVU3751
.LBB2295:
	.loc 1 3415 18 view .LVU3752
.LVL769:
	.loc 1 3415 48 view .LVU3753
	.loc 1 3415 63 is_stmt 0 view .LVU3754
	ldr	r0, [sp, #40]
	ldr	r5, [sp, #24]
.LBE2295:
	.loc 1 3410 16 view .LVU3755
	ldr	r7, [sp, #12]
.LBB2296:
	.loc 1 3415 63 view .LVU3756
	str	r5, [fp, r0]
	.loc 1 3415 82 is_stmt 1 view .LVU3757
	.loc 1 3415 98 is_stmt 0 view .LVU3758
	ldr	r0, [sp, #52]
	ldr	r5, [sp, #48]
	str	r5, [fp, r0]
.LBE2296:
	.loc 1 3415 16 is_stmt 1 view .LVU3759
	.loc 1 3416 13 view .LVU3760
	.loc 1 3408 9 view .LVU3761
	.loc 1 3408 9 view .LVU3762
	.loc 1 3410 13 view .LVU3763
	.loc 1 3410 32 is_stmt 0 view .LVU3764
	adds	r5, r1, r1
	adc	r4, r4, r4
	.loc 1 3410 24 view .LVU3765
	adds	r0, r5, #1
	.loc 1 3410 32 view .LVU3766
	mov	r6, r4
	.loc 1 3410 24 view .LVU3767
	adc	r4, r4, #0
	.loc 1 3410 16 view .LVU3768
	cmp	r0, r7
	sbcs	r7, r4, #0
	.loc 1 3416 18 view .LVU3769
	strcc	r1, [sp, #32]
	bcc	.L706
.L705:
	.loc 1 3418 9 is_stmt 1 view .LVU3770
	.loc 1 3418 12 is_stmt 0 view .LVU3771
	subs	r2, r2, #2
	sbc	lr, lr, #0
	subs	r3, r3, #1
.LVL770:
	.loc 1 3418 12 view .LVU3772
	sbc	ip, ip, #0
	cmn	ip, #1
	cmneq	r3, #1
	bne	.L691
.LBE2354:
	.loc 1 3423 5 is_stmt 1 view .LVU3773
	.loc 1 3423 9 is_stmt 0 view .LVU3774
	ldr	r2, [sp, #12]
.LBB2355:
.LBB2318:
	.loc 1 3427 67 view .LVU3775
	ldr	r3, [fp]
.LVL771:
	.loc 1 3427 67 view .LVU3776
.LBE2318:
.LBE2355:
	.loc 1 3423 9 view .LVU3777
	sub	r1, r2, #1
	add	r2, fp, r2, lsl #2
	str	r1, [sp, #12]
.LVL772:
	.loc 1 3424 5 is_stmt 1 view .LVU3778
	.loc 1 3424 16 view .LVU3779
	str	r2, [sp, #24]
.LVL773:
.L723:
.LBB2356:
	.loc 1 3426 9 view .LVU3780
	.loc 1 3427 9 view .LVU3781
.LBB2319:
	.loc 1 3427 14 view .LVU3782
	.loc 1 3427 24 is_stmt 0 view .LVU3783
	ldr	r2, [sp, #24]
.LBE2319:
	.loc 1 3430 16 view .LVU3784
	ldr	r1, [sp, #12]
.LBB2320:
	.loc 1 3427 24 view .LVU3785
	ldr	r0, [r2, #-4]!
.LBE2320:
	.loc 1 3430 16 view .LVU3786
	cmp	r1, #1
.LBB2321:
	.loc 1 3427 57 view .LVU3787
	str	r3, [r2]
	.loc 1 3427 24 view .LVU3788
	str	r2, [sp, #24]
.LVL774:
	.loc 1 3427 43 is_stmt 1 view .LVU3789
	.loc 1 3427 72 view .LVU3790
	.loc 1 3427 84 is_stmt 0 view .LVU3791
	str	r0, [fp]
	.loc 1 3427 84 view .LVU3792
.LBE2321:
	.loc 1 3427 12 is_stmt 1 view .LVU3793
	.loc 1 3428 9 view .LVU3794
	.loc 1 3430 13 view .LVU3795
.LVL775:
	.loc 1 3438 12 is_stmt 0 view .LVU3796
	sub	ip, r1, #1
	.loc 1 3430 16 view .LVU3797
	beq	.L707
	.loc 1 3430 24 view .LVU3798
	mov	r2, #0
.LBB2322:
.LBB2308:
	.loc 1 3363 106 view .LVU3799
	ldr	r3, [sp, #28]
.LBE2308:
.LBE2322:
	.loc 1 3430 24 view .LVU3800
	mov	r1, #1
.LBB2323:
.LBB2309:
	.loc 1 3363 106 view .LVU3801
	ldr	lr, [r3, #16]
	.loc 1 3363 61 view .LVU3802
	ldr	r3, [r3]
	.loc 1 3363 106 view .LVU3803
	str	lr, [sp, #20]
	.loc 1 3363 61 view .LVU3804
	str	r3, [sp, #16]
.LBE2309:
.LBE2323:
	.loc 1 3430 32 view .LVU3805
	mov	r4, r2
.LBB2324:
.LBB2325:
	.loc 1 3363 113 view .LVU3806
	add	r3, lr, r0, lsl #2
.LBE2325:
.LBE2324:
	.loc 1 3430 32 view .LVU3807
	mov	lr, r2
.LBB2333:
.LBB2326:
	.loc 1 3363 113 view .LVU3808
	str	r3, [sp, #36]
.LBE2326:
.LBE2333:
	.loc 1 3426 26 view .LVU3809
	str	r2, [sp, #32]
.LVL776:
.L722:
	.loc 1 3432 13 is_stmt 1 view .LVU3810
	.loc 1 3432 44 is_stmt 0 view .LVU3811
	ldr	r3, [sp, #12]
	.loc 1 3432 31 view .LVU3812
	adds	lr, lr, #2
	adc	r4, r4, #0
	.loc 1 3432 44 view .LVU3813
	cmp	lr, r3
.LBB2334:
.LBB2310:
	.loc 1 3363 113 view .LVU3814
	ldr	r3, [fp, r1, lsl #2]
	.loc 1 3363 21 view .LVU3815
	ldr	lr, [sp, #20]
.LBE2310:
.LBE2334:
	.loc 1 3432 44 view .LVU3816
	sbcs	r4, r4, #0
.LBB2335:
.LBB2311:
	.loc 1 3363 21 view .LVU3817
	ldr	r5, [lr, r3, lsl #2]
	ldr	r3, [sp, #16]
	add	r5, r3, r5
	ldrh	r9, [r5, #28]	@ unaligned
.LBE2311:
.LBE2335:
	.loc 1 3432 119 view .LVU3818
	lsl	r3, r1, #2
	movcs	r3, r1
	.loc 1 3432 44 view .LVU3819
	bcc	.L822
.L708:
	.loc 1 3433 13 is_stmt 1 view .LVU3820
	.loc 1 3433 90 is_stmt 0 view .LVU3821
	ldr	r1, [sp, #32]
.LBB2336:
.LBB2327:
	.loc 1 3364 21 view .LVU3822
	ldr	lr, [sp, #20]
.LBE2327:
.LBE2336:
	.loc 1 3433 90 view .LVU3823
	lsl	r1, r1, #2
	.loc 1 3433 18 view .LVU3824
	ldr	r10, [fp, r3, lsl #2]
	.loc 1 3433 90 view .LVU3825
	str	r1, [sp, #44]
.LVL777:
.LBB2337:
.LBI2324:
	.loc 1 3361 62 is_stmt 1 view .LVU3826
.LBB2328:
	.loc 1 3363 5 view .LVU3827
	.loc 1 3363 21 is_stmt 0 view .LVU3828
	ldr	r1, [sp, #36]
	.loc 1 3364 21 view .LVU3829
	ldr	r6, [lr, r10, lsl #2]
	.loc 1 3363 21 view .LVU3830
	ldr	r5, [r1]
	ldr	r1, [sp, #16]
.LBE2328:
.LBE2337:
	.loc 1 3433 106 view .LVU3831
	lsl	r4, r3, #2
.LBB2338:
.LBB2329:
	.loc 1 3363 21 view .LVU3832
	add	r5, r1, r5
.LVL778:
	.loc 1 3364 5 is_stmt 1 view .LVU3833
	.loc 1 3364 21 is_stmt 0 view .LVU3834
	add	r6, r1, r6
.LVL779:
	.loc 1 3365 5 is_stmt 1 view .LVU3835
	.loc 1 3365 176 is_stmt 0 view .LVU3836
	ldrh	lr, [r6, #28]	@ unaligned
	.loc 1 3365 13 view .LVU3837
	ldrh	r1, [r5, #28]	@ unaligned
	.loc 1 3367 8 view .LVU3838
	add	r5, r5, #46
.LVL780:
	.loc 1 3369 8 view .LVU3839
	cmp	r1, lr
	addls	r9, r5, r1
	addhi	r9, r5, lr
	.loc 1 3370 15 view .LVU3840
	cmp	r5, r9
	.loc 1 3365 13 view .LVU3841
	str	r1, [sp, #32]
.LVL781:
	.loc 1 3365 176 view .LVU3842
	str	lr, [sp, #40]
.LVL782:
	.loc 1 3366 5 is_stmt 1 view .LVU3843
	.loc 1 3367 5 view .LVU3844
	.loc 1 3368 5 view .LVU3845
	.loc 1 3369 5 view .LVU3846
	.loc 1 3370 5 view .LVU3847
	.loc 1 3370 15 view .LVU3848
.LBE2329:
.LBE2338:
	.loc 1 3433 106 is_stmt 0 view .LVU3849
	str	r4, [sp, #48]
.LBB2339:
.LBB2330:
	.loc 1 3370 15 view .LVU3850
	bcs	.L740
	mov	lr, r5
	add	r6, r6, #45
.LVL783:
	.loc 1 3370 15 view .LVU3851
	b	.L718
.LVL784:
.L823:
	.loc 1 3375 9 is_stmt 1 view .LVU3852
	.loc 1 3370 15 view .LVU3853
	cmp	r9, lr
	beq	.L784
.LVL785:
.L718:
	.loc 1 3374 9 view .LVU3854
	mov	r5, lr
.LVL786:
	.loc 1 3372 9 view .LVU3855
	.loc 1 3372 22 is_stmt 0 view .LVU3856
	ldrb	r1, [lr], #1	@ zero_extendqisi2
	.loc 1 3372 16 view .LVU3857
	sub	r4, r1, #65
	cmp	r4, #25
	.loc 1 3372 98 view .LVU3858
	ldrb	r4, [r6, #1]!	@ zero_extendqisi2
	.loc 1 3372 16 view .LVU3859
	addls	r1, r1, #32
	.loc 1 3372 92 view .LVU3860
	sub	r7, r4, #65
	.loc 1 3372 16 view .LVU3861
	uxtbls	r1, r1
.LVL787:
	.loc 1 3372 92 view .LVU3862
	add	r8, r4, #32
	cmp	r7, #25
	uxtbls	r4, r8
.LVL788:
	.loc 1 3372 12 view .LVU3863
	cmp	r1, r4
	beq	.L823
.LVL789:
.L715:
	.loc 1 3377 5 is_stmt 1 view .LVU3864
	.loc 1 3377 41 is_stmt 0 view .LVU3865
	cmp	r9, r5
	beq	.L784
	.loc 1 3377 46 view .LVU3866
	cmp	r1, r4
	movcs	r1, #0
.LVL790:
	.loc 1 3377 46 view .LVU3867
	movcc	r1, #1
.LVL791:
.L720:
	.loc 1 3377 46 view .LVU3868
.LBE2330:
.LBE2339:
	.loc 1 3433 16 view .LVU3869
	cmp	r1, #0
	beq	.L721
	.loc 1 3435 13 is_stmt 1 view .LVU3870
.LBB2340:
	.loc 1 3435 18 view .LVU3871
.LVL792:
	.loc 1 3435 48 view .LVU3872
	.loc 1 3435 63 is_stmt 0 view .LVU3873
	ldr	r1, [sp, #44]
.LBE2340:
	.loc 1 3430 16 view .LVU3874
	ldr	r5, [sp, #12]
.LBB2341:
	.loc 1 3435 63 view .LVU3875
	str	r10, [fp, r1]
	.loc 1 3435 82 is_stmt 1 view .LVU3876
	.loc 1 3435 98 is_stmt 0 view .LVU3877
	ldr	r1, [sp, #48]
.LBE2341:
	.loc 1 3430 32 view .LVU3878
	adds	lr, r3, r3
	adc	r4, r2, r2
.LBB2342:
	.loc 1 3435 98 view .LVU3879
	str	r0, [fp, r1]
.LBE2342:
	.loc 1 3435 16 is_stmt 1 view .LVU3880
	.loc 1 3436 13 view .LVU3881
	.loc 1 3428 9 view .LVU3882
	.loc 1 3427 12 view .LVU3883
	.loc 1 3428 9 view .LVU3884
	.loc 1 3430 13 view .LVU3885
	.loc 1 3430 24 is_stmt 0 view .LVU3886
	adds	r1, lr, #1
	adc	r2, r4, #0
	.loc 1 3430 16 view .LVU3887
	cmp	r1, r5
	sbcs	r5, r2, #0
	bcs	.L721
	.loc 1 3436 18 view .LVU3888
	str	r3, [sp, #32]
	b	.L722
.LVL793:
.L707:
	.loc 1 3438 9 is_stmt 1 view .LVU3889
	.loc 1 3438 9 is_stmt 0 view .LVU3890
.LBE2356:
	.loc 1 3424 16 is_stmt 1 view .LVU3891
	cmp	ip, #0
	beq	.L667
.LVL794:
.L727:
.LBB2357:
.LBB2297:
.LBB2277:
	.loc 1 3366 14 is_stmt 0 view .LVU3892
	mov	r3, r0
.LBE2277:
.LBE2297:
.LBE2357:
.LBB2358:
	.loc 1 3438 12 view .LVU3893
	str	ip, [sp, #12]
	b	.L723
.LVL795:
.L721:
	.loc 1 3438 9 is_stmt 1 view .LVU3894
	.loc 1 3438 9 is_stmt 0 view .LVU3895
.LBE2358:
	.loc 1 3424 16 is_stmt 1 view .LVU3896
.LBB2359:
.LBB2343:
	.loc 1 3427 67 is_stmt 0 view .LVU3897
	ldr	r0, [fp]
.LVL796:
	.loc 1 3427 67 view .LVU3898
	b	.L727
.LVL797:
.L822:
	.loc 1 3427 67 view .LVU3899
.LBE2343:
	.loc 1 3432 47 view .LVU3900
	add	r3, fp, r3
.LBB2344:
.LBB2312:
	.loc 1 3364 113 view .LVU3901
	ldr	r3, [r3, #4]
	.loc 1 3367 8 view .LVU3902
	add	r5, r5, #46
.LVL798:
	.loc 1 3367 8 view .LVU3903
.LBE2312:
.LBI2303:
	.loc 1 3361 62 is_stmt 1 view .LVU3904
.LBB2313:
	.loc 1 3363 5 view .LVU3905
	.loc 1 3364 5 view .LVU3906
	.loc 1 3364 21 is_stmt 0 view .LVU3907
	ldr	r6, [lr, r3, lsl #2]
	ldr	r3, [sp, #16]
	add	r6, r3, r6
.LVL799:
	.loc 1 3365 5 is_stmt 1 view .LVU3908
	.loc 1 3365 176 is_stmt 0 view .LVU3909
	ldrh	r10, [r6, #28]	@ unaligned
.LVL800:
	.loc 1 3366 5 is_stmt 1 view .LVU3910
	.loc 1 3367 5 view .LVU3911
	.loc 1 3368 5 view .LVU3912
	.loc 1 3369 5 view .LVU3913
	.loc 1 3369 8 is_stmt 0 view .LVU3914
	cmp	r10, r9
	addls	r8, r5, r10
	addhi	r8, r5, r9
.LVL801:
	.loc 1 3370 5 is_stmt 1 view .LVU3915
	.loc 1 3370 15 view .LVU3916
	cmp	r8, r5
	bls	.L739
	mov	r4, r5
	add	r6, r6, #45
.LVL802:
	.loc 1 3370 15 is_stmt 0 view .LVU3917
	b	.L712
.LVL803:
.L824:
	.loc 1 3370 15 view .LVU3918
	cmp	r4, r8
	.loc 1 3374 11 view .LVU3919
	mov	r5, r4
.LVL804:
	.loc 1 3375 9 is_stmt 1 view .LVU3920
	.loc 1 3370 15 view .LVU3921
	beq	.L709
.LVL805:
.L712:
	.loc 1 3374 9 view .LVU3922
	mov	r5, r4
.LVL806:
	.loc 1 3372 9 view .LVU3923
	.loc 1 3372 22 is_stmt 0 view .LVU3924
	ldrb	r3, [r4], #1	@ zero_extendqisi2
.LVL807:
	.loc 1 3372 16 view .LVU3925
	sub	lr, r3, #65
	cmp	lr, #25
	.loc 1 3372 98 view .LVU3926
	ldrb	lr, [r6, #1]!	@ zero_extendqisi2
	.loc 1 3372 16 view .LVU3927
	add	r7, r3, #32
	uxtbls	r3, r7
.LVL808:
	.loc 1 3372 92 view .LVU3928
	sub	r7, lr, #65
	cmp	r7, #25
	addls	lr, lr, #32
	uxtbls	lr, lr
.LVL809:
	.loc 1 3372 12 view .LVU3929
	cmp	r3, lr
	beq	.L824
.LVL810:
.L709:
	.loc 1 3377 5 is_stmt 1 view .LVU3930
	.loc 1 3377 41 is_stmt 0 view .LVU3931
	cmp	r8, r5
	beq	.L825
	.loc 1 3377 46 view .LVU3932
	cmp	r3, lr
	movcs	r3, #0
.LVL811:
	.loc 1 3377 46 view .LVU3933
	movcc	r3, #1
.L714:
.LVL812:
	.loc 1 3377 46 view .LVU3934
.LBE2313:
.LBE2344:
	.loc 1 3432 19 view .LVU3935
	adds	r3, r3, r1
	adc	r2, r2, #0
	b	.L708
.LVL813:
.L820:
	.loc 1 3432 19 view .LVU3936
.LBE2359:
.LBB2360:
	.loc 1 3412 49 view .LVU3937
	add	r1, fp, r1
.LBB2298:
.LBB2284:
	.loc 1 3364 113 view .LVU3938
	ldr	r1, [r1, #4]
	.loc 1 3367 8 view .LVU3939
	add	r7, r7, #46
.LVL814:
	.loc 1 3367 8 view .LVU3940
.LBE2284:
.LBI2281:
	.loc 1 3361 62 is_stmt 1 view .LVU3941
.LBB2285:
	.loc 1 3363 5 view .LVU3942
	.loc 1 3364 5 view .LVU3943
	.loc 1 3364 21 is_stmt 0 view .LVU3944
	ldr	r8, [r5, r1, lsl #2]
	ldr	r1, [sp, #16]
	.loc 1 3369 8 view .LVU3945
	ldr	r5, [sp, #24]
	.loc 1 3364 21 view .LVU3946
	add	r8, r1, r8
.LVL815:
	.loc 1 3365 5 is_stmt 1 view .LVU3947
	.loc 1 3365 176 is_stmt 0 view .LVU3948
	ldrh	r1, [r8, #28]	@ unaligned
	.loc 1 3369 8 view .LVU3949
	cmp	r1, r5
	addls	r10, r7, r1
	addhi	r10, r7, r5
.LVL816:
	.loc 1 3370 15 view .LVU3950
	cmp	r10, r7
	.loc 1 3365 176 view .LVU3951
	str	r1, [sp, #40]
.LVL817:
	.loc 1 3366 5 is_stmt 1 view .LVU3952
	.loc 1 3367 5 view .LVU3953
	.loc 1 3368 5 view .LVU3954
	.loc 1 3369 5 view .LVU3955
	.loc 1 3370 5 view .LVU3956
	.loc 1 3370 15 view .LVU3957
	bls	.L736
	mov	r6, r7
	add	r8, r8, #45
.LVL818:
	.loc 1 3370 15 is_stmt 0 view .LVU3958
	str	fp, [sp, #36]
	b	.L696
.LVL819:
.L827:
	.loc 1 3375 9 is_stmt 1 view .LVU3959
	.loc 1 3370 15 view .LVU3960
	cmp	r10, r6
	beq	.L826
.LVL820:
.L696:
	.loc 1 3374 9 view .LVU3961
	mov	r7, r6
.LVL821:
	.loc 1 3372 9 view .LVU3962
	.loc 1 3372 22 is_stmt 0 view .LVU3963
	ldrb	r1, [r6], #1	@ zero_extendqisi2
.LVL822:
	.loc 1 3372 16 view .LVU3964
	sub	r5, r1, #65
	cmp	r5, #25
	.loc 1 3372 98 view .LVU3965
	ldrb	r5, [r8, #1]!	@ zero_extendqisi2
	.loc 1 3372 16 view .LVU3966
	addls	r1, r1, #32
	.loc 1 3372 92 view .LVU3967
	sub	r9, r5, #65
	.loc 1 3372 16 view .LVU3968
	uxtbls	r1, r1
.LVL823:
	.loc 1 3372 92 view .LVU3969
	add	fp, r5, #32
	cmp	r9, #25
	uxtbls	r5, fp
.LVL824:
	.loc 1 3372 12 view .LVU3970
	cmp	r1, r5
	beq	.L827
	ldr	fp, [sp, #36]
.LVL825:
.L693:
	.loc 1 3377 5 is_stmt 1 view .LVU3971
	.loc 1 3377 41 is_stmt 0 view .LVU3972
	cmp	r10, r7
	beq	.L783
	.loc 1 3377 46 view .LVU3973
	cmp	r1, r5
	movcs	r1, #0
.LVL826:
	.loc 1 3377 46 view .LVU3974
	movcc	r1, #1
.LVL827:
.L698:
	.loc 1 3377 46 view .LVU3975
.LBE2285:
.LBE2298:
	.loc 1 3412 19 view .LVU3976
	adds	r1, r1, r0
	adc	r4, r4, #0
	b	.L692
.LVL828:
.L784:
	.loc 1 3412 19 view .LVU3977
.LBE2360:
.LBB2361:
.LBB2345:
.LBB2331:
	.loc 1 3377 32 view .LVU3978
	ldr	r1, [sp, #32]
	ldr	lr, [sp, #40]
	cmp	r1, lr
	movcs	r1, #0
	movcc	r1, #1
	b	.L720
.LVL829:
.L826:
	.loc 1 3377 32 view .LVU3979
	ldr	fp, [sp, #36]
.LVL830:
.L783:
	.loc 1 3377 32 view .LVU3980
.LBE2331:
.LBE2345:
.LBE2361:
.LBB2362:
.LBB2299:
.LBB2286:
	ldr	r1, [sp, #40]
	ldr	r5, [sp, #24]
	cmp	r1, r5
	movls	r1, #0
	movhi	r1, #1
	b	.L698
.LVL831:
.L740:
	.loc 1 3377 32 view .LVU3981
.LBE2286:
.LBE2299:
.LBE2362:
.LBB2363:
.LBB2346:
.LBB2332:
	.loc 1 3366 21 view .LVU3982
	mov	r4, #0
	.loc 1 3366 14 view .LVU3983
	mov	r1, r4
	b	.L715
.LVL832:
.L737:
	.loc 1 3366 14 view .LVU3984
.LBE2332:
.LBE2346:
.LBE2363:
.LBB2364:
.LBB2300:
.LBB2278:
	.loc 1 3366 21 view .LVU3985
	mov	r5, #0
	.loc 1 3366 14 view .LVU3986
	mov	r0, r5
	b	.L699
.LVL833:
.L825:
	.loc 1 3366 14 view .LVU3987
.LBE2278:
.LBE2300:
.LBE2364:
.LBB2365:
.LBB2347:
.LBB2314:
	.loc 1 3377 32 view .LVU3988
	cmp	r10, r9
	movls	r3, #0
.LVL834:
	.loc 1 3377 32 view .LVU3989
	movhi	r3, #1
	b	.L714
.LVL835:
.L739:
	.loc 1 3366 21 view .LVU3990
	mov	lr, #0
	.loc 1 3366 14 view .LVU3991
	mov	r3, lr
	b	.L709
.LVL836:
.L736:
	.loc 1 3366 14 view .LVU3992
.LBE2314:
.LBE2347:
.LBE2365:
.LBB2366:
.LBB2301:
.LBB2287:
	.loc 1 3366 21 view .LVU3993
	mov	r5, #0
	.loc 1 3366 14 view .LVU3994
	mov	r1, r5
	b	.L693
.LVL837:
.L815:
	.loc 1 3366 14 view .LVU3995
.LBE2287:
.LBE2301:
.LBE2366:
.LBE2367:
.LBE2264:
.LBB2368:
.LBB2257:
.LBB2230:
	.loc 1 3233 9 is_stmt 1 view .LVU3996
	.loc 1 3233 14 is_stmt 0 view .LVU3997
	mov	r3, r5
	mov	r2, r10
	mov	r0, r4
	add	r1, r7, #32
	bl	mz_zip_array_ensure_capacity
.LVL838:
	.loc 1 3233 12 view .LVU3998
	cmp	r0, #0
.LBE2230:
.LBE2257:
	.loc 1 3614 61 view .LVU3999
	ldrne	r3, [r4, #64]
.LBB2258:
.LBB2231:
	.loc 1 3233 12 view .LVU4000
	bne	.L673
	b	.L674
.L829:
	.align	2
.L828:
	.word	4092
	.word	101010256
	.word	65556
	.word	4093
	.word	-4093
	.word	65535
	.word	33639248
	.word	117853008
	.word	101075792
.LBE2231:
.LBE2258:
.LBE2368:
	.cfi_endproc
.LFE75:
	.size	mz_zip_reader_read_central_dir, .-mz_zip_reader_read_central_dir
	.section	.text.mz_adler32,"ax",%progbits
	.align	2
	.global	mz_adler32
	.syntax unified
	.arm
	.fpu vfp
	.type	mz_adler32, %function
mz_adler32:
.LVL839:
.LFB3:
	.loc 1 40 1 is_stmt 1 view -0
	.cfi_startproc
	@ args = 0, pretend = 0, frame = 0
	@ frame_needed = 0, uses_anonymous_args = 0
