	.arch armv6k
	.eabi_attribute 28, 1
	.eabi_attribute 20, 1
	.eabi_attribute 21, 1
	.eabi_attribute 23, 3
	.eabi_attribute 24, 1
	.eabi_attribute 25, 1
	.eabi_attribute 26, 1
	.eabi_attribute 30, 2
	.eabi_attribute 34, 1
	.eabi_attribute 18, 4
	.file	"Player.c"
	.text
.Ltext0:
	.cfi_sections	.debug_frame
	.section	.text.Player_Init,"ax",%progbits
	.align	2
	.global	Player_Init
	.syntax unified
	.arm
	.fpu vfp
	.type	Player_Init, %function
Player_Init:
.LVL0:
.LFB144:
	.file 1 "/home/tobi/Dokumente/Craftus-Next/source/entity/Player.c"
	.loc 1 7 48 view -0
	.cfi_startproc
	@ args = 0, pretend = 0, frame = 0
	@ frame_needed = 0, uses_anonymous_args = 0
	.loc 1 8 2 view .LVU1
	.loc 1 8 21 is_stmt 0 view .LVU2
	mov	r3, #0
	.loc 1 7 48 view .LVU3
	push	{r4, r5, r6, r7, r8, r9, lr}
	.cfi_def_cfa_offset 28
	.cfi_offset 4, -28
	.cfi_offset 5, -24
	.cfi_offset 6, -20
	.cfi_offset 7, -16
	.cfi_offset 8, -12
	.cfi_offset 9, -8
	.cfi_offset 14, -4
	.loc 1 14 19 view .LVU4
	mov	r2, #0
	.loc 1 18 20 view .LVU5
	mov	ip, #1
.LBB106:
	.loc 1 52 26 view .LVU6
	mov	r4, #12
.LBE106:
	.loc 1 24 17 view .LVU7
	vldr.32	s15, .L8
	.loc 1 37 30 view .LVU8
	mov	r9, #9
	.loc 1 29 23 view .LVU9
	mov	r8, #65536
	.loc 1 8 21 view .LVU10
	str	r3, [r0]	@ float
	str	r3, [r0, #4]	@ float
	str	r3, [r0, #8]	@ float
	.loc 1 10 2 is_stmt 1 view .LVU11
	.loc 1 10 18 is_stmt 0 view .LVU12
	str	r3, [r0, #20]	@ float
	.loc 1 11 2 is_stmt 1 view .LVU13
	.loc 1 11 16 is_stmt 0 view .LVU14
	str	r3, [r0, #12]	@ float
	.loc 1 12 2 is_stmt 1 view .LVU15
	.loc 1 12 14 is_stmt 0 view .LVU16
	str	r3, [r0, #16]	@ float
	.loc 1 14 2 is_stmt 1 view .LVU17
	.loc 1 20 17 is_stmt 0 view .LVU18
	str	r3, [r0, #24]	@ float
	.loc 1 21 20 view .LVU19
	str	r3, [r0, #28]	@ float
	.loc 1 24 17 view .LVU20
	str	r3, [r0, #44]	@ float
	str	r3, [r0, #48]	@ float
	.loc 1 32 21 view .LVU21
	str	r3, [r0, #60]	@ float
	str	r3, [r0, #64]	@ float
	str	r3, [r0, #68]	@ float
	.loc 1 33 23 view .LVU22
	str	r3, [r0, #72]	@ float
	.loc 1 35 28 view .LVU23
	str	r3, [r0, #76]	@ float
	.loc 1 16 16 view .LVU24
	str	r1, [r0, #40]
.LBB116:
.LBB107:
.LBB108:
	.loc 1 53 55 view .LVU25
	mov	lr, #13
	mov	r1, r0
.LVL1:
	.loc 1 53 55 view .LVU26
.LBE108:
.LBE107:
	.loc 1 52 26 view .LVU27
	mov	r3, r0
	.loc 1 42 26 view .LVU28
	ldr	r7, .L8+4
	.loc 1 44 26 view .LVU29
	ldr	r6, .L8+8
	.loc 1 45 26 view .LVU30
	ldr	r5, .L8+12
	.loc 1 42 26 view .LVU31
	str	r7, [r0, #196]
	.loc 1 44 26 view .LVU32
	str	r6, [r0, #200]
	.loc 1 48 26 view .LVU33
	ldr	r7, .L8+16
	ldr	r6, .L8+20
	.loc 1 45 26 view .LVU34
	str	r5, [r0, #204]
.LBE116:
	.loc 1 24 17 view .LVU35
	vstr.32	s15, [r0, #52]
.LBB117:
	.loc 1 49 26 view .LVU36
	ldr	r5, .L8+24
.LBE117:
	.loc 1 37 30 view .LVU37
	str	r9, [r0, #132]
	.loc 1 29 23 view .LVU38
	str	r8, [r0, #192]
	.loc 1 14 19 view .LVU39
	strb	r2, [r0, #32]
	.loc 1 15 2 is_stmt 1 view .LVU40
	.loc 1 16 2 view .LVU41
	.loc 1 17 2 view .LVU42
	.loc 1 17 18 is_stmt 0 view .LVU43
	str	r2, [r0, #124]
	.loc 1 18 2 is_stmt 1 view .LVU44
	.loc 1 18 20 is_stmt 0 view .LVU45
	str	ip, [r0, #100]
	.loc 1 20 2 is_stmt 1 view .LVU46
	.loc 1 21 2 view .LVU47
	.loc 1 22 2 view .LVU48
	.loc 1 22 21 is_stmt 0 view .LVU49
	str	r2, [r0, #80]
	.loc 1 24 2 is_stmt 1 view .LVU50
	.loc 1 26 2 view .LVU51
	.loc 1 27 2 view .LVU52
	.loc 1 15 20 is_stmt 0 view .LVU53
	strh	r2, [r0, #34]	@ movhi
	.loc 1 26 20 view .LVU54
	strb	r2, [r0, #36]
	.loc 1 29 2 is_stmt 1 view .LVU55
	.loc 1 30 2 view .LVU56
	.loc 1 32 2 view .LVU57
	.loc 1 33 2 view .LVU58
	.loc 1 35 2 view .LVU59
	.loc 1 37 2 view .LVU60
	.loc 1 38 2 view .LVU61
	.loc 1 38 29 is_stmt 0 view .LVU62
	str	r2, [r0, #136]
	.loc 1 39 2 is_stmt 1 view .LVU63
	.loc 1 39 24 is_stmt 0 view .LVU64
	str	ip, [r0, #140]
.LBB118:
	.loc 1 41 3 is_stmt 1 view .LVU65
.LVL2:
	.loc 1 42 3 view .LVU66
	.loc 1 43 3 view .LVU67
	.loc 1 44 3 view .LVU68
	.loc 1 45 3 view .LVU69
	.loc 1 46 3 view .LVU70
	.loc 1 47 3 view .LVU71
	.loc 1 48 3 view .LVU72
	.loc 1 49 3 view .LVU73
	.loc 1 50 3 view .LVU74
	.loc 1 51 3 view .LVU75
	.loc 1 52 3 view .LVU76
	.loc 1 48 26 is_stmt 0 view .LVU77
	strd	r6, [r0, #208]
	.loc 1 52 26 view .LVU78
	strh	r4, [r0, #224]	@ movhi
	.loc 1 50 26 view .LVU79
	ldr	r4, .L8+28
	.loc 1 49 26 view .LVU80
	str	r5, [r0, #216]
	.loc 1 52 26 view .LVU81
	strb	ip, [r0, #226]
	.loc 1 53 3 is_stmt 1 view .LVU82
.LBB111:
	.loc 1 53 8 view .LVU83
.LVL3:
	.loc 1 53 21 view .LVU84
.LBE111:
	.loc 1 50 26 is_stmt 0 view .LVU85
	str	r4, [r0, #220]
.LVL4:
.L2:
.LBB112:
.LBB109:
	.loc 1 53 32 is_stmt 1 discriminator 3 view .LVU86
	.loc 1 53 55 is_stmt 0 discriminator 3 view .LVU87
	strb	r2, [r3, #228]
.LBE109:
	.loc 1 53 28 discriminator 3 view .LVU88
	add	r2, r2, #1
.LVL5:
	.loc 1 53 21 discriminator 3 view .LVU89
	cmp	r2, #16
.LBB110:
	.loc 1 53 55 discriminator 3 view .LVU90
	strb	lr, [r3, #227]
	strb	ip, [r3, #229]
.LBE110:
	.loc 1 53 28 is_stmt 1 discriminator 3 view .LVU91
.LVL6:
	.loc 1 53 21 discriminator 3 view .LVU92
	add	r3, r3, #3
	bne	.L2
.LBE112:
	.loc 1 54 3 view .LVU93
.LVL7:
	.loc 1 55 3 view .LVU94
	.loc 1 56 3 view .LVU95
	.loc 1 57 3 view .LVU96
	.loc 1 58 3 view .LVU97
	.loc 1 59 3 view .LVU98
	.loc 1 60 3 view .LVU99
	.loc 1 61 3 view .LVU100
	.loc 1 62 3 view .LVU101
	.loc 1 63 3 view .LVU102
	.loc 1 64 3 view .LVU103
	.loc 1 65 3 view .LVU104
	.loc 1 66 3 view .LVU105
	.loc 1 67 3 view .LVU106
	.loc 1 68 3 view .LVU107
	.loc 1 69 3 view .LVU108
	.loc 1 70 3 view .LVU109
	.loc 1 71 3 view .LVU110
	.loc 1 72 3 view .LVU111
	.loc 1 73 3 view .LVU112
	.loc 1 74 3 view .LVU113
	.loc 1 75 3 view .LVU114
	.loc 1 54 26 is_stmt 0 view .LVU115
	mov	r2, #14
.LVL8:
	.loc 1 54 26 view .LVU116
	ldr	r3, .L8+32
	.loc 1 74 26 view .LVU117
	mov	r7, #256
	.loc 1 54 26 view .LVU118
	str	r3, [r0, #276]
	.loc 1 75 26 view .LVU119
	mov	r5, #34
	mov	r3, #0
	.loc 1 54 26 view .LVU120
	strb	r2, [r0, #275]
	.loc 1 58 26 view .LVU121
	ldr	r2, .L8+36
	.loc 1 55 26 view .LVU122
	ldr	ip, .L8+40
	.loc 1 58 26 view .LVU123
	str	r2, [r0, #288]
	.loc 1 59 26 view .LVU124
	ldr	r2, .L8+44
	.loc 1 55 26 view .LVU125
	str	ip, [r0, #280]
	.loc 1 59 26 view .LVU126
	str	r2, [r0, #292]
	.loc 1 61 26 view .LVU127
	ldr	r2, .L8+48
	.loc 1 57 26 view .LVU128
	add	ip, ip, #61696
	.loc 1 61 26 view .LVU129
	str	r2, [r0, #296]
	.loc 1 62 26 view .LVU130
	ldr	r2, .L8+52
	.loc 1 57 26 view .LVU131
	add	ip, ip, #268435471
	.loc 1 62 26 view .LVU132
	str	r2, [r0, #300]
	.loc 1 63 26 view .LVU133
	ldr	r2, .L8+56
	.loc 1 57 26 view .LVU134
	str	ip, [r0, #284]
	.loc 1 63 26 view .LVU135
	str	r2, [r0, #304]
	.loc 1 65 26 view .LVU136
	ldr	r2, .L8+60
	.loc 1 75 26 view .LVU137
	ldr	r4, .L8+64
	.loc 1 65 26 view .LVU138
	str	r2, [r0, #308]
	.loc 1 66 26 view .LVU139
	ldr	r2, .L8+68
	.loc 1 77 26 view .LVU140
	ldr	lr, .L8+72
	.loc 1 66 26 view .LVU141
	str	r2, [r0, #312]
	.loc 1 67 26 view .LVU142
	ldr	r2, .L8+76
	.loc 1 78 26 view .LVU143
	ldr	ip, .L8+80
	.loc 1 67 26 view .LVU144
	str	r2, [r0, #316]
	.loc 1 69 26 view .LVU145
	ldr	r2, .L8+84
	.loc 1 74 26 view .LVU146
	add	r6, r0, #336
	.loc 1 69 26 view .LVU147
	str	r2, [r0, #320]
	.loc 1 70 26 view .LVU148
	ldr	r2, .L8+88
	str	r2, [r0, #324]
	.loc 1 71 26 view .LVU149
	ldr	r2, .L8+92
	str	r2, [r0, #328]
	.loc 1 73 26 view .LVU150
	ldr	r2, .L8+96
	str	r2, [r0, #332]
	.loc 1 79 26 view .LVU151
	ldr	r2, .L8+100
	.loc 1 74 26 view .LVU152
	strh	r7, [r6]	@ movhi
	.loc 1 79 26 view .LVU153
	str	r2, [r0, #352]
	.loc 1 75 26 view .LVU154
	strb	r5, [r0, #338]
	.loc 1 76 3 is_stmt 1 view .LVU155
.LVL9:
	.loc 1 77 3 view .LVU156
	.loc 1 78 3 view .LVU157
	.loc 1 79 3 view .LVU158
	.loc 1 80 3 view .LVU159
	.loc 1 82 3 view .LVU160
.LBB113:
	.loc 1 82 8 view .LVU161
	.loc 1 82 21 view .LVU162
.LBE113:
	.loc 1 75 26 is_stmt 0 view .LVU163
	str	r4, [r0, #340]
	.loc 1 77 26 view .LVU164
	str	lr, [r0, #344]
	.loc 1 75 26 view .LVU165
	strb	r3, [r0, #339]
	.loc 1 78 26 view .LVU166
	str	ip, [r0, #348]
	add	r2, r0, #27
.LVL10:
.L3:
.LBB115:
.LBB114:
	.loc 1 82 31 is_stmt 1 discriminator 3 view .LVU167
	.loc 1 82 57 is_stmt 0 discriminator 3 view .LVU168
	strb	r3, [r1, #144]
	strb	r3, [r1, #145]
	strb	r3, [r1, #146]
.LBE114:
	.loc 1 82 27 is_stmt 1 discriminator 3 view .LVU169
	.loc 1 82 21 discriminator 3 view .LVU170
	add	r1, r1, #3
	cmp	r1, r2
	bne	.L3
.LBE115:
.LBE118:
	.loc 1 84 2 view .LVU171
	.loc 1 86 2 view .LVU172
	.loc 1 86 26 is_stmt 0 view .LVU173
	mov	r3, #1
	strb	r3, [r0, #56]
	.loc 1 87 1 view .LVU174
	pop	{r4, r5, r6, r7, r8, r9, pc}
.L9:
	.align	2
.L8:
	.word	-1082130432
	.word	16777729
	.word	67174403
	.word	327936
	.word	151060488
	.word	16778753
	.word	655616
	.word	16780033
	.word	459008
	.word	1179904
	.word	16781057
	.word	16782081
	.word	352387092
	.word	1442048
	.word	16783105
	.word	419495960
	.word	16784897
	.word	1769728
	.word	536936485
	.word	16783873
	.word	2490624
	.word	469827620
	.word	2294016
	.word	16784641
	.word	520159265
	.word	16777217
	.cfi_endproc
.LFE144:
	.size	Player_Init, .-Player_Init
	.section	.rodata.str1.4,"aMS",%progbits,1
	.align	2
.LC38:
	.ascii	"Player died\000"
	.align	2
.LC39:
	.ascii	"Died by %s\000"
	.align	2
.LC40:
	.ascii	"lol ur world is gone\000"
	.section	.text.Player_Respawn,"ax",%progbits
	.align	2
	.global	Player_Respawn
	.syntax unified
	.arm
	.fpu vfp
	.type	Player_Respawn, %function
Player_Respawn:
.LVL11:
.LFB145:
	.loc 1 90 1 is_stmt 1 view -0
	.cfi_startproc
	@ args = 0, pretend = 0, frame = 0
	@ frame_needed = 0, uses_anonymous_args = 0
	.loc 1 91 6 view .LVU176
	.loc 1 91 9 is_stmt 0 view .LVU177
	ldr	r3, [r0, #100]
	cmp	r3, #4
	beq	.L11
	.loc 1 110 25 view .LVU178
	mov	r3, #1
	.loc 1 90 1 view .LVU179
	push	{r4, r5, r6, r7, r8, lr}
	.cfi_def_cfa_offset 24
	.cfi_offset 4, -24
	.cfi_offset 5, -20
	.cfi_offset 6, -16
	.cfi_offset 7, -12
	.cfi_offset 8, -8
	.cfi_offset 14, -4
	.loc 1 110 25 view .LVU180
	str	r3, [r0, #120]
	mov	r7, r1
	.loc 1 92 5 is_stmt 1 view .LVU181
	.loc 1 110 5 view .LVU182
.LBB119:
	.loc 1 111 6 view .LVU183
	.loc 1 111 13 is_stmt 0 view .LVU184
	ldrb	r1, [r1]	@ zero_extendqisi2
.LVL12:
	.loc 1 111 13 view .LVU185
	mov	r4, r0
	.loc 1 111 9 view .LVU186
	cmp	r1, #0
	beq	.L23
.LBB120:
	.loc 1 114 7 is_stmt 1 view .LVU187
	ldr	r0, .L24
.LVL13:
	.loc 1 114 7 is_stmt 0 view .LVU188
	bl	DebugUI_Log
.LVL14:
.L13:
.LBE120:
	.loc 1 116 6 is_stmt 1 view .LVU189
	.loc 1 116 31 is_stmt 0 view .LVU190
	vldr.32	s15, [r4, #108]
	.loc 1 118 10 view .LVU191
	mov	r5, #1
	.loc 1 116 24 view .LVU192
	vstr.32	s15, [r4]
	.loc 1 117 6 is_stmt 1 view .LVU193
	.loc 1 117 13 is_stmt 0 view .LVU194
	ldr	r6, [r4, #40]
.LVL15:
	.loc 1 118 6 is_stmt 1 view .LVU195
	.loc 1 119 6 view .LVU196
	.loc 1 119 12 is_stmt 0 view .LVU197
	b	.L14
.LVL16:
.L15:
	.loc 1 119 41 view .LVU198
	vldr.32	s15, [r4, #108]
	.loc 1 120 13 view .LVU199
	add	r5, r5, #1
.LVL17:
.L14:
	.loc 1 119 75 is_stmt 1 view .LVU200
	.loc 1 119 13 is_stmt 0 view .LVU201
	vldr.32	s14, [r4, #116]
	vcvt.s32.f32	s15, s15
	vmov	r1, s15	@ int
	vcvt.s32.f32	s15, s14
	mov	r2, r5
	mov	r0, r6
	vmov	r3, s15	@ int
	bl	World_GetBlock
.LVL18:
	.loc 1 120 7 is_stmt 1 view .LVU202
	.loc 1 119 75 is_stmt 0 view .LVU203
	cmp	r0, #0
	bne	.L15
	.loc 1 122 5 is_stmt 1 view .LVU204
.LVL19:
	.loc 1 123 6 view .LVU205
	.loc 1 123 24 is_stmt 0 view .LVU206
	ldrb	r3, [r6, #24]	@ zero_extendqisi2
.LBE119:
	.loc 1 127 15 view .LVU207
	mov	r2, #20
.LBB122:
	.loc 1 123 24 view .LVU208
	cmp	r3, #1
	.loc 1 123 47 view .LVU209
	addne	r5, r5, #1
.LVL20:
	.loc 1 123 24 view .LVU210
	vmov	s15, r5	@ int
	.loc 1 125 57 view .LVU211
	mov	r3, #0
	.loc 1 123 24 view .LVU212
	vcvt.f32.s32	s15, s15
	.loc 1 124 24 view .LVU213
	ldr	r1, [r4, #116]	@ float
	.loc 1 123 24 view .LVU214
	vstr.32	s15, [r4, #4]
.LVL21:
	.loc 1 124 6 is_stmt 1 view .LVU215
	.loc 1 124 24 is_stmt 0 view .LVU216
	str	r1, [r4, #8]	@ float
	.loc 1 125 41 is_stmt 1 view .LVU217
	.loc 1 125 57 is_stmt 0 view .LVU218
	str	r3, [r4, #124]
.LBE122:
	.loc 1 127 5 is_stmt 1 view .LVU219
	.loc 1 127 15 is_stmt 0 view .LVU220
	str	r2, [r4, #84]
	.loc 1 128 5 is_stmt 1 view .LVU221
	.loc 1 128 19 is_stmt 0 view .LVU222
	str	r2, [r4, #96]
	.loc 1 129 5 is_stmt 1 view .LVU223
	.loc 1 129 15 is_stmt 0 view .LVU224
	strb	r3, [r7]
	.loc 1 136 1 view .LVU225
	pop	{r4, r5, r6, r7, r8, pc}
.LVL22:
.L23:
.LBB123:
.LBB121:
	.loc 1 112 7 is_stmt 1 view .LVU226
	ldr	r0, .L24+4
.LVL23:
	.loc 1 112 7 is_stmt 0 view .LVU227
	bl	DebugUI_Log
.LVL24:
.LBE121:
	b	.L13
.LVL25:
.L11:
	.cfi_def_cfa_offset 0
	.cfi_restore 4
	.cfi_restore 5
	.cfi_restore 6
	.cfi_restore 7
	.cfi_restore 8
	.cfi_restore 14
	.loc 1 112 7 view .LVU228
.LBE123:
.LBB124:
	.loc 1 131 5 is_stmt 1 view .LVU229
	ldr	r0, .L24+8
.LVL26:
	.loc 1 131 5 is_stmt 0 view .LVU230
	b	DebugUI_Log
.LVL27:
.L25:
	.loc 1 131 5 view .LVU231
	.align	2
.L24:
	.word	.LC39
	.word	.LC38
	.word	.LC40
.LBE124:
	.cfi_endproc
.LFE145:
	.size	Player_Respawn, .-Player_Respawn
	.section	.rodata.str1.4
	.align	2
.LC41:
	.ascii	"ur burning lol\000"
	.align	2
.LC42:
	.ascii	"Fire\000"
	.section	.text.Player_Update,"ax",%progbits
	.align	2
	.global	Player_Update
	.syntax unified
	.arm
	.fpu vfp
	.type	Player_Update, %function
Player_Update:
.LVL28:
.LFB146:
	.loc 1 138 63 is_stmt 1 view -0
	.cfi_startproc
	@ args = 0, pretend = 0, frame = 24
	@ frame_needed = 0, uses_anonymous_args = 0
	.loc 1 139 2 view .LVU233
	.loc 1 138 63 is_stmt 0 view .LVU234
	push	{r4, r5, lr}
	.cfi_def_cfa_offset 12
	.cfi_offset 4, -12
	.cfi_offset 5, -8
	.cfi_offset 14, -4
	vpush.64	{d8, d9}
	.cfi_def_cfa_offset 28
	.cfi_offset 80, -28
	.cfi_offset 81, -24
	.cfi_offset 82, -20
	.cfi_offset 83, -16
	.loc 1 139 25 view .LVU235
	vldr.32	s19, [r0, #16]
	.loc 1 138 63 view .LVU236
	mov	r4, r0
	sub	sp, sp, #28
	.cfi_def_cfa_offset 56
	.loc 1 139 25 view .LVU237
	vmov.f32	s0, s19
	.loc 1 138 63 view .LVU238
	mov	r5, r2
	.loc 1 139 25 view .LVU239
	bl	sinf
.LVL29:
	.loc 1 139 45 view .LVU240
	vldr.32	s18, [r4, #12]
	.loc 1 139 25 view .LVU241
	vmov.f32	s16, s0
	.loc 1 139 45 view .LVU242
	vmov.f32	s0, s18
	bl	cosf
.LVL30:
	vmov.f32	s17, s0
	.loc 1 139 17 view .LVU243
	vmov.f32	s0, s18
	bl	sinf
.LVL31:
	vmov.f32	s18, s0
	.loc 1 139 88 view .LVU244
	vmov.f32	s0, s19
	bl	cosf
.LVL32:
	.loc 1 139 17 view .LVU245
	vnmul.f32	s3, s16, s17
	vnmul.f32	s5, s0, s17
	.loc 1 140 24 view .LVU246
	vldr.32	s1, [r4, #4]
	vldr.32	s15, .L61+8
	vldr.32	s2, [r4, #8]
	.loc 1 139 17 view .LVU247
	vstr.32	s18, [r4, #48]
	.loc 1 140 24 view .LVU248
	vmov.f32	s4, s18
	.loc 1 139 17 view .LVU249
	vstr.32	s3, [r4, #44]
	.loc 1 140 24 view .LVU250
	vadd.f32	s1, s1, s15
	.loc 1 139 17 view .LVU251
	vstr.32	s5, [r4, #52]
	.loc 1 140 2 is_stmt 1 view .LVU252
.LVL33:
.LBB125:
.LBI125:
	.file 2 "/home/tobi/Dokumente/Craftus-Next/include/misc/VecMath.h"
	.loc 2 14 15 view .LVU253
	.loc 2 14 51 view .LVU254
	vldr.32	s0, [r4]
.LVL34:
	.loc 2 14 51 is_stmt 0 view .LVU255
.LBE125:
	.loc 1 140 24 view .LVU256
	ldr	r0, [r4, #40]
	add	r1, r4, #172
	bl	Raycast_Cast
.LVL35:
	.loc 1 141 52 view .LVU257
	subs	r3, r0, #0
	.loc 1 140 23 view .LVU258
	strb	r0, [r4, #192]
	.loc 1 141 2 is_stmt 1 view .LVU259
	.loc 1 141 52 is_stmt 0 view .LVU260
	beq	.L27
	.loc 1 141 52 discriminator 1 view .LVU261
	vldr.32	s14, [r4, #184]
	vldr.32	s15, .L61+12
	vcmpe.f32	s14, s15
	vmrs	APSR_nzcv, FPSCR
	movmi	r3, #1
	movpl	r3, #0
.L27:
	.loc 1 144 23 discriminator 6 view .LVU262
	vldr.32	s0, [r4, #64]
	.loc 1 144 6 discriminator 6 view .LVU263
	vldr.32	s15, .L61+16
	vcmpe.f32	s0, s15
	vmrs	APSR_nzcv, FPSCR
	.loc 1 147 52 discriminator 6 view .LVU264
	vldr.32	s17, [r4]
	.loc 1 147 71 discriminator 6 view .LVU265
	vldr.32	s16, [r4, #4]
	.loc 1 147 92 discriminator 6 view .LVU266
	vldr.32	s18, [r4, #8]
	.loc 1 147 7 discriminator 6 view .LVU267
	ldr	r0, [r4, #40]
	.loc 1 141 29 discriminator 6 view .LVU268
	strb	r3, [r4, #193]
	.loc 1 144 3 is_stmt 1 discriminator 6 view .LVU269
	.loc 1 144 6 is_stmt 0 discriminator 6 view .LVU270
	bls	.L56
.L29:
	.loc 1 153 3 is_stmt 1 view .LVU271
	.loc 1 153 7 is_stmt 0 view .LVU272
	vcvt.s32.f32	s15, s18
	vmov	r3, s15	@ int
	vcvt.s32.f32	s15, s16
	vmov	r2, s15	@ int
	vcvt.s32.f32	s15, s17
	vmov	r1, s15	@ int
	bl	World_GetBlock
.LVL36:
	.loc 1 153 6 view .LVU273
	cmp	r0, #27
	beq	.L57
.L31:
	.loc 1 160 4 is_stmt 1 view .LVU274
	adr	r1, .L61
	ldrd	r0, [r1]
	bl	svcSleepThread
.LVL37:
	.loc 1 161 4 view .LVU275
	.loc 1 161 43 is_stmt 0 view .LVU276
	ldr	r3, [r4, #80]
	add	r3, r3, #1
	.loc 1 162 6 view .LVU277
	cmp	r3, #400
	.loc 1 161 23 view .LVU278
	str	r3, [r4, #80]
	.loc 1 162 4 is_stmt 1 view .LVU279
	.loc 1 162 39 is_stmt 0 view .LVU280
	ldr	r3, [r4, #96]
	.loc 1 162 6 view .LVU281
	beq	.L32
	.loc 1 166 4 is_stmt 1 view .LVU282
	.loc 1 166 7 is_stmt 0 view .LVU283
	cmp	r3, #0
	beq	.L34
.L55:
	.loc 1 169 23 view .LVU284
	ldr	r3, [r4, #84]
	.loc 1 175 3 is_stmt 1 view .LVU285
	.loc 1 175 6 is_stmt 0 view .LVU286
	cmp	r3, #0
	ble	.L58
.L37:
	.loc 1 180 17 is_stmt 1 view .LVU287
	.loc 1 180 20 is_stmt 0 view .LVU288
	vldr.32	s15, .L61+20
	vldr.32	s14, [r4, #4]
	vcmpe.f32	s14, s15
	vmrs	APSR_nzcv, FPSCR
	bmi	.L59
	.loc 1 184 1 view .LVU289
	add	sp, sp, #28
	.cfi_remember_state
	.cfi_def_cfa_offset 28
	@ sp needed
	vldm	sp!, {d8-d9}
	.cfi_restore 82
	.cfi_restore 83
	.cfi_restore 80
	.cfi_restore 81
	.cfi_def_cfa_offset 12
	pop	{r4, r5, pc}
.LVL38:
.L32:
	.cfi_restore_state
	.loc 1 162 31 discriminator 1 view .LVU290
	cmp	r3, #0
	beq	.L34
	.loc 1 163 5 is_stmt 1 view .LVU291
	.loc 1 164 24 is_stmt 0 view .LVU292
	mov	r2, #0
	.loc 1 163 34 view .LVU293
	sub	r3, r3, #1
	.loc 1 166 7 view .LVU294
	cmp	r3, #0
	.loc 1 163 19 view .LVU295
	str	r3, [r4, #96]
	.loc 1 164 5 is_stmt 1 view .LVU296
	.loc 1 164 24 is_stmt 0 view .LVU297
	str	r2, [r4, #80]
	.loc 1 166 4 is_stmt 1 view .LVU298
	.loc 1 166 7 is_stmt 0 view .LVU299
	bne	.L55
.L34:
	.loc 1 167 5 is_stmt 1 view .LVU300
	adr	r1, .L61
	ldrd	r0, [r1]
	bl	svcSleepThread
.LVL39:
	.loc 1 168 5 view .LVU301
	.loc 1 168 7 is_stmt 0 view .LVU302
	ldr	r3, [r4, #80]
	cmp	r3, #400
	bne	.L55
	.loc 1 169 6 is_stmt 1 view .LVU303
	.loc 1 170 25 is_stmt 0 view .LVU304
	mov	r2, #0
	.loc 1 169 27 view .LVU305
	ldr	r3, [r4, #84]
	sub	r3, r3, #1
	.loc 1 175 6 view .LVU306
	cmp	r3, #0
	.loc 1 170 25 view .LVU307
	strd	r2, [r4, #80]
	.loc 1 175 3 is_stmt 1 view .LVU308
	.loc 1 175 6 is_stmt 0 view .LVU309
	bgt	.L37
.L58:
	.loc 1 176 4 is_stmt 1 view .LVU310
	mov	r1, r5
	mov	r0, r4
	bl	Player_Respawn
.LVL40:
	b	.L37
.L56:
	.loc 1 145 4 view .LVU311
	.loc 1 146 4 view .LVU312
	.loc 1 146 17 is_stmt 0 view .LVU313
	vcvt.f64.f32	d0, s0
	str	r0, [sp, #4]
	bl	round
.LVL41:
	.loc 1 147 73 view .LVU314
	vldr.32	s15, .L61+24
	.loc 1 147 7 view .LVU315
	vcvt.s32.f32	s14, s18
	.loc 1 147 73 view .LVU316
	vsub.f32	s16, s16, s15
	.loc 1 147 7 view .LVU317
	vmov	r3, s14	@ int
	.loc 1 146 17 view .LVU318
	vcvt.f32.f64	s0, d0
	.loc 1 147 7 view .LVU319
	vcvt.s32.f32	s14, s17
	vcvt.s32.f32	s15, s16
	vmov	r1, s14	@ int
	.loc 1 146 17 view .LVU320
	vstr.32	s0, [r4, #104]
	.loc 1 147 4 is_stmt 1 view .LVU321
	.loc 1 147 7 is_stmt 0 view .LVU322
	vmov	r2, s15	@ int
	ldr	r0, [sp, #4]
	bl	World_GetBlock
.LVL42:
	.loc 1 147 6 view .LVU323
	cmp	r0, #0
	beq	.L60
	.loc 1 148 5 is_stmt 1 view .LVU324
	.loc 1 148 26 is_stmt 0 view .LVU325
	vldr.32	s15, [r4, #84]	@ int
	vldr.32	s14, [r4, #104]
	vcvt.f32.s32	s15, s15
	vadd.f32	s15, s15, s14
	.loc 1 149 17 view .LVU326
	mov	r3, #0
	.loc 1 148 15 view .LVU327
	vcvt.s32.f32	s15, s15
	vldr.32	s16, [r4, #4]
	vldr.32	s18, [r4, #8]
	vldr.32	s17, [r4]
	vstr.32	s15, [r4, #84]	@ int
	.loc 1 149 5 is_stmt 1 view .LVU328
	ldr	r0, [r4, #40]
	.loc 1 149 17 is_stmt 0 view .LVU329
	str	r3, [r4, #104]	@ float
	b	.L29
.L59:
	.loc 1 181 4 is_stmt 1 view .LVU330
	mov	r1, r5
	mov	r0, r4
	.loc 1 184 1 is_stmt 0 view .LVU331
	add	sp, sp, #28
	.cfi_remember_state
	.cfi_def_cfa_offset 28
	@ sp needed
	vldm	sp!, {d8-d9}
	.cfi_restore 82
	.cfi_restore 83
	.cfi_restore 80
	.cfi_restore 81
	.cfi_def_cfa_offset 12
	pop	{r4, r5, lr}
	.cfi_restore 14
	.cfi_restore 5
	.cfi_restore 4
	.cfi_def_cfa_offset 0
.LVL43:
	.loc 1 181 4 view .LVU332
	b	Player_Respawn
.LVL44:
.L57:
	.cfi_restore_state
.LBB126:
	.loc 1 154 4 is_stmt 1 view .LVU333
	ldr	r0, .L61+28
	bl	DebugUI_Log
.LVL45:
	.loc 1 155 4 view .LVU334
	mov	r1, #10
	ldr	r0, .L61+32
	bl	OvertimeDamage
.LVL46:
	b	.L31
.L60:
	.loc 1 155 4 is_stmt 0 view .LVU335
	vldr.32	s16, [r4, #4]
	vldr.32	s18, [r4, #8]
	vldr.32	s17, [r4]
	ldr	r0, [r4, #40]
	b	.L29
.L62:
	.align	3
.L61:
	.word	10000000
	.word	0
	.word	1070805811
	.word	1110147072
	.word	-1052770304
	.word	-1041235968
	.word	1065353216
	.word	.LC41
	.word	.LC42
.LBE126:
	.cfi_endproc
.LFE146:
	.size	Player_Update, .-Player_Update
	.section	.text.Player_CanMove,"ax",%progbits
	.align	2
	.global	Player_CanMove
	.syntax unified
	.arm
	.fpu vfp
	.type	Player_CanMove, %function
Player_CanMove:
.LVL47:
.LFB147:
	.loc 1 186 48 is_stmt 1 view -0
	.cfi_startproc
	@ args = 0, pretend = 0, frame = 16
	@ frame_needed = 0, uses_anonymous_args = 0
.LBB127:
.LBB128:
.LBB129:
.LBB130:
.LBB131:
.LBB132:
	.file 3 "/home/tobi/Dokumente/Craftus-Next/include/misc/NumberUtils.h"
	.loc 3 25 47 is_stmt 0 view .LVU337
	vcvt.s32.f32	s14, s0
.LBE132:
.LBE131:
.LBB139:
.LBB140:
	vcvt.s32.f32	s15, s2
.LBE140:
.LBE139:
.LBB147:
.LBB133:
	.loc 3 25 58 view .LVU338
	vcvt.f32.s32	s10, s14
.LBE133:
.LBE147:
.LBB148:
.LBB149:
	.loc 3 25 47 view .LVU339
	vcvt.s32.f32	s13, s1
.LBE149:
.LBE148:
.LBB156:
.LBB134:
	.loc 3 25 58 view .LVU340
	vcmpe.f32	s0, s10
.LBE134:
.LBE156:
.LBB157:
.LBB141:
	vcvt.f32.s32	s11, s15
.LBE141:
.LBE157:
.LBB158:
.LBB135:
	vmrs	APSR_nzcv, FPSCR
.LBE135:
.LBE158:
.LBB159:
.LBB150:
	vcvt.f32.s32	s12, s13
.LBE150:
.LBE159:
.LBB160:
.LBB142:
	vcmpe.f32	s2, s11
.LBE142:
.LBE160:
.LBB161:
.LBB136:
	movmi	r3, #1
	movpl	r3, #0
	.loc 3 25 56 view .LVU341
	vmov	r2, s14	@ int
.LBE136:
.LBE161:
.LBB162:
.LBB143:
	.loc 3 25 58 view .LVU342
	vmrs	APSR_nzcv, FPSCR
.LBE143:
.LBE162:
.LBB163:
.LBB151:
	vcmpe.f32	s12, s1
.LBE151:
.LBE163:
.LBE130:
.LBE129:
.LBE128:
.LBE127:
	.loc 1 186 48 view .LVU343
	push	{r4, r5, r6, r7, r8, r9, r10, fp, lr}
	.cfi_def_cfa_offset 36
	.cfi_offset 4, -36
	.cfi_offset 5, -32
	.cfi_offset 6, -28
	.cfi_offset 7, -24
	.cfi_offset 8, -20
	.cfi_offset 9, -16
	.cfi_offset 10, -12
	.cfi_offset 11, -8
	.cfi_offset 14, -4
.LBB196:
.LBB191:
.LBB186:
.LBB181:
.LBB164:
.LBB137:
	.loc 3 25 56 view .LVU344
	sub	r8, r2, r3
.LBE137:
.LBE164:
.LBB165:
.LBB144:
	.loc 3 25 58 view .LVU345
	movmi	r3, #1
	movpl	r3, #0
	.loc 3 25 56 view .LVU346
	vmov	r2, s15	@ int
.LBE144:
.LBE165:
.LBB166:
.LBB152:
	.loc 3 25 58 view .LVU347
	vmrs	APSR_nzcv, FPSCR
.LBE152:
.LBE166:
.LBE181:
.LBE186:
.LBE191:
.LBE196:
	.loc 1 186 48 view .LVU348
	vpush.64	{d8, d9, d10, d11}
	.cfi_def_cfa_offset 68
	.cfi_offset 80, -68
	.cfi_offset 81, -64
	.cfi_offset 82, -60
	.cfi_offset 83, -56
	.cfi_offset 84, -52
	.cfi_offset 85, -48
	.cfi_offset 86, -44
	.cfi_offset 87, -40
.LBB197:
.LBB192:
.LBB187:
.LBB182:
.LBB167:
.LBB145:
	.loc 3 25 56 view .LVU349
	sub	r7, r2, r3
.LBE145:
.LBE167:
.LBB168:
.LBB153:
	.loc 3 25 58 view .LVU350
	movgt	r3, #1
	movle	r3, #0
	.loc 3 25 56 view .LVU351
	vmov	r2, s13	@ int
	sub	fp, r8, #1
	sub	r3, r2, r3
	add	r8, r8, #2
.LBE153:
.LBE168:
.LBE182:
.LBE187:
.LBE192:
.LBE197:
	.loc 1 186 48 view .LVU352
	sub	sp, sp, #20
	.cfi_def_cfa_offset 88
.LBB198:
.LBB193:
.LBB188:
.LBB183:
.LBB169:
.LBB154:
	.loc 3 25 56 view .LVU353
	str	r3, [sp]
	add	r10, r3, #3
	mov	r3, r8
.LBE154:
.LBE169:
	.loc 1 195 10 view .LVU354
	vldr.32	s20, .L93
	mov	r8, fp
.LBB170:
.LBB171:
	.loc 3 33 19 view .LVU355
	vldr.32	s19, .L93+4
	.loc 3 33 30 view .LVU356
	vldr.32	s21, .L93+8
	.loc 3 33 66 view .LVU357
	vldr.32	s22, .L93+12
.LBE171:
.LBE170:
.LBE183:
.LBE188:
.LBE193:
.LBE198:
	.loc 1 186 48 view .LVU358
	vmov.f32	s16, s0
.LVL48:
	.loc 1 186 48 view .LVU359
	vmov.f32	s18, s2
	vmov.f32	s17, s1
.LVL49:
	.loc 1 187 2 is_stmt 1 view .LVU360
.LBB199:
	.loc 1 187 7 view .LVU361
	.loc 1 187 21 view .LVU362
.LBE199:
	.loc 1 186 48 is_stmt 0 view .LVU363
	mov	r6, r0
	mov	fp, r3
	sub	r9, r7, #1
	add	r7, r7, #2
.LVL50:
.L64:
.LBB200:
.LBB194:
	.loc 1 188 21 is_stmt 1 view .LVU364
	ldr	r5, [sp]
.LVL51:
.L76:
.LBB189:
	.loc 1 189 23 view .LVU365
	mov	r4, r9
.LVL52:
.L66:
.LBB184:
	.loc 1 190 5 view .LVU366
.LBB175:
.LBI131:
	.loc 3 25 19 view .LVU367
.LBB138:
	.loc 3 25 40 view .LVU368
	.loc 3 25 40 is_stmt 0 view .LVU369
.LBE138:
.LBE175:
	.loc 1 191 5 is_stmt 1 view .LVU370
.LBB176:
.LBI148:
	.loc 3 25 19 view .LVU371
.LBB155:
	.loc 3 25 40 view .LVU372
	.loc 3 25 40 is_stmt 0 view .LVU373
.LBE155:
.LBE176:
	.loc 1 192 5 is_stmt 1 view .LVU374
.LBB177:
.LBI139:
	.loc 3 25 19 view .LVU375
.LBB146:
	.loc 3 25 40 view .LVU376
	.loc 3 25 40 is_stmt 0 view .LVU377
.LBE146:
.LBE177:
	.loc 1 193 5 is_stmt 1 view .LVU378
	.loc 1 193 9 is_stmt 0 view .LVU379
	mov	r3, r4
	mov	r2, r5
	mov	r1, r8
	ldr	r0, [r6, #40]
	bl	World_GetBlock
.LVL53:
	.loc 1 193 8 view .LVU380
	cmp	r0, #0
	bne	.L65
.L68:
.LBE184:
	.loc 1 189 29 is_stmt 1 view .LVU381
	.loc 1 189 23 view .LVU382
	add	r4, r4, #1
.LVL54:
	.loc 1 189 23 is_stmt 0 view .LVU383
	cmp	r4, r7
	bne	.L66
.LBE189:
	.loc 1 188 27 is_stmt 1 discriminator 2 view .LVU384
	.loc 1 188 21 discriminator 2 view .LVU385
	add	r5, r5, #1
	cmp	r5, r10
	bne	.L76
.LBE194:
	.loc 1 187 27 discriminator 2 view .LVU386
	.loc 1 187 21 discriminator 2 view .LVU387
	add	r8, r8, #1
	.loc 1 187 21 is_stmt 0 discriminator 2 view .LVU388
	cmp	r8, fp
	bne	.L64
.LBE200:
	.loc 1 204 8 view .LVU389
	mov	r0, #1
.LVL55:
.L74:
	.loc 1 205 1 view .LVU390
	add	sp, sp, #20
	.cfi_remember_state
	.cfi_def_cfa_offset 68
	@ sp needed
	vldm	sp!, {d8-d11}
	.cfi_restore 86
	.cfi_restore 87
	.cfi_restore 84
	.cfi_restore 85
	.cfi_restore 82
	.cfi_restore 83
	.cfi_restore 80
	.cfi_restore 81
	.cfi_def_cfa_offset 36
.LVL56:
	.loc 1 205 1 view .LVU391
	pop	{r4, r5, r6, r7, r8, r9, r10, fp, pc}
.LVL57:
.L65:
	.cfi_restore_state
.LBB201:
.LBB195:
.LBB190:
.LBB185:
	.loc 1 193 65 discriminator 1 view .LVU392
	mov	r3, r4
	mov	r2, r5
	mov	r1, r8
	ldr	r0, [r6, #40]
	bl	World_GetBlock
.LVL58:
	.loc 1 193 63 discriminator 1 view .LVU393
	cmp	r0, #27
	beq	.L68
	.loc 1 194 7 view .LVU394
	mov	r3, r4
	mov	r2, r5
	mov	r1, r8
	ldr	r0, [r6, #40]
	bl	World_GetBlock
.LVL59:
	.loc 1 194 5 view .LVU395
	cmp	r0, #26
	beq	.L68
	.loc 1 195 6 is_stmt 1 view .LVU396
	.loc 1 195 10 is_stmt 0 view .LVU397
	vmov	s15, r8	@ int
	vcvt.f32.s32	s14, s15
	vsub.f32	s15, s16, s20
.LVL60:
.LBB178:
.LBI170:
	.loc 3 32 19 is_stmt 1 view .LVU398
.LBB172:
	.loc 3 33 2 view .LVU399
	.loc 3 33 19 is_stmt 0 view .LVU400
	vadd.f32	s13, s14, s19
	.loc 3 33 78 view .LVU401
	vcmpe.f32	s15, s13
	vmrs	APSR_nzcv, FPSCR
	bhi	.L68
	.loc 3 33 30 view .LVU402
	vadd.f32	s15, s15, s21
.LVL61:
	.loc 3 33 24 view .LVU403
	vcmpe.f32	s14, s15
	vmrs	APSR_nzcv, FPSCR
	bhi	.L68
.LBE172:
.LBE178:
	.loc 1 195 10 view .LVU404
	vmov	s15, r5	@ int
	vcvt.f32.s32	s15, s15
.LBB179:
.LBB173:
	.loc 3 33 55 view .LVU405
	vadd.f32	s14, s15, s19
.LVL62:
	.loc 3 33 42 view .LVU406
	vcmpe.f32	s17, s14
	vmrs	APSR_nzcv, FPSCR
	bhi	.L68
	.loc 3 33 66 view .LVU407
	vadd.f32	s14, s17, s22
	.loc 3 33 60 view .LVU408
	vcmpe.f32	s15, s14
	vmrs	APSR_nzcv, FPSCR
	bhi	.L68
.LBE173:
.LBE179:
	.loc 1 195 10 view .LVU409
	vmov	s15, r4	@ int
	vcvt.f32.s32	s14, s15
.LVL63:
	.loc 1 195 10 view .LVU410
	vsub.f32	s15, s18, s20
.LBB180:
.LBB174:
	.loc 3 33 91 view .LVU411
	vadd.f32	s13, s14, s19
	.loc 3 33 78 view .LVU412
	vcmpe.f32	s15, s13
	vmrs	APSR_nzcv, FPSCR
	bhi	.L68
	.loc 3 33 102 view .LVU413
	vadd.f32	s15, s15, s21
	.loc 3 33 96 view .LVU414
	vcmpe.f32	s14, s15
	vmrs	APSR_nzcv, FPSCR
	bhi	.L68
.LBE174:
.LBE180:
	.loc 1 198 13 view .LVU415
	mov	r0, #0
	b	.L74
.L94:
	.align	2
.L93:
	.word	1051092582
	.word	1065353216
	.word	1059481190
	.word	1072064102
.LBE185:
.LBE190:
.LBE195:
.LBE201:
	.cfi_endproc
.LFE147:
	.size	Player_CanMove, .-Player_CanMove
	.section	.text.Player_Jump,"ax",%progbits
	.align	2
	.global	Player_Jump
	.syntax unified
	.arm
	.fpu vfp
	.type	Player_Jump, %function
Player_Jump:
.LVL64:
.LFB148:
	.loc 1 207 47 is_stmt 1 view -0
	.cfi_startproc
	@ args = 0, pretend = 0, frame = 16
	@ frame_needed = 0, uses_anonymous_args = 0
	@ link register save eliminated.
	.loc 1 208 2 view .LVU417
	.loc 1 208 5 is_stmt 0 view .LVU418
	ldrb	r3, [r0, #32]	@ zero_extendqisi2
	.loc 1 207 47 view .LVU419
	sub	sp, sp, #16
	.cfi_def_cfa_offset 16
	.loc 1 208 5 view .LVU420
	cmp	r3, #0
	beq	.L95
	.loc 1 208 23 discriminator 1 view .LVU421
	ldrb	r3, [r0, #35]	@ zero_extendqisi2
	cmp	r3, #0
	bne	.L95
	.loc 1 209 3 is_stmt 1 view .LVU422
	.loc 1 209 31 is_stmt 0 view .LVU423
	vldr.32	s15, .L101
	vmul.f32	s0, s0, s15
	.loc 1 210 31 view .LVU424
	vmul.f32	s2, s2, s15
	.loc 1 212 18 view .LVU425
	mov	r2, #1
	.loc 1 209 22 view .LVU426
	vstr.32	s0, [r0, #60]
	.loc 1 210 3 is_stmt 1 view .LVU427
	.loc 1 210 22 is_stmt 0 view .LVU428
	vstr.32	s2, [r0, #68]
	.loc 1 211 3 is_stmt 1 view .LVU429
	.loc 1 212 3 view .LVU430
	.loc 1 213 3 view .LVU431
	.loc 1 211 22 is_stmt 0 view .LVU432
	ldr	r1, .L101+4
	.loc 1 213 21 view .LVU433
	strb	r3, [r0, #36]
	.loc 1 211 22 view .LVU434
	str	r1, [r0, #64]	@ float
	.loc 1 212 18 view .LVU435
	strb	r2, [r0, #33]
.L95:
	.loc 1 215 1 view .LVU436
	add	sp, sp, #16
	.cfi_def_cfa_offset 0
	@ sp needed
	bx	lr
.L102:
	.align	2
.L101:
	.word	1066192077
	.word	1087792742
	.cfi_endproc
.LFE148:
	.size	Player_Jump, .-Player_Jump
	.section	.text.Player_Move,"ax",%progbits
	.align	2
	.global	Player_Move
	.syntax unified
	.arm
	.fpu vfp
	.type	Player_Move, %function
Player_Move:
.LVL65:
.LFB149:
	.loc 1 220 57 is_stmt 1 view -0
	.cfi_startproc
	@ args = 0, pretend = 0, frame = 168
	@ frame_needed = 0, uses_anonymous_args = 0
	.loc 1 222 23 is_stmt 0 view .LVU438
	vldr.32	s15, [r0, #72]
	.loc 1 224 30 view .LVU439
	vldr.32	s13, .L197+48
.LVL66:
	.loc 1 221 2 is_stmt 1 view .LVU440
	.loc 1 222 23 is_stmt 0 view .LVU441
	vadd.f32	s15, s0, s15
	.loc 1 221 28 view .LVU442
	vldr.32	s14, [r0, #76]
	.loc 1 224 30 view .LVU443
	vcmpe.f32	s15, s13
	.loc 1 220 57 view .LVU444
	push	{r4, r5, r6, r7, r8, r9, r10, fp, lr}
	.cfi_def_cfa_offset 36
	.cfi_offset 4, -36
	.cfi_offset 5, -32
	.cfi_offset 6, -28
	.cfi_offset 7, -24
	.cfi_offset 8, -20
	.cfi_offset 9, -16
	.cfi_offset 10, -12
	.cfi_offset 11, -8
	.cfi_offset 14, -4
	vpush.64	{d8, d9, d10, d11, d12, d13, d14}
	.cfi_def_cfa_offset 92
	.cfi_offset 80, -92
	.cfi_offset 81, -88
	.cfi_offset 82, -84
	.cfi_offset 83, -80
	.cfi_offset 84, -76
	.cfi_offset 85, -72
	.cfi_offset 86, -68
	.cfi_offset 87, -64
	.cfi_offset 88, -60
	.cfi_offset 89, -56
	.cfi_offset 90, -52
	.cfi_offset 91, -48
	.cfi_offset 92, -44
	.cfi_offset 93, -40
	.loc 1 221 28 view .LVU445
	vsub.f32	s14, s14, s0
	.loc 1 224 30 view .LVU446
	vmrs	APSR_nzcv, FPSCR
	.loc 1 220 57 view .LVU447
	sub	sp, sp, #220
	.cfi_def_cfa_offset 312
	.loc 1 220 57 view .LVU448
	vstr.32	s1, [sp, #84]
	vstr.32	s2, [sp, #88]
	vstr.32	s3, [sp, #92]
	.loc 1 221 28 view .LVU449
	vstr.32	s14, [r0, #76]
	.loc 1 222 2 is_stmt 1 view .LVU450
	.loc 1 222 23 is_stmt 0 view .LVU451
	vstr.32	s15, [r0, #72]
	.loc 1 223 2 is_stmt 1 view .LVU452
.LVL67:
	.loc 1 224 2 view .LVU453
	.loc 1 224 30 view .LVU454
	blt	.L103
	mov	fp, r0
	vmov.f32	s26, s1
	vmov.f32	s25, s2
	vmov.f32	s27, s3
.LBB250:
	.loc 1 225 22 is_stmt 0 view .LVU455
	vldr.32	s15, [r0, #64]
	.loc 1 226 6 view .LVU456
	vldr.32	s24, .L197
	.loc 1 228 42 view .LVU457
	vldr.32	s16, .L197+4
.LBB251:
.LBB252:
.LBB253:
.LBB254:
.LBB255:
.LBB256:
.LBB257:
.LBB258:
.LBB259:
	.file 4 "/home/tobi/Dokumente/Craftus-Next/include/misc/Collision.h"
	.loc 4 9 109 view .LVU458
	vldr.32	s17, .L197+8
.LVL68:
.L138:
	.loc 4 9 109 view .LVU459
.LBE259:
.LBE258:
.LBE257:
.LBE256:
.LBE255:
.LBE254:
.LBE253:
.LBE252:
.LBE251:
	.loc 1 225 3 is_stmt 1 view .LVU460
	.loc 1 225 22 is_stmt 0 view .LVU461
	vldr.32	s14, .L197+12
	vsub.f32	s15, s15, s14
	.loc 1 226 3 is_stmt 1 view .LVU462
	.loc 1 226 64 is_stmt 0 view .LVU463
	vcmp.f32	s15, s24
	vmrs	APSR_nzcv, FPSCR
	vmovmi.f32	s15, s24
	.loc 1 228 6 view .LVU464
	ldrb	r3, [fp, #35]	@ zero_extendqisi2
	.loc 1 231 14 view .LVU465
	ldrb	r2, [fp, #32]	@ zero_extendqisi2
	.loc 1 228 6 view .LVU466
	cmp	r3, #0
	vstr.32	s15, [fp, #64]
	.loc 1 228 3 is_stmt 1 view .LVU467
	.loc 1 231 14 is_stmt 0 view .LVU468
	str	r2, [sp, #80]
	.loc 1 228 6 view .LVU469
	beq	.L106
	.loc 1 228 23 is_stmt 1 discriminator 1 view .LVU470
	.loc 1 228 42 is_stmt 0 discriminator 1 view .LVU471
	vstr.32	s16, [fp, #64]
	.loc 1 230 3 is_stmt 1 discriminator 1 view .LVU472
.LVL69:
	.loc 1 231 3 discriminator 1 view .LVU473
	.loc 1 228 42 is_stmt 0 discriminator 1 view .LVU474
	vmov.f32	s15, s16
	vldr.32	s14, .L197+64
.L107:
.LVL70:
	.loc 1 240 3 is_stmt 1 view .LVU475
.LBB374:
.LBI374:
	.loc 2 18 15 view .LVU476
.LBB375:
	.loc 2 18 43 view .LVU477
	.loc 2 18 43 is_stmt 0 view .LVU478
.LBE375:
.LBE374:
.LBB380:
.LBI380:
	.loc 2 18 15 is_stmt 1 view .LVU479
.LBB381:
	.loc 2 18 43 view .LVU480
	.loc 2 18 43 is_stmt 0 view .LVU481
.LBE381:
.LBE380:
.LBB383:
.LBI383:
	.loc 2 16 15 is_stmt 1 view .LVU482
.LBB384:
	.loc 2 16 44 view .LVU483
	.loc 2 16 44 is_stmt 0 view .LVU484
.LBE384:
.LBE383:
.LBB387:
.LBI387:
	.loc 2 16 15 is_stmt 1 view .LVU485
.LBB388:
	.loc 2 16 44 view .LVU486
.LBE388:
.LBE387:
.LBB392:
.LBB376:
	.loc 2 18 50 is_stmt 0 view .LVU487
	vldr.32	s13, .L197+48
.LBE376:
.LBE392:
.LBB393:
.LBB382:
	vmul.f32	s23, s26, s14
	vmul.f32	s22, s27, s14
.LBE382:
.LBE393:
.LBB394:
.LBB377:
	vldr.32	s9, [fp, #60]
	vldr.32	s10, [fp, #68]
.LBE377:
.LBE394:
.LBB395:
.LBB385:
	.loc 2 16 51 view .LVU488
	vmla.f32	s15, s25, s14
.LVL71:
	.loc 2 16 51 view .LVU489
.LBE385:
.LBE395:
.LBB396:
.LBB390:
	vldr.32	s12, [fp]
	vldr.32	s11, [fp, #4]
	vldr.32	s14, [fp, #8]
.LVL72:
	.loc 2 16 51 view .LVU490
.LBE390:
.LBE396:
.LBB397:
.LBB386:
	vmla.f32	s23, s9, s13
.LVL73:
	.loc 2 16 51 view .LVU491
	vmla.f32	s22, s10, s13
.LVL74:
	.loc 2 16 51 view .LVU492
.LBE386:
.LBE397:
.LBB398:
.LBB391:
	vadd.f32	s18, s15, s11
	vadd.f32	s23, s23, s12
.LVL75:
	.loc 2 16 51 view .LVU493
	vadd.f32	s22, s22, s14
.LVL76:
.LBB389:
.LBI389:
	.loc 2 14 15 is_stmt 1 view .LVU494
	.loc 2 14 51 view .LVU495
	.loc 2 14 51 is_stmt 0 view .LVU496
.LBE389:
.LBE391:
.LBE398:
	.loc 1 245 20 view .LVU497
	mov	r3, #0
.LBB399:
.LBB370:
	.loc 1 253 8 view .LVU498
	vldr.32	s21, .L197+16
.LBB350:
.LBB351:
	.loc 4 9 109 view .LVU499
	vldr.32	s20, .L197+20
	vstr.32	s18, [sp, #112]
	vstr.32	s23, [sp, #108]
	vstr.32	s22, [sp, #116]
.LVL77:
	.loc 4 9 109 view .LVU500
.LBE351:
.LBE350:
.LBE370:
.LBE399:
	.loc 1 241 3 is_stmt 1 view .LVU501
	.loc 1 243 2 view .LVU502
	.loc 1 245 3 view .LVU503
	.loc 1 246 3 view .LVU504
.LBB400:
	.loc 1 246 8 view .LVU505
	.loc 1 246 21 view .LVU506
	add	r2, sp, #132
.LBE400:
	.loc 1 241 10 is_stmt 0 view .LVU507
	add	ip, sp, #120
	str	r2, [sp, #64]
	ldm	fp, {r0, r1, r2}
	stm	ip, {r0, r1, r2}
	.loc 1 243 7 view .LVU508
	str	r3, [sp, #76]
	.loc 1 245 20 view .LVU509
	strb	r3, [fp, #32]
.LVL78:
.L121:
.LBB401:
.LBB371:
	.loc 1 247 4 is_stmt 1 view .LVU510
	.loc 1 247 19 is_stmt 0 view .LVU511
	ldr	r3, .L197+40
.LBB356:
.LBB352:
	.loc 4 9 109 view .LVU512
	vldr.32	s10, .L197+24
.LBE352:
.LBE356:
	.loc 1 247 19 view .LVU513
	ldm	r3, {r0, r1, r2}
	add	r3, sp, #132
	stm	r3, {r0, r1, r2}
	.loc 1 249 11 view .LVU514
	add	r3, sp, #120
	ldm	r3, {r0, r1, r2}
	add	r3, sp, #144
	stm	r3, {r0, r1, r2}
	.loc 1 247 8 view .LVU515
	ldr	r3, [sp, #64]
	ldr	r2, [r3], #4
	str	r3, [sp, #64]
.LVL79:
	.loc 1 248 3 is_stmt 1 view .LVU516
	.loc 1 249 4 view .LVU517
	.loc 1 251 4 view .LVU518
	.loc 1 251 28 is_stmt 0 view .LVU519
	add	r3, sp, #216
	add	r3, r3, r2, lsl #2
	vldr.32	s19, [r3, #-108]
	.loc 1 251 18 view .LVU520
	vstr.32	s19, [r3, #-72]
	.loc 1 252 4 is_stmt 1 view .LVU521
	.loc 1 253 27 is_stmt 0 view .LVU522
	vldr.32	s11, [sp, #144]
.LBB357:
.LBB340:
.LBB329:
.LBB318:
.LBB268:
.LBB269:
	.loc 3 25 47 view .LVU523
	vcvt.s32.f32	s14, s11
.LBE269:
.LBE268:
.LBE318:
.LBE329:
.LBE340:
.LBE357:
	.loc 1 253 67 view .LVU524
	vldr.32	s12, [sp, #152]
.LBB358:
.LBB341:
.LBB330:
.LBB319:
.LBB277:
.LBB270:
	.loc 3 25 58 view .LVU525
	vcvt.f32.s32	s2, s14
.LBE270:
.LBE277:
.LBE319:
.LBE330:
.LBE341:
.LBE358:
	.loc 1 253 8 view .LVU526
	vldr.32	s13, [sp, #148]
.LBB359:
.LBB342:
.LBB331:
.LBB320:
.LBB278:
.LBB279:
	.loc 3 25 47 view .LVU527
	vcvt.s32.f32	s15, s12
.LBE279:
.LBE278:
.LBB287:
.LBB271:
	.loc 3 25 58 view .LVU528
	vcmpe.f32	s11, s2
.LBE271:
.LBE287:
.LBB288:
.LBB289:
	.loc 3 25 47 view .LVU529
	vcvt.s32.f32	s9, s13
.LBE289:
.LBE288:
.LBB296:
.LBB280:
	.loc 3 25 58 view .LVU530
	vcvt.f32.s32	s5, s15
.LBE280:
.LBE296:
.LBE320:
.LBE331:
.LBE342:
.LBE359:
	.loc 1 247 8 view .LVU531
	str	r2, [sp, #68]
	.loc 1 251 28 view .LVU532
	lsl	r2, r2, #2
.LVL80:
.LBB360:
.LBB343:
.LBB332:
.LBB321:
.LBB297:
.LBB272:
	.loc 3 25 58 view .LVU533
	vmrs	APSR_nzcv, FPSCR
.LBE272:
.LBE297:
.LBE321:
.LBE332:
.LBE343:
.LBE360:
	.loc 1 251 28 view .LVU534
	str	r2, [sp, #72]
	.loc 1 248 8 view .LVU535
	mov	r2, #0
.LBB361:
.LBB344:
.LBB333:
.LBB322:
.LBB298:
.LBB281:
	.loc 3 25 58 view .LVU536
	vcmpe.f32	s12, s5
.LBE281:
.LBE298:
.LBB299:
.LBB290:
	vcvt.f32.s32	s6, s9
.LBE290:
.LBE299:
.LBB300:
.LBB273:
	movpl	r3, r2
	movmi	r3, #1
.LBE273:
.LBE300:
.LBE322:
.LBE333:
.LBE344:
.LBE361:
	.loc 1 248 8 view .LVU537
	str	r2, [sp, #52]
.LBB362:
.LBB345:
.LBB334:
.LBB323:
.LBB301:
.LBB274:
	.loc 3 25 56 view .LVU538
	vmov	r2, s14	@ int
.LBE274:
.LBE301:
.LBB302:
.LBB282:
	.loc 3 25 58 view .LVU539
	vmrs	APSR_nzcv, FPSCR
.LBE282:
.LBE302:
.LBB303:
.LBB291:
	vcmpe.f32	s13, s6
.LBE291:
.LBE303:
.LBE323:
.LBE334:
.LBE345:
.LBE362:
	.loc 1 253 8 view .LVU540
	vsub.f32	s7, s11, s21
	vsub.f32	s8, s12, s21
.LVL81:
.LBB363:
.LBI350:
	.loc 4 9 12 is_stmt 1 view .LVU541
.LBB353:
	.loc 4 9 79 view .LVU542
.LBE353:
.LBE363:
.LBB364:
.LBB346:
.LBB335:
.LBB324:
.LBB304:
.LBB275:
	.loc 3 25 56 is_stmt 0 view .LVU543
	sub	r3, r2, r3
	sub	r6, r3, #1
	add	r3, r3, #2
.LBE275:
.LBE304:
.LBB305:
.LBB283:
	.loc 3 25 58 view .LVU544
	movmi	r2, #1
	movpl	r2, #0
	str	r3, [sp, #56]
.LBE283:
.LBE305:
.LBB306:
.LBB292:
	vmrs	APSR_nzcv, FPSCR
.LBE292:
.LBE306:
.LBB307:
.LBB284:
	.loc 3 25 56 view .LVU545
	vmov	r3, s15	@ int
.LBE284:
.LBE307:
.LBE324:
.LBE335:
.LBE346:
.LBE364:
.LBB365:
.LBB354:
	.loc 4 9 109 view .LVU546
	vadd.f32	s10, s13, s10
	vadd.f32	s3, s7, s20
	vadd.f32	s4, s8, s20
.LBE354:
.LBE365:
.LBB366:
.LBB347:
.LBB336:
.LBB325:
.LBB308:
.LBB285:
	.loc 3 25 56 view .LVU547
	sub	r7, r3, r2
.LBE285:
.LBE308:
.LBB309:
.LBB293:
	.loc 3 25 58 view .LVU548
	movmi	r3, #1
	movpl	r3, #0
	.loc 3 25 56 view .LVU549
	vmov	r2, s9	@ int
.LBE293:
.LBE309:
.LBE325:
.LBE336:
.LBE347:
.LBE366:
.LBB367:
.LBB355:
	.loc 4 9 86 view .LVU550
	vstr.32	s13, [sp, #172]
	vstr.32	s7, [sp, #168]
	vstr.32	s8, [sp, #176]
	vstr.32	s10, [sp, #184]
	vstr.32	s3, [sp, #180]
	vstr.32	s4, [sp, #188]
.LVL82:
	.loc 4 9 86 view .LVU551
.LBE355:
.LBE367:
	.loc 1 256 4 is_stmt 1 view .LVU552
.LBB368:
	.loc 1 256 9 view .LVU553
	.loc 1 256 23 view .LVU554
.LBB348:
.LBB337:
.LBB326:
.LBB310:
.LBB294:
	.loc 3 25 56 is_stmt 0 view .LVU555
	sub	r3, r2, r3
	sub	r9, r7, #1
	str	r3, [sp, #60]
	add	r7, r7, #2
	add	r10, r3, #3
.LVL83:
.L108:
	.loc 3 25 56 view .LVU556
.LBE294:
.LBE310:
.LBE326:
.LBE337:
	.loc 1 257 23 is_stmt 1 view .LVU557
	ldr	r5, [sp, #60]
.LVL84:
.L113:
.LBB338:
	.loc 1 258 25 view .LVU558
	mov	r4, r9
.LBB327:
.LBB311:
	.loc 1 268 12 is_stmt 0 view .LVU559
	mov	r8, #0
.LVL85:
.L110:
	.loc 1 268 12 view .LVU560
.LBE311:
	.loc 1 259 7 is_stmt 1 view .LVU561
.LBB312:
.LBI268:
	.loc 3 25 19 view .LVU562
.LBB276:
	.loc 3 25 40 view .LVU563
	.loc 3 25 40 is_stmt 0 view .LVU564
.LBE276:
.LBE312:
	.loc 1 260 7 is_stmt 1 view .LVU565
.LBB313:
.LBI288:
	.loc 3 25 19 view .LVU566
.LBB295:
	.loc 3 25 40 view .LVU567
	.loc 3 25 40 is_stmt 0 view .LVU568
.LBE295:
.LBE313:
	.loc 1 261 7 is_stmt 1 view .LVU569
.LBB314:
.LBI278:
	.loc 3 25 19 view .LVU570
.LBB286:
	.loc 3 25 40 view .LVU571
	.loc 3 25 40 is_stmt 0 view .LVU572
.LBE286:
.LBE314:
	.loc 1 262 7 is_stmt 1 view .LVU573
	.loc 1 262 11 is_stmt 0 view .LVU574
	mov	r3, r4
	mov	r2, r5
	mov	r1, r6
	ldr	r0, [fp, #40]
	bl	World_GetBlock
.LVL86:
	.loc 1 262 10 view .LVU575
	cmp	r0, #0
	bne	.L190
.L109:
	.loc 1 262 10 view .LVU576
.LBE327:
	.loc 1 258 31 is_stmt 1 discriminator 2 view .LVU577
	.loc 1 258 25 discriminator 2 view .LVU578
	add	r4, r4, #1
.LVL87:
	.loc 1 258 25 is_stmt 0 discriminator 2 view .LVU579
	cmp	r7, r4
	bne	.L110
.LBE338:
	.loc 1 257 29 is_stmt 1 discriminator 2 view .LVU580
	.loc 1 257 23 discriminator 2 view .LVU581
	add	r5, r5, #1
	cmp	r10, r5
	bne	.L113
.LBE348:
	.loc 1 256 29 discriminator 2 view .LVU582
	.loc 1 256 23 discriminator 2 view .LVU583
	ldr	r3, [sp, #56]
	add	r6, r6, #1
	.loc 1 256 23 is_stmt 0 discriminator 2 view .LVU584
	cmp	r3, r6
	bne	.L108
.LBE368:
	.loc 1 276 4 is_stmt 1 view .LVU585
	.loc 1 276 7 is_stmt 0 view .LVU586
	ldr	r3, [sp, #52]
	cmp	r3, #0
	bne	.L114
	.loc 1 277 5 is_stmt 1 view .LVU587
	.loc 1 277 19 is_stmt 0 view .LVU588
	ldr	r3, [sp, #72]
	add	r3, r3, #216
	add	r3, sp, r3
	vstr.32	s19, [r3, #-96]
.L115:
.LBE371:
	.loc 1 246 27 is_stmt 1 discriminator 2 view .LVU589
	.loc 1 246 21 discriminator 2 view .LVU590
	ldr	r2, [sp, #64]
	add	r3, sp, #144
	cmp	r3, r2
	bne	.L121
.LBE401:
	.loc 1 293 3 view .LVU591
	.loc 1 295 6 is_stmt 0 view .LVU592
	ldrb	r3, [fp, #32]	@ zero_extendqisi2
	vldr.32	s28, [fp]
	cmp	r3, #0
	vldr.32	s15, [fp, #4]
	vldr.32	s29, [fp, #8]
	vldr.32	s19, [sp, #120]
.LVL88:
	.loc 1 295 6 view .LVU593
	vldr.32	s21, [sp, #124]
.LVL89:
	.loc 1 295 6 view .LVU594
	vldr.32	s20, [sp, #128]
.LVL90:
.LBB402:
.LBI402:
	.loc 2 17 15 is_stmt 1 view .LVU595
.LBB403:
	.loc 2 17 44 view .LVU596
	.loc 2 17 44 is_stmt 0 view .LVU597
.LBE403:
.LBE402:
	.loc 1 295 3 is_stmt 1 view .LVU598
	.loc 1 295 6 is_stmt 0 view .LVU599
	beq	.L122
	.loc 1 295 24 discriminator 1 view .LVU600
	ldrb	r2, [fp, #35]	@ zero_extendqisi2
	cmp	r2, #0
	.loc 1 295 43 is_stmt 1 discriminator 1 view .LVU601
	.loc 1 295 58 is_stmt 0 discriminator 1 view .LVU602
	movne	r2, #0
	strbne	r2, [fp, #35]
.L122:
	.loc 1 297 3 is_stmt 1 view .LVU603
	.loc 1 297 6 is_stmt 0 view .LVU604
	ldr	r2, [sp, #76]
	cmp	r2, #0
	beq	.L123
	.loc 1 297 21 discriminator 1 view .LVU605
	ldrb	r2, [fp, #56]	@ zero_extendqisi2
	cmp	r2, #0
	bne	.L191
.LVL91:
.L123:
	.loc 1 306 3 is_stmt 1 view .LVU606
	.loc 1 306 6 is_stmt 0 view .LVU607
	ldrb	r2, [fp, #36]	@ zero_extendqisi2
	.loc 1 306 34 view .LVU608
	vldr.32	s14, [fp, #28]
	.loc 1 306 6 view .LVU609
	cmp	r2, #0
	beq	.L127
	.loc 1 306 25 discriminator 1 view .LVU610
	vldr.32	s15, .L197+28
	vcmpe.f32	s14, s15
	vmrs	APSR_nzcv, FPSCR
	.loc 1 306 55 is_stmt 1 discriminator 2 view .LVU611
	.loc 1 306 73 is_stmt 0 discriminator 2 view .LVU612
	vldrgt.32	s15, .L197+64
	vsubgt.f32	s14, s14, s15
	vstrgt.32	s14, [fp, #28]
.L128:
	.loc 1 307 3 is_stmt 1 view .LVU613
	.loc 1 309 3 view .LVU614
	.loc 1 309 46 is_stmt 0 view .LVU615
	ldr	r2, [sp, #80]
	.loc 1 309 25 view .LVU616
	eor	r3, r3, #1
	.loc 1 309 46 view .LVU617
	tst	r2, r3
	bne	.L192
.LVL92:
.L189:
	.loc 1 317 22 view .LVU618
	vldr.32	s15, [fp, #64]
.LVL93:
.L130:
	.loc 1 316 3 is_stmt 1 view .LVU619
	.loc 1 317 22 is_stmt 0 view .LVU620
	vldr.32	s13, [fp, #60]
	vldr.32	s12, .L197+32
	vmul.f32	s13, s13, s12
	vldr.32	s14, [fp, #68]
	.loc 1 318 81 view .LVU621
	vcmpe.f32	s13, #0
	.loc 1 317 22 view .LVU622
	vmul.f32	s14, s14, s12
	.loc 1 318 81 view .LVU623
	vmrs	APSR_nzcv, FPSCR
	.loc 1 316 20 view .LVU624
	add	r3, sp, #120
	ldm	r3, {r0, r1, r2}
	.loc 1 317 22 view .LVU625
	vstr.32	s15, [fp, #64]
	vstr.32	s13, [fp, #60]
	vstr.32	s14, [fp, #68]
	.loc 1 316 20 view .LVU626
	stm	fp, {r0, r1, r2}
	.loc 1 317 3 is_stmt 1 view .LVU627
	.loc 1 318 3 view .LVU628
	.loc 1 318 81 is_stmt 0 view .LVU629
	bmi	.L193
	.loc 1 318 81 discriminator 2 view .LVU630
	vldr.32	s12, .L197+36
	vcmpe.f32	s13, s12
	vmrs	APSR_nzcv, FPSCR
	movmi	r3, #1
	movpl	r3, #0
.L134:
	.loc 1 319 81 view .LVU631
	vcmpe.f32	s14, #0
	.loc 1 318 6 view .LVU632
	cmp	r3, #0
	.loc 1 318 108 view .LVU633
	vstrne.32	s16, [fp, #60]
	.loc 1 319 3 is_stmt 1 view .LVU634
	.loc 1 319 81 is_stmt 0 view .LVU635
	vmrs	APSR_nzcv, FPSCR
	bmi	.L194
	.loc 1 319 81 discriminator 2 view .LVU636
	vldr.32	s13, .L197+36
	vcmpe.f32	s14, s13
	vmrs	APSR_nzcv, FPSCR
	movmi	r3, #1
	movpl	r3, #0
.L137:
	.loc 1 321 24 view .LVU637
	vldr.32	s14, [fp, #72]
	vldr.32	s13, .L197+48
	vsub.f32	s14, s14, s13
.LBE250:
	.loc 1 224 30 view .LVU638
	vcmpe.f32	s14, s13
.LBB479:
	.loc 1 319 6 view .LVU639
	cmp	r3, #0
	.loc 1 319 108 view .LVU640
	vstrne.32	s16, [fp, #68]
	.loc 1 321 3 is_stmt 1 view .LVU641
.LBE479:
	.loc 1 224 30 is_stmt 0 view .LVU642
	vmrs	APSR_nzcv, FPSCR
.LBB480:
	.loc 1 321 24 view .LVU643
	vstr.32	s14, [fp, #72]
	.loc 1 321 24 view .LVU644
.LBE480:
	.loc 1 224 30 is_stmt 1 view .LVU645
	bge	.L138
.LVL94:
.L103:
	.loc 1 323 1 is_stmt 0 view .LVU646
	add	sp, sp, #220
	.cfi_remember_state
	.cfi_def_cfa_offset 92
	@ sp needed
	vldm	sp!, {d8-d14}
	.cfi_restore 92
	.cfi_restore 93
	.cfi_restore 90
	.cfi_restore 91
	.cfi_restore 88
	.cfi_restore 89
	.cfi_restore 86
	.cfi_restore 87
	.cfi_restore 84
	.cfi_restore 85
	.cfi_restore 82
	.cfi_restore 83
	.cfi_restore 80
	.cfi_restore 81
	.cfi_def_cfa_offset 36
	pop	{r4, r5, r6, r7, r8, r9, r10, fp, pc}
.L198:
	.align	2
.L197:
	.word	-1035468800
	.word	0
	.word	1065353216
	.word	1051372203
	.word	1051092582
	.word	1059481190
	.word	1072064102
	.word	-1097229926
	.word	1064514355
	.word	1036831949
	.word	.LANCHOR0
	.word	1087792742
	.word	1015580809
	.word	995783695
	.word	1008981771
	.word	1066192077
	.word	1023969417
	.word	-1110651699
	.word	1007192201
.LVL95:
.L190:
	.cfi_restore_state
.LBB481:
.LBB405:
.LBB372:
.LBB369:
.LBB349:
.LBB339:
.LBB328:
	.loc 1 262 67 discriminator 1 view .LVU647
	mov	r3, r4
	mov	r2, r5
	mov	r1, r6
	ldr	r0, [fp, #40]
	bl	World_GetBlock
.LVL96:
	.loc 1 262 65 discriminator 1 view .LVU648
	cmp	r0, #27
	beq	.L109
	.loc 1 263 9 view .LVU649
	mov	r3, r4
	mov	r2, r5
	mov	r1, r6
	ldr	r0, [fp, #40]
	bl	World_GetBlock
.LVL97:
.LBB315:
	.loc 1 264 8 is_stmt 1 view .LVU650
.LBE315:
	.loc 1 263 7 is_stmt 0 view .LVU651
	cmp	r0, #26
.LBB316:
	.loc 1 270 25 view .LVU652
	add	ip, sp, #8
	add	lr, sp, #168
.LBE316:
	.loc 1 263 7 view .LVU653
	beq	.L109
.LBB317:
	.loc 1 264 23 view .LVU654
	vmov	s15, r4	@ int
	vcvt.f32.s32	s13, s15
	vmov	s15, r6	@ int
	vcvt.f32.s32	s14, s15
.LVL98:
	.loc 1 264 23 view .LVU655
	vmov	s15, r5	@ int
	vcvt.f32.s32	s15, s15
.LVL99:
.LBB264:
.LBI258:
	.loc 4 9 12 is_stmt 1 view .LVU656
.LBB260:
	.loc 4 9 79 view .LVU657
	.loc 4 9 109 is_stmt 0 view .LVU658
	vadd.f32	s10, s13, s17
	vadd.f32	s12, s15, s17
	vadd.f32	s11, s14, s17
.LBE260:
.LBE264:
	.loc 1 270 25 view .LVU659
	add	r3, sp, #104
	str	r3, [sp, #44]
	add	r3, sp, #100
	str	r3, [sp, #40]
	add	r3, sp, #156
	str	r3, [sp, #36]
	ldmia	lr!, {r0, r1, r2, r3}
	str	r8, [sp, #32]
	stmia	ip!, {r0, r1, r2, r3}
	.loc 1 266 24 view .LVU660
	vstr.32	s16, [sp, #156]
	.loc 1 270 25 view .LVU661
	ldm	lr, {r0, r1}
	.loc 1 266 24 view .LVU662
	vstr.32	s16, [sp, #160]
	vstr.32	s16, [sp, #164]
	.loc 1 270 25 view .LVU663
	stm	ip, {r0, r1}
.LBB265:
.LBB261:
	.loc 4 9 86 view .LVU664
	vstr.32	s10, [sp, #212]
.LVL100:
	.loc 4 9 86 view .LVU665
.LBE261:
.LBE265:
	.loc 1 266 8 is_stmt 1 view .LVU666
	.loc 1 267 8 view .LVU667
	.loc 1 268 8 view .LVU668
	.loc 1 270 7 view .LVU669
.LBB266:
.LBB262:
	.loc 4 9 86 is_stmt 0 view .LVU670
	vstr.32	s12, [sp, #208]
	vstr.32	s13, [sp, #200]
	vstr.32	s11, [sp, #204]
.LBE262:
.LBE266:
	.loc 1 270 25 view .LVU671
	add	r3, sp, #216
	ldmdb	r3, {r0, r1}
	stm	sp, {r0, r1}
	add	r3, sp, #192
.LBB267:
.LBB263:
	.loc 4 9 86 view .LVU672
	vstr.32	s14, [sp, #192]
	vstr.32	s15, [sp, #196]
.LBE263:
.LBE267:
	.loc 1 267 14 view .LVU673
	vstr.32	s16, [sp, #100]
	.loc 1 268 12 view .LVU674
	str	r8, [sp, #104]
	.loc 1 270 25 view .LVU675
	ldm	r3, {r0, r1, r2, r3}
	bl	Collision_BoxIntersect
.LVL101:
	.loc 1 271 8 is_stmt 1 view .LVU676
	.loc 1 271 18 is_stmt 0 view .LVU677
	ldr	r3, [sp, #52]
	orr	r0, r0, r3
.LVL102:
	.loc 1 271 18 view .LVU678
	uxtb	r3, r0
	str	r3, [sp, #52]
.LVL103:
	.loc 1 271 18 view .LVU679
	b	.L109
.LVL104:
.L114:
	.loc 1 271 18 view .LVU680
.LBE317:
.LBE328:
.LBE339:
.LBE349:
.LBE369:
	.loc 1 278 9 is_stmt 1 view .LVU681
	.loc 1 278 12 is_stmt 0 view .LVU682
	ldr	r3, [sp, #68]
	cmp	r3, #1
	beq	.L195
	.loc 1 285 5 is_stmt 1 view .LVU683
.LVL105:
	.loc 1 286 5 view .LVU684
	.loc 1 286 8 is_stmt 0 view .LVU685
	ldr	r3, [sp, #68]
	cmp	r3, #0
	.loc 1 287 6 is_stmt 1 view .LVU686
	.loc 1 285 19 is_stmt 0 view .LVU687
	ldr	r3, [sp, #52]
	.loc 1 287 25 view .LVU688
	vstreq.32	s16, [fp, #60]
	.loc 1 289 6 is_stmt 1 view .LVU689
	.loc 1 289 25 is_stmt 0 view .LVU690
	vstrne.32	s16, [fp, #68]
	.loc 1 285 19 view .LVU691
	str	r3, [sp, #76]
	b	.L115
.LVL106:
.L195:
	.loc 1 279 5 is_stmt 1 view .LVU692
	.loc 1 279 8 is_stmt 0 view .LVU693
	vldr.32	s15, [fp, #64]
	vcmpe.f32	s15, #0
	vmrs	APSR_nzcv, FPSCR
	bmi	.L117
	.loc 1 279 34 discriminator 2 view .LVU694
	vcmpe.f32	s25, #0
	vmrs	APSR_nzcv, FPSCR
	bmi	.L117
.L118:
	.loc 1 280 5 is_stmt 1 view .LVU695
	.loc 1 280 20 is_stmt 0 view .LVU696
	mov	r3, #0
	.loc 1 281 24 view .LVU697
	vstr.32	s16, [fp, #60]
	.loc 1 282 24 view .LVU698
	vstr.32	s16, [fp, #64]
	.loc 1 283 24 view .LVU699
	vstr.32	s16, [fp, #68]
	.loc 1 280 20 view .LVU700
	strb	r3, [fp, #33]
	.loc 1 281 5 is_stmt 1 view .LVU701
	.loc 1 282 5 view .LVU702
	.loc 1 283 5 view .LVU703
	b	.L115
.LVL107:
.L106:
	.loc 1 283 5 is_stmt 0 view .LVU704
.LBE372:
.LBE405:
	.loc 1 230 3 is_stmt 1 view .LVU705
	.loc 1 231 3 view .LVU706
.LBB406:
.LBB378:
	.loc 2 18 50 is_stmt 0 view .LVU707
	vldr.32	s14, .L197+48
.LBE378:
.LBE406:
	.loc 1 231 6 view .LVU708
	ldr	r2, [sp, #80]
.LBB407:
.LBB379:
	.loc 2 18 50 view .LVU709
	vmul.f32	s15, s15, s14
.LBE379:
.LBE407:
	.loc 1 231 6 view .LVU710
	cmp	r2, #0
	bne	.L196
	.loc 1 232 4 is_stmt 1 view .LVU711
	.loc 1 232 7 is_stmt 0 view .LVU712
	vldr.32	s14, .L197+52
	vldr.32	s13, .L197+56
	.loc 1 232 14 view .LVU713
	ldrb	r3, [fp, #33]	@ zero_extendqisi2
	.loc 1 232 7 view .LVU714
	cmp	r3, #0
	vmoveq.f32	s14, s13
	b	.L107
.LVL108:
.L191:
.LBB408:
	.loc 1 298 4 is_stmt 1 view .LVU715
.LBB409:
.LBI409:
	.loc 2 17 15 view .LVU716
.LBB410:
	.loc 2 17 44 view .LVU717
	.loc 2 17 51 is_stmt 0 view .LVU718
	vsub.f32	s18, s18, s15
.LVL109:
	.loc 2 17 51 view .LVU719
	vsub.f32	s23, s23, s28
.LVL110:
	.loc 2 17 51 view .LVU720
.LBE410:
.LBE409:
.LBB412:
.LBB413:
.LBB414:
.LBB415:
.LBB416:
.LBB417:
	.loc 2 20 66 view .LVU721
	vmul.f32	s0, s18, s18
.LBE417:
.LBE416:
.LBE415:
.LBE414:
.LBE413:
.LBE412:
.LBB428:
.LBB411:
	.loc 2 17 51 view .LVU722
	vsub.f32	s22, s22, s29
.LVL111:
	.loc 2 17 51 view .LVU723
.LBE411:
.LBE428:
.LBB429:
.LBI412:
	.loc 2 25 15 is_stmt 1 view .LVU724
.LBB424:
	.loc 2 26 2 view .LVU725
.LBB422:
.LBI414:
	.loc 2 23 14 view .LVU726
.LBB420:
	.loc 2 23 35 view .LVU727
.LBB419:
.LBI416:
	.loc 2 20 14 view .LVU728
.LBB418:
	.loc 2 20 43 view .LVU729
	.loc 2 20 60 is_stmt 0 view .LVU730
	vmla.f32	s0, s23, s23
	.loc 2 20 72 view .LVU731
	vmla.f32	s0, s22, s22
.LVL112:
	.loc 2 20 72 view .LVU732
	vcmp.f32	s0, #0
	vmrs	APSR_nzcv, FPSCR
	bmi	.L185
.LBE418:
.LBE419:
	.loc 2 23 42 view .LVU733
	vsqrt.f32	s15, s0
.LVL113:
.L126:
	.loc 2 23 42 view .LVU734
.LBE420:
.LBE422:
	.loc 2 27 2 is_stmt 1 view .LVU735
	.loc 2 27 2 is_stmt 0 view .LVU736
.LBE424:
.LBE429:
	.loc 1 299 4 is_stmt 1 view .LVU737
.LBB430:
.LBB425:
	.loc 2 27 9 is_stmt 0 view .LVU738
	vdiv.f32	s11, s23, s15
.LVL114:
	.loc 2 27 9 view .LVU739
	vdiv.f32	s12, s18, s15
.LVL115:
	.loc 2 27 9 view .LVU740
.LBE425:
.LBE430:
	.loc 1 299 18 view .LVU741
	vadd.f32	s11, s11, s19
.LVL116:
.LBB431:
.LBI431:
	.loc 3 25 19 is_stmt 1 view .LVU742
.LBB432:
	.loc 3 25 40 view .LVU743
.LBE432:
.LBE431:
	.loc 1 300 12 is_stmt 0 view .LVU744
	vadd.f32	s12, s12, s21
.LVL117:
.LBB439:
.LBB426:
	.loc 2 27 9 view .LVU745
	vdiv.f32	s13, s22, s15
.LVL118:
	.loc 2 27 9 view .LVU746
.LBE426:
.LBE439:
.LBB440:
.LBB433:
	.loc 3 25 47 view .LVU747
	vcvt.s32.f32	s15, s11
.LVL119:
	.loc 3 25 47 view .LVU748
.LBE433:
.LBE440:
	.loc 1 299 18 view .LVU749
	vadd.f32	s13, s13, s20
.LVL120:
.LBB441:
.LBB442:
	.loc 3 25 47 view .LVU750
	vcvt.s32.f32	s10, s12
.LBE442:
.LBE441:
.LBB448:
.LBB434:
	.loc 3 25 58 view .LVU751
	vcvt.f32.s32	s7, s15
.LBE434:
.LBE448:
.LBB449:
.LBB450:
	.loc 3 25 47 view .LVU752
	vcvt.s32.f32	s14, s13
.LBE450:
.LBE449:
.LBB456:
.LBB435:
	.loc 3 25 58 view .LVU753
	vcmpe.f32	s11, s7
.LBE435:
.LBE456:
.LBB457:
.LBB443:
	vcvt.f32.s32	s8, s10
.LBE443:
.LBE457:
.LBB458:
.LBB436:
	vmrs	APSR_nzcv, FPSCR
.LBE436:
.LBE458:
.LBB459:
.LBB451:
	vcvt.f32.s32	s9, s14
.LBE451:
.LBE459:
.LBB460:
.LBB444:
	vcmpe.f32	s12, s8
.LBE444:
.LBE460:
.LBB461:
.LBB437:
	movmi	r3, #1
	movpl	r3, #0
	.loc 3 25 56 view .LVU754
	vmov	r2, s15	@ int
.LBE437:
.LBE461:
.LBB462:
.LBB445:
	.loc 3 25 58 view .LVU755
	vmrs	APSR_nzcv, FPSCR
.LBE445:
.LBE462:
.LBB463:
.LBB452:
	vcmpe.f32	s13, s9
.LBE452:
.LBE463:
.LBB464:
.LBB438:
	.loc 3 25 56 view .LVU756
	sub	r1, r2, r3
.LVL121:
	.loc 3 25 56 view .LVU757
.LBE438:
.LBE464:
.LBB465:
.LBI441:
	.loc 3 25 19 is_stmt 1 view .LVU758
.LBB446:
	.loc 3 25 40 view .LVU759
	.loc 3 25 58 is_stmt 0 view .LVU760
	movmi	r3, #1
	movpl	r3, #0
	.loc 3 25 56 view .LVU761
	vmov	r2, s10	@ int
.LBE446:
.LBE465:
.LBB466:
.LBB453:
	.loc 3 25 58 view .LVU762
	vmrs	APSR_nzcv, FPSCR
.LBE453:
.LBE466:
.LBB467:
.LBB447:
	.loc 3 25 56 view .LVU763
	sub	r4, r2, r3
.LVL122:
	.loc 3 25 56 view .LVU764
.LBE447:
.LBE467:
.LBB468:
.LBI449:
	.loc 3 25 19 is_stmt 1 view .LVU765
.LBB454:
	.loc 3 25 40 view .LVU766
	.loc 3 25 56 is_stmt 0 view .LVU767
	vmov	ip, s14	@ int
	.loc 3 25 58 view .LVU768
	movmi	r3, #1
	movpl	r3, #0
.LBE454:
.LBE468:
	.loc 1 299 18 view .LVU769
	add	r2, r4, #2
.LBB469:
.LBB455:
	.loc 3 25 56 view .LVU770
	sub	r3, ip, r3
.LVL123:
	.loc 3 25 56 view .LVU771
.LBE455:
.LBE469:
	.loc 1 299 18 view .LVU772
	ldr	r0, [fp, #40]
	str	r1, [sp, #56]
	str	r3, [sp, #52]
.LVL124:
	.loc 1 299 18 view .LVU773
	bl	World_GetBlock
.LVL125:
	.loc 1 301 4 is_stmt 1 view .LVU774
	.loc 1 301 25 is_stmt 0 view .LVU775
	ldr	r3, [sp, #52]
	ldr	r1, [sp, #56]
	ldr	r0, [fp, #40]
	add	r2, r4, #1
	bl	World_GetBlock
.LVL126:
	.loc 1 303 4 is_stmt 1 view .LVU776
	.loc 1 303 149 view .LVU777
.LBB470:
.LBI470:
	.loc 1 207 6 view .LVU778
.LBB471:
	.loc 1 208 2 view .LVU779
	.loc 1 208 5 is_stmt 0 view .LVU780
	ldrb	r3, [fp, #32]	@ zero_extendqisi2
	cmp	r3, #0
	beq	.L123
	.loc 1 208 23 view .LVU781
	ldrb	r2, [fp, #35]	@ zero_extendqisi2
	cmp	r2, #0
	bne	.L123
	.loc 1 209 3 is_stmt 1 view .LVU782
	.loc 1 209 31 is_stmt 0 view .LVU783
	vldr.32	s15, .L197+60
	vmul.f32	s13, s26, s15
	.loc 1 210 31 view .LVU784
	vmul.f32	s15, s27, s15
	.loc 1 211 22 view .LVU785
	ldr	r3, .L197+44
	vldr.32	s14, [fp, #28]
	str	r3, [fp, #64]	@ float
	.loc 1 212 18 view .LVU786
	mov	r3, #1
	.loc 1 209 22 view .LVU787
	vstr.32	s13, [fp, #60]
	.loc 1 210 3 is_stmt 1 view .LVU788
	.loc 1 210 22 is_stmt 0 view .LVU789
	vstr.32	s15, [fp, #68]
	.loc 1 211 3 is_stmt 1 view .LVU790
	.loc 1 212 3 view .LVU791
	.loc 1 213 3 view .LVU792
.LVL127:
	.loc 1 213 3 is_stmt 0 view .LVU793
.LBE471:
.LBE470:
.LBE408:
	.loc 1 306 3 is_stmt 1 view .LVU794
.LBB475:
.LBB473:
.LBB472:
	.loc 1 213 21 is_stmt 0 view .LVU795
	strb	r2, [fp, #36]
	.loc 1 212 18 view .LVU796
	strb	r3, [fp, #33]
.L127:
	.loc 1 212 18 view .LVU797
.LBE472:
.LBE473:
.LBE475:
	.loc 1 307 3 is_stmt 1 view .LVU798
	.loc 1 307 26 is_stmt 0 view .LVU799
	vcmpe.f32	s14, #0
	vmrs	APSR_nzcv, FPSCR
	bpl	.L189
	.loc 1 307 55 is_stmt 1 discriminator 2 view .LVU800
	.loc 1 307 73 is_stmt 0 discriminator 2 view .LVU801
	vldr.32	s13, .L197+64
	vadd.f32	s14, s14, s13
	.loc 1 317 22 discriminator 2 view .LVU802
	vldr.32	s15, [fp, #64]
	.loc 1 307 73 discriminator 2 view .LVU803
	vstr.32	s14, [fp, #28]
	b	.L130
.LVL128:
.L194:
	.loc 1 319 81 discriminator 1 view .LVU804
	vldr.32	s13, .L197+68
	vcmpe.f32	s14, s13
	vmrs	APSR_nzcv, FPSCR
	movgt	r3, #1
	movle	r3, #0
	b	.L137
.L193:
	.loc 1 318 81 discriminator 1 view .LVU805
	vldr.32	s12, .L197+68
	vcmpe.f32	s13, s12
	vmrs	APSR_nzcv, FPSCR
	movgt	r3, #1
	movle	r3, #0
	b	.L134
.LVL129:
.L196:
	.loc 1 236 10 is_stmt 1 view .LVU806
	.loc 1 238 8 view .LVU807
	.loc 1 238 18 is_stmt 0 view .LVU808
	ldrb	r3, [fp, #36]	@ zero_extendqisi2
	.loc 1 238 11 view .LVU809
	vldr.32	s13, .L197+72
	cmp	r3, #0
	movne	r2, r3
	vmovne.f32	s14, s13
	str	r2, [sp, #80]
	b	.L107
.LVL130:
.L117:
.LBB476:
.LBB373:
	.loc 1 279 51 is_stmt 1 discriminator 3 view .LVU810
	.loc 1 279 68 is_stmt 0 discriminator 3 view .LVU811
	mov	r3, #1
	strb	r3, [fp, #32]
	b	.L118
.LVL131:
.L192:
	.loc 1 279 68 discriminator 3 view .LVU812
.LBE373:
.LBE476:
.LBB477:
.LBB404:
	.loc 2 17 51 discriminator 3 view .LVU813
	vsub.f32	s20, s20, s29
.LVL132:
	.loc 2 17 51 discriminator 3 view .LVU814
	vsub.f32	s19, s19, s28
.LVL133:
	.loc 2 17 51 discriminator 3 view .LVU815
.LBE404:
.LBE477:
	.loc 1 309 116 discriminator 3 view .LVU816
	vcmp.f32	s20, #0
	.loc 1 309 61 discriminator 3 view .LVU817
	vldr.32	s15, [fp, #4]
	.loc 1 309 116 discriminator 3 view .LVU818
	vmrs	APSR_nzcv, FPSCR
	.loc 1 309 96 discriminator 3 view .LVU819
	vcmp.f32	s19, #0
	.loc 1 309 116 discriminator 3 view .LVU820
	movne	r3, #1
	moveq	r3, #0
	.loc 1 309 96 discriminator 3 view .LVU821
	vmrs	APSR_nzcv, FPSCR
	.loc 1 309 61 discriminator 3 view .LVU822
	vcmpe.f32	s15, s21
	.loc 1 309 116 discriminator 3 view .LVU823
	moveq	r3, #0
	andne	r3, r3, #1
	.loc 1 309 61 discriminator 3 view .LVU824
	vmrs	APSR_nzcv, FPSCR
	.loc 1 309 116 discriminator 3 view .LVU825
	movle	r3, #0
	andgt	r3, r3, #1
	cmp	r3, #0
	beq	.L189
	.loc 1 311 4 is_stmt 1 view .LVU826
	.loc 1 311 13 is_stmt 0 view .LVU827
	ldm	fp, {r0, r1, r2}
	.loc 1 312 21 view .LVU828
	mov	r3, #1
	strb	r3, [fp, #32]
	.loc 1 311 13 view .LVU829
	add	r3, sp, #120
	.loc 1 312 21 view .LVU830
	vmov.f32	s15, s16
	.loc 1 311 13 view .LVU831
	stm	r3, {r0, r1, r2}
.LVL134:
	.loc 1 312 4 is_stmt 1 view .LVU832
	.loc 1 313 4 view .LVU833
	b	.L130
.LVL135:
.L185:
.LBB478:
.LBB474:
.LBB427:
.LBB423:
.LBB421:
	.loc 2 23 42 is_stmt 0 view .LVU834
	bl	sqrtf
.LVL136:
	.loc 2 23 42 view .LVU835
	vmov.f32	s15, s0
	b	.L126
.LBE421:
.LBE423:
.LBE427:
.LBE474:
.LBE478:
.LBE481:
	.cfi_endproc
.LFE149:
	.size	Player_Move, .-Player_Move
	.section	.rodata.str1.4
	.align	2
.LC43:
	.ascii	"romfs:/assets/sound/entity/player/hit.opus\000"
	.section	.text.Player_PlaceBlock,"ax",%progbits
	.align	2
	.global	Player_PlaceBlock
	.syntax unified
	.arm
	.fpu vfp
	.type	Player_PlaceBlock, %function
Player_PlaceBlock:
.LVL137:
.LFB150:
	.loc 1 325 54 is_stmt 1 view -0
	.cfi_startproc
	@ args = 0, pretend = 0, frame = 0
	@ frame_needed = 0, uses_anonymous_args = 0
	.loc 1 326 2 view .LVU837
	.loc 1 325 54 is_stmt 0 view .LVU838
	push	{r4, r5, r6, r7, lr}
	.cfi_def_cfa_offset 20
	.cfi_offset 4, -20
	.cfi_offset 5, -16
	.cfi_offset 6, -12
	.cfi_offset 7, -8
	.cfi_offset 14, -4
	mov	r4, r0
	.loc 1 326 12 view .LVU839
	ldr	r0, [r0, #40]
.LVL138:
	.loc 1 326 59 view .LVU840
	vldr.32	s15, [r4, #76]
	.loc 1 326 5 view .LVU841
	cmp	r0, #0
	.loc 1 325 54 view .LVU842
	sub	sp, sp, #12
	.cfi_def_cfa_offset 32
	.loc 1 326 5 view .LVU843
	beq	.L200
	.loc 1 326 20 discriminator 1 view .LVU844
	ldrb	r3, [r4, #193]	@ zero_extendqisi2
	cmp	r3, #0
	beq	.L200
	.loc 1 326 50 discriminator 2 view .LVU845
	vcmpe.f32	s15, #0
	vmrs	APSR_nzcv, FPSCR
	bmi	.L228
.LVL139:
.L199:
	.loc 1 344 1 view .LVU846
	add	sp, sp, #12
	.cfi_remember_state
	.cfi_def_cfa_offset 20
	@ sp needed
	pop	{r4, r5, r6, r7, pc}
.LVL140:
.L228:
	.cfi_restore_state
.LBB482:
	.loc 1 327 3 is_stmt 1 view .LVU847
	.loc 1 327 14 is_stmt 0 view .LVU848
	ldrb	r2, [r4, #188]	@ zero_extendqisi2
	ldr	r3, .L230+16
	add	r2, r2, r2, lsl #1
	.loc 1 330 37 view .LVU849
	ldr	ip, [r3, r2, lsl #2]
	mov	r5, r1
	ldr	r1, [r4, #172]
.LVL141:
	.loc 1 328 7 view .LVU850
	vldr.32	s15, [r4]
	.loc 1 330 37 view .LVU851
	add	r1, r1, ip
	.loc 1 328 7 view .LVU852
	vmov	s14, r1	@ int
	vldr.32	s12, .L230
.LBB483:
.LBB484:
	.loc 3 33 19 view .LVU853
	vldr.32	s13, .L230+4
.LBE484:
.LBE483:
	.loc 1 328 7 view .LVU854
	vcvt.f32.s32	s14, s14
	vsub.f32	s15, s15, s12
.LBB489:
.LBB485:
	.loc 3 33 19 view .LVU855
	vadd.f32	s11, s14, s13
	.loc 3 33 78 view .LVU856
	vcmpe.f32	s15, s11
	vmrs	APSR_nzcv, FPSCR
.LBE485:
.LBE489:
	.loc 1 327 14 view .LVU857
	add	r3, r3, r2, lsl #2
.LVL142:
	.loc 1 328 3 is_stmt 1 view .LVU858
	.loc 1 330 72 is_stmt 0 view .LVU859
	ldr	ip, [r3, #4]
	ldr	r2, [r4, #176]
	.loc 1 328 7 view .LVU860
	vldr.32	s10, [r4, #4]
	.loc 1 330 72 view .LVU861
	add	r2, r2, ip
	.loc 1 331 28 view .LVU862
	ldr	ip, [r3, #8]
	ldr	r3, [r4, #180]
.LVL143:
	.loc 1 329 22 view .LVU863
	vldr.32	s9, [r4, #8]
	.loc 1 331 28 view .LVU864
	add	r3, r3, ip
.LVL144:
.LBB490:
.LBI483:
	.loc 3 32 19 is_stmt 1 view .LVU865
.LBB486:
	.loc 3 33 2 view .LVU866
	.loc 3 33 78 is_stmt 0 view .LVU867
	bhi	.L202
	.loc 3 33 30 view .LVU868
	vldr.32	s11, .L230+8
	vadd.f32	s15, s15, s11
.LVL145:
	.loc 3 33 24 view .LVU869
	vcmpe.f32	s14, s15
	vmrs	APSR_nzcv, FPSCR
	bls	.L229
.LVL146:
.L202:
	.loc 3 33 24 view .LVU870
.LBE486:
.LBE490:
	.loc 1 333 3 is_stmt 1 view .LVU871
	.loc 1 334 75 is_stmt 0 view .LVU872
	ldr	ip, [r4, #136]
	.loc 1 339 3 view .LVU873
	ldr	r6, .L230+20
	.loc 1 333 3 view .LVU874
	add	ip, ip, ip, lsl #1
	add	ip, r4, ip
	ldrb	lr, [ip, #145]	@ zero_extendqisi2
	.loc 1 339 3 view .LVU875
	add	r7, r6, #32
	.loc 1 333 3 view .LVU876
	str	lr, [sp, #4]
.LVL147:
	.loc 1 333 3 view .LVU877
	ldrb	ip, [ip, #144]	@ zero_extendqisi2
	str	ip, [sp]
	bl	World_SetBlockAndMeta
.LVL148:
	.loc 1 336 3 is_stmt 1 view .LVU878
	.loc 1 336 21 is_stmt 0 view .LVU879
	mov	r3, #0
	.loc 1 339 3 view .LVU880
	mov	r0, r5
	.loc 1 336 21 view .LVU881
	strb	r3, [r5, #128]
	.loc 1 337 3 is_stmt 1 view .LVU882
.LVL149:
	.loc 1 338 3 view .LVU883
	.loc 1 338 18 is_stmt 0 view .LVU884
	strb	r3, [r5]
	.loc 1 339 3 is_stmt 1 view .LVU885
	bl	strlen
.LVL150:
	add	ip, r5, r0
.L212:
	mov	lr, r6
	add	ip, ip, #16
	ldmia	lr!, {r0, r1, r2, r3}
	cmp	lr, r7
	add	r6, r6, #16
	str	r0, [ip, #-16]	@ unaligned
	str	r1, [ip, #-12]	@ unaligned
	str	r2, [ip, #-8]	@ unaligned
	str	r3, [ip, #-4]	@ unaligned
	bne	.L212
	ldmia	r6!, {r0, r1}
	ldrh	r3, [r6]	@ unaligned
	str	r0, [ip]	@ unaligned
	strh	r3, [ip, #8]	@ unaligned
	ldrb	r3, [r6, #2]	@ zero_extendqisi2
	.loc 1 341 3 is_stmt 0 view .LVU886
	mov	r0, r5
	.loc 1 339 3 view .LVU887
	str	r1, [ip, #4]	@ unaligned
	strb	r3, [ip, #10]
	.loc 1 341 3 is_stmt 1 view .LVU888
	bl	playopus
.LVL151:
.LBE482:
	.loc 1 343 12 is_stmt 0 view .LVU889
	vldr.32	s15, [r4, #76]
.LVL152:
.L200:
	.loc 1 343 2 is_stmt 1 view .LVU890
	.loc 1 343 5 is_stmt 0 view .LVU891
	vcmpe.f32	s15, #0
	vmrs	APSR_nzcv, FPSCR
	bpl	.L199
	.loc 1 343 39 is_stmt 1 discriminator 1 view .LVU892
	.loc 1 343 65 is_stmt 0 discriminator 1 view .LVU893
	ldr	r3, .L230+24
	str	r3, [r4, #76]	@ float
	.loc 1 344 1 discriminator 1 view .LVU894
	add	sp, sp, #12
	.cfi_remember_state
	.cfi_def_cfa_offset 20
	@ sp needed
	pop	{r4, r5, r6, r7, pc}
.LVL153:
.L229:
	.cfi_restore_state
.LBB493:
	.loc 1 328 7 view .LVU895
	vmov	s15, r2	@ int
	vcvt.f32.s32	s15, s15
.LBB491:
.LBB487:
	.loc 3 33 55 view .LVU896
	vadd.f32	s14, s15, s13
.LVL154:
	.loc 3 33 42 view .LVU897
	vcmpe.f32	s10, s14
	vmrs	APSR_nzcv, FPSCR
	bhi	.L202
	.loc 3 33 66 view .LVU898
	vldr.32	s14, .L230+12
	vadd.f32	s10, s10, s14
.LVL155:
	.loc 3 33 60 view .LVU899
	vcmpe.f32	s15, s10
	vmrs	APSR_nzcv, FPSCR
	bhi	.L202
.LBE487:
.LBE491:
	.loc 1 328 7 view .LVU900
	vmov	s15, r3	@ int
	vcvt.f32.s32	s15, s15
	vsub.f32	s9, s9, s12
.LVL156:
.LBB492:
.LBB488:
	.loc 3 33 91 view .LVU901
	vadd.f32	s13, s15, s13
	.loc 3 33 78 view .LVU902
	vcmpe.f32	s9, s13
	vmrs	APSR_nzcv, FPSCR
	bhi	.L202
	.loc 3 33 102 view .LVU903
	vadd.f32	s9, s9, s11
	.loc 3 33 96 view .LVU904
	vcmpe.f32	s15, s9
	vmrs	APSR_nzcv, FPSCR
	bls	.L199
	b	.L202
.L231:
	.align	2
.L230:
	.word	1051092582
	.word	1065353216
	.word	1059481190
	.word	1072064102
	.word	DirectionToOffset
	.word	.LC43
	.word	1045220557
.LBE488:
.LBE492:
.LBE493:
	.cfi_endproc
.LFE150:
	.size	Player_PlaceBlock, .-Player_PlaceBlock
	.section	.text.Player_BreakBlock,"ax",%progbits
	.align	2
	.global	Player_BreakBlock
	.syntax unified
	.arm
	.fpu vfp
	.type	Player_BreakBlock, %function
Player_BreakBlock:
.LVL157:
.LFB151:
	.loc 1 346 40 is_stmt 1 view -0
	.cfi_startproc
	@ args = 0, pretend = 0, frame = 0
	@ frame_needed = 0, uses_anonymous_args = 0
	.loc 1 347 2 view .LVU906
	.loc 1 346 40 is_stmt 0 view .LVU907
	push	{r4, lr}
	.cfi_def_cfa_offset 8
	.cfi_offset 4, -8
	.cfi_offset 14, -4
	mov	r4, r0
	.loc 1 347 12 view .LVU908
	ldr	r0, [r0, #40]
.LVL158:
	.loc 1 347 59 view .LVU909
	vldr.32	s15, [r4, #76]
	.loc 1 347 5 view .LVU910
	cmp	r0, #0
	.loc 1 346 40 view .LVU911
	sub	sp, sp, #8
	.cfi_def_cfa_offset 16
	.loc 1 347 5 view .LVU912
	beq	.L233
	.loc 1 347 20 discriminator 1 view .LVU913
	ldrb	r3, [r4, #193]	@ zero_extendqisi2
	cmp	r3, #0
	bne	.L246
.L233:
	.loc 1 350 2 is_stmt 1 view .LVU914
	.loc 1 350 5 is_stmt 0 view .LVU915
	vcmpe.f32	s15, #0
	vmrs	APSR_nzcv, FPSCR
	.loc 1 350 39 is_stmt 1 view .LVU916
	.loc 1 350 65 is_stmt 0 view .LVU917
	ldrmi	r3, .L247
	strmi	r3, [r4, #76]	@ float
.L232:
	.loc 1 351 1 view .LVU918
	add	sp, sp, #8
	.cfi_remember_state
	.cfi_def_cfa_offset 8
	@ sp needed
	pop	{r4, pc}
.LVL159:
.L246:
	.cfi_restore_state
	.loc 1 347 50 discriminator 2 view .LVU919
	vcmpe.f32	s15, #0
	vmrs	APSR_nzcv, FPSCR
	bpl	.L232
	.loc 1 348 3 is_stmt 1 view .LVU920
	ldrd	r2, [r4, #176]
	mov	ip, #0
	ldr	r1, [r4, #172]
	str	ip, [sp]
	bl	World_SetBlock
.LVL160:
	.loc 1 350 12 is_stmt 0 view .LVU921
	vldr.32	s15, [r4, #76]
	b	.L233
.L248:
	.align	2
.L247:
	.word	1045220557
	.cfi_endproc
.LFE151:
	.size	Player_BreakBlock, .-Player_BreakBlock
	.global	GravityPlusFriction
	.global	MaxFallVelocity
	.global	MaxWalkVelocity
	.section	.rodata
	.align	2
	.set	.LANCHOR0,. + 0
.LC37:
	.word	0
	.word	2
	.word	1
	.type	GravityPlusFriction, %object
	.size	GravityPlusFriction, 4
GravityPlusFriction:
	.word	1092616192
	.type	MaxFallVelocity, %object
	.size	MaxFallVelocity, 4
MaxFallVelocity:
	.word	-1035468800
	.type	MaxWalkVelocity, %object
	.size	MaxWalkVelocity, 4
MaxWalkVelocity:
	.word	1082759578
	.text
.Letext0:
	.file 5 "/opt/devkitpro/devkitARM/arm-none-eabi/include/machine/_default_types.h"
	.file 6 "/opt/devkitpro/devkitARM/arm-none-eabi/include/sys/_stdint.h"
	.file 7 "/home/tobi/Dokumente/Craftus-Next/include/world/Direction.h"
	.file 8 "/home/tobi/Dokumente/Craftus-Next/include/blocks/Block.h"
	.file 9 "/home/tobi/Dokumente/Craftus-Next/include/misc/Xorshift.h"
	.file 10 "/opt/devkitpro/devkitARM/lib/gcc/arm-none-eabi/11.2.0/include/stddef.h"
	.file 11 "/opt/devkitpro/devkitARM/arm-none-eabi/include/sys/lock.h"
	.file 12 "/home/tobi/Dokumente/Craftus-Next/include/rendering/VBOCache.h"
	.file 13 "/home/tobi/Dokumente/Craftus-Next/include/world/Chunk.h"
	.file 14 "/opt/devkitpro/libctru/include/3ds/types.h"
	.file 15 "/opt/devkitpro/libctru/include/3ds/synchronization.h"
	.file 16 "/opt/devkitpro/libctru/include/3ds/thread.h"
	.file 17 "/opt/devkitpro/libctru/include/3ds/services/csnd.h"
	.file 18 "/opt/devkitpro/libctru/include/3ds/services/ndm.h"
	.file 19 "/opt/devkitpro/libctru/include/3ds/gpu/enums.h"
	.file 20 "/opt/devkitpro/libctru/include/3ds/ndsp/channel.h"
	.file 21 "/opt/devkitpro/libctru/include/3ds/applets/error.h"
	.file 22 "/home/tobi/Dokumente/Craftus-Next/include/world/WorkQueue.h"
	.file 23 "/home/tobi/Dokumente/Craftus-Next/include/world/World.h"
	.file 24 "/home/tobi/Dokumente/Craftus-Next/include/blocks/Item.h"
	.file 25 "/home/tobi/Dokumente/Craftus-Next/include/inventory/ItemStack.h"
	.file 26 "/home/tobi/Dokumente/Craftus-Next/include/entity/Damage.h"
	.file 27 "/home/tobi/Dokumente/Craftus-Next/include/misc/Raycast.h"
	.file 28 "/opt/devkitpro/portlibs/3ds/include/opus/opusfile.h"
	.file 29 "/home/tobi/Dokumente/Craftus-Next/include/misc/Sound.h"
	.file 30 "/home/tobi/Dokumente/Craftus-Next/include/entity/Player.h"
	.file 31 "/opt/devkitpro/devkitARM/arm-none-eabi/include/string.h"
	.file 32 "/opt/devkitpro/devkitARM/arm-none-eabi/include/math.h"
	.file 33 "/opt/devkitpro/libctru/include/3ds/svc.h"
	.file 34 "/home/tobi/Dokumente/Craftus-Next/include/gui/DebugUI.h"
	.file 35 "<built-in>"