	.arch armv6k
	.eabi_attribute 28, 1
	.eabi_attribute 20, 1
	.eabi_attribute 21, 1
	.eabi_attribute 23, 3
	.eabi_attribute 24, 1
	.eabi_attribute 25, 1
	.eabi_attribute 26, 1
	.eabi_attribute 30, 2
	.eabi_attribute 34, 1
	.eabi_attribute 18, 4
	.file	"PlayerController.c"
	.text
.Ltext0:
	.cfi_sections	.debug_frame
	.section	.rodata.str1.4,"aMS",%progbits,1
	.align	2
.LC1:
	.ascii	"%s\000"
	.align	2
.LC2:
	.ascii	"forward\000"
	.align	2
.LC3:
	.ascii	"controls\000"
	.align	2
.LC4:
	.ascii	"backward\000"
	.align	2
.LC5:
	.ascii	"strafeLeft\000"
	.align	2
.LC6:
	.ascii	"strafeRight\000"
	.align	2
.LC7:
	.ascii	"lookLeft\000"
	.align	2
.LC8:
	.ascii	"lookRight\000"
	.align	2
.LC9:
	.ascii	"lookUp\000"
	.align	2
.LC10:
	.ascii	"lookDown\000"
	.align	2
.LC11:
	.ascii	"placeBlock\000"
	.align	2
.LC12:
	.ascii	"breakBlock\000"
	.align	2
.LC13:
	.ascii	"jump\000"
	.align	2
.LC14:
	.ascii	"switchBlockLeft\000"
	.align	2
.LC15:
	.ascii	"switchBlockRight\000"
	.align	2
.LC16:
	.ascii	"openCmd\000"
	.align	2
.LC17:
	.ascii	"crouch\000"
	.align	2
.LC18:
	.ascii	"%d\000"
	.align	2
.LC19:
	.ascii	"auto_jumping\000"
	.align	2
.LC20:
	.ascii	"w\000"
	.align	2
.LC21:
	.ascii	"[controls]\012\000"
	.align	2
.LC22:
	.ascii	"; The allowed key values are: \012; \000"
	.align	2
.LC23:
	.ascii	"%s, \000"
	.align	2
.LC24:
	.ascii	"\012 ; \000"
	.align	2
.LC25:
	.ascii	"%s\012\012\000"
	.align	2
.LC26:
	.ascii	"forward=%s\012\000"
	.align	2
.LC27:
	.ascii	"backward=%s\012\000"
	.align	2
.LC28:
	.ascii	"strafeLeft=%s\012\000"
	.align	2
.LC29:
	.ascii	"strafeRight=%s\012\000"
	.align	2
.LC30:
	.ascii	"lookLeft=%s\012\000"
	.align	2
.LC31:
	.ascii	"lookRight=%s\012\000"
	.align	2
.LC32:
	.ascii	"lookUp=%s\012\000"
	.align	2
.LC33:
	.ascii	"lookDown=%s\012\000"
	.align	2
.LC34:
	.ascii	"placeBlock=%s\012\000"
	.align	2
.LC35:
	.ascii	"breakBlock=%s\012\000"
	.align	2
.LC36:
	.ascii	"jump=%s\012\000"
	.align	2
.LC37:
	.ascii	"switchBlockLeft=%s\012\000"
	.align	2
.LC38:
	.ascii	"switchBlockRight=%s\012\000"
	.align	2
.LC39:
	.ascii	"openCmd=%s\012\000"
	.align	2
.LC40:
	.ascii	"crouch=%s\012\000"
	.align	2
.LC41:
	.ascii	"; 0 = disabled, 1 = enabled default: 1 for O3ds, 0 "
	.ascii	"for N3ds\012autojump=%d\012\000"
	.align	2
.LC0:
	.ascii	"sdmc:/craftus_redesigned/options.ini\000"
	.section	.text.PlayerController_Init,"ax",%progbits
	.align	2
	.global	PlayerController_Init
	.syntax unified
	.arm
	.fpu vfp
	.type	PlayerController_Init, %function
PlayerController_Init:
.LVL0:
.LFB146:
	.file 1 "/home/tobi/Dokumente/Craftus-Next/source/entity/PlayerController.c"
	.loc 1 135 68 view -0
	.cfi_startproc
	@ args = 0, pretend = 0, frame = 120
	@ frame_needed = 0, uses_anonymous_args = 0
	.loc 1 136 2 view .LVU1
	.loc 1 135 68 is_stmt 0 view .LVU2
	push	{r4, r5, r6, r7, r8, r9, r10, fp, lr}
	.cfi_def_cfa_offset 36
	.cfi_offset 4, -36
	.cfi_offset 5, -32
	.cfi_offset 6, -28
	.cfi_offset 7, -24
	.cfi_offset 8, -20
	.cfi_offset 9, -16
	.cfi_offset 10, -12
	.cfi_offset 11, -8
	.cfi_offset 14, -4
	.loc 1 136 26 view .LVU3
	mov	r3, #0
	.loc 1 135 68 view .LVU4
	mov	r6, r0
	.loc 1 139 6 view .LVU5
	mov	r4, #0
	.loc 1 135 68 view .LVU6
	sub	sp, sp, #132
	.cfi_def_cfa_offset 168
	.loc 1 136 26 view .LVU7
	str	r3, [r6, #64]	@ float
	.loc 1 137 2 is_stmt 1 view .LVU8
	.loc 1 140 2 is_stmt 0 view .LVU9
	add	r0, sp, #23
	.loc 1 137 15 view .LVU10
	str	r1, [r6]
	.loc 1 139 1 is_stmt 1 view .LVU11
	.loc 1 140 2 view .LVU12
	.loc 1 135 68 is_stmt 0 view .LVU13
	str	r1, [sp, #12]
	.loc 1 139 6 view .LVU14
	strb	r4, [sp, #23]
	.loc 1 140 2 view .LVU15
	bl	APT_CheckNew3DS
.LVL1:
	.loc 1 141 2 is_stmt 1 view .LVU16
	.loc 1 141 5 is_stmt 0 view .LVU17
	ldrb	r3, [sp, #23]	@ zero_extendqisi2
	cmp	r3, r4
	beq	.L2
	.loc 1 142 3 is_stmt 1 view .LVU18
	.loc 1 142 23 is_stmt 0 view .LVU19
	ldr	lr, .L98
	add	ip, r6, #4
	.loc 1 143 33 view .LVU20
	ldr	r5, [r6]
	.loc 1 142 23 view .LVU21
	ldmia	lr!, {r0, r1, r2, r3}
	stmia	ip!, {r0, r1, r2, r3}
	ldmia	lr!, {r0, r1, r2, r3}
	stmia	ip!, {r0, r1, r2, r3}
	ldmia	lr!, {r0, r1, r2, r3}
	stmia	ip!, {r0, r1, r2, r3}
	ldm	lr, {r0, r1, r2}
	stm	ip, {r0, r1, r2}
	.loc 1 143 3 is_stmt 1 view .LVU22
	.loc 1 143 33 is_stmt 0 view .LVU23
	strb	r4, [r5, #56]
.L3:
	.loc 1 149 2 is_stmt 1 view .LVU24
	.loc 1 149 18 is_stmt 0 view .LVU25
	mov	r5, #0
	.loc 1 153 13 view .LVU26
	ldr	lr, .L98+4
	add	ip, sp, #24
	ldmia	lr!, {r0, r1, r2, r3}
	stmia	ip!, {r0, r1, r2, r3}
	ldmia	lr!, {r0, r1, r2, r3}
	stmia	ip!, {r0, r1, r2, r3}
	ldm	lr, {r0, r1}
	str	r0, [ip], #4
	strb	r1, [ip]
	.loc 1 149 18 view .LVU27
	strb	r5, [r6, #68]
	.loc 1 151 1 is_stmt 1 view .LVU28
.LVL2:
	.loc 1 153 2 view .LVU29
	.loc 1 154 2 view .LVU30
	.loc 1 154 6 is_stmt 0 view .LVU31
	mov	r1, r5
	add	r0, sp, #24
	bl	access
.LVL3:
	.loc 1 154 5 view .LVU32
	cmn	r0, #1
	beq	.L5
.LBB111:
	.loc 1 155 3 is_stmt 1 view .LVU33
	.loc 1 155 16 is_stmt 0 view .LVU34
	add	r0, sp, #24
	bl	ini_load
.LVL4:
	.loc 1 170 7 view .LVU35
	add	r3, sp, #64
	str	r3, [sp]
	ldr	r2, .L98+8
	ldr	r3, .L98+12
	ldr	r1, .L98+16
	.loc 1 155 16 view .LVU36
	mov	r7, r0
.LVL5:
	.loc 1 157 3 is_stmt 1 view .LVU37
	.loc 1 170 3 view .LVU38
	.loc 1 170 7 is_stmt 0 view .LVU39
	bl	ini_sget
.LVL6:
	.loc 1 170 6 view .LVU40
	cmp	r0, r5
	.loc 1 170 204 view .LVU41
	moveq	r4, #1
	.loc 1 170 6 view .LVU42
	beq	.L6
	ldr	r8, .L98+20
	b	.L8
.LVL7:
.L7:
.LBB112:
	.loc 1 170 86 discriminator 5 view .LVU43
	add	r5, r5, #1
.LVL8:
	.loc 1 170 79 is_stmt 1 discriminator 5 view .LVU44
	cmp	r5, #23
	beq	.L96
.LVL9:
.L8:
	.loc 1 170 92 discriminator 7 view .LVU45
	.loc 1 170 97 is_stmt 0 discriminator 7 view .LVU46
	ldr	r0, [r8, #4]!
	add	r1, sp, #64
	bl	strcmp
.LVL10:
	.loc 1 170 86 is_stmt 1 discriminator 7 view .LVU47
	.loc 1 170 95 is_stmt 0 discriminator 7 view .LVU48
	cmp	r0, #0
	bne	.L7
	.loc 1 170 166 discriminator 4 view .LVU49
	mov	r4, r0
	.loc 1 170 138 is_stmt 1 discriminator 4 view .LVU50
	.loc 1 170 166 is_stmt 0 discriminator 4 view .LVU51
	str	r5, [r6, #4]
	.loc 1 170 171 is_stmt 1 discriminator 4 view .LVU52
.LVL11:
.L6:
	.loc 1 170 171 is_stmt 0 discriminator 4 view .LVU53
.LBE112:
	.loc 1 170 3 is_stmt 1 discriminator 8 view .LVU54
	.loc 1 171 3 discriminator 8 view .LVU55
	.loc 1 171 7 is_stmt 0 discriminator 8 view .LVU56
	add	r3, sp, #64
	str	r3, [sp]
	mov	r0, r7
	ldr	r3, .L98+12
	ldr	r2, .L98+24
	ldr	r1, .L98+16
	bl	ini_sget
.LVL12:
	.loc 1 171 6 discriminator 8 view .LVU57
	cmp	r0, #0
	.loc 1 171 206 discriminator 8 view .LVU58
	moveq	r4, #1
.LVL13:
	.loc 1 171 6 discriminator 8 view .LVU59
	beq	.L9
.LBB113:
	.loc 1 171 71 view .LVU60
	mov	r5, #0
	ldr	r8, .L98+20
	b	.L11
.LVL14:
.L10:
	.loc 1 171 87 discriminator 5 view .LVU61
	add	r5, r5, #1
.LVL15:
	.loc 1 171 80 is_stmt 1 discriminator 5 view .LVU62
	cmp	r5, #23
	beq	.L9
.LVL16:
.L11:
	.loc 1 171 93 discriminator 7 view .LVU63
	.loc 1 171 98 is_stmt 0 discriminator 7 view .LVU64
	ldr	r0, [r8, #4]!
	add	r1, sp, #64
	bl	strcmp
.LVL17:
	.loc 1 171 87 is_stmt 1 discriminator 7 view .LVU65
	.loc 1 171 96 is_stmt 0 discriminator 7 view .LVU66
	cmp	r0, #0
	bne	.L10
	.loc 1 171 139 is_stmt 1 discriminator 4 view .LVU67
	.loc 1 171 168 is_stmt 0 discriminator 4 view .LVU68
	str	r5, [r6, #8]
	.loc 1 171 173 is_stmt 1 discriminator 4 view .LVU69
.LVL18:
.L9:
	.loc 1 171 173 is_stmt 0 discriminator 4 view .LVU70
.LBE113:
	.loc 1 171 3 is_stmt 1 discriminator 8 view .LVU71
	.loc 1 172 3 discriminator 8 view .LVU72
	.loc 1 172 7 is_stmt 0 discriminator 8 view .LVU73
	add	r3, sp, #64
	str	r3, [sp]
	mov	r0, r7
	ldr	r3, .L98+12
	ldr	r2, .L98+28
	ldr	r1, .L98+16
	bl	ini_sget
.LVL19:
	.loc 1 172 6 discriminator 8 view .LVU74
	cmp	r0, #0
	.loc 1 172 210 discriminator 8 view .LVU75
	moveq	r4, #1
.LVL20:
	.loc 1 172 6 discriminator 8 view .LVU76
	beq	.L12
.LBB114:
	.loc 1 172 73 view .LVU77
	mov	r5, #0
	ldr	r8, .L98+20
	b	.L14
.LVL21:
.L13:
	.loc 1 172 89 discriminator 5 view .LVU78
	add	r5, r5, #1
.LVL22:
	.loc 1 172 82 is_stmt 1 discriminator 5 view .LVU79
	cmp	r5, #23
	beq	.L12
.LVL23:
.L14:
	.loc 1 172 95 discriminator 7 view .LVU80
	.loc 1 172 100 is_stmt 0 discriminator 7 view .LVU81
	ldr	r0, [r8, #4]!
	add	r1, sp, #64
	bl	strcmp
.LVL24:
	.loc 1 172 89 is_stmt 1 discriminator 7 view .LVU82
	.loc 1 172 98 is_stmt 0 discriminator 7 view .LVU83
	cmp	r0, #0
	bne	.L13
	.loc 1 172 141 is_stmt 1 discriminator 4 view .LVU84
	.loc 1 172 172 is_stmt 0 discriminator 4 view .LVU85
	str	r5, [r6, #12]
	.loc 1 172 177 is_stmt 1 discriminator 4 view .LVU86
.LVL25:
.L12:
	.loc 1 172 177 is_stmt 0 discriminator 4 view .LVU87
.LBE114:
	.loc 1 172 3 is_stmt 1 discriminator 8 view .LVU88
	.loc 1 173 3 discriminator 8 view .LVU89
	.loc 1 173 7 is_stmt 0 discriminator 8 view .LVU90
	add	r3, sp, #64
	str	r3, [sp]
	mov	r0, r7
	ldr	r3, .L98+12
	ldr	r2, .L98+32
	ldr	r1, .L98+16
	bl	ini_sget
.LVL26:
	.loc 1 173 6 discriminator 8 view .LVU91
	cmp	r0, #0
	.loc 1 173 212 discriminator 8 view .LVU92
	moveq	r4, #1
.LVL27:
	.loc 1 173 6 discriminator 8 view .LVU93
	beq	.L15
.LBB115:
	.loc 1 173 74 view .LVU94
	mov	r5, #0
	ldr	r8, .L98+20
	b	.L17
.LVL28:
.L16:
	.loc 1 173 90 discriminator 5 view .LVU95
	add	r5, r5, #1
.LVL29:
	.loc 1 173 83 is_stmt 1 discriminator 5 view .LVU96
	cmp	r5, #23
	beq	.L15
.LVL30:
.L17:
	.loc 1 173 96 discriminator 7 view .LVU97
	.loc 1 173 101 is_stmt 0 discriminator 7 view .LVU98
	ldr	r0, [r8, #4]!
	add	r1, sp, #64
	bl	strcmp
.LVL31:
	.loc 1 173 90 is_stmt 1 discriminator 7 view .LVU99
	.loc 1 173 99 is_stmt 0 discriminator 7 view .LVU100
	cmp	r0, #0
	bne	.L16
	.loc 1 173 142 is_stmt 1 discriminator 4 view .LVU101
	.loc 1 173 174 is_stmt 0 discriminator 4 view .LVU102
	str	r5, [r6, #16]
	.loc 1 173 179 is_stmt 1 discriminator 4 view .LVU103
.LVL32:
.L15:
	.loc 1 173 179 is_stmt 0 discriminator 4 view .LVU104
.LBE115:
	.loc 1 173 3 is_stmt 1 discriminator 8 view .LVU105
	.loc 1 174 3 discriminator 8 view .LVU106
	.loc 1 174 7 is_stmt 0 discriminator 8 view .LVU107
	add	r3, sp, #64
	str	r3, [sp]
	mov	r0, r7
	ldr	r3, .L98+12
	ldr	r2, .L98+36
	ldr	r1, .L98+16
	bl	ini_sget
.LVL33:
	.loc 1 174 6 discriminator 8 view .LVU108
	cmp	r0, #0
	.loc 1 174 206 discriminator 8 view .LVU109
	moveq	r4, #1
.LVL34:
	.loc 1 174 6 discriminator 8 view .LVU110
	beq	.L18
.LBB116:
	.loc 1 174 71 view .LVU111
	mov	r5, #0
	ldr	r8, .L98+20
	b	.L20
.LVL35:
.L19:
	.loc 1 174 87 discriminator 5 view .LVU112
	add	r5, r5, #1
.LVL36:
	.loc 1 174 80 is_stmt 1 discriminator 5 view .LVU113
	cmp	r5, #23
	beq	.L18
.LVL37:
.L20:
	.loc 1 174 93 discriminator 7 view .LVU114
	.loc 1 174 98 is_stmt 0 discriminator 7 view .LVU115
	ldr	r0, [r8, #4]!
	add	r1, sp, #64
	bl	strcmp
.LVL38:
	.loc 1 174 87 is_stmt 1 discriminator 7 view .LVU116
	.loc 1 174 96 is_stmt 0 discriminator 7 view .LVU117
	cmp	r0, #0
	bne	.L19
	.loc 1 174 139 is_stmt 1 discriminator 4 view .LVU118
	.loc 1 174 168 is_stmt 0 discriminator 4 view .LVU119
	str	r5, [r6, #20]
	.loc 1 174 173 is_stmt 1 discriminator 4 view .LVU120
.LVL39:
.L18:
	.loc 1 174 173 is_stmt 0 discriminator 4 view .LVU121
.LBE116:
	.loc 1 174 3 is_stmt 1 discriminator 8 view .LVU122
	.loc 1 175 3 discriminator 8 view .LVU123
	.loc 1 175 7 is_stmt 0 discriminator 8 view .LVU124
	add	r3, sp, #64
	str	r3, [sp]
	mov	r0, r7
	ldr	r3, .L98+12
	ldr	r2, .L98+40
	ldr	r1, .L98+16
	bl	ini_sget
.LVL40:
	.loc 1 175 6 discriminator 8 view .LVU125
	cmp	r0, #0
	.loc 1 175 208 discriminator 8 view .LVU126
	moveq	r4, #1
.LVL41:
	.loc 1 175 6 discriminator 8 view .LVU127
	beq	.L21
.LBB117:
	.loc 1 175 72 view .LVU128
	mov	r5, #0
	ldr	r8, .L98+20
	b	.L23
.LVL42:
.L22:
	.loc 1 175 88 discriminator 5 view .LVU129
	add	r5, r5, #1
.LVL43:
	.loc 1 175 81 is_stmt 1 discriminator 5 view .LVU130
	cmp	r5, #23
	beq	.L21
.LVL44:
.L23:
	.loc 1 175 94 discriminator 7 view .LVU131
	.loc 1 175 99 is_stmt 0 discriminator 7 view .LVU132
	ldr	r0, [r8, #4]!
	add	r1, sp, #64
	bl	strcmp
.LVL45:
	.loc 1 175 88 is_stmt 1 discriminator 7 view .LVU133
	.loc 1 175 97 is_stmt 0 discriminator 7 view .LVU134
	cmp	r0, #0
	bne	.L22
	.loc 1 175 140 is_stmt 1 discriminator 4 view .LVU135
	.loc 1 175 170 is_stmt 0 discriminator 4 view .LVU136
	str	r5, [r6, #24]
	.loc 1 175 175 is_stmt 1 discriminator 4 view .LVU137
.LVL46:
.L21:
	.loc 1 175 175 is_stmt 0 discriminator 4 view .LVU138
.LBE117:
	.loc 1 175 3 is_stmt 1 discriminator 8 view .LVU139
	.loc 1 176 3 discriminator 8 view .LVU140
	.loc 1 176 7 is_stmt 0 discriminator 8 view .LVU141
	add	r3, sp, #64
	str	r3, [sp]
	mov	r0, r7
	ldr	r3, .L98+12
	ldr	r2, .L98+44
	ldr	r1, .L98+16
	bl	ini_sget
.LVL47:
	.loc 1 176 6 discriminator 8 view .LVU142
	cmp	r0, #0
	.loc 1 176 202 discriminator 8 view .LVU143
	moveq	r4, #1
.LVL48:
	.loc 1 176 6 discriminator 8 view .LVU144
	beq	.L24
.LBB118:
	.loc 1 176 69 view .LVU145
	mov	r5, #0
	ldr	r8, .L98+20
	b	.L26
.LVL49:
.L25:
	.loc 1 176 85 discriminator 5 view .LVU146
	add	r5, r5, #1
.LVL50:
	.loc 1 176 78 is_stmt 1 discriminator 5 view .LVU147
	cmp	r5, #23
	beq	.L24
.LVL51:
.L26:
	.loc 1 176 91 discriminator 7 view .LVU148
	.loc 1 176 96 is_stmt 0 discriminator 7 view .LVU149
	ldr	r0, [r8, #4]!
	add	r1, sp, #64
	bl	strcmp
.LVL52:
	.loc 1 176 85 is_stmt 1 discriminator 7 view .LVU150
	.loc 1 176 94 is_stmt 0 discriminator 7 view .LVU151
	cmp	r0, #0
	bne	.L25
	.loc 1 176 137 is_stmt 1 discriminator 4 view .LVU152
	.loc 1 176 164 is_stmt 0 discriminator 4 view .LVU153
	str	r5, [r6, #28]
	.loc 1 176 169 is_stmt 1 discriminator 4 view .LVU154
.LVL53:
.L24:
	.loc 1 176 169 is_stmt 0 discriminator 4 view .LVU155
.LBE118:
	.loc 1 176 3 is_stmt 1 discriminator 8 view .LVU156
	.loc 1 177 3 discriminator 8 view .LVU157
	.loc 1 177 7 is_stmt 0 discriminator 8 view .LVU158
	add	r3, sp, #64
	str	r3, [sp]
	mov	r0, r7
	ldr	r3, .L98+12
	ldr	r2, .L98+48
	ldr	r1, .L98+16
	bl	ini_sget
.LVL54:
	.loc 1 177 6 discriminator 8 view .LVU159
	cmp	r0, #0
	.loc 1 177 206 discriminator 8 view .LVU160
	moveq	r4, #1
.LVL55:
	.loc 1 177 6 discriminator 8 view .LVU161
	beq	.L27
.LBB119:
	.loc 1 177 71 view .LVU162
	mov	r5, #0
	ldr	r8, .L98+20
	b	.L29
.LVL56:
.L28:
	.loc 1 177 87 discriminator 5 view .LVU163
	add	r5, r5, #1
.LVL57:
	.loc 1 177 80 is_stmt 1 discriminator 5 view .LVU164
	cmp	r5, #23
	beq	.L27
.LVL58:
.L29:
	.loc 1 177 93 discriminator 7 view .LVU165
	.loc 1 177 98 is_stmt 0 discriminator 7 view .LVU166
	ldr	r0, [r8, #4]!
	add	r1, sp, #64
	bl	strcmp
.LVL59:
	.loc 1 177 87 is_stmt 1 discriminator 7 view .LVU167
	.loc 1 177 96 is_stmt 0 discriminator 7 view .LVU168
	cmp	r0, #0
	bne	.L28
	.loc 1 177 139 is_stmt 1 discriminator 4 view .LVU169
	.loc 1 177 168 is_stmt 0 discriminator 4 view .LVU170
	str	r5, [r6, #32]
	.loc 1 177 173 is_stmt 1 discriminator 4 view .LVU171
.LVL60:
.L27:
	.loc 1 177 173 is_stmt 0 discriminator 4 view .LVU172
.LBE119:
	.loc 1 177 3 is_stmt 1 discriminator 8 view .LVU173
	.loc 1 178 3 discriminator 8 view .LVU174
	.loc 1 178 7 is_stmt 0 discriminator 8 view .LVU175
	add	r3, sp, #64
	str	r3, [sp]
	mov	r0, r7
	ldr	r3, .L98+12
	ldr	r2, .L98+52
	ldr	r1, .L98+16
	bl	ini_sget
.LVL61:
	.loc 1 178 6 discriminator 8 view .LVU176
	cmp	r0, #0
	.loc 1 178 210 discriminator 8 view .LVU177
	moveq	r4, #1
.LVL62:
	.loc 1 178 6 discriminator 8 view .LVU178
	beq	.L30
.LBB120:
	.loc 1 178 73 view .LVU179
	mov	r5, #0
	ldr	r8, .L98+20
	b	.L32
.LVL63:
.L31:
	.loc 1 178 89 discriminator 5 view .LVU180
	add	r5, r5, #1
.LVL64:
	.loc 1 178 82 is_stmt 1 discriminator 5 view .LVU181
	cmp	r5, #23
	beq	.L30
.LVL65:
.L32:
	.loc 1 178 95 discriminator 7 view .LVU182
	.loc 1 178 100 is_stmt 0 discriminator 7 view .LVU183
	ldr	r0, [r8, #4]!
	add	r1, sp, #64
	bl	strcmp
.LVL66:
	.loc 1 178 89 is_stmt 1 discriminator 7 view .LVU184
	.loc 1 178 98 is_stmt 0 discriminator 7 view .LVU185
	cmp	r0, #0
	bne	.L31
	.loc 1 178 141 is_stmt 1 discriminator 4 view .LVU186
	.loc 1 178 172 is_stmt 0 discriminator 4 view .LVU187
	str	r5, [r6, #36]
	.loc 1 178 177 is_stmt 1 discriminator 4 view .LVU188
.LVL67:
.L30:
	.loc 1 178 177 is_stmt 0 discriminator 4 view .LVU189
.LBE120:
	.loc 1 178 3 is_stmt 1 discriminator 8 view .LVU190
	.loc 1 179 3 discriminator 8 view .LVU191
	.loc 1 179 7 is_stmt 0 discriminator 8 view .LVU192
	add	r3, sp, #64
	str	r3, [sp]
	mov	r0, r7
	ldr	r3, .L98+12
	ldr	r2, .L98+56
	ldr	r1, .L98+16
	bl	ini_sget
.LVL68:
	.loc 1 179 6 discriminator 8 view .LVU193
	cmp	r0, #0
	.loc 1 179 210 discriminator 8 view .LVU194
	moveq	r4, #1
.LVL69:
	.loc 1 179 6 discriminator 8 view .LVU195
	beq	.L33
.LBB121:
	.loc 1 179 73 view .LVU196
	mov	r5, #0
	ldr	r8, .L98+20
	b	.L35
.LVL70:
.L34:
	.loc 1 179 89 discriminator 5 view .LVU197
	add	r5, r5, #1
.LVL71:
	.loc 1 179 82 is_stmt 1 discriminator 5 view .LVU198
	cmp	r5, #23
	beq	.L33
.LVL72:
.L35:
	.loc 1 179 95 discriminator 7 view .LVU199
	.loc 1 179 100 is_stmt 0 discriminator 7 view .LVU200
	ldr	r0, [r8, #4]!
	add	r1, sp, #64
	bl	strcmp
.LVL73:
	.loc 1 179 89 is_stmt 1 discriminator 7 view .LVU201
	.loc 1 179 98 is_stmt 0 discriminator 7 view .LVU202
	cmp	r0, #0
	bne	.L34
	.loc 1 179 141 is_stmt 1 discriminator 4 view .LVU203
	.loc 1 179 172 is_stmt 0 discriminator 4 view .LVU204
	str	r5, [r6, #40]
	.loc 1 179 177 is_stmt 1 discriminator 4 view .LVU205
.LVL74:
.L33:
	.loc 1 179 177 is_stmt 0 discriminator 4 view .LVU206
.LBE121:
	.loc 1 179 3 is_stmt 1 discriminator 8 view .LVU207
	.loc 1 180 3 discriminator 8 view .LVU208
	.loc 1 180 7 is_stmt 0 discriminator 8 view .LVU209
	add	r3, sp, #64
	str	r3, [sp]
	mov	r0, r7
	ldr	r3, .L98+12
	ldr	r2, .L98+60
	ldr	r1, .L98+16
	bl	ini_sget
.LVL75:
	.loc 1 180 6 discriminator 8 view .LVU210
	cmp	r0, #0
	.loc 1 180 198 discriminator 8 view .LVU211
	moveq	r4, #1
.LVL76:
	.loc 1 180 6 discriminator 8 view .LVU212
	beq	.L36
.LBB122:
	.loc 1 180 67 view .LVU213
	mov	r5, #0
	ldr	r8, .L98+20
	b	.L38
.LVL77:
.L37:
	.loc 1 180 83 discriminator 5 view .LVU214
	add	r5, r5, #1
.LVL78:
	.loc 1 180 76 is_stmt 1 discriminator 5 view .LVU215
	cmp	r5, #23
	beq	.L36
.LVL79:
.L38:
	.loc 1 180 89 discriminator 7 view .LVU216
	.loc 1 180 94 is_stmt 0 discriminator 7 view .LVU217
	ldr	r0, [r8, #4]!
	add	r1, sp, #64
	bl	strcmp
.LVL80:
	.loc 1 180 83 is_stmt 1 discriminator 7 view .LVU218
	.loc 1 180 92 is_stmt 0 discriminator 7 view .LVU219
	cmp	r0, #0
	bne	.L37
	.loc 1 180 135 is_stmt 1 discriminator 4 view .LVU220
	.loc 1 180 160 is_stmt 0 discriminator 4 view .LVU221
	str	r5, [r6, #44]
	.loc 1 180 165 is_stmt 1 discriminator 4 view .LVU222
.LVL81:
.L36:
	.loc 1 180 165 is_stmt 0 discriminator 4 view .LVU223
.LBE122:
	.loc 1 180 3 is_stmt 1 discriminator 8 view .LVU224
	.loc 1 181 3 discriminator 8 view .LVU225
	.loc 1 181 7 is_stmt 0 discriminator 8 view .LVU226
	add	r3, sp, #64
	str	r3, [sp]
	mov	r0, r7
	ldr	r3, .L98+12
	ldr	r2, .L98+64
	ldr	r1, .L98+16
	bl	ini_sget
.LVL82:
	.loc 1 181 6 discriminator 8 view .LVU227
	cmp	r0, #0
	.loc 1 181 220 discriminator 8 view .LVU228
	moveq	r4, #1
.LVL83:
	.loc 1 181 6 discriminator 8 view .LVU229
	beq	.L39
.LBB123:
	.loc 1 181 78 view .LVU230
	mov	r5, #0
	ldr	r8, .L98+20
	b	.L41
.LVL84:
.L40:
	.loc 1 181 94 discriminator 5 view .LVU231
	add	r5, r5, #1
.LVL85:
	.loc 1 181 87 is_stmt 1 discriminator 5 view .LVU232
	cmp	r5, #23
	beq	.L39
.LVL86:
.L41:
	.loc 1 181 100 discriminator 7 view .LVU233
	.loc 1 181 105 is_stmt 0 discriminator 7 view .LVU234
	ldr	r0, [r8, #4]!
	add	r1, sp, #64
	bl	strcmp
.LVL87:
	.loc 1 181 94 is_stmt 1 discriminator 7 view .LVU235
	.loc 1 181 103 is_stmt 0 discriminator 7 view .LVU236
	cmp	r0, #0
	bne	.L40
	.loc 1 181 146 is_stmt 1 discriminator 4 view .LVU237
	.loc 1 181 182 is_stmt 0 discriminator 4 view .LVU238
	str	r5, [r6, #48]
	.loc 1 181 187 is_stmt 1 discriminator 4 view .LVU239
.LVL88:
.L39:
	.loc 1 181 187 is_stmt 0 discriminator 4 view .LVU240
.LBE123:
	.loc 1 181 3 is_stmt 1 discriminator 8 view .LVU241
	.loc 1 182 3 discriminator 8 view .LVU242
	.loc 1 182 7 is_stmt 0 discriminator 8 view .LVU243
	add	r3, sp, #64
	str	r3, [sp]
	mov	r0, r7
	ldr	r3, .L98+12
	ldr	r2, .L98+68
	ldr	r1, .L98+16
	bl	ini_sget
.LVL89:
	.loc 1 182 6 discriminator 8 view .LVU244
	cmp	r0, #0
	.loc 1 182 222 discriminator 8 view .LVU245
	moveq	r4, #1
.LVL90:
	.loc 1 182 6 discriminator 8 view .LVU246
	beq	.L42
.LBB124:
	.loc 1 182 79 view .LVU247
	mov	r5, #0
	ldr	r8, .L98+20
	b	.L44
.LVL91:
.L43:
	.loc 1 182 95 discriminator 5 view .LVU248
	add	r5, r5, #1
.LVL92:
	.loc 1 182 88 is_stmt 1 discriminator 5 view .LVU249
	cmp	r5, #23
	beq	.L42
.LVL93:
.L44:
	.loc 1 182 101 discriminator 7 view .LVU250
	.loc 1 182 106 is_stmt 0 discriminator 7 view .LVU251
	ldr	r0, [r8, #4]!
	add	r1, sp, #64
	bl	strcmp
.LVL94:
	.loc 1 182 95 is_stmt 1 discriminator 7 view .LVU252
	.loc 1 182 104 is_stmt 0 discriminator 7 view .LVU253
	cmp	r0, #0
	bne	.L43
	.loc 1 182 147 is_stmt 1 discriminator 4 view .LVU254
	.loc 1 182 184 is_stmt 0 discriminator 4 view .LVU255
	str	r5, [r6, #52]
	.loc 1 182 189 is_stmt 1 discriminator 4 view .LVU256
.LVL95:
.L42:
	.loc 1 182 189 is_stmt 0 discriminator 4 view .LVU257
.LBE124:
	.loc 1 182 3 is_stmt 1 discriminator 8 view .LVU258
	.loc 1 183 3 discriminator 8 view .LVU259
	.loc 1 183 7 is_stmt 0 discriminator 8 view .LVU260
	add	r3, sp, #64
	str	r3, [sp]
	mov	r0, r7
	ldr	r3, .L98+12
	ldr	r2, .L98+72
	ldr	r1, .L98+16
	bl	ini_sget
.LVL96:
	.loc 1 183 6 discriminator 8 view .LVU261
	cmp	r0, #0
	.loc 1 183 204 discriminator 8 view .LVU262
	moveq	r4, #1
.LVL97:
	.loc 1 183 6 discriminator 8 view .LVU263
	beq	.L45
.LBB125:
	.loc 1 183 70 view .LVU264
	mov	r5, #0
	ldr	r8, .L98+20
	b	.L47
.LVL98:
.L46:
	.loc 1 183 86 discriminator 5 view .LVU265
	add	r5, r5, #1
.LVL99:
	.loc 1 183 79 is_stmt 1 discriminator 5 view .LVU266
	cmp	r5, #23
	beq	.L45
.LVL100:
.L47:
	.loc 1 183 92 discriminator 7 view .LVU267
	.loc 1 183 97 is_stmt 0 discriminator 7 view .LVU268
	ldr	r0, [r8, #4]!
	add	r1, sp, #64
	bl	strcmp
.LVL101:
	.loc 1 183 86 is_stmt 1 discriminator 7 view .LVU269
	.loc 1 183 95 is_stmt 0 discriminator 7 view .LVU270
	cmp	r0, #0
	bne	.L46
	.loc 1 183 138 is_stmt 1 discriminator 4 view .LVU271
	.loc 1 183 166 is_stmt 0 discriminator 4 view .LVU272
	str	r5, [r6, #56]
	.loc 1 183 171 is_stmt 1 discriminator 4 view .LVU273
.LVL102:
.L45:
	.loc 1 183 171 is_stmt 0 discriminator 4 view .LVU274
.LBE125:
	.loc 1 183 3 is_stmt 1 discriminator 8 view .LVU275
	.loc 1 184 3 discriminator 8 view .LVU276
	.loc 1 184 7 is_stmt 0 discriminator 8 view .LVU277
	add	r3, sp, #64
	str	r3, [sp]
	mov	r0, r7
	ldr	r3, .L98+12
	ldr	r2, .L98+76
	ldr	r1, .L98+16
	bl	ini_sget
.LVL103:
	.loc 1 184 6 discriminator 8 view .LVU278
	cmp	r0, #0
	beq	.L48
.LBB126:
	.loc 1 184 69 view .LVU279
	mov	r5, #0
	ldr	r8, .L98+20
	b	.L51
.LVL104:
.L49:
	.loc 1 184 85 discriminator 5 view .LVU280
	add	r5, r5, #1
.LVL105:
	.loc 1 184 78 is_stmt 1 discriminator 5 view .LVU281
	cmp	r5, #23
	beq	.L50
.LVL106:
.L51:
	.loc 1 184 91 discriminator 7 view .LVU282
	.loc 1 184 96 is_stmt 0 discriminator 7 view .LVU283
	ldr	r0, [r8, #4]!
	add	r1, sp, #64
	bl	strcmp
.LVL107:
	.loc 1 184 85 is_stmt 1 discriminator 7 view .LVU284
	.loc 1 184 94 is_stmt 0 discriminator 7 view .LVU285
	cmp	r0, #0
	bne	.L49
	.loc 1 184 137 is_stmt 1 discriminator 4 view .LVU286
	.loc 1 184 164 is_stmt 0 discriminator 4 view .LVU287
	str	r5, [r6, #60]
	.loc 1 184 169 is_stmt 1 discriminator 4 view .LVU288
.L50:
	.loc 1 184 169 is_stmt 0 discriminator 4 view .LVU289
.LBE126:
	.loc 1 184 3 is_stmt 1 discriminator 8 view .LVU290
	.loc 1 187 3 discriminator 8 view .LVU291
	.loc 1 187 56 is_stmt 0 discriminator 8 view .LVU292
	ldr	r3, [r6]
	.loc 1 187 8 discriminator 8 view .LVU293
	mov	r0, r7
	.loc 1 187 56 discriminator 8 view .LVU294
	add	r3, r3, #56
	.loc 1 187 8 discriminator 8 view .LVU295
	str	r3, [sp]
	ldr	r2, .L98+80
	ldr	r3, .L98+84
	ldr	r1, .L98+16
	bl	ini_sget
.LVL108:
	.loc 1 187 6 discriminator 8 view .LVU296
	cmp	r0, #0
	beq	.L93
	.loc 1 189 3 is_stmt 1 view .LVU297
	mov	r0, r7
	bl	ini_free
.LVL109:
	.loc 1 189 3 is_stmt 0 view .LVU298
.LBE111:
	.loc 1 194 2 is_stmt 1 view .LVU299
	.loc 1 194 5 is_stmt 0 view .LVU300
	cmp	r4, #0
	beq	.L54
.LVL110:
.L5:
.LBB128:
	.loc 1 195 3 is_stmt 1 view .LVU301
	.loc 1 195 13 is_stmt 0 view .LVU302
	ldr	r1, .L98+88
	add	r0, sp, #24
	bl	fopen
.LVL111:
	.loc 1 197 3 view .LVU303
	mov	r1, #1
	.loc 1 195 13 view .LVU304
	mov	r10, r0
.LBB129:
	.loc 1 202 7 view .LVU305
	mov	r4, r1
	.loc 1 201 4 view .LVU306
	ldr	r9, .L98+92
.LBE129:
	.loc 1 197 3 view .LVU307
	mov	r2, #11
	mov	r3, r10
	ldr	r0, .L98+96
.LBB130:
	.loc 1 201 4 view .LVU308
	ldr	r8, .L98+100
.LBE130:
	.loc 1 197 3 view .LVU309
	bl	fwrite
.LVL112:
	.loc 1 198 3 view .LVU310
	mov	r2, #33
	mov	r1, r4
	mov	r3, r10
	ldr	r0, .L98+104
	bl	fwrite
.LVL113:
.LBB131:
	.loc 1 201 4 view .LVU311
	mov	r0, r10
	mov	r1, r8
	ldr	r2, [r9]
	mov	r5, r9
	.loc 1 204 5 view .LVU312
	ldr	fp, .L98+108
	add	r7, r9, #84
.LVL114:
	.loc 1 204 5 view .LVU313
.LBE131:
	.loc 1 197 3 is_stmt 1 view .LVU314
	.loc 1 198 3 view .LVU315
	.loc 1 199 3 view .LVU316
	.loc 1 200 3 view .LVU317
.LBB132:
	.loc 1 200 8 view .LVU318
	.loc 1 200 21 view .LVU319
	.loc 1 201 4 view .LVU320
	bl	fprintf
.LVL115:
	.loc 1 202 4 view .LVU321
.L55:
	.loc 1 201 4 discriminator 2 view .LVU322
	.loc 1 200 32 discriminator 2 view .LVU323
	.loc 1 200 21 discriminator 2 view .LVU324
	cmp	r5, r7
	.loc 1 202 7 is_stmt 0 discriminator 2 view .LVU325
	add	r4, r4, #1
.LVL116:
	.loc 1 200 21 discriminator 2 view .LVU326
	beq	.L97
.LVL117:
.L57:
	.loc 1 201 4 view .LVU327
	mov	r1, r8
	mov	r0, r10
	ldr	r2, [r5, #4]!
	bl	fprintf
.LVL118:
	.loc 1 202 4 is_stmt 1 view .LVU328
	.loc 1 202 7 is_stmt 0 view .LVU329
	cmp	r4, #5
	bne	.L55
	.loc 1 203 5 is_stmt 1 view .LVU330
.LVL119:
	.loc 1 204 5 view .LVU331
	.loc 1 203 7 is_stmt 0 view .LVU332
	mov	r4, #0
	.loc 1 204 5 view .LVU333
	mov	r3, r10
	mov	r2, #4
	mov	r1, #1
	mov	r0, fp
	bl	fwrite
.LVL120:
	.loc 1 201 4 is_stmt 1 view .LVU334
	.loc 1 200 32 view .LVU335
	.loc 1 200 21 view .LVU336
	cmp	r5, r7
	.loc 1 202 7 is_stmt 0 view .LVU337
	add	r4, r4, #1
.LVL121:
	.loc 1 200 21 view .LVU338
	bne	.L57
.LVL122:
.L97:
	.loc 1 200 21 view .LVU339
.LBE132:
	.loc 1 207 3 is_stmt 1 view .LVU340
	ldr	r2, [r9, #88]
	ldr	r1, .L98+112
	mov	r0, r10
	bl	fprintf
.LVL123:
	.loc 1 211 3 view .LVU341
	ldr	r2, [r6, #4]
	ldr	r1, .L98+116
	ldr	r2, [r9, r2, lsl #2]
	mov	r0, r10
	bl	fprintf
.LVL124:
	.loc 1 211 82 view .LVU342
	.loc 1 212 3 view .LVU343
	ldr	r2, [r6, #8]
	ldr	r1, .L98+120
	ldr	r2, [r9, r2, lsl #2]
	mov	r0, r10
	bl	fprintf
.LVL125:
	.loc 1 212 84 view .LVU344
	.loc 1 213 3 view .LVU345
	ldr	r2, [r6, #12]
	ldr	r1, .L98+124
	ldr	r2, [r9, r2, lsl #2]
	mov	r0, r10
	bl	fprintf
.LVL126:
	.loc 1 213 88 view .LVU346
	.loc 1 214 3 view .LVU347
	ldr	r2, [r6, #16]
	ldr	r1, .L98+128
	ldr	r2, [r9, r2, lsl #2]
	mov	r0, r10
	bl	fprintf
.LVL127:
	.loc 1 214 90 view .LVU348
	.loc 1 215 3 view .LVU349
	ldr	r2, [r6, #20]
	ldr	r1, .L98+132
	ldr	r2, [r9, r2, lsl #2]
	mov	r0, r10
	bl	fprintf
.LVL128:
	.loc 1 215 84 view .LVU350
	.loc 1 216 3 view .LVU351
	ldr	r2, [r6, #24]
	ldr	r1, .L98+136
	ldr	r2, [r9, r2, lsl #2]
	mov	r0, r10
	bl	fprintf
.LVL129:
	.loc 1 216 86 view .LVU352
	.loc 1 217 3 view .LVU353
	ldr	r2, [r6, #28]
	ldr	r1, .L98+140
	ldr	r2, [r9, r2, lsl #2]
	mov	r0, r10
	bl	fprintf
.LVL130:
	.loc 1 217 80 view .LVU354
	.loc 1 218 3 view .LVU355
	ldr	r2, [r6, #32]
	ldr	r1, .L98+144
	ldr	r2, [r9, r2, lsl #2]
	mov	r0, r10
	bl	fprintf
.LVL131:
	.loc 1 218 84 view .LVU356
	.loc 1 219 3 view .LVU357
	ldr	r2, [r6, #36]
	ldr	r1, .L98+148
	ldr	r2, [r9, r2, lsl #2]
	mov	r0, r10
	bl	fprintf
.LVL132:
	.loc 1 219 88 view .LVU358
	.loc 1 220 3 view .LVU359
	ldr	r2, [r6, #40]
	ldr	r1, .L98+152
	ldr	r2, [r9, r2, lsl #2]
	mov	r0, r10
	bl	fprintf
.LVL133:
	.loc 1 220 88 view .LVU360
	.loc 1 221 3 view .LVU361
	ldr	r2, [r6, #44]
	ldr	r1, .L98+156
	ldr	r2, [r9, r2, lsl #2]
	mov	r0, r10
	bl	fprintf
.LVL134:
	.loc 1 221 76 view .LVU362
	.loc 1 222 3 view .LVU363
	ldr	r2, [r6, #48]
	ldr	r1, .L98+160
	ldr	r2, [r9, r2, lsl #2]
	mov	r0, r10
	bl	fprintf
.LVL135:
	.loc 1 222 98 view .LVU364
	.loc 1 223 3 view .LVU365
	ldr	r2, [r6, #52]
	ldr	r1, .L98+164
	ldr	r2, [r9, r2, lsl #2]
	mov	r0, r10
	bl	fprintf
.LVL136:
	.loc 1 223 100 view .LVU366
	.loc 1 224 3 view .LVU367
	ldr	r2, [r6, #56]
	ldr	r1, .L98+168
	ldr	r2, [r9, r2, lsl #2]
	mov	r0, r10
	bl	fprintf
.LVL137:
	.loc 1 224 82 view .LVU368
	.loc 1 225 3 view .LVU369
	ldr	r2, [r6, #60]
	ldr	r1, .L98+172
	ldr	r2, [r9, r2, lsl #2]
	mov	r0, r10
	bl	fprintf
.LVL138:
	.loc 1 225 80 view .LVU370
	.loc 1 229 3 view .LVU371
	ldr	r3, [sp, #12]
	mov	r0, r10
	ldrb	r2, [r3, #56]	@ zero_extendqisi2
	ldr	r1, .L98+176
	bl	fprintf
.LVL139:
	.loc 1 231 3 view .LVU372
	mov	r0, r10
	bl	fclose
.LVL140:
.L54:
	.loc 1 231 3 is_stmt 0 view .LVU373
.LBE128:
	.loc 1 234 2 is_stmt 1 view .LVU374
	.loc 1 234 17 is_stmt 0 view .LVU375
	ldr	r3, .L98+180
	str	r3, [r6, #72]	@ float
	.loc 1 235 1 view .LVU376
	add	sp, sp, #132
	.cfi_remember_state
	.cfi_def_cfa_offset 36
	@ sp needed
	pop	{r4, r5, r6, r7, r8, r9, r10, fp, pc}
.LVL141:
.L48:
	.cfi_restore_state
.LBB133:
	.loc 1 184 3 is_stmt 1 view .LVU377
	.loc 1 187 3 view .LVU378
	.loc 1 187 56 is_stmt 0 view .LVU379
	ldr	r3, [r6]
	.loc 1 187 8 view .LVU380
	mov	r0, r7
	.loc 1 187 56 view .LVU381
	add	r3, r3, #56
	.loc 1 187 8 view .LVU382
	str	r3, [sp]
	ldr	r2, .L98+80
	ldr	r3, .L98+84
	ldr	r1, .L98+16
	bl	ini_sget
.LVL142:
.L93:
	.loc 1 189 3 is_stmt 1 view .LVU383
	mov	r0, r7
	bl	ini_free
.LVL143:
	.loc 1 189 3 is_stmt 0 view .LVU384
.LBE133:
	.loc 1 194 2 is_stmt 1 view .LVU385
	b	.L5
.LVL144:
.L2:
	.loc 1 145 3 view .LVU386
	.loc 1 146 33 is_stmt 0 view .LVU387
	mov	r5, #1
	.loc 1 145 23 view .LVU388
	ldr	lr, .L98+184
	add	ip, r6, #4
	.loc 1 146 33 view .LVU389
	ldr	r4, [r6]
	.loc 1 145 23 view .LVU390
	ldmia	lr!, {r0, r1, r2, r3}
	stmia	ip!, {r0, r1, r2, r3}
	ldmia	lr!, {r0, r1, r2, r3}
	stmia	ip!, {r0, r1, r2, r3}
	ldmia	lr!, {r0, r1, r2, r3}
	stmia	ip!, {r0, r1, r2, r3}
	ldm	lr, {r0, r1, r2}
	stm	ip, {r0, r1, r2}
	.loc 1 146 3 is_stmt 1 view .LVU391
	.loc 1 146 33 is_stmt 0 view .LVU392
	strb	r5, [r4, #56]
	b	.L3
.LVL145:
.L96:
	.loc 1 151 6 view .LVU393
	mov	r4, #0
.LBB134:
.LBB127:
	b	.L6
.L99:
	.align	2
.L98:
	.word	.LANCHOR0
	.word	.LC0
	.word	.LC2
	.word	.LC1
	.word	.LC3
	.word	.LANCHOR1-4
	.word	.LC4
	.word	.LC5
	.word	.LC6
	.word	.LC7
	.word	.LC8
	.word	.LC9
	.word	.LC10
	.word	.LC11
	.word	.LC12
	.word	.LC13
	.word	.LC14
	.word	.LC15
	.word	.LC16
	.word	.LC17
	.word	.LC19
	.word	.LC18
	.word	.LC20
	.word	.LANCHOR1
	.word	.LC21
	.word	.LC23
	.word	.LC22
	.word	.LC24
	.word	.LC25
	.word	.LC26
	.word	.LC27
	.word	.LC28
	.word	.LC29
	.word	.LC30
	.word	.LC31
	.word	.LC32
	.word	.LC33
	.word	.LC34
	.word	.LC35
	.word	.LC36
	.word	.LC37
	.word	.LC38
	.word	.LC39
	.word	.LC40
	.word	.LC41
	.word	-1082130432
	.word	.LANCHOR0+60
.LBE127:
.LBE134:
	.cfi_endproc
.LFE146:
	.size	PlayerController_Init, .-PlayerController_Init
	.section	.text.PlayerController_Update,"ax",%progbits
	.align	2
	.global	PlayerController_Update
	.syntax unified
	.arm
	.fpu vfp
	.type	PlayerController_Update, %function
PlayerController_Update:
.LVL146:
.LFB147:
	.loc 1 237 95 is_stmt 1 view -0
	.cfi_startproc
	@ args = 24, pretend = 8, frame = 152
	@ frame_needed = 0, uses_anonymous_args = 0
	.loc 1 237 95 is_stmt 0 view .LVU395
	sub	sp, sp, #8
	.cfi_def_cfa_offset 8
	push	{r4, r5, r6, r7, r8, r9, lr}
	.cfi_def_cfa_offset 36
	.cfi_offset 4, -36
	.cfi_offset 5, -32
	.cfi_offset 6, -28
	.cfi_offset 7, -24
	.cfi_offset 8, -20
	.cfi_offset 9, -16
	.cfi_offset 14, -12
	vpush.64	{d8, d9, d10, d11, d12, d13}
	.cfi_def_cfa_offset 84
	.cfi_offset 80, -84
	.cfi_offset 81, -80
	.cfi_offset 82, -76
	.cfi_offset 83, -72
	.cfi_offset 84, -68
	.cfi_offset 85, -64
	.cfi_offset 86, -60
	.cfi_offset 87, -56
	.cfi_offset 88, -52
	.cfi_offset 89, -48
	.cfi_offset 90, -44
	.cfi_offset 91, -40
	sub	sp, sp, #156
	.cfi_def_cfa_offset 240
	.loc 1 237 95 view .LVU396
	add	ip, sp, #228
	stmib	ip, {r2, r3}
.LBB210:
.LBB211:
	.loc 1 79 14 view .LVU397
	mov	r2, #0
	strb	r2, [sp, #127]
	.loc 1 80 12 view .LVU398
	strb	r2, [sp, #104]
	.loc 1 82 34 view .LVU399
	ldr	r2, [sp, #236]
	ldr	r3, [sp, #232]
.LVL147:
	.loc 1 82 34 view .LVU400
.LBE211:
.LBE210:
	.loc 1 238 2 is_stmt 1 view .LVU401
.LBB222:
.LBB212:
	.loc 1 82 56 is_stmt 0 view .LVU402
	tst	r2, #1
.LBE212:
.LBE222:
	.loc 1 237 95 view .LVU403
	mov	r4, r1
.LBB223:
.LBB213:
	.loc 1 82 76 view .LVU404
	andeq	r1, r3, #1
.LVL148:
	.loc 1 82 76 view .LVU405
	vmoveq	s15, r1	@ int
	vldrne.32	s15, .L175
	.loc 1 82 20 view .LVU406
	vcvteq.f32.s32	s15, s15
	orr	r3, r3, r2
.LVL149:
	.loc 1 83 56 view .LVU407
	lsr	r1, r3, #1
	and	r1, r1, #1
	.loc 1 82 18 view .LVU408
	vstr.32	s15, [sp, #16]
	.loc 1 83 20 view .LVU409
	vmov	s15, r1	@ int
	.loc 1 84 56 view .LVU410
	lsr	r1, r3, #10
	and	r1, r1, #1
	.loc 1 83 20 view .LVU411
	vcvt.f32.s32	s11, s15
	.loc 1 84 20 view .LVU412
	vmov	s15, r1	@ int
	.loc 1 85 56 view .LVU413
	lsr	r1, r3, #11
	and	r1, r1, #1
	.loc 1 84 20 view .LVU414
	vcvt.f32.s32	s12, s15
	.loc 1 85 20 view .LVU415
	vmov	s15, r1	@ int
	.loc 1 87 56 view .LVU416
	lsr	r1, r3, #9
	and	r1, r1, #1
	.loc 1 85 20 view .LVU417
	vcvt.f32.s32	s13, s15
	.loc 1 87 20 view .LVU418
	vmov	s15, r1	@ int
	.loc 1 88 56 view .LVU419
	lsr	r1, r3, #8
	and	r1, r1, #1
	.loc 1 87 20 view .LVU420
	vcvt.f32.s32	s14, s15
	.loc 1 88 20 view .LVU421
	vmov	s15, r1	@ int
	vcvt.f32.s32	s15, s15
	.loc 1 90 64 view .LVU422
	lsr	r1, r3, #3
	and	r1, r1, #1
	.loc 1 88 20 view .LVU423
	vstr.32	s15, [sp, #36]
	.loc 1 90 24 view .LVU424
	vmov	s15, r1	@ int
	.loc 1 91 66 view .LVU425
	lsr	r1, r3, #2
	and	r1, r1, #1
	.loc 1 83 20 view .LVU426
	vstr.32	s11, [sp, #20]
	.loc 1 90 24 view .LVU427
	vcvt.f32.s32	s11, s15
	.loc 1 91 25 view .LVU428
	vmov	s15, r1	@ int
	.loc 1 93 60 view .LVU429
	lsr	r1, r3, #6
	and	r1, r1, #1
	.loc 1 84 20 view .LVU430
	vstr.32	s12, [sp, #24]
	.loc 1 91 25 view .LVU431
	vcvt.f32.s32	s12, s15
	.loc 1 93 22 view .LVU432
	vmov	s15, r1	@ int
	.loc 1 94 64 view .LVU433
	lsr	r1, r3, #7
	and	r1, r1, #1
	.loc 1 85 20 view .LVU434
	vstr.32	s13, [sp, #28]
	.loc 1 93 22 view .LVU435
	vcvt.f32.s32	s13, s15
	.loc 1 94 24 view .LVU436
	vmov	s15, r1	@ int
	.loc 1 95 64 view .LVU437
	lsr	r1, r3, #5
	and	r1, r1, #1
	.loc 1 87 20 view .LVU438
	vstr.32	s14, [sp, #32]
	.loc 1 94 24 view .LVU439
	vcvt.f32.s32	s14, s15
	.loc 1 95 24 view .LVU440
	vmov	s15, r1	@ int
	.loc 1 78 11 view .LVU441
	mov	ip, #0
	.loc 1 95 24 view .LVU442
	vcvt.f32.s32	s15, s15
	.loc 1 78 11 view .LVU443
	str	ip, [sp, #12]	@ float
	.loc 1 83 126 view .LVU444
	lsr	r1, r2, #1
	.loc 1 82 161 view .LVU445
	ldr	ip, [sp, #240]
	.loc 1 83 126 view .LVU446
	and	r1, r1, #1
	.loc 1 83 108 view .LVU447
	strb	r1, [sp, #129]
	.loc 1 83 170 view .LVU448
	lsr	r1, ip, #1
	and	r1, r1, #1
	.loc 1 83 154 view .LVU449
	strb	r1, [sp, #106]
	.loc 1 84 126 view .LVU450
	lsr	r1, r2, #10
	and	r1, r1, #1
	.loc 1 84 108 view .LVU451
	strb	r1, [sp, #130]
	.loc 1 84 170 view .LVU452
	lsr	r1, ip, #10
	and	r1, r1, #1
	.loc 1 84 154 view .LVU453
	strb	r1, [sp, #107]
	.loc 1 85 126 view .LVU454
	lsr	r1, r2, #11
	and	r1, r1, #1
	.loc 1 85 108 view .LVU455
	strb	r1, [sp, #131]
	.loc 1 85 170 view .LVU456
	lsr	r1, ip, #11
	and	r1, r1, #1
	.loc 1 85 154 view .LVU457
	strb	r1, [sp, #108]
	.loc 1 87 126 view .LVU458
	lsr	r1, r2, #9
	and	r1, r1, #1
	.loc 1 87 108 view .LVU459
	strb	r1, [sp, #132]
	.loc 1 87 170 view .LVU460
	lsr	r1, ip, #9
	and	r1, r1, #1
	.loc 1 87 154 view .LVU461
	strb	r1, [sp, #109]
	.loc 1 88 126 view .LVU462
	lsr	r1, r2, #8
	and	r1, r1, #1
	.loc 1 88 108 view .LVU463
	strb	r1, [sp, #133]
	.loc 1 88 170 view .LVU464
	lsr	r1, ip, #8
	and	r1, r1, #1
	.loc 1 88 154 view .LVU465
	strb	r1, [sp, #110]
	.loc 1 90 142 view .LVU466
	lsr	r1, r2, #3
	and	r1, r1, #1
.LBE213:
.LBE223:
	.loc 1 238 10 view .LVU467
	ldr	r5, [r0]
.LVL150:
	.loc 1 239 2 is_stmt 1 view .LVU468
	.loc 1 240 2 view .LVU469
	.loc 1 241 2 view .LVU470
.LBB224:
.LBI210:
	.loc 1 72 13 view .LVU471
.LBB214:
	.loc 1 78 2 view .LVU472
	.loc 1 79 2 view .LVU473
	.loc 1 80 2 view .LVU474
	.loc 1 82 2 view .LVU475
	.loc 1 82 89 view .LVU476
	.loc 1 90 24 is_stmt 0 view .LVU477
	vstr.32	s11, [sp, #40]
	.loc 1 91 25 view .LVU478
	vstr.32	s12, [sp, #44]
	.loc 1 93 22 view .LVU479
	vstr.32	s13, [sp, #48]
	.loc 1 94 24 view .LVU480
	vstr.32	s14, [sp, #52]
	.loc 1 95 24 view .LVU481
	vstr.32	s15, [sp, #56]
	.loc 1 90 124 view .LVU482
	strb	r1, [sp, #134]
	.loc 1 90 194 view .LVU483
	lsr	r1, ip, #3
	and	r1, r1, #1
	.loc 1 90 178 view .LVU484
	strb	r1, [sp, #111]
	.loc 1 91 146 view .LVU485
	lsr	r1, r2, #2
	and	r1, r1, #1
	.loc 1 91 128 view .LVU486
	strb	r1, [sp, #135]
	.loc 1 91 200 view .LVU487
	lsr	r1, ip, #2
	and	r1, r1, #1
	.loc 1 91 184 view .LVU488
	strb	r1, [sp, #112]
	.loc 1 93 134 view .LVU489
	lsr	r1, r2, #6
	and	r1, r1, #1
	.loc 1 93 116 view .LVU490
	strb	r1, [sp, #136]
	.loc 1 93 182 view .LVU491
	lsr	r1, ip, #6
	and	r1, r1, #1
	.loc 1 93 166 view .LVU492
	strb	r1, [sp, #113]
	.loc 1 94 142 view .LVU493
	lsr	r1, r2, #7
	and	r1, r1, #1
	.loc 1 94 124 view .LVU494
	strb	r1, [sp, #137]
	.loc 1 94 194 view .LVU495
	lsr	r1, ip, #7
	and	r1, r1, #1
	.loc 1 94 178 view .LVU496
	strb	r1, [sp, #114]
	.loc 1 95 142 view .LVU497
	lsr	r1, r2, #5
	and	r1, r1, #1
	.loc 1 95 124 view .LVU498
	strb	r1, [sp, #138]
	.loc 1 102 16 view .LVU499
	ldrsh	r1, [sp, #246]
	.loc 1 101 8 view .LVU500
	vldr.32	s9, .L175+4
	.loc 1 102 16 view .LVU501
	vmov	s11, r1	@ int
	.loc 1 101 16 view .LVU502
	ldrsh	r1, [sp, #244]
	.loc 1 102 16 view .LVU503
	vcvt.f32.s32	s11, s11
	.loc 1 101 16 view .LVU504
	vmov	s10, r1	@ int
	.loc 1 96 66 view .LVU505
	lsr	r1, r3, #4
	and	r1, r1, #1
	.loc 1 96 25 view .LVU506
	vmov	s15, r1	@ int
	.loc 1 98 58 view .LVU507
	lsr	r1, r3, #14
	and	r1, r1, #1
	.loc 1 96 25 view .LVU508
	vcvt.f32.s32	s13, s15
	.loc 1 98 21 view .LVU509
	vmov	s15, r1	@ int
	.loc 1 99 58 view .LVU510
	lsr	r1, r3, #15
	and	r1, r1, #1
	.loc 1 98 21 view .LVU511
	vcvt.f32.s32	s14, s15
	.loc 1 99 21 view .LVU512
	vmov	s15, r1	@ int
	.loc 1 102 8 view .LVU513
	vdiv.f32	s12, s11, s9
	.loc 1 99 21 view .LVU514
	vcvt.f32.s32	s15, s15
	.loc 1 109 50 view .LVU515
	vcmpe.f32	s12, #0
	.loc 1 95 194 view .LVU516
	lsr	r1, ip, #5
	and	r1, r1, #1
	.loc 1 95 178 view .LVU517
	strb	r1, [sp, #115]
	.loc 1 96 146 view .LVU518
	lsr	r1, r2, #4
	and	r1, r1, #1
	.loc 1 96 128 view .LVU519
	strb	r1, [sp, #139]
	.loc 1 96 200 view .LVU520
	lsr	r1, ip, #4
	and	r1, r1, #1
	.loc 1 96 184 view .LVU521
	strb	r1, [sp, #116]
	.loc 1 98 130 view .LVU522
	lsr	r1, r2, #14
	and	r1, r1, #1
	.loc 1 98 112 view .LVU523
	strb	r1, [sp, #148]
	.loc 1 98 176 view .LVU524
	lsr	r1, ip, #14
	and	r1, r1, #1
	.loc 1 98 160 view .LVU525
	strb	r1, [sp, #125]
	.loc 1 99 130 view .LVU526
	lsr	r1, r2, #15
	and	r1, r1, #1
	.loc 1 99 112 view .LVU527
	strb	r1, [sp, #149]
	.loc 1 99 176 view .LVU528
	lsr	r1, ip, #15
	and	r1, r1, #1
	.loc 1 99 160 view .LVU529
	strb	r1, [sp, #126]
	.loc 1 109 103 view .LVU530
	lsr	r1, r3, #30
	and	r1, r1, #1
	.loc 1 99 21 view .LVU531
	vstr.32	s15, [sp, #100]
	.loc 1 109 103 view .LVU532
	vmov	s15, r1	@ int
	.loc 1 110 107 view .LVU533
	lsr	r1, r3, #31
	.loc 1 109 50 view .LVU534
	vmrs	APSR_nzcv, FPSCR
	.loc 1 101 16 view .LVU535
	vcvt.f32.s32	s10, s10
	.loc 1 98 21 view .LVU536
	vstr.32	s14, [sp, #96]
	.loc 1 110 107 view .LVU537
	vmov	s14, r1	@ int
	.loc 1 101 8 view .LVU538
	vdiv.f32	s11, s10, s9
	.loc 1 109 50 view .LVU539
	vnegmi.f32	s12, s12
	.loc 1 110 65 view .LVU540
	vcvt.f32.s32	s14, s14
	.loc 1 109 63 view .LVU541
	vcvt.f32.s32	s15, s15
	.loc 1 109 183 view .LVU542
	lsr	r1, r2, #30
	and	r1, r1, #1
	.loc 1 111 52 view .LVU543
	vcmpe.f32	s11, #0
	.loc 1 110 63 view .LVU544
	vmul.f32	s14, s14, s12
	.loc 1 109 165 view .LVU545
	strb	r1, [sp, #140]
	.loc 1 109 239 view .LVU546
	lsr	r1, ip, #30
	and	r1, r1, #1
	.loc 1 109 223 view .LVU547
	strb	r1, [sp, #117]
	.loc 1 110 191 view .LVU548
	lsr	r1, r2, #31
	.loc 1 110 173 view .LVU549
	strb	r1, [sp, #141]
	.loc 1 110 251 view .LVU550
	lsr	r1, ip, #31
	.loc 1 110 235 view .LVU551
	strb	r1, [sp, #118]
	.loc 1 115 18 view .LVU552
	ldrsh	r1, [sp, #254]
	.loc 1 109 61 view .LVU553
	vmul.f32	s15, s15, s12
	.loc 1 96 25 view .LVU554
	vstr.32	s13, [sp, #60]
	.loc 1 115 18 view .LVU555
	vmov	s13, r1	@ int
	.loc 1 111 107 view .LVU556
	lsr	r1, r3, #29
	and	r1, r1, #1
	.loc 1 111 52 view .LVU557
	vmrs	APSR_nzcv, FPSCR
	.loc 1 110 26 view .LVU558
	vstr.32	s14, [sp, #68]
	.loc 1 111 107 view .LVU559
	vmov	s14, r1	@ int
	.loc 1 112 109 view .LVU560
	lsr	r1, r3, #28
	and	r1, r1, #1
	.loc 1 114 8 view .LVU561
	vldr.32	s9, .L175+4
	.loc 1 109 24 view .LVU562
	vstr.32	s15, [sp, #64]
	.loc 1 115 18 view .LVU563
	vcvt.f32.s32	s13, s13
	.loc 1 112 109 view .LVU564
	vmov	s15, r1	@ int
	.loc 1 111 52 view .LVU565
	vnegmi.f32	s11, s11
	.loc 1 111 65 view .LVU566
	vcvt.f32.s32	s14, s14
	.loc 1 115 8 view .LVU567
	vdiv.f32	s12, s13, s9
	.loc 1 112 66 view .LVU568
	vcvt.f32.s32	s15, s15
	.loc 1 111 63 view .LVU569
	vmul.f32	s14, s14, s11
	.loc 1 114 18 view .LVU570
	ldrsh	r1, [sp, #252]
	.loc 1 117 56 view .LVU571
	vcmpe.f32	s12, #0
	.loc 1 112 64 view .LVU572
	vmul.f32	s15, s15, s11
	.loc 1 114 18 view .LVU573
	vmov	s10, r1	@ int
	.loc 1 111 191 view .LVU574
	lsr	r1, r2, #29
	and	r1, r1, #1
	.loc 1 111 173 view .LVU575
	strb	r1, [sp, #142]
	.loc 1 111 251 view .LVU576
	lsr	r1, ip, #29
	and	r1, r1, #1
.LBE214:
.LBE224:
	.loc 1 237 95 view .LVU577
	mov	r6, r0
.LBB225:
.LBB215:
	.loc 1 111 235 view .LVU578
	strb	r1, [sp, #119]
	.loc 1 82 126 view .LVU579
	and	r0, r2, #1
.LVL151:
	.loc 1 112 195 view .LVU580
	lsr	r1, r2, #28
	.loc 1 82 126 view .LVU581
	strb	r0, [sp, #128]
	.loc 1 82 137 is_stmt 1 view .LVU582
	.loc 1 112 195 is_stmt 0 view .LVU583
	and	r1, r1, #1
	.loc 1 82 170 view .LVU584
	and	r0, ip, #1
	strb	r0, [sp, #105]
	.loc 1 83 2 is_stmt 1 view .LVU585
	.loc 1 83 89 view .LVU586
	.loc 1 83 137 view .LVU587
	.loc 1 84 2 view .LVU588
	.loc 1 84 89 view .LVU589
	.loc 1 84 137 view .LVU590
	.loc 1 85 2 view .LVU591
	.loc 1 85 89 view .LVU592
	.loc 1 85 137 view .LVU593
	.loc 1 87 2 view .LVU594
	.loc 1 87 89 view .LVU595
	.loc 1 87 137 view .LVU596
	.loc 1 88 2 view .LVU597
	.loc 1 88 89 view .LVU598
	.loc 1 88 137 view .LVU599
	.loc 1 90 2 view .LVU600
	.loc 1 90 101 view .LVU601
	.loc 1 90 157 view .LVU602
	.loc 1 91 2 view .LVU603
	.loc 1 91 104 view .LVU604
	.loc 1 91 162 view .LVU605
	.loc 1 93 2 view .LVU606
	.loc 1 93 95 view .LVU607
	.loc 1 93 147 view .LVU608
	.loc 1 94 2 view .LVU609
	.loc 1 94 101 view .LVU610
	.loc 1 94 157 view .LVU611
	.loc 1 95 2 view .LVU612
	.loc 1 95 101 view .LVU613
	.loc 1 95 157 view .LVU614
	.loc 1 96 2 view .LVU615
	.loc 1 96 104 view .LVU616
	.loc 1 96 162 view .LVU617
	.loc 1 98 2 view .LVU618
	.loc 1 98 92 view .LVU619
	.loc 1 98 142 view .LVU620
	.loc 1 99 2 view .LVU621
	.loc 1 99 92 view .LVU622
	.loc 1 99 142 view .LVU623
	.loc 1 101 2 view .LVU624
	.loc 1 102 2 view .LVU625
	.loc 1 109 2 view .LVU626
	.loc 1 109 140 view .LVU627
	.loc 1 109 200 view .LVU628
	.loc 1 110 2 view .LVU629
	.loc 1 110 146 view .LVU630
	.loc 1 110 210 view .LVU631
	.loc 1 111 2 view .LVU632
	.loc 1 111 26 is_stmt 0 view .LVU633
	vstr.32	s14, [sp, #72]
	.loc 1 111 146 is_stmt 1 view .LVU634
	.loc 1 111 210 view .LVU635
	.loc 1 112 2 view .LVU636
	.loc 1 112 177 is_stmt 0 view .LVU637
	strb	r1, [sp, #143]
	.loc 1 112 257 view .LVU638
	lsr	r1, ip, #28
	and	r1, r1, #1
	.loc 1 112 241 view .LVU639
	strb	r1, [sp, #120]
	.loc 1 117 113 view .LVU640
	lsr	r1, r3, #26
	and	r1, r1, #1
	vmov	s14, r1	@ int
	.loc 1 118 117 view .LVU641
	lsr	r1, r3, #27
	and	r1, r1, #1
	.loc 1 112 27 view .LVU642
	vstr.32	s15, [sp, #76]
	.loc 1 112 149 is_stmt 1 view .LVU643
	.loc 1 112 215 view .LVU644
	.loc 1 114 2 view .LVU645
	.loc 1 114 18 is_stmt 0 view .LVU646
	vcvt.f32.s32	s10, s10
	.loc 1 117 56 view .LVU647
	vmrs	APSR_nzcv, FPSCR
	.loc 1 118 117 view .LVU648
	vmov	s15, r1	@ int
	.loc 1 114 8 view .LVU649
	vdiv.f32	s13, s10, s9
.LVL152:
	.loc 1 115 2 is_stmt 1 view .LVU650
	.loc 1 117 2 view .LVU651
	.loc 1 117 56 is_stmt 0 view .LVU652
	vnegmi.f32	s12, s12
.LVL153:
	.loc 1 117 71 view .LVU653
	vcvt.f32.s32	s14, s14
	.loc 1 118 73 view .LVU654
	vcvt.f32.s32	s15, s15
	.loc 1 119 58 view .LVU655
	vcmpe.f32	s13, #0
	.loc 1 117 69 view .LVU656
	vmul.f32	s14, s14, s12
	.loc 1 118 71 view .LVU657
	vmul.f32	s15, s15, s12
	.loc 1 117 197 view .LVU658
	lsr	r1, r2, #26
	and	r1, r1, #1
	.loc 1 117 179 view .LVU659
	strb	r1, [sp, #144]
	.loc 1 117 257 view .LVU660
	lsr	r1, ip, #26
	and	r1, r1, #1
	.loc 1 117 241 view .LVU661
	strb	r1, [sp, #121]
	.loc 1 118 205 view .LVU662
	lsr	r1, r2, #27
	and	r1, r1, #1
	.loc 1 118 187 view .LVU663
	strb	r1, [sp, #145]
	.loc 1 118 269 view .LVU664
	lsr	r1, ip, #27
	and	r1, r1, #1
	.loc 1 118 253 view .LVU665
	strb	r1, [sp, #122]
	.loc 1 119 117 view .LVU666
	lsr	r1, r3, #25
	.loc 1 120 119 view .LVU667
	lsr	r3, r3, #24
	b	.L176
.L177:
	.align	2
.L175:
	.word	1065353216
	.word	1125908480
	.word	0
	.word	1126170624
.L176:
	.loc 1 119 117 view .LVU668
	and	r1, r1, #1
	.loc 1 120 119 view .LVU669
	and	r3, r3, #1
	.loc 1 117 26 view .LVU670
	vstr.32	s14, [sp, #80]
	.loc 1 117 152 is_stmt 1 view .LVU671
	.loc 1 117 216 view .LVU672
	.loc 1 118 2 view .LVU673
	.loc 1 118 28 is_stmt 0 view .LVU674
	vstr.32	s15, [sp, #84]
	.loc 1 118 158 is_stmt 1 view .LVU675
	.loc 1 118 226 view .LVU676
	.loc 1 119 2 view .LVU677
	.loc 1 119 58 is_stmt 0 view .LVU678
	vmrs	APSR_nzcv, FPSCR
	.loc 1 119 117 view .LVU679
	vmov	s14, r1	@ int
	.loc 1 120 74 view .LVU680
	vmov	s15, r3	@ int
	.loc 1 119 58 view .LVU681
	vnegmi.f32	s13, s13
.LVL154:
	.loc 1 119 73 view .LVU682
	vcvt.f32.s32	s14, s14
	.loc 1 120 74 view .LVU683
	vcvt.f32.s32	s15, s15
	.loc 1 119 71 view .LVU684
	vmul.f32	s14, s14, s13
	.loc 1 120 72 view .LVU685
	vmul.f32	s15, s15, s13
	.loc 1 119 28 view .LVU686
	vstr.32	s14, [sp, #88]
	.loc 1 119 158 is_stmt 1 view .LVU687
	.loc 1 120 29 is_stmt 0 view .LVU688
	vstr.32	s15, [sp, #92]
.LBE215:
.LBE225:
	.loc 1 251 30 view .LVU689
	vldr.32	s23, [r5, #16]
.LBB226:
.LBB227:
	.loc 1 131 97 view .LVU690
	ldr	r1, [r6, #44]
	add	r3, sp, #152
	add	r1, r3, r1, lsl #2
.LBE227:
.LBE226:
.LBB230:
.LBB231:
	ldr	r3, [r6, #60]
	add	r0, sp, #152
	add	r3, r0, r3, lsl #2
.LBE231:
.LBE230:
.LBB234:
.LBB235:
	ldr	r8, [r6, #4]
.LBE235:
.LBE234:
.LBB239:
.LBB240:
	ldr	r7, [r6, #8]
.LBE240:
.LBE239:
.LBB244:
.LBB245:
	ldr	lr, [r6, #12]
.LBE245:
.LBE244:
.LBB249:
.LBB232:
	vldr.32	s22, [r3, #-140]
.LBE232:
.LBE249:
.LBB250:
.LBB216:
	.loc 1 119 205 view .LVU691
	lsr	r3, r2, #25
.LBE216:
.LBE250:
.LBB251:
.LBB246:
	.loc 1 131 97 view .LVU692
	add	lr, r0, lr, lsl #2
.LBE246:
.LBE251:
.LBB252:
.LBB236:
	add	r8, r0, r8, lsl #2
.LBE236:
.LBE252:
.LBB253:
.LBB241:
	add	r7, r0, r7, lsl #2
.LBE241:
.LBE253:
.LBB254:
.LBB217:
	.loc 1 119 205 view .LVU693
	and	r3, r3, #1
.LBE217:
.LBE254:
.LBB255:
.LBB256:
	.loc 1 131 97 view .LVU694
	ldr	r0, [r6, #16]
.LBE256:
.LBE255:
.LBB261:
.LBB218:
	.loc 1 119 187 view .LVU695
	strb	r3, [sp, #146]
	.loc 1 119 226 is_stmt 1 view .LVU696
.LBE218:
.LBE261:
.LBB262:
.LBB257:
	.loc 1 131 97 is_stmt 0 view .LVU697
	add	r9, sp, #152
.LBE257:
.LBE262:
.LBB263:
.LBB219:
	.loc 1 119 269 view .LVU698
	lsr	r3, ip, #25
	.loc 1 120 209 view .LVU699
	lsr	r2, r2, #24
	.loc 1 120 275 view .LVU700
	lsr	ip, ip, #24
	.loc 1 119 269 view .LVU701
	and	r3, r3, #1
.LBE219:
.LBE263:
.LBB264:
.LBB258:
	.loc 1 131 97 view .LVU702
	add	r0, r9, r0, lsl #2
.LBE258:
.LBE264:
.LBB265:
.LBB220:
	.loc 1 120 209 view .LVU703
	and	r2, r2, #1
	.loc 1 120 275 view .LVU704
	and	ip, ip, #1
.LBE220:
.LBE265:
	.loc 1 237 95 view .LVU705
	vmov.f32	s20, s0
	.loc 1 251 30 view .LVU706
	vmov.f32	s0, s23
.LVL155:
.LBB266:
.LBB247:
	.loc 1 131 97 view .LVU707
	vldr.32	s27, [lr, #-140]
.LBE247:
.LBE266:
.LBB267:
.LBB259:
	vldr.32	s25, [r0, #-140]
.LBE259:
.LBE267:
.LBB268:
.LBB228:
	vldr.32	s19, [r1, #-140]
.LBE228:
.LBE268:
.LBB269:
.LBB221:
	.loc 1 119 253 view .LVU708
	strb	r3, [sp, #123]
	.loc 1 120 2 is_stmt 1 view .LVU709
	.loc 1 120 161 view .LVU710
	.loc 1 120 231 view .LVU711
	.loc 1 120 191 is_stmt 0 view .LVU712
	strb	r2, [sp, #147]
	.loc 1 120 259 view .LVU713
	strb	ip, [sp, #124]
.LVL156:
	.loc 1 120 259 view .LVU714
.LBE221:
.LBE269:
	.loc 1 243 2 is_stmt 1 view .LVU715
.LBB270:
.LBI226:
	.loc 1 131 21 view .LVU716
.LBB229:
	.loc 1 131 79 view .LVU717
	.loc 1 131 79 is_stmt 0 view .LVU718
.LBE229:
.LBE270:
	.loc 1 244 2 is_stmt 1 view .LVU719
.LBB271:
.LBI230:
	.loc 1 131 21 view .LVU720
.LBB233:
	.loc 1 131 79 view .LVU721
	.loc 1 131 79 is_stmt 0 view .LVU722
.LBE233:
.LBE271:
	.loc 1 246 2 is_stmt 1 view .LVU723
.LBB272:
.LBI234:
	.loc 1 131 21 view .LVU724
.LBB237:
	.loc 1 131 79 view .LVU725
	.loc 1 131 79 is_stmt 0 view .LVU726
.LBE237:
.LBE272:
	.loc 1 251 30 view .LVU727
	bl	sinf
.LVL157:
	vmov.f32	s21, s0
	.loc 1 251 55 view .LVU728
	vmov.f32	s0, s23
	bl	cosf
.LVL158:
.LBB273:
.LBB274:
	.file 2 "/home/tobi/Dokumente/Craftus-Next/include/misc/VecMath.h"
	.loc 2 21 51 view .LVU729
	vldr.32	s15, .L175+8
.LBE274:
.LBE273:
	.loc 1 251 22 view .LVU730
	vneg.f32	s21, s21
.LBB279:
.LBB238:
	.loc 1 131 97 view .LVU731
	vldr.32	s26, [r8, #-140]
.LVL159:
	.loc 1 131 97 view .LVU732
.LBE238:
.LBE279:
	.loc 1 247 2 is_stmt 1 view .LVU733
.LBB280:
.LBI239:
	.loc 1 131 21 view .LVU734
.LBB242:
	.loc 1 131 79 view .LVU735
	.loc 1 131 79 is_stmt 0 view .LVU736
.LBE242:
.LBE280:
.LBB281:
.LBB282:
	.loc 2 16 51 view .LVU737
	vmov.f32	s16, s15
.LBE282:
.LBE281:
.LBB288:
.LBB243:
	.loc 1 131 97 view .LVU738
	vldr.32	s24, [r7, #-140]
.LVL160:
	.loc 1 131 97 view .LVU739
.LBE243:
.LBE288:
	.loc 1 248 2 is_stmt 1 view .LVU740
.LBB289:
.LBI244:
	.loc 1 131 21 view .LVU741
.LBB248:
	.loc 1 131 79 view .LVU742
	.loc 1 131 79 is_stmt 0 view .LVU743
.LBE248:
.LBE289:
	.loc 1 249 2 is_stmt 1 view .LVU744
.LBB290:
.LBI255:
	.loc 1 131 21 view .LVU745
.LBB260:
	.loc 1 131 79 view .LVU746
	.loc 1 131 79 is_stmt 0 view .LVU747
.LBE260:
.LBE290:
	.loc 1 251 2 is_stmt 1 view .LVU748
.LBB291:
.LBB275:
	.loc 2 21 97 is_stmt 0 view .LVU749
	vmul.f32	s14, s21, s15
.LBE275:
.LBE291:
.LBB292:
.LBB283:
	.loc 2 16 51 view .LVU750
	vmla.f32	s16, s26, s15
.LBE283:
.LBE292:
.LBB293:
.LBB276:
	.loc 2 21 51 view .LVU751
	vnmla.f32	s14, s0, s15
.LBE276:
.LBE293:
.LBB294:
.LBB284:
	.loc 2 16 51 view .LVU752
	vmov.f32	s18, s15
.LBE284:
.LBE294:
.LBB295:
.LBB296:
	.loc 2 17 51 view .LVU753
	vmls.f32	s16, s24, s15
.LBE296:
.LBE295:
.LBB300:
.LBB285:
	.loc 2 16 51 view .LVU754
	vmla.f32	s18, s21, s26
	vmov.f32	s17, s15
.LBE285:
.LBE300:
.LBB301:
.LBB302:
	vmla.f32	s16, s14, s25
.LBE302:
.LBE301:
.LBB305:
.LBB277:
	.loc 2 21 51 view .LVU755
	vadd.f32	s13, s0, s15
.LBE277:
.LBE305:
.LBB306:
.LBB307:
	.loc 2 17 51 view .LVU756
	vmls.f32	s16, s14, s27
.LBE307:
.LBE306:
.LBB311:
.LBB297:
	vmls.f32	s18, s21, s24
.LBE297:
.LBE311:
.LBB312:
.LBB286:
	.loc 2 16 51 view .LVU757
	vmls.f32	s17, s0, s26
.LBE286:
.LBE312:
	.loc 1 259 5 view .LVU758
	ldrb	r3, [r5, #35]	@ zero_extendqisi2
.LBB313:
.LBB298:
	.loc 2 17 51 view .LVU759
	vmla.f32	s17, s0, s24
.LBE298:
.LBE313:
	.loc 1 259 5 view .LVU760
	cmp	r3, #0
.LVL161:
	.loc 1 252 2 is_stmt 1 view .LVU761
.LBB314:
.LBI273:
	.loc 2 21 15 view .LVU762
.LBB278:
	.loc 2 21 44 view .LVU763
	.loc 2 21 44 is_stmt 0 view .LVU764
.LBE278:
.LBE314:
	.loc 1 254 2 is_stmt 1 view .LVU765
	.loc 1 255 2 view .LVU766
.LBB315:
.LBI315:
	.loc 2 18 15 view .LVU767
.LBB316:
	.loc 2 18 43 view .LVU768
	.loc 2 18 43 is_stmt 0 view .LVU769
.LBE316:
.LBE315:
.LBB317:
.LBI281:
	.loc 2 16 15 is_stmt 1 view .LVU770
.LBB287:
	.loc 2 16 44 view .LVU771
	.loc 2 16 44 is_stmt 0 view .LVU772
.LBE287:
.LBE317:
	.loc 1 256 2 is_stmt 1 view .LVU773
.LBB318:
.LBI318:
	.loc 2 18 15 view .LVU774
.LBB319:
	.loc 2 18 43 view .LVU775
	.loc 2 18 43 is_stmt 0 view .LVU776
.LBE319:
.LBE318:
.LBB320:
.LBI295:
	.loc 2 17 15 is_stmt 1 view .LVU777
.LBB299:
	.loc 2 17 44 view .LVU778
	.loc 2 17 44 is_stmt 0 view .LVU779
.LBE299:
.LBE320:
	.loc 1 257 2 is_stmt 1 view .LVU780
.LBB321:
.LBI321:
	.loc 2 18 15 view .LVU781
.LBB322:
	.loc 2 18 43 view .LVU782
	.loc 2 18 43 is_stmt 0 view .LVU783
.LBE322:
.LBE321:
.LBB323:
.LBI301:
	.loc 2 16 15 is_stmt 1 view .LVU784
.LBB303:
	.loc 2 16 44 view .LVU785
	.loc 2 16 44 is_stmt 0 view .LVU786
.LBE303:
.LBE323:
	.loc 1 258 2 is_stmt 1 view .LVU787
.LBB324:
.LBI324:
	.loc 2 18 15 view .LVU788
.LBB325:
	.loc 2 18 43 view .LVU789
	.loc 2 18 43 is_stmt 0 view .LVU790
.LBE325:
.LBE324:
.LBB326:
.LBI306:
	.loc 2 17 15 is_stmt 1 view .LVU791
.LBB308:
	.loc 2 17 44 view .LVU792
.LBE308:
.LBE326:
.LBB327:
.LBB328:
	.loc 2 16 51 is_stmt 0 view .LVU793
	vaddne.f32	s16, s16, s19
.LBE328:
.LBE327:
.LBB331:
.LBB304:
	vmla.f32	s18, s13, s25
.LVL162:
	.loc 2 16 51 view .LVU794
	vmla.f32	s17, s21, s25
.LVL163:
	.loc 2 16 51 view .LVU795
.LBE304:
.LBE331:
.LBB332:
.LBB309:
	.loc 2 17 51 view .LVU796
	vmls.f32	s18, s13, s27
.LVL164:
	.loc 2 17 51 view .LVU797
.LBE309:
.LBE332:
.LBB333:
.LBB334:
	vsubne.f32	s16, s16, s22
.LBE334:
.LBE333:
.LBB336:
.LBB310:
	vmls.f32	s17, s21, s27
.LVL165:
	.loc 2 17 51 view .LVU798
.LBE310:
.LBE336:
	.loc 1 259 2 is_stmt 1 view .LVU799
	.loc 1 260 3 view .LVU800
.LBB337:
.LBI327:
	.loc 2 16 15 view .LVU801
.LBB329:
	.loc 2 16 44 view .LVU802
	.loc 2 16 51 is_stmt 0 view .LVU803
	vaddne.f32	s18, s18, s15
.LVL166:
	.loc 2 16 51 view .LVU804
.LBE329:
.LBE337:
.LBB338:
.LBB339:
.LBB340:
	.loc 2 20 66 view .LVU805
	vmul.f32	s21, s16, s16
.LVL167:
	.loc 2 20 66 view .LVU806
.LBE340:
.LBE339:
.LBE338:
.LBB343:
.LBB330:
	.loc 2 16 51 view .LVU807
	vaddne.f32	s17, s17, s15
.LVL168:
	.loc 2 16 51 view .LVU808
.LBE330:
.LBE343:
	.loc 1 261 3 is_stmt 1 view .LVU809
.LBB344:
.LBI333:
	.loc 2 17 15 view .LVU810
.LBB335:
	.loc 2 17 44 view .LVU811
	.loc 2 17 44 is_stmt 0 view .LVU812
.LBE335:
.LBE344:
	.loc 1 263 2 is_stmt 1 view .LVU813
.LBB345:
.LBI338:
	.loc 2 24 14 view .LVU814
	.loc 2 24 38 view .LVU815
.LBB342:
.LBI339:
	.loc 2 20 14 view .LVU816
.LBB341:
	.loc 2 20 43 view .LVU817
	.loc 2 20 60 is_stmt 0 view .LVU818
	vmla.f32	s21, s18, s18
	.loc 2 20 72 view .LVU819
	vmla.f32	s21, s17, s17
.LVL169:
	.loc 2 20 72 view .LVU820
.LBE341:
.LBE342:
.LBE345:
	.loc 1 263 5 view .LVU821
	vcmpe.f32	s21, #0
	vmrs	APSR_nzcv, FPSCR
	bgt	.L172
.LVL170:
.L111:
	.loc 1 269 2 is_stmt 1 view .LVU822
.LBB346:
.LBI346:
	.loc 1 131 21 view .LVU823
.LBB347:
	.loc 1 131 79 view .LVU824
	.loc 1 131 79 is_stmt 0 view .LVU825
.LBE347:
.LBE346:
	.loc 1 270 2 is_stmt 1 view .LVU826
.LBB349:
.LBI349:
	.loc 1 131 21 view .LVU827
.LBB350:
	.loc 1 131 79 view .LVU828
	.loc 1 131 79 is_stmt 0 view .LVU829
.LBE350:
.LBE349:
	.loc 1 271 2 is_stmt 1 view .LVU830
.LBB353:
.LBI353:
	.loc 1 131 21 view .LVU831
.LBB354:
	.loc 1 131 79 view .LVU832
.LBE354:
.LBE353:
.LBB357:
.LBB358:
	.loc 1 131 97 is_stmt 0 view .LVU833
	ldrd	r2, [r6, #28]
.LBE358:
.LBE357:
.LBB361:
.LBB355:
	add	r1, sp, #152
	add	r2, r1, r2, lsl #2
.LBE355:
.LBE361:
.LBB362:
.LBB359:
	add	r3, r1, r3, lsl #2
	vldr.32	s5, [r3, #-140]
.LBE359:
.LBE362:
.LBB363:
.LBB356:
	vldr.32	s14, [r2, #-140]
.LVL171:
	.loc 1 131 97 view .LVU834
.LBE356:
.LBE363:
	.loc 1 272 2 is_stmt 1 view .LVU835
.LBB364:
.LBI357:
	.loc 1 131 21 view .LVU836
.LBB360:
	.loc 1 131 79 view .LVU837
	.loc 1 131 79 is_stmt 0 view .LVU838
.LBE360:
.LBE364:
	.loc 1 274 2 is_stmt 1 view .LVU839
.LBB365:
.LBB351:
	.loc 1 131 97 is_stmt 0 view .LVU840
	ldrd	r2, [r6, #20]
.LBE351:
.LBE365:
.LBB366:
.LBB348:
	add	r2, r1, r2, lsl #2
.LBE348:
.LBE366:
.LBB367:
.LBB352:
	add	r3, r1, r3, lsl #2
.LBE352:
.LBE367:
	.loc 1 274 41 view .LVU841
	vldr.32	s15, .L175+12
	.loc 1 274 27 view .LVU842
	vldr.32	s13, [r3, #-140]
	.loc 1 275 30 view .LVU843
	vsub.f32	s14, s14, s5
.LVL172:
	.loc 1 274 27 view .LVU844
	vldr.32	s4, [r2, #-140]
	.loc 1 275 40 view .LVU845
	vmul.f32	s14, s14, s15
	.loc 1 274 27 view .LVU846
	vsub.f32	s4, s4, s13
	.loc 1 274 49 view .LVU847
	vldr.64	d3, .L178
	.loc 1 274 41 view .LVU848
	vmul.f32	s4, s4, s15
	.loc 1 275 16 view .LVU849
	vldr.32	s12, [r5, #12]
	.loc 1 275 40 view .LVU850
	vcvt.f64.f32	d7, s14
	.loc 1 274 65 view .LVU851
	vcvt.f64.f32	d4, s20
	.loc 1 275 48 view .LVU852
	vmul.f64	d7, d7, d3
	.loc 1 275 16 view .LVU853
	vcvt.f64.f32	d6, s12
	.loc 1 274 41 view .LVU854
	vcvt.f64.f32	d2, s4
	.loc 1 275 16 view .LVU855
	vmla.f64	d6, d7, d4
	.loc 1 274 14 view .LVU856
	vcvt.f64.f32	d5, s23
	.loc 1 274 49 view .LVU857
	vmul.f64	d2, d2, d3
	.loc 1 275 16 view .LVU858
	vcvt.f32.f64	s12, d6
	.loc 1 274 14 view .LVU859
	vmla.f64	d5, d2, d4
	.loc 1 276 28 view .LVU860
	vcvt.f64.f32	d7, s12
	.loc 1 276 43 view .LVU861
	vldr.64	d4, .L178+8
	vcmpe.f64	d7, d4
	.loc 1 274 14 view .LVU862
	vcvt.f32.f64	s10, d5
	.loc 1 276 43 view .LVU863
	vmrs	APSR_nzcv, FPSCR
	.loc 1 274 14 view .LVU864
	vstr.32	s10, [r5, #16]
	.loc 1 275 2 is_stmt 1 view .LVU865
	.loc 1 276 2 view .LVU866
	.loc 1 276 43 is_stmt 0 view .LVU867
	ble	.L169
	.loc 1 276 43 discriminator 1 view .LVU868
	vldr.64	d5, .L178+16
	vcmpe.f64	d7, d5
	vldr.32	s13, .L178+24
	vmrs	APSR_nzcv, FPSCR
	vmovpl.f32	s12, s13
.L119:
.LBB368:
.LBB369:
	.loc 1 131 97 discriminator 12 view .LVU869
	ldrd	r2, [r6, #36]
.LBE369:
.LBE368:
.LBB372:
.LBB373:
	add	r1, sp, #152
	add	r2, r1, r2, lsl #2
.LBE373:
.LBE372:
	.loc 1 280 5 discriminator 12 view .LVU870
	vldr.32	s15, [r2, #-140]
	vcmpe.f32	s15, #0
	vmrs	APSR_nzcv, FPSCR
.LBB375:
.LBB370:
	.loc 1 131 97 discriminator 12 view .LVU871
	add	r3, r1, r3, lsl #2
	mov	r2, r1
.LBE370:
.LBE375:
	.loc 1 276 16 discriminator 12 view .LVU872
	vstr.32	s12, [r5, #12]
	.loc 1 278 2 is_stmt 1 discriminator 12 view .LVU873
.LVL173:
.LBB376:
.LBI372:
	.loc 1 131 21 discriminator 12 view .LVU874
.LBB374:
	.loc 1 131 79 discriminator 12 view .LVU875
	.loc 1 131 79 is_stmt 0 discriminator 12 view .LVU876
.LBE374:
.LBE376:
	.loc 1 279 2 is_stmt 1 discriminator 12 view .LVU877
.LBB377:
.LBI368:
	.loc 1 131 21 discriminator 12 view .LVU878
.LBB371:
	.loc 1 131 79 discriminator 12 view .LVU879
	.loc 1 131 97 is_stmt 0 discriminator 12 view .LVU880
	vldr.32	s21, [r3, #-140]
.LVL174:
	.loc 1 131 97 discriminator 12 view .LVU881
.LBE371:
.LBE377:
	.loc 1 280 2 is_stmt 1 discriminator 12 view .LVU882
	.loc 1 280 5 is_stmt 0 discriminator 12 view .LVU883
	ble	.L122
	.loc 1 280 24 is_stmt 1 discriminator 1 view .LVU884
	mov	r1, r4
	mov	r0, r5
	bl	Player_PlaceBlock
.LVL175:
.L122:
	.loc 1 281 2 view .LVU885
	.loc 1 281 5 is_stmt 0 view .LVU886
	vcmpe.f32	s21, #0
	vmrs	APSR_nzcv, FPSCR
	ble	.L124
	.loc 1 281 24 is_stmt 1 discriminator 1 view .LVU887
	mov	r0, r5
	bl	Player_BreakBlock
.LVL176:
.L124:
	.loc 1 283 2 view .LVU888
	.loc 1 283 5 is_stmt 0 view .LVU889
	vcmpe.f32	s19, #0
	vmrs	APSR_nzcv, FPSCR
	bgt	.L173
	.loc 1 285 1 is_stmt 1 view .LVU890
.LVL177:
.LBB378:
.LBI378:
	.loc 1 132 19 view .LVU891
.LBB379:
	.loc 1 132 82 view .LVU892
.LBE379:
.LBE378:
	.loc 1 286 10 is_stmt 0 view .LVU893
	vldr.32	s15, [r6, #72]
	.loc 1 286 5 view .LVU894
	vcmpe.f32	s15, #0
	vmrs	APSR_nzcv, FPSCR
.LBB383:
.LBB380:
	.loc 1 132 102 view .LVU895
	ldr	r3, [r6, #44]
	add	r3, r3, #152
	add	r3, sp, r3
	ldrb	r3, [r3, #-48]	@ zero_extendqisi2
.LVL178:
	.loc 1 132 102 view .LVU896
.LBE380:
.LBE383:
	.loc 1 286 2 is_stmt 1 view .LVU897
	.loc 1 286 5 is_stmt 0 view .LVU898
	blt	.L129
	.loc 1 287 3 is_stmt 1 view .LVU899
	.loc 1 295 39 is_stmt 0 view .LVU900
	ldrb	r3, [r5, #35]	@ zero_extendqisi2
.LVL179:
	.loc 1 295 39 view .LVU901
	eor	r3, r3, #1
.LVL180:
.L131:
	.loc 1 288 3 is_stmt 1 view .LVU902
	.loc 1 288 18 is_stmt 0 view .LVU903
	vadd.f32	s15, s20, s15
	.loc 1 289 3 is_stmt 1 view .LVU904
	.loc 1 289 6 is_stmt 0 view .LVU905
	vldr.32	s14, .L178+28
	vcmpe.f32	s15, s14
	vmrs	APSR_nzcv, FPSCR
	.loc 1 288 18 view .LVU906
	vstrle.32	s15, [r6, #72]
	.loc 1 289 31 is_stmt 1 view .LVU907
	.loc 1 289 46 is_stmt 0 view .LVU908
	ldrgt	r2, .L178+48
	strgt	r2, [r6, #72]	@ float
.L133:
	.loc 1 294 1 is_stmt 1 view .LVU909
.LVL181:
.LBB384:
.LBI384:
	.loc 1 132 19 view .LVU910
.LBB385:
	.loc 1 132 82 view .LVU911
	.loc 1 132 82 is_stmt 0 view .LVU912
.LBE385:
.LBE384:
	.loc 1 295 2 is_stmt 1 view .LVU913
.LBB388:
.LBB386:
	.loc 1 132 102 is_stmt 0 view .LVU914
	ldr	r2, [r6, #60]
.LBE386:
.LBE388:
.LBB389:
.LBB390:
	.loc 1 133 103 view .LVU915
	ldr	r1, [r6, #48]
.LBE390:
.LBE389:
.LBB394:
.LBB387:
	.loc 1 132 102 view .LVU916
	add	r2, r2, #152
	add	r2, sp, r2
.LBE387:
.LBE394:
	.loc 1 295 39 view .LVU917
	ldrb	r2, [r2, #-48]	@ zero_extendqisi2
.LBB395:
.LBB391:
	.loc 1 133 103 view .LVU918
	add	r1, r1, #152
.LBE391:
.LBE395:
	.loc 1 295 39 view .LVU919
	and	r3, r3, r2
	.loc 1 295 20 view .LVU920
	ldrb	r2, [r5, #36]	@ zero_extendqisi2
.LBB396:
.LBB392:
	.loc 1 133 103 view .LVU921
	add	r1, sp, r1
.LBE392:
.LBE396:
	.loc 1 295 20 view .LVU922
	eor	r3, r3, r2
.LBB397:
.LBB398:
	.loc 1 133 103 view .LVU923
	ldr	r2, [r6, #52]
.LBE398:
.LBE397:
	.loc 1 299 5 view .LVU924
	ldrb	r1, [r1, #-25]	@ zero_extendqisi2
.LBB402:
.LBB399:
	.loc 1 133 103 view .LVU925
	add	r2, r2, #152
	add	r2, sp, r2
.LBE399:
.LBE402:
	.loc 1 299 5 view .LVU926
	cmp	r1, #0
.LBB403:
.LBB400:
	.loc 1 133 103 view .LVU927
	ldrb	r2, [r2, #-25]	@ zero_extendqisi2
.LBE400:
.LBE403:
	.loc 1 295 20 view .LVU928
	strb	r3, [r5, #36]
	.loc 1 297 1 is_stmt 1 view .LVU929
.LVL182:
.LBB404:
.LBI389:
	.loc 1 133 19 view .LVU930
.LBB393:
	.loc 1 133 81 view .LVU931
	.loc 1 133 81 is_stmt 0 view .LVU932
.LBE393:
.LBE404:
	.loc 1 298 1 is_stmt 1 view .LVU933
.LBB405:
.LBI397:
	.loc 1 133 19 view .LVU934
.LBB401:
	.loc 1 133 81 view .LVU935
	.loc 1 133 81 is_stmt 0 view .LVU936
.LBE401:
.LBE405:
	.loc 1 299 2 is_stmt 1 view .LVU937
	.loc 1 299 5 is_stmt 0 view .LVU938
	beq	.L136
	.loc 1 299 25 discriminator 1 view .LVU939
	ldr	r3, [r5, #136]
	sub	r3, r3, #1
	.loc 1 299 22 discriminator 1 view .LVU940
	cmn	r3, #1
	str	r3, [r5, #136]
	.loc 1 299 61 is_stmt 1 discriminator 1 view .LVU941
	.loc 1 299 118 is_stmt 0 discriminator 1 view .LVU942
	ldreq	r3, [r5, #132]
	subeq	r3, r3, #1
	.loc 1 299 88 discriminator 1 view .LVU943
	streq	r3, [r5, #136]
.L136:
	.loc 1 300 2 is_stmt 1 view .LVU944
	.loc 1 300 5 is_stmt 0 view .LVU945
	cmp	r2, #0
	beq	.L139
	.loc 1 300 23 discriminator 1 view .LVU946
	ldrd	r2, [r5, #132]
.LVL183:
	.loc 1 300 26 discriminator 1 view .LVU947
	add	r3, r3, #1
	.loc 1 300 23 discriminator 1 view .LVU948
	cmp	r3, r2
	str	r3, [r5, #136]
	.loc 1 300 87 is_stmt 1 discriminator 1 view .LVU949
	.loc 1 300 114 is_stmt 0 discriminator 1 view .LVU950
	moveq	r3, #0
	streq	r3, [r5, #136]
.L139:
	.loc 1 302 2 is_stmt 1 view .LVU951
	.loc 1 302 5 is_stmt 0 view .LVU952
	ldrb	r3, [r6, #68]	@ zero_extendqisi2
	cmp	r3, #0
	.loc 1 303 3 is_stmt 1 view .LVU953
.LVL184:
	.loc 1 304 3 view .LVU954
	.loc 1 304 19 is_stmt 0 view .LVU955
	movne	r3, #0
	strbne	r3, [r6, #68]
.LBB406:
.LBB407:
	.loc 1 133 103 view .LVU956
	ldr	r3, [r6, #56]
.LBE407:
.LBE406:
	.loc 1 303 6 view .LVU957
	vldrne.32	s20, .L178+32
.LVL185:
	.loc 1 307 2 is_stmt 1 view .LVU958
.LBB410:
.LBI406:
	.loc 1 133 19 view .LVU959
.LBB408:
	.loc 1 133 81 view .LVU960
	.loc 1 133 81 is_stmt 0 view .LVU961
.LBE408:
.LBE410:
	.loc 1 308 2 is_stmt 1 view .LVU962
.LBB411:
.LBB409:
	.loc 1 133 103 is_stmt 0 view .LVU963
	add	r3, r3, #152
.LVL186:
	.loc 1 133 103 view .LVU964
	add	r3, sp, r3
.LBE409:
.LBE411:
	.loc 1 308 5 view .LVU965
	ldrb	r3, [r3, #-25]	@ zero_extendqisi2
	cmp	r3, #0
	bne	.L174
.LVL187:
.L142:
	.loc 1 313 2 is_stmt 1 view .LVU966
	mov	r0, r5
	vmov.f32	s1, s18
	vmov.f32	s2, s16
	vmov.f32	s3, s17
	vmov.f32	s0, s20
	bl	Player_Move
.LVL188:
	.loc 1 314 2 view .LVU967
	mov	r2, #0
	mov	r1, r4
	mov	r0, r5
	.loc 1 315 1 is_stmt 0 view .LVU968
	add	sp, sp, #156
	.cfi_remember_state
	.cfi_def_cfa_offset 84
	@ sp needed
	vldm	sp!, {d8-d13}
	.cfi_restore 90
	.cfi_restore 91
	.cfi_restore 88
	.cfi_restore 89
	.cfi_restore 86
	.cfi_restore 87
	.cfi_restore 84
	.cfi_restore 85
	.cfi_restore 82
	.cfi_restore 83
	.cfi_restore 80
	.cfi_restore 81
	.cfi_def_cfa_offset 36
.LVL189:
	.loc 1 315 1 view .LVU969
	pop	{r4, r5, r6, r7, r8, r9, lr}
	.cfi_restore 14
	.cfi_restore 9
	.cfi_restore 8
	.cfi_restore 7
	.cfi_restore 6
	.cfi_restore 5
	.cfi_restore 4
	.cfi_def_cfa_offset 8
.LVL190:
	.loc 1 315 1 view .LVU970
	add	sp, sp, #8
	.cfi_def_cfa_offset 0
	.loc 1 314 2 view .LVU971
	b	Player_Update
.LVL191:
.L169:
	.cfi_restore_state
	.loc 1 276 43 view .LVU972
	vldr.32	s12, .L178+36
	b	.L119
.LVL192:
.L129:
	.loc 1 290 9 is_stmt 1 view .LVU973
	.loc 1 291 3 view .LVU974
	.loc 1 290 12 is_stmt 0 view .LVU975
	cmp	r3, #0
	.loc 1 291 18 view .LVU976
	movne	r2, #0
	.loc 1 295 39 view .LVU977
	ldrbne	r3, [r5, #35]	@ zero_extendqisi2
.LVL193:
	.loc 1 295 39 view .LVU978
	ldrbeq	r3, [r5, #35]	@ zero_extendqisi2
	eorne	r3, r3, #1
	eoreq	r3, r3, #1
	.loc 1 291 18 view .LVU979
	strne	r2, [r6, #72]	@ float
	b	.L133
.L173:
	.loc 1 283 18 is_stmt 1 discriminator 1 view .LVU980
	vmov.f32	s0, s18
	vmov.f32	s1, s16
	vmov.f32	s2, s17
	mov	r0, r5
	vstr.32	s18, [sp]
	vstr.32	s16, [sp, #4]
	vstr.32	s17, [sp, #8]
	bl	Player_Jump
.LVL194:
	.loc 1 285 1 discriminator 1 view .LVU981
.LBB412:
	.loc 1 132 19 discriminator 1 view .LVU982
.LBB381:
	.loc 1 132 82 discriminator 1 view .LVU983
.LBE381:
.LBE412:
	.loc 1 286 10 is_stmt 0 discriminator 1 view .LVU984
	vldr.32	s15, [r6, #72]
	.loc 1 286 5 discriminator 1 view .LVU985
	vcmpe.f32	s15, #0
	vmrs	APSR_nzcv, FPSCR
.LBB413:
.LBB382:
	.loc 1 132 102 discriminator 1 view .LVU986
	ldr	r3, [r6, #44]
	add	r3, r3, #152
	add	r3, sp, r3
	ldrb	r3, [r3, #-48]	@ zero_extendqisi2
.LVL195:
	.loc 1 132 102 discriminator 1 view .LVU987
.LBE382:
.LBE413:
	.loc 1 286 2 is_stmt 1 discriminator 1 view .LVU988
	.loc 1 286 5 is_stmt 0 discriminator 1 view .LVU989
	blt	.L129
	.loc 1 287 19 is_stmt 1 discriminator 1 view .LVU990
	.loc 1 287 34 is_stmt 0 discriminator 1 view .LVU991
	ldrb	r3, [r5, #35]	@ zero_extendqisi2
.LVL196:
	.loc 1 287 34 discriminator 1 view .LVU992
	eor	r2, r3, #1
	strb	r2, [r5, #35]
	b	.L131
.LVL197:
.L172:
.LBB414:
	.loc 1 264 3 is_stmt 1 view .LVU993
	.loc 1 264 24 is_stmt 0 view .LVU994
	vsub.f32	s22, s19, s22
.LVL198:
	.loc 1 264 24 view .LVU995
	vsub.f32	s25, s25, s27
.LVL199:
.LBB415:
.LBB416:
.LBB417:
.LBB418:
	.loc 2 20 66 view .LVU996
	vmul.f32	s0, s22, s22
.LVL200:
	.loc 2 20 66 view .LVU997
.LBE418:
.LBE417:
.LBE416:
.LBE415:
	.loc 1 264 24 view .LVU998
	vsub.f32	s24, s24, s26
.LVL201:
.LBB423:
.LBI415:
	.loc 2 23 14 is_stmt 1 view .LVU999
.LBB421:
	.loc 2 23 35 view .LVU1000
.LBB420:
.LBI417:
	.loc 2 20 14 view .LVU1001
.LBB419:
	.loc 2 20 43 view .LVU1002
	.loc 2 20 60 is_stmt 0 view .LVU1003
	vmla.f32	s0, s25, s25
	.loc 2 20 72 view .LVU1004
	vmla.f32	s0, s24, s24
.LVL202:
	.loc 2 20 72 view .LVU1005
	vcmp.f32	s0, #0
	vmrs	APSR_nzcv, FPSCR
	bmi	.L167
.LBE419:
.LBE420:
	.loc 2 23 42 view .LVU1006
	vsqrt.f32	s22, s0
.LVL203:
.L115:
	.loc 2 23 42 view .LVU1007
.LBE421:
.LBE423:
	.loc 1 264 9 view .LVU1008
	vldr.32	s13, .L178+40
	.loc 1 265 28 view .LVU1009
	vldr.32	s14, .L178+44
	.loc 1 264 9 view .LVU1010
	vmul.f32	s22, s22, s13
.LVL204:
	.loc 1 265 3 is_stmt 1 view .LVU1011
	.loc 1 265 19 is_stmt 0 view .LVU1012
	vldr.32	s15, [r5, #20]
	vcmp.f32	s21, #0
	.loc 1 265 28 view .LVU1013
	vmul.f32	s14, s22, s14
	vmrs	APSR_nzcv, FPSCR
	.loc 1 265 19 view .LVU1014
	vmla.f32	s15, s14, s20
	.loc 1 266 14 view .LVU1015
	vstr.32	s18, [sp]
	vstr.32	s16, [sp, #4]
	vstr.32	s17, [sp, #8]
	.loc 1 265 19 view .LVU1016
	vstr.32	s15, [r5, #20]
	.loc 1 266 3 is_stmt 1 view .LVU1017
.LBB424:
.LBI424:
	.loc 2 25 15 view .LVU1018
.LVL205:
.LBB425:
	.loc 2 26 2 view .LVU1019
.LBB426:
.LBI426:
	.loc 2 23 14 view .LVU1020
.LBB427:
	.loc 2 23 35 view .LVU1021
	bmi	.L168
.LVL206:
	.loc 2 23 42 is_stmt 0 view .LVU1022
	vsqrt.f32	s0, s21
.L118:
.LVL207:
	.loc 2 23 42 view .LVU1023
.LBE427:
.LBE426:
	.loc 2 27 2 is_stmt 1 view .LVU1024
	.loc 2 27 2 is_stmt 0 view .LVU1025
.LBE425:
.LBE424:
.LBB432:
.LBI432:
	.loc 2 18 15 is_stmt 1 view .LVU1026
.LBB433:
	.loc 2 18 43 view .LVU1027
.LBE433:
.LBE432:
.LBB435:
.LBB430:
	.loc 2 27 9 is_stmt 0 view .LVU1028
	vdiv.f32	s13, s18, s0
.LVL208:
	.loc 2 27 9 view .LVU1029
	vdiv.f32	s14, s16, s0
.LVL209:
	.loc 2 27 9 view .LVU1030
	vdiv.f32	s15, s17, s0
.LVL210:
	.loc 2 27 9 view .LVU1031
.LBE430:
.LBE435:
.LBB436:
.LBB434:
	.loc 2 18 50 view .LVU1032
	vmul.f32	s18, s13, s22
.LVL211:
	.loc 2 18 50 view .LVU1033
	vmul.f32	s16, s14, s22
.LVL212:
	.loc 2 18 50 view .LVU1034
	vmul.f32	s17, s15, s22
.LVL213:
	.loc 2 18 50 view .LVU1035
	b	.L111
.LVL214:
.L174:
	.loc 2 18 50 view .LVU1036
.LBE434:
.LBE436:
.LBE414:
	.loc 1 309 3 is_stmt 1 view .LVU1037
	mov	r1, r5
	ldr	r0, [r5, #40]
	bl	CommandLine_Activate
.LVL215:
	.loc 1 310 3 view .LVU1038
	.loc 1 310 19 is_stmt 0 view .LVU1039
	mov	r3, #1
	strb	r3, [r6, #68]
	b	.L142
.LVL216:
.L167:
.LBB439:
.LBB437:
.LBB422:
	.loc 2 23 42 view .LVU1040
	bl	sqrtf
.LVL217:
	.loc 2 23 42 view .LVU1041
	vmov.f32	s22, s0
.LVL218:
	.loc 2 23 42 view .LVU1042
	b	.L115
.LVL219:
.L168:
	.loc 2 23 42 view .LVU1043
.LBE422:
.LBE437:
.LBB438:
.LBB431:
.LBB429:
.LBB428:
	vmov.f32	s0, s21
	bl	sqrtf
.LVL220:
	b	.L118
.L179:
	.align	3
.L178:
	.word	-1571644103
	.word	1066524486
	.word	1059675009
	.word	-1074193707
	.word	1059675009
	.word	1073289941
	.word	1070126762
	.word	1048576000
	.word	0
	.word	-1077356886
	.word	1082759578
	.word	1069547520
	.word	-1082130432
.LBE428:
.LBE429:
.LBE431:
.LBE438:
.LBE439:
	.cfi_endproc
.LFE147:
	.size	PlayerController_Update, .-PlayerController_Update
	.global	n3ds_default_scheme
	.global	platform_default_scheme
	.global	platform_key_names
	.section	.rodata.str1.4
	.align	2
.LC42:
	.ascii	"Not Set\000"
	.align	2
.LC43:
	.ascii	"A\000"
	.align	2
.LC44:
	.ascii	"B\000"
	.align	2
.LC45:
	.ascii	"X\000"
	.align	2
.LC46:
	.ascii	"Y\000"
	.align	2
.LC47:
	.ascii	"L\000"
	.align	2
.LC48:
	.ascii	"R\000"
	.align	2
.LC49:
	.ascii	"Start\000"
	.align	2
.LC50:
	.ascii	"Select\000"
	.align	2
.LC51:
	.ascii	"DUp\000"
	.align	2
.LC52:
	.ascii	"DDown\000"
	.align	2
.LC53:
	.ascii	"DLeft\000"
	.align	2
.LC54:
	.ascii	"DRight\000"
	.align	2
.LC55:
	.ascii	"CircUp\000"
	.align	2
.LC56:
	.ascii	"CircDown\000"
	.align	2
.LC57:
	.ascii	"CircLeft\000"
	.align	2
.LC58:
	.ascii	"CircRight\000"
	.align	2
.LC59:
	.ascii	"CStickUp\000"
	.align	2
.LC60:
	.ascii	"CStickDown\000"
	.align	2
.LC61:
	.ascii	"CStickLeft\000"
	.align	2
.LC62:
	.ascii	"CStickRight\000"
	.align	2
.LC63:
	.ascii	"ZL\000"
	.align	2
.LC64:
	.ascii	"ZR\000"
	.section	.rodata
	.align	2
	.set	.LANCHOR0,. + 0
	.type	n3ds_default_scheme, %object
	.size	n3ds_default_scheme, 60
n3ds_default_scheme:
	.word	13
	.word	14
	.word	15
	.word	16
	.word	19
	.word	20
	.word	17
	.word	18
	.word	21
	.word	22
	.word	1
	.word	1
	.word	1
	.word	8
	.word	1
	.type	platform_default_scheme, %object
	.size	platform_default_scheme, 60
platform_default_scheme:
	.word	13
	.word	14
	.word	15
	.word	16
	.word	4
	.word	1
	.word	3
	.word	2
	.word	5
	.word	6
	.word	9
	.word	11
	.word	12
	.word	8
	.word	10
	.data
	.align	2
	.set	.LANCHOR1,. + 0
	.type	platform_key_names, %object
	.size	platform_key_names, 92
platform_key_names:
	.word	.LC42
	.word	.LC43
	.word	.LC44
	.word	.LC45
	.word	.LC46
	.word	.LC47
	.word	.LC48
	.word	.LC49
	.word	.LC50
	.word	.LC51
	.word	.LC52
	.word	.LC53
	.word	.LC54
	.word	.LC55
	.word	.LC56
	.word	.LC57
	.word	.LC58
	.word	.LC59
	.word	.LC60
	.word	.LC61
	.word	.LC62
	.word	.LC63
	.word	.LC64
	.text
.Letext0:
	.file 3 "/opt/devkitpro/devkitARM/arm-none-eabi/include/machine/_default_types.h"
	.file 4 "/opt/devkitpro/devkitARM/arm-none-eabi/include/sys/_stdint.h"
	.file 5 "/home/tobi/Dokumente/Craftus-Next/include/world/Direction.h"
	.file 6 "/home/tobi/Dokumente/Craftus-Next/include/blocks/Block.h"
	.file 7 "/home/tobi/Dokumente/Craftus-Next/include/misc/Xorshift.h"
	.file 8 "/opt/devkitpro/devkitARM/lib/gcc/arm-none-eabi/11.2.0/include/stddef.h"
	.file 9 "/opt/devkitpro/devkitARM/arm-none-eabi/include/machine/_types.h"
	.file 10 "/opt/devkitpro/devkitARM/arm-none-eabi/include/sys/_types.h"
	.file 11 "/opt/devkitpro/devkitARM/arm-none-eabi/include/sys/reent.h"
	.file 12 "/opt/devkitpro/devkitARM/arm-none-eabi/include/sys/lock.h"
	.file 13 "/opt/devkitpro/devkitARM/arm-none-eabi/include/stdio.h"
	.file 14 "/home/tobi/Dokumente/Craftus-Next/include/rendering/VBOCache.h"
	.file 15 "/home/tobi/Dokumente/Craftus-Next/include/world/Chunk.h"
	.file 16 "/opt/devkitpro/libctru/include/3ds/types.h"
	.file 17 "/opt/devkitpro/libctru/include/3ds/synchronization.h"
	.file 18 "/opt/devkitpro/libctru/include/3ds/thread.h"
	.file 19 "/opt/devkitpro/libctru/include/3ds/services/csnd.h"
	.file 20 "/opt/devkitpro/libctru/include/3ds/services/hid.h"
	.file 21 "/opt/devkitpro/libctru/include/3ds/services/ndm.h"
	.file 22 "/opt/devkitpro/libctru/include/3ds/gpu/enums.h"
	.file 23 "/opt/devkitpro/libctru/include/3ds/ndsp/channel.h"
	.file 24 "/opt/devkitpro/libctru/include/3ds/applets/error.h"
	.file 25 "/home/tobi/Dokumente/Craftus-Next/include/world/WorkQueue.h"
	.file 26 "/home/tobi/Dokumente/Craftus-Next/include/world/World.h"
	.file 27 "/home/tobi/Dokumente/Craftus-Next/include/blocks/Item.h"
	.file 28 "/home/tobi/Dokumente/Craftus-Next/include/inventory/ItemStack.h"
	.file 29 "/home/tobi/Dokumente/Craftus-Next/include/entity/Damage.h"
	.file 30 "/home/tobi/Dokumente/Craftus-Next/include/misc/Raycast.h"
	.file 31 "/opt/devkitpro/portlibs/3ds/include/opus/opusfile.h"
	.file 32 "/home/tobi/Dokumente/Craftus-Next/include/misc/Sound.h"
	.file 33 "/home/tobi/Dokumente/Craftus-Next/include/entity/Player.h"
	.file 34 "/home/tobi/Dokumente/Craftus-Next/include/misc/InputData.h"
	.file 35 "/home/tobi/Dokumente/Craftus-Next/include/entity/PlayerController.h"
	.file 36 "/home/tobi/Dokumente/Craftus-Next/dependencies/ini/ini.h"
	.file 37 "/home/tobi/Dokumente/Craftus-Next/include/misc/CommandLine.h"
	.file 38 "/opt/devkitpro/devkitARM/arm-none-eabi/include/math.h"
	.file 39 "/opt/devkitpro/devkitARM/arm-none-eabi/include/string.h"
	.file 40 "/opt/devkitpro/devkitARM/arm-none-eabi/include/sys/unistd.h"
	.file 41 "/opt/devkitpro/libctru/include/3ds/services/apt.h"
	.file 42 "<built-in>"