	.arch armv6k
	.eabi_attribute 28, 1
	.eabi_attribute 20, 1
	.eabi_attribute 21, 1
	.eabi_attribute 23, 3
	.eabi_attribute 24, 1
	.eabi_attribute 25, 1
	.eabi_attribute 26, 1
	.eabi_attribute 30, 2
	.eabi_attribute 34, 1
	.eabi_attribute 18, 4
	.file	"PolyGen.c"
	.text
.Ltext0:
	.cfi_sections	.debug_frame
	.section	.text.floodFill.part.0,"ax",%progbits
	.align	2
	.syntax unified
	.arm
	.fpu vfp
	.type	floodFill.part.0, %function
floodFill.part.0:
.LVL0:
.LFB151:
	.file 1 "/home/tobi/Dokumente/Craftus-Next/source/rendering/PolyGen.c"
	.loc 1 170 17 view -0
	.cfi_startproc
	@ args = 12, pretend = 0, frame = 32
	@ frame_needed = 0, uses_anonymous_args = 0
	.loc 1 173 2 view .LVU1
	.loc 1 170 17 is_stmt 0 view .LVU2
	push	{r4, r5, r6, r7, r8, r9, r10, fp, lr}
	.cfi_def_cfa_offset 36
	.cfi_offset 4, -36
	.cfi_offset 5, -32
	.cfi_offset 6, -28
	.cfi_offset 7, -24
	.cfi_offset 8, -20
	.cfi_offset 9, -16
	.cfi_offset 10, -12
	.cfi_offset 11, -8
	.cfi_offset 14, -4
	sub	sp, sp, #36
	.cfi_def_cfa_offset 72
	.loc 1 170 17 view .LVU3
	ldrb	r7, [sp, #72]	@ zero_extendqisi2
	mov	r4, r3
	.loc 1 174 5 view .LVU4
	cmp	r7, #6
	.loc 1 174 62 view .LVU5
	addne	r3, r7, #32
.LVL1:
	.loc 1 174 62 view .LVU6
	addne	r7, sp, r3
	.loc 1 173 10 view .LVU7
	mov	r8, #0
	.loc 1 174 62 view .LVU8
	movne	r3, #1
	.loc 1 170 17 view .LVU9
	ldrb	lr, [sp, #76]	@ zero_extendqisi2
	.loc 1 173 10 view .LVU10
	str	r8, [sp, #24]
	strh	r8, [sp, #28]	@ movhi
	.loc 1 174 2 is_stmt 1 view .LVU11
	.loc 1 174 39 view .LVU12
	.loc 1 174 62 is_stmt 0 view .LVU13
	strbne	r3, [r7, #-8]
	.loc 1 175 2 is_stmt 1 view .LVU14
	.loc 1 175 5 is_stmt 0 view .LVU15
	cmp	lr, #6
	.loc 1 175 39 is_stmt 1 view .LVU16
	.loc 1 175 62 is_stmt 0 view .LVU17
	addne	r3, lr, #32
	addne	lr, sp, r3
	movne	r3, #1
	.loc 1 170 17 view .LVU18
	ldrb	ip, [sp, #80]	@ zero_extendqisi2
	.loc 1 175 62 view .LVU19
	strbne	r3, [lr, #-8]
	.loc 1 176 2 is_stmt 1 view .LVU20
	.loc 1 176 5 is_stmt 0 view .LVU21
	cmp	ip, #6
	.loc 1 176 39 is_stmt 1 view .LVU22
	.loc 1 177 2 view .LVU23
	.loc 1 176 62 is_stmt 0 view .LVU24
	addne	r3, ip, #32
	addne	ip, sp, r3
	movne	r3, #1
	strbne	r3, [ip, #-8]
	.loc 1 177 30 view .LVU25
	mov	r3, #0
	ldr	r7, .L55
	.loc 1 170 17 view .LVU26
	str	r0, [sp, #4]
	.loc 1 177 30 view .LVU27
	str	r3, [r7, #4]
	.loc 1 178 2 is_stmt 1 view .LVU28
	.loc 1 170 17 is_stmt 0 view .LVU29
	mov	r6, r1
	mov	r5, r2
	.loc 1 178 4 view .LVU30
	mov	r3, #3
	mov	r0, r7
.LVL2:
	.loc 1 178 4 view .LVU31
	add	r2, r7, #8
.LVL3:
	.loc 1 178 4 view .LVU32
	add	r1, r7, #4
.LVL4:
	.loc 1 178 4 view .LVU33
	bl	vec_expand_
.LVL5:
	.loc 1 178 151 view .LVU34
	cmp	r0, #0
	bne	.L5
	.loc 1 178 197 view .LVU35
	ldr	r0, [r7, #4]
	.loc 1 178 172 view .LVU36
	ldr	r3, [r7]
	.loc 1 178 178 view .LVU37
	add	r2, r0, r0, lsl #1
	.loc 1 178 205 view .LVU38
	add	r0, r0, #1
	str	r0, [r7, #4]
	.loc 1 178 209 view .LVU39
	strb	r6, [r3, r2]
	.loc 1 178 178 view .LVU40
	add	r3, r3, r2
	.loc 1 178 209 view .LVU41
	strb	r5, [r3, #1]
	strb	r4, [r3, #2]
.L6:
	.loc 1 180 32 is_stmt 1 view .LVU42
	cmp	r0, #0
	ble	.L17
	mov	r3, r0
.LVL6:
.L15:
.LBB84:
	.loc 1 181 3 view .LVU43
	.loc 1 181 41 is_stmt 0 view .LVU44
	ldr	r0, .L55
	.loc 1 181 48 view .LVU45
	sub	r3, r3, #1
	.loc 1 181 41 view .LVU46
	ldr	r1, [r0]
	.loc 1 181 47 view .LVU47
	add	r2, r3, r3, lsl #1
	.loc 1 181 16 view .LVU48
	str	r3, [r0, #4]
	.loc 1 181 47 view .LVU49
	add	r3, r1, r2
.LVL7:
	.loc 1 183 3 is_stmt 1 view .LVU50
.LBB85:
	.loc 1 183 8 view .LVU51
	.loc 1 183 21 view .LVU52
.LBB86:
	.loc 1 185 40 is_stmt 0 view .LVU53
	ldrsb	r10, [r3, #1]
	.loc 1 185 16 view .LVU54
	ldrsb	fp, [r1, r2]
	.loc 1 185 64 view .LVU55
	ldrsb	r3, [r3, #2]
.LVL8:
	.loc 1 185 64 view .LVU56
	ldr	r4, .L55+4
	str	r3, [sp]
	.loc 1 194 41 view .LVU57
	add	r3, r10, fp, lsl #4
	lsl	r3, r3, #4
	ldr	r9, .L55+8
	add	r8, sp, #24
	str	r3, [sp, #8]
	b	.L13
.LVL9:
.L51:
	.loc 1 187 5 is_stmt 1 view .LVU58
	.loc 1 187 19 is_stmt 0 view .LVU59
	mov	r3, #1
	strb	r3, [r8]
.LVL10:
.L8:
	.loc 1 187 19 view .LVU60
.LBE86:
	.loc 1 183 27 is_stmt 1 view .LVU61
	.loc 1 183 21 view .LVU62
	ldr	r3, .L55+12
	add	r4, r4, #12
.LVL11:
	.loc 1 183 21 is_stmt 0 view .LVU63
	cmp	r3, r4
	add	r8, r8, #1
.LVL12:
	.loc 1 183 21 view .LVU64
	add	r9, r9, #1
	beq	.L50
.LVL13:
.L13:
.LBB99:
	.loc 1 184 4 is_stmt 1 view .LVU65
	.loc 1 185 4 view .LVU66
	.loc 1 185 8 is_stmt 0 view .LVU67
	ldr	r7, [r4]
	.loc 1 185 32 view .LVU68
	ldr	r6, [r4, #4]
	.loc 1 185 56 view .LVU69
	ldr	r3, [sp]
	ldr	r5, [r4, #8]
	.loc 1 185 8 view .LVU70
	add	r7, fp, r7
.LVL14:
	.loc 1 185 32 view .LVU71
	add	r6, r10, r6
.LVL15:
	.loc 1 185 56 view .LVU72
	add	r5, r3, r5
.LVL16:
	.loc 1 186 4 is_stmt 1 view .LVU73
	.loc 1 186 63 is_stmt 0 view .LVU74
	orr	r3, r7, r6
	orr	r3, r3, r5
	.loc 1 186 58 view .LVU75
	cmp	r3, #15
	bhi	.L51
	.loc 1 189 5 is_stmt 1 view .LVU76
	.loc 1 189 77 is_stmt 0 view .LVU77
	ldr	r3, [sp, #4]
	add	r2, r6, r7, lsl #4
	add	r3, r3, r2, lsl #4
	add	r3, r3, r5
	lsl	r2, r2, #4
	str	r2, [sp, #12]
	add	r2, r3, #4096
	.loc 1 189 10 view .LVU78
	ldrb	r1, [r2, #4]	@ zero_extendqisi2
	ldrb	r0, [r3, #4]	@ zero_extendqisi2
	and	r1, r1, #15
	bl	Block_Opaque
.LVL17:
	.loc 1 189 77 view .LVU79
	lsl	r3, r7, #4
	.loc 1 189 8 view .LVU80
	cmp	r0, #0
	.loc 1 189 77 view .LVU81
	str	r3, [sp, #16]
	.loc 1 189 8 view .LVU82
	bne	.L10
	.loc 1 190 34 view .LVU83
	ldr	r2, [sp, #12]
	ldr	r3, .L55+16
	add	r3, r3, r2
	ldrb	r2, [r3, r5]	@ zero_extendqisi2
	.loc 1 189 88 view .LVU84
	tst	r2, #1
	beq	.L52
.L10:
	.loc 1 194 5 is_stmt 1 view .LVU85
	.loc 1 194 41 is_stmt 0 view .LVU86
	ldrd	r2, [sp, #4]
	ldr	r1, [sp]
	add	r3, r2, r3
	add	r3, r3, r1
	.loc 1 194 8 view .LVU87
	ldrb	r3, [r3, #4]	@ zero_extendqisi2
	cmp	r3, #0
	.loc 1 195 10 view .LVU88
	lsl	r3, r7, #4
	add	r3, r3, r6
	add	r3, r2, r3, lsl #4
	add	r3, r3, r5
	ldrb	r0, [r3, #4]	@ zero_extendqisi2
	.loc 1 194 8 view .LVU89
	bne	.L53
.L12:
	.loc 1 196 30 view .LVU90
	lsl	r3, r7, #4
	add	r2, r3, r6
	ldr	r3, [sp, #4]
	add	r2, r3, r2, lsl #4
	add	r2, r2, r5
	ldrb	r3, [r2, #4]	@ zero_extendqisi2
	.loc 1 195 89 view .LVU91
	cmp	r3, #0
	beq	.L8
	.loc 1 197 6 is_stmt 1 view .LVU92
	.loc 1 198 35 is_stmt 0 view .LVU93
	add	r2, r2, #4096
	.loc 1 197 6 view .LVU94
	ldrb	r1, [r2, #4]	@ zero_extendqisi2
	ldrb	r2, [r9]	@ zero_extendqisi2
	and	r1, r1, #15
	.loc 1 199 8 view .LVU95
	mov	r0, r3
	str	r1, [sp, #20]
	str	r3, [sp, #16]
	.loc 1 197 6 view .LVU96
	str	r2, [sp, #12]
	.loc 1 199 8 view .LVU97
	bl	Block_Opaque
.LVL18:
.LBB87:
.LBB88:
.LBB89:
.LBB90:
	.loc 1 165 25 view .LVU98
	ldr	r2, .L55
	.loc 1 165 29 view .LVU99
	ldr	r3, .L55+20
	.loc 1 165 25 view .LVU100
	ldr	lr, [r2, #12]
	.loc 1 165 29 view .LVU101
	ldr	r1, [sp, #20]
	add	ip, r3, lr, lsl #3
	strb	r7, [r3, lr, lsl #3]
	ldr	r3, [sp, #16]
	.loc 1 166 20 view .LVU102
	ldr	r7, [r2, #16]
.LVL19:
	.loc 1 165 29 view .LVU103
	strb	r3, [ip, #4]
	mov	r3, #0
	ldr	r2, [sp, #12]
	strb	r3, [ip, #5]
.LBE90:
.LBE89:
.LBE88:
.LBE87:
	.loc 1 199 7 view .LVU104
	eor	r3, r0, #1
	uxtb	r3, r3
.LBB97:
.LBB95:
.LBB93:
.LBB91:
	.loc 1 165 29 view .LVU105
	strb	r2, [ip, #3]
	.loc 1 165 25 view .LVU106
	ldr	r2, .L55
	add	lr, lr, #1
	.loc 1 166 20 view .LVU107
	add	r7, r7, r3
	.loc 1 165 29 view .LVU108
	strb	r6, [ip, #1]
	strb	r5, [ip, #2]
.LVL20:
	.loc 1 165 29 view .LVU109
.LBE91:
.LBE93:
.LBE95:
.LBI87:
	.loc 1 163 20 is_stmt 1 view .LVU110
	.loc 1 164 2 view .LVU111
.LBB96:
.LBI88:
	.loc 1 163 20 view .LVU112
.LBB94:
.LBB92:
	.loc 1 165 3 view .LVU113
	.loc 1 165 29 is_stmt 0 view .LVU114
	strb	r1, [ip, #6]
	.loc 1 165 25 view .LVU115
	str	lr, [r2, #12]
	.loc 1 165 29 view .LVU116
	strb	r3, [ip, #7]
	.loc 1 166 3 is_stmt 1 view .LVU117
	.loc 1 166 20 is_stmt 0 view .LVU118
	str	r7, [r2, #16]
.LBE92:
	.loc 1 168 1 view .LVU119
	b	.L8
.LVL21:
.L50:
	.loc 1 168 1 view .LVU120
.LBE94:
.LBE96:
.LBE97:
.LBE99:
.LBE85:
.LBE84:
	.loc 1 180 32 is_stmt 1 view .LVU121
	.loc 1 180 24 is_stmt 0 view .LVU122
	ldr	r3, .L55
	ldr	r3, [r3, #4]
	.loc 1 180 32 view .LVU123
	cmp	r3, #0
	bgt	.L15
.LVL22:
.L17:
	.loc 1 204 11 view .LVU124
	mov	r0, #0
.LBB102:
.LBB103:
.LBB104:
.LBB105:
	.file 2 "/home/tobi/Dokumente/Craftus-Next/include/world/Chunk.h"
	.loc 2 65 73 view .LVU125
	mov	r5, #1
.LBE105:
.LBE104:
.LBE103:
	.loc 1 205 11 view .LVU126
	mov	r2, r0
	ldr	lr, .L55+24
	add	r4, sp, #23
	b	.L16
.LVL23:
.L18:
	.loc 1 205 26 is_stmt 1 view .LVU127
	add	r2, r2, #1
.LVL24:
	.loc 1 205 20 view .LVU128
	cmp	r2, #6
	add	lr, lr, #6
	beq	.L54
.LVL25:
.L16:
	.loc 1 206 3 view .LVU129
	.loc 1 206 6 is_stmt 0 view .LVU130
	ldrb	r3, [r4, #1]!	@ zero_extendqisi2
	cmp	r3, #0
	beq	.L18
.LBB110:
	.loc 1 207 13 view .LVU131
	mov	r3, #0
	add	r1, sp, #24
.L20:
.LVL26:
	.loc 1 208 5 is_stmt 1 view .LVU132
	.loc 1 208 8 is_stmt 0 view .LVU133
	cmp	r2, r3
	beq	.L19
	.loc 1 208 34 is_stmt 1 view .LVU134
.LVL27:
.LBB108:
.LBI104:
	.loc 2 65 17 view .LVU135
.LBB106:
	.loc 2 65 64 view .LVU136
	.loc 2 65 64 is_stmt 0 view .LVU137
.LBE106:
.LBE108:
	.loc 1 208 16 view .LVU138
	ldrb	ip, [r1]	@ zero_extendqisi2
	cmp	ip, #0
.LBB109:
.LBB107:
	.loc 2 65 76 view .LVU139
	ldrbne	ip, [lr, r3]	@ zero_extendqisi2
.LBE107:
.LBE109:
	.loc 1 208 44 view .LVU140
	orrne	r0, r0, r5, lsl ip
.LVL28:
	.loc 1 208 44 view .LVU141
	uxthne	r0, r0
.LVL29:
.L19:
	.loc 1 207 28 is_stmt 1 view .LVU142
	add	r3, r3, #1
.LVL30:
	.loc 1 207 22 view .LVU143
	cmp	r3, #6
	add	r1, r1, #1
	bne	.L20
	.loc 1 207 22 is_stmt 0 view .LVU144
.LBE110:
	.loc 1 205 26 is_stmt 1 view .LVU145
	add	r2, r2, #1
.LVL31:
	.loc 1 205 20 view .LVU146
	cmp	r2, #6
	add	lr, lr, #6
	bne	.L16
.LVL32:
.L54:
	.loc 1 205 20 is_stmt 0 view .LVU147
.LBE102:
	.loc 1 210 1 view .LVU148
	add	sp, sp, #36
	.cfi_remember_state
	.cfi_def_cfa_offset 36
	@ sp needed
	pop	{r4, r5, r6, r7, r8, r9, r10, fp, pc}
.LVL33:
.L53:
	.cfi_restore_state
.LBB111:
.LBB101:
.LBB100:
	.loc 1 195 77 view .LVU149
	add	r3, r3, #4096
	.loc 1 195 10 view .LVU150
	ldrb	r1, [r3, #4]	@ zero_extendqisi2
	and	r1, r1, #15
	bl	Block_Opaque
.LVL34:
	.loc 1 194 63 view .LVU151
	cmp	r0, #0
	bne	.L12
	b	.L8
.L52:
.LBB98:
	.loc 1 191 6 is_stmt 1 view .LVU152
	.loc 1 192 8 is_stmt 0 view .LVU153
	ldr	r1, .L55+28
	.loc 1 191 33 view .LVU154
	orr	r2, r2, #1
	strb	r2, [r3, r5]
	.loc 1 192 6 is_stmt 1 view .LVU155
	.loc 1 192 8 is_stmt 0 view .LVU156
	sub	r0, r1, #4
	mov	r3, #3
	add	r2, r1, #4
	bl	vec_expand_
.LVL35:
	.loc 1 192 155 view .LVU157
	cmp	r0, #0
	bne	.L10
	.loc 1 192 201 view .LVU158
	ldr	r0, .L55
	ldr	r2, [r0, #4]
	.loc 1 192 176 view .LVU159
	ldr	r3, [r0]
	.loc 1 192 182 view .LVU160
	add	r1, r2, r2, lsl #1
	.loc 1 192 209 view .LVU161
	add	r2, r2, #1
	str	r2, [r0, #4]
	.loc 1 192 213 view .LVU162
	strb	r7, [r3, r1]
	.loc 1 192 182 view .LVU163
	add	r3, r3, r1
	.loc 1 192 213 view .LVU164
	strb	r6, [r3, #1]
	strb	r5, [r3, #2]
	b	.L10
.LVL36:
.L5:
	.loc 1 192 213 view .LVU165
.LBE98:
.LBE100:
.LBE101:
.LBE111:
	.loc 1 178 197 view .LVU166
	ldr	r3, .L55
	ldr	r0, [r3, #4]
	b	.L6
.L56:
	.align	2
.L55:
	.word	.LANCHOR0
	.word	DirectionToOffset
	.word	DirectionOpposite
	.word	DirectionToOffset+72
	.word	floodfill_visited
	.word	faceBuffer
	.word	_seethroughTable
	.word	.LANCHOR0+4
	.cfi_endproc
.LFE151:
	.size	floodFill.part.0, .-floodFill.part.0
	.section	.text.PolyGen_Init,"ax",%progbits
	.align	2
	.global	PolyGen_Init
	.syntax unified
	.arm
	.fpu vfp
	.type	PolyGen_Init, %function
PolyGen_Init:
.LVL37:
.LFB144:
	.loc 1 112 51 is_stmt 1 view -0
	.cfi_startproc
	@ args = 0, pretend = 0, frame = 0
	@ frame_needed = 0, uses_anonymous_args = 0
	.loc 1 113 2 view .LVU168
	.loc 1 112 51 is_stmt 0 view .LVU169
	push	{r4, r5, r6, lr}
	.cfi_def_cfa_offset 16
	.cfi_offset 4, -16
	.cfi_offset 5, -12
	.cfi_offset 6, -8
	.cfi_offset 14, -4
	.loc 1 118 2 view .LVU170
	mov	r5, #0
	.loc 1 113 8 view .LVU171
	ldr	r4, .L59
	.loc 1 114 9 view .LVU172
	strd	r0, [r4, #20]
	.loc 1 116 2 is_stmt 1 view .LVU173
	bl	VBOCache_Init
.LVL38:
	.loc 1 118 2 view .LVU174
	.loc 1 120 2 is_stmt 0 view .LVU175
	add	r0, r4, #28
	.loc 1 118 2 view .LVU176
	str	r5, [r4]
	str	r5, [r4, #4]
	str	r5, [r4, #8]
	.loc 1 120 2 is_stmt 1 view .LVU177
	bl	LightLock_Init
.LVL39:
	.loc 1 122 2 view .LVU178
	str	r5, [r4, #32]
	str	r5, [r4, #36]
	str	r5, [r4, #40]
	.loc 1 123 1 is_stmt 0 view .LVU179
	pop	{r4, r5, r6, pc}
.L60:
	.align	2
.L59:
	.word	.LANCHOR0
	.cfi_endproc
.LFE144:
	.size	PolyGen_Init, .-PolyGen_Init
	.section	.text.PolyGen_Deinit,"ax",%progbits
	.align	2
	.global	PolyGen_Deinit
	.syntax unified
	.arm
	.fpu vfp
	.type	PolyGen_Deinit, %function
PolyGen_Deinit:
.LFB145:
	.loc 1 124 23 is_stmt 1 view -0
	.cfi_startproc
	@ args = 0, pretend = 0, frame = 0
	@ frame_needed = 0, uses_anonymous_args = 0
	.loc 1 125 2 view .LVU181
	.loc 1 124 23 is_stmt 0 view .LVU182
	push	{r4, r5, r6, lr}
	.cfi_def_cfa_offset 16
	.cfi_offset 4, -16
	.cfi_offset 5, -12
	.cfi_offset 6, -8
	.cfi_offset 14, -4
	.loc 1 125 22 view .LVU183
	ldr	r4, .L63
	.loc 1 125 31 view .LVU184
	mov	r5, #0
	.loc 1 125 4 view .LVU185
	mov	r6, r4
	ldr	r0, [r6, #32]!
	bl	free
.LVL40:
	.loc 1 125 31 view .LVU186
	str	r5, [r4, #32]
	str	r5, [r6, #4]
	str	r5, [r6, #8]
	.loc 1 127 2 is_stmt 1 view .LVU187
	bl	VBOCache_Deinit
.LVL41:
	.loc 1 129 2 view .LVU188
	.loc 1 129 4 is_stmt 0 view .LVU189
	ldr	r0, [r4]
	bl	free
.LVL42:
	.loc 1 129 36 view .LVU190
	str	r5, [r4]
	str	r5, [r4, #4]
	str	r5, [r4, #8]
	.loc 1 130 1 view .LVU191
	pop	{r4, r5, r6, pc}
.L64:
	.align	2
.L63:
	.word	.LANCHOR0
	.cfi_endproc
.LFE145:
	.size	PolyGen_Deinit, .-PolyGen_Deinit
	.section	.rodata.str1.4,"aMS",%progbits,1
	.align	2
.LC0:
	.ascii	"VBOUpdates %d\000"
	.section	.text.PolyGen_Harvest,"ax",%progbits
	.align	2
	.global	PolyGen_Harvest
	.syntax unified
	.arm
	.fpu vfp
	.type	PolyGen_Harvest, %function
PolyGen_Harvest:
.LFB146:
	.loc 1 132 24 is_stmt 1 view -0
	.cfi_startproc
	@ args = 0, pretend = 0, frame = 48
	@ frame_needed = 0, uses_anonymous_args = 0
	.loc 1 133 2 view .LVU193
	.loc 1 132 24 is_stmt 0 view .LVU194
	push	{r4, r5, r6, r7, r8, r9, r10, fp, lr}
	.cfi_def_cfa_offset 36
	.cfi_offset 4, -36
	.cfi_offset 5, -32
	.cfi_offset 6, -28
	.cfi_offset 7, -24
	.cfi_offset 8, -20
	.cfi_offset 9, -16
	.cfi_offset 10, -12
	.cfi_offset 11, -8
	.cfi_offset 14, -4
	.loc 1 133 6 view .LVU195
	ldr	r5, .L84
	.loc 1 132 24 view .LVU196
	sub	sp, sp, #52
	.cfi_def_cfa_offset 88
	.loc 1 133 6 view .LVU197
	add	r0, r5, #28
	bl	LightLock_TryLock
.LVL43:
	.loc 1 133 5 view .LVU198
	cmp	r0, #0
	beq	.L82
	.loc 1 156 1 view .LVU199
	add	sp, sp, #52
	.cfi_remember_state
	.cfi_def_cfa_offset 36
	@ sp needed
	pop	{r4, r5, r6, r7, r8, r9, r10, fp, pc}
.L82:
	.cfi_restore_state
	.loc 1 134 3 is_stmt 1 view .LVU200
	ldr	r1, [r5, #36]
	ldr	r0, .L84+4
	bl	DebugUI_Text
.LVL44:
	.loc 1 135 3 view .LVU201
	.loc 1 135 17 is_stmt 0 view .LVU202
	ldr	r2, [r5, #36]
	.loc 1 135 6 view .LVU203
	cmp	r2, #0
	ble	.L67
	.loc 1 136 4 is_stmt 1 view .LVU204
	.loc 1 136 18 is_stmt 0 view .LVU205
	ldr	r3, [r5, #32]
	.loc 1 136 26 view .LVU206
	ldrb	r1, [r3, #36]	@ zero_extendqisi2
	.loc 1 136 32 view .LVU207
	add	r0, r1, #1
	.loc 1 136 7 view .LVU208
	cmp	r1, #2
	.loc 1 136 32 view .LVU209
	strb	r0, [r3, #36]
	.loc 1 136 7 view .LVU210
	bls	.L67
	add	r8, sp, #8
	b	.L71
.LVL45:
.L69:
.LBB112:
	.loc 1 143 7 is_stmt 1 view .LVU211
	.loc 1 143 36 is_stmt 0 view .LVU212
	add	r3, r7, r4
	add	r3, r4, r3, lsl #1
	add	r3, fp, r3, lsl #4
	add	r3, r3, #8192
	.loc 1 143 10 view .LVU213
	ldr	r3, [r3, #60]
	cmp	r3, #0
	bne	.L83
.L70:
	.loc 1 145 7 is_stmt 1 view .LVU214
	.loc 1 145 37 is_stmt 0 view .LVU215
	ldm	r8, {r0, r1}
	add	r7, r7, r4
	add	r4, r4, r7, lsl #1
.LVL46:
	.loc 1 145 37 view .LVU216
	add	r4, fp, r4, lsl #4
	add	r4, r4, #8192
	.loc 1 147 48 view .LVU217
	add	r3, r6, r6, lsl #8
	add	r6, r6, r3, lsl #1
	.loc 1 145 37 view .LVU218
	add	r3, r4, #40
	stm	r3, {r0, r1}
	.loc 1 146 7 is_stmt 1 view .LVU219
	.loc 1 147 48 is_stmt 0 view .LVU220
	add	r3, sp, #16
	ldm	r3, {r0, r1}
	.loc 1 149 44 view .LVU221
	ldr	r3, [sp, #4]
	.loc 1 147 48 view .LVU222
	add	fp, fp, r6, lsl #4
.LVL47:
	.loc 1 146 42 view .LVU223
	str	r10, [r4, #56]
	.loc 1 147 7 is_stmt 1 view .LVU224
	.loc 1 147 48 is_stmt 0 view .LVU225
	stm	fp, {r0, r1}
	.loc 1 148 7 is_stmt 1 view .LVU226
	.loc 1 148 53 is_stmt 0 view .LVU227
	str	r9, [r4, #60]
	.loc 1 149 7 is_stmt 1 view .LVU228
	.loc 1 149 44 is_stmt 0 view .LVU229
	strh	r3, [r4, #32]	@ movhi
.L68:
.LVL48:
	.loc 1 149 44 view .LVU230
.LBE112:
	.loc 1 137 30 is_stmt 1 view .LVU231
	.loc 1 137 22 is_stmt 0 view .LVU232
	ldr	r2, [r5, #36]
	.loc 1 137 30 view .LVU233
	cmp	r2, #0
	ble	.L67
.LBB113:
	.loc 1 138 38 view .LVU234
	ldr	r3, [r5, #32]
.L71:
	.loc 1 138 6 is_stmt 1 view .LVU235
	.loc 1 138 45 is_stmt 0 view .LVU236
	sub	r2, r2, #1
	.loc 1 138 44 view .LVU237
	add	r1, r2, r2, lsl #2
	add	fp, r3, r1, lsl #3
	.loc 1 138 16 view .LVU238
	mov	lr, fp
	mov	ip, r8
	ldrh	r3, [fp, #38]
	str	r2, [r5, #36]
	str	r3, [sp, #4]
	ldmia	lr!, {r0, r1, r2, r3}
	stmia	ip!, {r0, r1, r2, r3}
	ldmia	lr!, {r0, r1, r2, r3}
	stmia	ip!, {r0, r1, r2, r3}
	ldm	lr, {r0, r1}
	.loc 1 140 21 view .LVU239
	ldr	r2, [fp, #24]
	.loc 1 138 16 view .LVU240
	stm	ip, {r0, r1}
.LVL49:
	.loc 1 140 21 view .LVU241
	ldr	r1, [fp, #16]
	ldr	r0, [r5, #20]
	.loc 1 138 16 view .LVU242
	ldr	r4, [fp, #20]
.LVL50:
	.loc 1 138 16 view .LVU243
	ldr	r10, [fp, #28]
.LVL51:
	.loc 1 138 16 view .LVU244
	ldr	r9, [fp, #32]
	.loc 1 140 6 is_stmt 1 view .LVU245
	.loc 1 140 21 is_stmt 0 view .LVU246
	bl	World_GetChunk
.LVL52:
	.loc 1 142 7 is_stmt 1 view .LVU247
	.loc 1 141 6 view .LVU248
	.loc 1 142 36 is_stmt 0 view .LVU249
	add	r3, r4, r4, lsl #8
	add	r3, r4, r3, lsl #1
	.loc 1 141 9 view .LVU250
	subs	fp, r0, #0
	.loc 1 142 36 view .LVU251
	add	r3, fp, r3, lsl #4
	lsl	r7, r4, #8
	add	r6, r4, #1
	add	r3, r3, #8192
	.loc 1 141 9 view .LVU252
	beq	.L68
	.loc 1 142 10 view .LVU253
	ldr	r2, [r3, #56]
	cmp	r2, #0
	beq	.L69
	.loc 1 142 51 is_stmt 1 discriminator 1 view .LVU254
	add	r3, r3, #40
	ldm	r3, {r0, r1}
.LVL53:
	.loc 1 142 51 is_stmt 0 discriminator 1 view .LVU255
	bl	VBO_Free
.LVL54:
	b	.L69
.LVL55:
.L67:
	.loc 1 142 51 discriminator 1 view .LVU256
.LBE113:
	.loc 1 154 3 is_stmt 1 view .LVU257
	ldr	r0, .L84+8
	.loc 1 156 1 is_stmt 0 view .LVU258
	add	sp, sp, #52
	.cfi_remember_state
	.cfi_def_cfa_offset 36
	@ sp needed
	pop	{r4, r5, r6, r7, r8, r9, r10, fp, lr}
	.cfi_restore 14
	.cfi_restore 11
	.cfi_restore 10
	.cfi_restore 9
	.cfi_restore 8
	.cfi_restore 7
	.cfi_restore 6
	.cfi_restore 5
	.cfi_restore 4
	.cfi_def_cfa_offset 0
	.loc 1 154 3 view .LVU259
	b	LightLock_Unlock
.LVL56:
.L83:
	.cfi_restore_state
.LBB114:
	.loc 1 144 8 is_stmt 1 view .LVU260
	add	r6, r4, #1
	add	r3, r6, r6, lsl #8
	add	r3, r6, r3, lsl #1
	add	r3, fp, r3, lsl #4
	ldm	r3, {r0, r1}
	bl	VBO_Free
.LVL57:
	b	.L70
.L85:
	.align	2
.L84:
	.word	.LANCHOR0
	.word	.LC0
	.word	.LANCHOR0+28
.LBE114:
	.cfi_endproc
.LFE146:
	.size	PolyGen_Harvest, .-PolyGen_Harvest
	.section	.text.PolyGen_GeneratePolygons,"ax",%progbits
	.align	2
	.global	PolyGen_GeneratePolygons
	.syntax unified
	.arm
	.fpu vfp
	.type	PolyGen_GeneratePolygons, %function
PolyGen_GeneratePolygons:
.LVL58:
.LFB149:
	.loc 1 212 78 view -0
	.cfi_startproc
	@ args = 4, pretend = 0, frame = 160
	@ frame_needed = 0, uses_anonymous_args = 0
	.loc 1 212 78 is_stmt 0 view .LVU262
	push	{r4, r5, r6, r7, r8, r9, r10, fp, lr}
	.cfi_def_cfa_offset 36
	.cfi_offset 4, -36
	.cfi_offset 5, -32
	.cfi_offset 6, -28
	.cfi_offset 7, -24
	.cfi_offset 8, -20
	.cfi_offset 9, -16
	.cfi_offset 10, -12
	.cfi_offset 11, -8
	.cfi_offset 14, -4
	vpush.64	{d8}
	.cfi_def_cfa_offset 44
	.cfi_offset 80, -44
	.cfi_offset 81, -40
	sub	sp, sp, #180
	.cfi_def_cfa_offset 224
	mov	r10, r2
.LVL59:
	.loc 1 213 2 is_stmt 1 view .LVU263
.LBB191:
	.loc 1 213 7 view .LVU264
	.loc 1 213 20 view .LVU265
.LBE191:
	.loc 1 212 78 is_stmt 0 view .LVU266
	add	r0, sp, #100
	stm	r0, {r1, r2, r3}
	mov	r3, #0
	add	r1, r2, #8192
.LBB403:
.LBB192:
.LBB193:
	.loc 1 220 16 view .LVU267
	ldr	fp, .L211
	add	r2, r2, #65536
.LVL60:
	.loc 1 220 16 view .LVU268
	str	r2, [sp, #92]
	add	r2, r2, #412
	add	r6, r10, #28
	add	r1, r1, #28
	str	r2, [sp, #72]
	.loc 1 378 6 view .LVU269
	add	r2, fp, #36
	vmov	s17, r2	@ int
.LBE193:
.LBE192:
	.loc 1 213 11 view .LVU270
	mov	r9, r6
.LBE403:
	.loc 1 212 78 view .LVU271
	str	r3, [sp, #68]
	str	r1, [sp, #56]
.LBB404:
	.loc 1 213 11 view .LVU272
	str	r3, [sp, #60]
	b	.L141
.LVL61:
.L195:
.LBB401:
	.loc 1 216 49 discriminator 1 view .LVU273
	ldrb	r2, [r1, #40]	@ zero_extendqisi2
	cmp	r2, #0
	bne	.L87
.LVL62:
.L88:
	.loc 1 216 49 discriminator 1 view .LVU274
.LBE401:
	.loc 1 213 39 is_stmt 1 discriminator 2 view .LVU275
	.loc 1 213 20 is_stmt 0 discriminator 2 view .LVU276
	ldr	r3, [sp, #68]
	ldr	r1, [sp, #72]
	add	r9, r9, #8192
	ldr	r2, [sp, #56]
	add	r9, r9, #48
	add	r3, r3, #8192
	cmp	r9, r1
	.loc 1 213 39 discriminator 2 view .LVU277
	ldr	r1, [sp, #60]
	.loc 1 213 20 discriminator 2 view .LVU278
	add	r3, r3, #48
	add	r2, r2, #8192
	.loc 1 213 39 discriminator 2 view .LVU279
	add	r1, r1, #1
	.loc 1 213 20 discriminator 2 view .LVU280
	str	r3, [sp, #68]
	add	r3, r2, #48
	.loc 1 213 39 discriminator 2 view .LVU281
	str	r1, [sp, #60]
.LVL63:
	.loc 1 213 20 is_stmt 1 discriminator 2 view .LVU282
	str	r3, [sp, #56]
	beq	.L194
.LVL64:
.L141:
.LBB402:
	.loc 1 214 3 view .LVU283
	.loc 1 216 3 view .LVU284
	.loc 1 216 14 is_stmt 0 view .LVU285
	ldr	r1, [sp, #56]
	ldr	r3, [r1]
	.loc 1 216 6 view .LVU286
	ldr	r2, [r1, #36]
	cmp	r3, r2
	beq	.L195
.L87:
.LBB400:
	.loc 1 218 28 view .LVU287
	mov	r1, #0
	.loc 1 217 25 view .LVU288
	ldr	ip, [sp, #56]
	.loc 1 225 4 view .LVU289
	mov	r4, r1
	.loc 1 217 25 view .LVU290
	str	r3, [ip, #36]
	.loc 1 225 4 view .LVU291
	ldr	r3, [sp, #68]
	mov	r2, #4096
	str	r3, [sp, #52]
	mov	r3, #1
	ldr	r0, .L211+4
	str	r3, [sp, #24]
	.loc 1 218 28 view .LVU292
	strb	r1, [ip, #40]
	sub	r3, r9, #4
	vmov	s16, r3	@ int
	.loc 1 217 4 is_stmt 1 view .LVU293
	.loc 1 218 4 view .LVU294
	.loc 1 220 4 view .LVU295
	.loc 1 220 16 is_stmt 0 view .LVU296
	str	r1, [fp, #12]
	.loc 1 221 4 is_stmt 1 view .LVU297
	.loc 1 221 21 is_stmt 0 view .LVU298
	str	r1, [fp, #16]
	.loc 1 223 4 is_stmt 1 view .LVU299
.LVL65:
	.loc 1 225 4 view .LVU300
	str	r1, [sp, #48]
	bl	memset
.LVL66:
	.loc 1 226 4 view .LVU301
.LBB194:
	.loc 1 226 9 view .LVU302
	.loc 1 226 22 view .LVU303
	.loc 1 226 13 is_stmt 0 view .LVU304
	str	r4, [sp, #16]
.LBE194:
	.loc 1 223 13 view .LVU305
	str	r4, [sp, #20]
.LVL67:
.L101:
.LBB251:
.LBB195:
	.loc 1 227 5 is_stmt 1 view .LVU306
	ldr	r3, [sp, #52]
.LBB196:
	.loc 1 228 14 is_stmt 0 view .LVU307
	mov	r8, #0
	add	r3, r10, r3
	add	r3, r3, #4096
	add	r3, r3, #28
	str	r3, [sp, #44]
.LBE196:
	.loc 1 227 15 view .LVU308
	ldr	r3, [sp, #16]
	ldr	r2, [sp, #48]
	subs	r3, r3, #0
	movne	r3, #1
	str	r3, [sp, #32]
.LVL68:
	.loc 1 228 5 is_stmt 1 view .LVU309
.LBB250:
	.loc 1 228 10 view .LVU310
	.loc 1 228 23 view .LVU311
.LBB197:
	.loc 1 229 6 view .LVU312
	.loc 1 230 6 view .LVU313
	.loc 1 231 12 is_stmt 0 view .LVU314
	mov	r3, #4
	str	r3, [sp, #40]
	ldr	r3, .L211+4
	add	r3, r3, r2
	str	r3, [sp, #28]
.LVL69:
.L89:
	.loc 1 234 6 is_stmt 1 view .LVU315
.LBB198:
	.loc 1 234 11 view .LVU316
	.loc 1 234 24 view .LVU317
.LBB199:
	.loc 1 235 7 view .LVU318
	.loc 1 236 7 view .LVU319
	ldr	r3, [sp, #44]
.LBE199:
	.loc 1 234 15 is_stmt 0 view .LVU320
	mov	r4, #0
.LBB245:
	.loc 1 237 13 view .LVU321
	mov	r6, #2
	add	r5, r3, r8
	b	.L91
.LVL70:
.L185:
.LBB200:
.LBI200:
	.loc 1 92 21 is_stmt 1 view .LVU322
.LBB201:
	.loc 1 93 2 view .LVU323
	.loc 1 93 34 is_stmt 0 view .LVU324
	ldr	r3, [sp, #24]
	cmp	r3, #16
	beq	.L148
.LBE201:
.LBE200:
.LBB207:
.LBB208:
	.loc 1 100 6 view .LVU325
	ldrb	r1, [r5, #256]	@ zero_extendqisi2
.LBE208:
.LBE207:
.LBB212:
.LBB202:
	.loc 1 95 6 view .LVU326
	ldrb	r6, [r5, #-3840]	@ zero_extendqisi2
.LVL71:
	.loc 1 95 6 view .LVU327
.LBE202:
.LBE212:
	.loc 1 244 7 is_stmt 1 view .LVU328
.LBB213:
.LBI207:
	.loc 1 97 23 view .LVU329
.LBB209:
	.loc 1 98 2 view .LVU330
	.loc 1 100 6 is_stmt 0 view .LVU331
	and	r1, r1, #15
.LVL72:
.L97:
	.loc 1 100 6 view .LVU332
.LBE209:
.LBE213:
	.loc 1 245 7 is_stmt 1 view .LVU333
	.loc 1 245 12 is_stmt 0 view .LVU334
	mov	r0, r6
	bl	Block_Opaque
.LVL73:
	.loc 1 245 10 view .LVU335
	subs	r6, r0, #0
.LVL74:
	.loc 1 245 10 view .LVU336
	bne	.L98
	.loc 1 245 62 discriminator 1 view .LVU337
	ldrb	r7, [r7]	@ zero_extendqisi2
	.loc 1 245 38 discriminator 1 view .LVU338
	cmp	r7, #0
	bne	.L196
.L98:
.LBE245:
	.loc 1 234 33 is_stmt 1 discriminator 2 view .LVU339
	add	r4, r4, #1
.LVL75:
	.loc 1 234 24 discriminator 2 view .LVU340
	cmp	r4, #16
	beq	.L197
.L99:
.LBB246:
	.loc 1 235 7 view .LVU341
.LVL76:
	.loc 1 236 7 view .LVU342
	.loc 1 238 12 view .LVU343
	.loc 1 239 13 is_stmt 0 view .LVU344
	cmp	r4, #15
	movne	r6, #6
	moveq	r6, #3
	add	r5, r5, #16
.LVL77:
.L91:
	.loc 1 241 7 is_stmt 1 view .LVU345
	.loc 1 241 12 is_stmt 0 view .LVU346
	ldrb	r1, [r5]	@ zero_extendqisi2
	sub	r7, r5, #4096
	ldrb	r0, [r7]	@ zero_extendqisi2
	and	r1, r1, #15
	bl	Block_Opaque
.LVL78:
	.loc 1 241 10 view .LVU347
	cmp	r0, #0
	beq	.L198
.LVL79:
.L93:
	.loc 1 243 7 is_stmt 1 view .LVU348
	.loc 1 243 77 is_stmt 0 view .LVU349
	ldr	r3, [sp, #16]
	.loc 1 243 21 view .LVU350
	ldr	r0, [fp, #20]
	.loc 1 243 77 view .LVU351
	cmp	r3, #0
	bne	.L185
.LVL80:
.LBB214:
	.loc 1 92 21 is_stmt 1 view .LVU352
.LBB203:
	.loc 1 93 2 view .LVU353
	.loc 1 94 40 is_stmt 0 view .LVU354
	ldr	r1, [r10, #16]
	.loc 1 94 88 view .LVU355
	ldr	r3, [r10, #20]
	.loc 1 94 65 view .LVU356
	ldr	r2, [r9, #-4]
	.loc 1 94 40 view .LVU357
	lsl	r1, r1, #4
	.loc 1 94 8 view .LVU358
	sub	r1, r1, #1
	add	r3, r8, r3, lsl #4
	add	r2, r4, r2, lsl #4
	bl	World_GetBlock
.LVL81:
.LBE203:
.LBE214:
	.loc 1 243 21 view .LVU359
	mvn	r1, #0
.LBB215:
.LBB204:
	.loc 1 94 8 view .LVU360
	mov	r6, r0
.LVL82:
	.loc 1 94 8 view .LVU361
.LBE204:
.LBE215:
	.loc 1 244 7 is_stmt 1 view .LVU362
	.loc 1 244 22 is_stmt 0 view .LVU363
	ldr	r3, [fp, #20]
.LVL83:
.LBB216:
	.loc 1 97 23 is_stmt 1 view .LVU364
.LBB210:
	.loc 1 98 2 view .LVU365
.L147:
	.loc 1 99 8 is_stmt 0 view .LVU366
	mov	r0, r3
	.loc 1 99 68 view .LVU367
	ldr	r2, [r9, #-4]
	.loc 1 99 91 view .LVU368
	ldr	r3, [r10, #20]
.LVL84:
	.loc 1 99 43 view .LVU369
	ldr	ip, [r10, #16]
	.loc 1 99 8 view .LVU370
	add	r3, r8, r3, lsl #4
	add	r1, r1, ip, lsl #4
	add	r2, r4, r2, lsl #4
	bl	World_GetMetadata
.LVL85:
	.loc 1 99 8 view .LVU371
	mov	r1, r0
	.loc 1 100 6 view .LVU372
	b	.L97
.LVL86:
.L148:
	.loc 1 100 6 view .LVU373
.LBE210:
.LBE216:
.LBB217:
.LBB205:
	.loc 1 94 8 view .LVU374
	ldr	r1, [r10, #16]
	.loc 1 94 88 view .LVU375
	ldr	r3, [r10, #20]
.LVL87:
	.loc 1 94 65 view .LVU376
	ldr	r2, [r9, #-4]
	.loc 1 94 8 view .LVU377
	add	r1, r1, #1
	lsl	r1, r1, #4
	add	r3, r8, r3, lsl #4
	add	r2, r4, r2, lsl #4
	bl	World_GetBlock
.LVL88:
.LBE205:
.LBE217:
	.loc 1 244 22 view .LVU378
	ldr	r1, [sp, #24]
.LBB218:
.LBB206:
	.loc 1 94 8 view .LVU379
	mov	r6, r0
.LVL89:
	.loc 1 94 8 view .LVU380
.LBE206:
.LBE218:
	.loc 1 244 7 is_stmt 1 view .LVU381
	.loc 1 244 22 is_stmt 0 view .LVU382
	ldr	r3, [fp, #20]
.LVL90:
.LBB219:
	.loc 1 97 23 is_stmt 1 view .LVU383
.LBB211:
	.loc 1 98 2 view .LVU384
	.loc 1 98 2 is_stmt 0 view .LVU385
	b	.L147
.LVL91:
.L198:
	.loc 1 98 2 view .LVU386
.LBE211:
.LBE219:
	.loc 1 242 8 is_stmt 1 view .LVU387
.LBB220:
.LBI220:
	.loc 1 170 17 view .LVU388
.LBB221:
	.loc 1 172 2 view .LVU389
	.loc 1 172 5 is_stmt 0 view .LVU390
	ldr	r3, [sp, #28]
	ldrb	r3, [r3, r4, lsl #4]	@ zero_extendqisi2
	tst	r3, #1
	bne	.L93
	ldr	r3, [sp, #40]
	mov	r2, r4
	str	r3, [sp, #8]
	ldr	r3, [sp, #32]
	vmov	r0, s16	@ int
	str	r3, [sp]
	ldr	r1, [sp, #16]
	mov	r3, r8
	str	r6, [sp, #4]
	bl	floodFill.part.0
.LVL92:
	.loc 1 172 5 view .LVU391
.LBE221:
.LBE220:
	.loc 1 242 19 view .LVU392
	ldr	r3, [sp, #20]
	orr	r0, r3, r0
	uxth	r3, r0
	str	r3, [sp, #20]
.LVL93:
	.loc 1 242 19 view .LVU393
	b	.L93
.LVL94:
.L196:
	.loc 1 246 8 is_stmt 1 view .LVU394
	ldrb	r1, [r5]	@ zero_extendqisi2
	.loc 1 249 13 is_stmt 0 view .LVU395
	mov	r0, r7
	.loc 1 246 8 view .LVU396
	and	r1, r1, #15
	.loc 1 249 13 view .LVU397
	str	r1, [sp, #36]
	bl	Block_Opaque
.LVL95:
.LBB222:
.LBB223:
.LBB224:
.LBB225:
	.loc 1 165 25 view .LVU398
	ldr	r2, [fp, #12]
	.loc 1 165 29 view .LVU399
	ldr	r3, .L211+8
	ldr	r1, [sp, #16]
	.loc 1 166 20 view .LVU400
	ldr	ip, [fp, #16]
	.loc 1 165 29 view .LVU401
	strb	r1, [r3, r2, lsl #3]
.LBE225:
.LBE224:
.LBE223:
.LBE222:
	.loc 1 249 12 view .LVU402
	eor	r0, r0, #1
.LBB241:
.LBB236:
.LBB231:
.LBB226:
	.loc 1 165 29 view .LVU403
	add	r3, r3, r2, lsl #3
	.loc 1 165 25 view .LVU404
	add	r2, r2, #1
.LBE226:
.LBE231:
.LBE236:
.LBE241:
	.loc 1 249 12 view .LVU405
	uxtb	r0, r0
.LBB242:
.LBB237:
.LBB232:
.LBB227:
	.loc 1 165 29 view .LVU406
	ldr	r1, [sp, #36]
	.loc 1 165 25 view .LVU407
	str	r2, [fp, #12]
	.loc 1 165 29 view .LVU408
	strb	r4, [r3, #1]
	ldr	r2, [sp, #32]
.LBE227:
.LBE232:
.LBE237:
.LBE242:
.LBE246:
	.loc 1 234 33 view .LVU409
	add	r4, r4, #1
.LBB247:
.LBB243:
.LBB238:
.LBB233:
.LBB228:
	.loc 1 166 20 view .LVU410
	add	ip, ip, r0
.LBE228:
.LBE233:
.LBE238:
.LBE243:
.LBE247:
	.loc 1 234 24 view .LVU411
	cmp	r4, #16
.LBB248:
.LBB244:
.LBB239:
.LBB234:
.LBB229:
	.loc 1 165 29 view .LVU412
	strb	r7, [r3, #4]
	strb	r6, [r3, #5]
.LVL96:
	.loc 1 165 29 view .LVU413
.LBE229:
.LBE234:
.LBE239:
.LBI222:
	.loc 1 163 20 is_stmt 1 view .LVU414
	.loc 1 164 2 view .LVU415
.LBB240:
.LBI223:
	.loc 1 163 20 view .LVU416
.LBB235:
.LBB230:
	.loc 1 165 3 view .LVU417
	.loc 1 165 29 is_stmt 0 view .LVU418
	strb	r1, [r3, #6]
	strb	r8, [r3, #2]
	strb	r2, [r3, #3]
	strb	r0, [r3, #7]
	.loc 1 166 3 is_stmt 1 view .LVU419
	.loc 1 166 20 is_stmt 0 view .LVU420
	str	ip, [fp, #16]
.LVL97:
	.loc 1 166 20 view .LVU421
.LBE230:
.LBE235:
.LBE240:
.LBE244:
.LBE248:
	.loc 1 234 33 is_stmt 1 view .LVU422
	.loc 1 234 24 view .LVU423
	bne	.L99
.L197:
	.loc 1 234 24 is_stmt 0 view .LVU424
.LBE198:
.LBE197:
	.loc 1 228 32 is_stmt 1 discriminator 2 view .LVU425
	add	r8, r8, #1
.LVL98:
	.loc 1 228 23 discriminator 2 view .LVU426
	cmp	r8, #16
	beq	.L199
.LBB249:
	.loc 1 229 6 view .LVU427
.LVL99:
	.loc 1 230 6 view .LVU428
	.loc 1 232 11 view .LVU429
	ldr	r3, [sp, #28]
	.loc 1 233 12 is_stmt 0 view .LVU430
	cmp	r8, #15
	add	r3, r3, #1
	str	r3, [sp, #28]
	movne	r3, #6
	moveq	r3, #5
	str	r3, [sp, #40]
	b	.L89
.LVL100:
.L199:
	.loc 1 233 12 view .LVU431
.LBE249:
.LBE250:
.LBE195:
	.loc 1 226 32 is_stmt 1 discriminator 2 view .LVU432
	ldr	r3, [sp, #16]
	add	r3, r3, #15
	str	r3, [sp, #16]
.LVL101:
	.loc 1 226 22 discriminator 2 view .LVU433
	cmp	r3, #30
	ldr	r3, [sp, #24]
.LVL102:
	.loc 1 226 22 is_stmt 0 discriminator 2 view .LVU434
	add	r3, r3, #15
	str	r3, [sp, #24]
	ldr	r3, [sp, #48]
	add	r3, r3, #3840
	str	r3, [sp, #48]
	ldr	r3, [sp, #52]
	add	r3, r3, #3840
	str	r3, [sp, #52]
	bne	.L101
.LVL103:
	.loc 1 226 22 discriminator 2 view .LVU435
.LBE251:
.LBB252:
.LBB253:
	.loc 1 255 5 is_stmt 1 view .LVU436
.LBE253:
.LBE252:
.LBB307:
	.loc 1 226 22 is_stmt 0 view .LVU437
	mov	r3, #1
	str	r3, [sp, #16]
.LVL104:
	.loc 1 226 22 view .LVU438
.LBE307:
.LBB308:
.LBB305:
	.loc 1 255 44 view .LVU439
	mov	r3, #2
.LBE305:
	.loc 1 254 13 view .LVU440
	mov	r8, #0
.LVL105:
	.loc 1 254 13 view .LVU441
.LBE308:
.LBB309:
	.loc 1 226 22 view .LVU442
	str	r9, [sp, #48]
.LBE309:
.LBB310:
.LBB306:
	.loc 1 255 44 view .LVU443
	str	r3, [sp, #28]
.LVL106:
.L114:
	.loc 1 256 5 is_stmt 1 discriminator 4 view .LVU444
.LBB254:
	.loc 1 256 10 discriminator 4 view .LVU445
	.loc 1 256 23 discriminator 4 view .LVU446
.LBB255:
	.loc 1 257 6 discriminator 4 view .LVU447
	.loc 1 258 6 discriminator 4 view .LVU448
.LBE255:
	.loc 1 256 14 is_stmt 0 discriminator 4 view .LVU449
	mov	r7, #0
.LBB303:
	.loc 1 257 16 discriminator 4 view .LVU450
	ldr	r3, [sp, #48]
	.loc 1 259 12 discriminator 4 view .LVU451
	str	r7, [sp, #40]
	.loc 1 257 16 discriminator 4 view .LVU452
	str	r3, [sp, #44]
	ldr	r3, .L211+4
	add	r3, r3, r8, lsl #4
	str	r3, [sp, #24]
.LVL107:
.L102:
	.loc 1 262 6 is_stmt 1 view .LVU453
.LBB256:
	.loc 1 262 11 view .LVU454
	.loc 1 262 24 view .LVU455
.LBB257:
	.loc 1 263 7 view .LVU456
	.loc 1 264 7 view .LVU457
.LBE257:
	.loc 1 262 15 is_stmt 0 view .LVU458
	mov	r4, #0
.LBB299:
	.loc 1 265 13 view .LVU459
	mov	r6, #5
	.loc 1 263 17 view .LVU460
	ldr	r5, [sp, #44]
	b	.L104
.LVL108:
.L186:
.LBB258:
.LBI258:
	.loc 1 92 21 is_stmt 1 view .LVU461
.LBB259:
	.loc 1 93 2 view .LVU462
	.loc 1 93 60 is_stmt 0 view .LVU463
	ldr	r3, [sp, #16]
	cmp	r3, #16
	beq	.L145
.LBE259:
.LBE258:
.LBB265:
.LBB266:
	.loc 1 100 37 view .LVU464
	add	r3, r5, #4096
	.loc 1 100 6 view .LVU465
	ldrb	r1, [r3, #15]	@ zero_extendqisi2
.LBE266:
.LBE265:
.LBB270:
.LBB260:
	.loc 1 95 6 view .LVU466
	ldrb	r6, [r5, #15]	@ zero_extendqisi2
.LVL109:
	.loc 1 95 6 view .LVU467
.LBE260:
.LBE270:
	.loc 1 271 7 is_stmt 1 view .LVU468
.LBB271:
.LBI265:
	.loc 1 97 23 view .LVU469
.LBB267:
	.loc 1 98 2 view .LVU470
	.loc 1 100 6 is_stmt 0 view .LVU471
	and	r1, r1, #15
.LVL110:
.L110:
	.loc 1 100 6 view .LVU472
.LBE267:
.LBE271:
	.loc 1 272 7 is_stmt 1 view .LVU473
	.loc 1 272 12 is_stmt 0 view .LVU474
	mov	r0, r6
	bl	Block_Opaque
.LVL111:
	.loc 1 272 10 view .LVU475
	subs	r6, r0, #0
.LVL112:
	.loc 1 272 10 view .LVU476
	bne	.L111
	.loc 1 272 62 discriminator 1 view .LVU477
	ldrb	r3, [r5, #-1]	@ zero_extendqisi2
	.loc 1 272 38 discriminator 1 view .LVU478
	cmp	r3, #0
	bne	.L200
.L111:
.LBE299:
	.loc 1 262 33 is_stmt 1 discriminator 2 view .LVU479
	add	r4, r4, #1
.LVL113:
	.loc 1 262 24 discriminator 2 view .LVU480
	cmp	r4, #16
	beq	.L201
.L112:
.LBB300:
	.loc 1 263 7 view .LVU481
.LVL114:
	.loc 1 264 7 view .LVU482
	.loc 1 266 12 view .LVU483
	.loc 1 267 13 is_stmt 0 view .LVU484
	cmp	r4, #15
	movne	r6, #6
	moveq	r6, #4
.LVL115:
.L104:
	.loc 1 268 7 is_stmt 1 view .LVU485
	.loc 1 268 12 is_stmt 0 view .LVU486
	ldrb	r0, [r5], #1	@ zero_extendqisi2
	ldrb	r1, [r5, #4095]	@ zero_extendqisi2
	and	r1, r1, #15
	bl	Block_Opaque
.LVL116:
	.loc 1 268 10 view .LVU487
	cmp	r0, #0
	beq	.L202
.LVL117:
.L106:
	.loc 1 270 7 is_stmt 1 view .LVU488
	.loc 1 270 80 is_stmt 0 view .LVU489
	cmp	r8, #0
	.loc 1 270 21 view .LVU490
	ldr	r0, [fp, #20]
	.loc 1 270 80 view .LVU491
	bne	.L186
.LVL118:
.LBB272:
	.loc 1 92 21 is_stmt 1 view .LVU492
.LBB261:
	.loc 1 93 2 view .LVU493
	.loc 1 94 65 is_stmt 0 view .LVU494
	ldr	r2, [r9, #-4]
	.loc 1 94 88 view .LVU495
	ldr	r3, [r10, #20]
	.loc 1 94 40 view .LVU496
	ldr	r1, [r10, #16]
	.loc 1 94 65 view .LVU497
	lsl	r2, r2, #4
	.loc 1 94 8 view .LVU498
	sub	r2, r2, #1
	add	r3, r4, r3, lsl #4
	add	r1, r7, r1, lsl #4
	bl	World_GetBlock
.LVL119:
.LBE261:
.LBE272:
	.loc 1 270 21 view .LVU499
	mvn	r2, #0
.LBB273:
.LBB262:
	.loc 1 94 8 view .LVU500
	mov	r6, r0
.LVL120:
	.loc 1 94 8 view .LVU501
.LBE262:
.LBE273:
	.loc 1 271 7 is_stmt 1 view .LVU502
	.loc 1 271 22 is_stmt 0 view .LVU503
	ldr	r3, [fp, #20]
.LVL121:
.LBB274:
	.loc 1 97 23 is_stmt 1 view .LVU504
.LBB268:
	.loc 1 98 2 view .LVU505
.L144:
	.loc 1 99 68 is_stmt 0 view .LVU506
	ldr	r1, [r9, #-4]
	.loc 1 99 8 view .LVU507
	mov	r0, r3
	add	r2, r2, r1, lsl #4
	.loc 1 99 91 view .LVU508
	ldr	r3, [r10, #20]
.LVL122:
	.loc 1 99 43 view .LVU509
	ldr	r1, [r10, #16]
	.loc 1 99 8 view .LVU510
	add	r3, r4, r3, lsl #4
	add	r1, r7, r1, lsl #4
	bl	World_GetMetadata
.LVL123:
	.loc 1 99 8 view .LVU511
	mov	r1, r0
	.loc 1 100 6 view .LVU512
	b	.L110
.LVL124:
.L145:
	.loc 1 100 6 view .LVU513
.LBE268:
.LBE274:
.LBB275:
.LBB263:
	.loc 1 94 8 view .LVU514
	ldr	r2, [r9, #-4]
	.loc 1 94 88 view .LVU515
	ldr	r3, [r10, #20]
.LVL125:
	.loc 1 94 40 view .LVU516
	ldr	r1, [r10, #16]
	.loc 1 94 8 view .LVU517
	add	r2, r2, #1
	lsl	r2, r2, #4
	add	r3, r4, r3, lsl #4
	add	r1, r7, r1, lsl #4
	bl	World_GetBlock
.LVL126:
.LBE263:
.LBE275:
	.loc 1 271 22 view .LVU518
	ldr	r2, [sp, #16]
.LBB276:
.LBB264:
	.loc 1 94 8 view .LVU519
	mov	r6, r0
.LVL127:
	.loc 1 94 8 view .LVU520
.LBE264:
.LBE276:
	.loc 1 271 7 is_stmt 1 view .LVU521
	.loc 1 271 22 is_stmt 0 view .LVU522
	ldr	r3, [fp, #20]
.LVL128:
.LBB277:
	.loc 1 97 23 is_stmt 1 view .LVU523
.LBB269:
	.loc 1 98 2 view .LVU524
	.loc 1 98 2 is_stmt 0 view .LVU525
	b	.L144
.LVL129:
.L202:
	.loc 1 98 2 view .LVU526
.LBE269:
.LBE277:
	.loc 1 269 8 is_stmt 1 view .LVU527
.LBB278:
.LBI278:
	.loc 1 170 17 view .LVU528
.LBB279:
	.loc 1 172 2 view .LVU529
	.loc 1 172 5 is_stmt 0 view .LVU530
	ldr	r3, [sp, #24]
	ldrb	r3, [r3, r4]	@ zero_extendqisi2
	tst	r3, #1
	bne	.L106
	ldr	r3, [sp, #28]
	mov	r2, r8
	str	r3, [sp, #4]
	ldr	r3, [sp, #40]
	mov	r1, r7
	str	r3, [sp]
	vmov	r0, s16	@ int
	mov	r3, r4
	str	r6, [sp, #8]
	bl	floodFill.part.0
.LVL130:
	.loc 1 172 5 view .LVU531
.LBE279:
.LBE278:
	.loc 1 269 19 view .LVU532
	ldr	r3, [sp, #20]
	orr	r0, r0, r3
	uxth	r3, r0
	str	r3, [sp, #20]
.LVL131:
	.loc 1 269 19 view .LVU533
	b	.L106
.LVL132:
.L200:
	.loc 1 273 8 is_stmt 1 view .LVU534
	ldrb	r1, [r5, #4095]	@ zero_extendqisi2
	.loc 1 276 13 is_stmt 0 view .LVU535
	mov	r0, r3
	.loc 1 273 8 view .LVU536
	and	r1, r1, #15
	.loc 1 276 13 view .LVU537
	str	r1, [sp, #36]
	str	r3, [sp, #32]
	bl	Block_Opaque
.LVL133:
.LBB280:
.LBB281:
.LBB282:
.LBB283:
	.loc 1 165 25 view .LVU538
	ldr	ip, [fp, #12]
	.loc 1 165 29 view .LVU539
	ldr	r3, .L211+8
	.loc 1 166 20 view .LVU540
	ldr	lr, [fp, #16]
	.loc 1 165 29 view .LVU541
	add	r2, r3, ip, lsl #3
	strb	r7, [r3, ip, lsl #3]
	ldr	r3, [sp, #32]
.LBE283:
.LBE282:
.LBE281:
.LBE280:
	.loc 1 276 12 view .LVU542
	eor	r0, r0, #1
	uxtb	r0, r0
.LBB296:
.LBB292:
.LBB288:
.LBB284:
	.loc 1 165 29 view .LVU543
	ldr	r1, [sp, #36]
	strb	r3, [r2, #4]
	strb	r4, [r2, #2]
	ldr	r3, [sp, #28]
.LBE284:
.LBE288:
.LBE292:
.LBE296:
.LBE300:
	.loc 1 262 33 view .LVU544
	add	r4, r4, #1
.LBB301:
.LBB297:
.LBB293:
.LBB289:
.LBB285:
	.loc 1 165 25 view .LVU545
	add	ip, ip, #1
	.loc 1 166 20 view .LVU546
	add	lr, lr, r0
.LBE285:
.LBE289:
.LBE293:
.LBE297:
.LBE301:
	.loc 1 262 24 view .LVU547
	cmp	r4, #16
.LBB302:
.LBB298:
.LBB294:
.LBB290:
.LBB286:
	.loc 1 165 29 view .LVU548
	strb	r6, [r2, #5]
.LVL134:
	.loc 1 165 29 view .LVU549
.LBE286:
.LBE290:
.LBE294:
.LBI280:
	.loc 1 163 20 is_stmt 1 view .LVU550
	.loc 1 164 2 view .LVU551
.LBB295:
.LBI281:
	.loc 1 163 20 view .LVU552
.LBB291:
.LBB287:
	.loc 1 165 3 view .LVU553
	.loc 1 165 29 is_stmt 0 view .LVU554
	strb	r1, [r2, #6]
	.loc 1 165 25 view .LVU555
	str	ip, [fp, #12]
	.loc 1 165 29 view .LVU556
	strb	r8, [r2, #1]
	strb	r3, [r2, #3]
	strb	r0, [r2, #7]
	.loc 1 166 3 is_stmt 1 view .LVU557
	.loc 1 166 20 is_stmt 0 view .LVU558
	str	lr, [fp, #16]
.LVL135:
	.loc 1 166 20 view .LVU559
.LBE287:
.LBE291:
.LBE295:
.LBE298:
.LBE302:
	.loc 1 262 33 is_stmt 1 view .LVU560
	.loc 1 262 24 view .LVU561
	bne	.L112
.L201:
	.loc 1 262 24 is_stmt 0 view .LVU562
.LBE256:
.LBE303:
	.loc 1 256 32 is_stmt 1 discriminator 2 view .LVU563
	add	r7, r7, #1
.LVL136:
	.loc 1 256 23 discriminator 2 view .LVU564
	cmp	r7, #16
	beq	.L203
.LBB304:
	.loc 1 257 6 view .LVU565
.LVL137:
	.loc 1 258 6 view .LVU566
	.loc 1 260 11 view .LVU567
	ldr	r3, [sp, #44]
	.loc 1 261 12 is_stmt 0 view .LVU568
	cmp	r7, #15
	add	r3, r3, #256
	str	r3, [sp, #44]
	ldr	r3, [sp, #24]
	add	r3, r3, #256
	str	r3, [sp, #24]
	movne	r3, #6
	moveq	r3, #1
	str	r3, [sp, #40]
	b	.L102
.LVL138:
.L203:
	.loc 1 261 12 view .LVU569
.LBE304:
.LBE254:
.LBE306:
	.loc 1 254 32 is_stmt 1 discriminator 2 view .LVU570
	.loc 1 254 22 is_stmt 0 discriminator 2 view .LVU571
	ldr	r3, [sp, #16]
	.loc 1 254 32 discriminator 2 view .LVU572
	add	r8, r8, #15
.LVL139:
	.loc 1 254 22 is_stmt 1 discriminator 2 view .LVU573
	add	r3, r3, #15
	str	r3, [sp, #16]
	ldr	r3, [sp, #48]
	cmp	r8, #30
	add	r3, r3, #240
	str	r3, [sp, #48]
	mov	r3, #3
	str	r3, [sp, #28]
.LVL140:
	.loc 1 254 22 is_stmt 0 discriminator 2 view .LVU574
	bne	.L114
.LBE310:
.LBB311:
.LBB312:
	.loc 1 282 43 view .LVU575
	mov	r4, #4
.LVL141:
	.loc 1 282 43 view .LVU576
	mov	r5, #1
.LBE312:
	.loc 1 281 13 view .LVU577
	mov	r3, #0
.LBB355:
	.loc 1 282 43 view .LVU578
	strd	r4, [sp, #32]
.LBE355:
.LBE311:
.LBB357:
	str	r9, [sp, #64]
.LBE357:
.LBB358:
	.loc 1 281 13 view .LVU579
	str	r3, [sp, #16]
.LVL142:
.L126:
.LBB356:
	.loc 1 283 5 is_stmt 1 discriminator 4 view .LVU580
.LBB313:
	.loc 1 283 10 discriminator 4 view .LVU581
	.loc 1 283 23 discriminator 4 view .LVU582
.LBB314:
	.loc 1 284 6 discriminator 4 view .LVU583
	.loc 1 285 6 discriminator 4 view .LVU584
.LBE314:
	.loc 1 283 14 is_stmt 0 discriminator 4 view .LVU585
	mov	r7, #0
	ldr	r3, [sp, #16]
	ldr	r2, [sp, #36]
	cmp	r3, #0
	subeq	r2, r3, #1
	str	r2, [sp, #24]
.LBB353:
	.loc 1 284 16 discriminator 4 view .LVU586
	ldr	r2, [sp, #64]
	.loc 1 286 12 discriminator 4 view .LVU587
	str	r7, [sp, #48]
	.loc 1 284 16 discriminator 4 view .LVU588
	mov	r6, r2
	add	r5, r2, #4096
	ldr	r2, .L211+4
	add	r3, r2, r3
	str	r3, [sp, #28]
.LVL143:
.L115:
	.loc 1 289 6 is_stmt 1 view .LVU589
.LBB315:
	.loc 1 289 11 view .LVU590
	.loc 1 289 24 view .LVU591
.LBB316:
	.loc 1 290 7 view .LVU592
	.loc 1 291 7 view .LVU593
.LBB317:
.LBB318:
	.loc 1 95 6 is_stmt 0 view .LVU594
	sub	r3, r5, #4080
	sub	r3, r3, #15
.LBE318:
.LBE317:
.LBE316:
	.loc 1 289 15 view .LVU595
	mov	r4, #0
.LBB349:
	.loc 1 292 13 view .LVU596
	mov	r8, #2
.LBB322:
.LBB319:
	.loc 1 95 6 view .LVU597
	str	r3, [sp, #52]
	b	.L117
.LVL144:
.L121:
	.loc 1 95 6 view .LVU598
.LBE319:
.LBI317:
	.loc 1 92 21 is_stmt 1 view .LVU599
.LBB320:
	.loc 1 93 2 view .LVU600
	.loc 1 93 60 is_stmt 0 view .LVU601
	ldr	r3, [sp, #36]
	cmp	r3, #16
	beq	.L142
	.loc 1 95 6 view .LVU602
	ldr	r3, [sp, #52]
	ldrb	r0, [r3, r4, lsl #4]	@ zero_extendqisi2
.LVL145:
.L122:
	.loc 1 95 6 view .LVU603
.LBE320:
.LBE322:
	.loc 1 298 7 is_stmt 1 view .LVU604
	.loc 1 298 12 is_stmt 0 view .LVU605
	ldrb	r1, [r5, r4, lsl #4]	@ zero_extendqisi2
	and	r1, r1, #15
	bl	Block_Opaque
.LVL146:
	.loc 1 298 10 view .LVU606
	subs	r8, r0, #0
.LVL147:
	.loc 1 298 10 view .LVU607
	bne	.L123
	.loc 1 299 32 discriminator 1 view .LVU608
	ldrb	r3, [r6, r4, lsl #4]	@ zero_extendqisi2
	.loc 1 298 71 discriminator 1 view .LVU609
	cmp	r3, #0
	bne	.L204
.L123:
.LBE349:
	.loc 1 289 33 is_stmt 1 discriminator 2 view .LVU610
	add	r4, r4, #1
.LVL148:
	.loc 1 289 24 discriminator 2 view .LVU611
	cmp	r4, #16
	beq	.L205
.L124:
.LBB350:
	.loc 1 290 7 view .LVU612
.LVL149:
	.loc 1 291 7 view .LVU613
	.loc 1 293 12 view .LVU614
	.loc 1 294 13 is_stmt 0 view .LVU615
	cmp	r4, #15
	movne	r8, #6
	moveq	r8, #3
.LVL150:
.L117:
	.loc 1 295 7 is_stmt 1 view .LVU616
	.loc 1 295 12 is_stmt 0 view .LVU617
	ldrb	r1, [r5, r4, lsl #4]	@ zero_extendqisi2
	ldrb	r0, [r6, r4, lsl #4]	@ zero_extendqisi2
	and	r1, r1, #15
	bl	Block_Opaque
.LVL151:
	.loc 1 295 10 view .LVU618
	cmp	r0, #0
	beq	.L206
.LVL152:
.L119:
	.loc 1 297 7 is_stmt 1 view .LVU619
	.loc 1 297 83 is_stmt 0 view .LVU620
	ldr	r3, [sp, #16]
	.loc 1 297 21 view .LVU621
	ldr	r0, [fp, #20]
	.loc 1 297 83 view .LVU622
	cmp	r3, #0
	bne	.L121
.L142:
.LBB323:
.LBB321:
	.loc 1 94 8 view .LVU623
	ldr	r2, [sp, #24]
	.loc 1 94 88 view .LVU624
	ldr	r3, [r10, #20]
	.loc 1 94 40 view .LVU625
	ldr	r1, [r10, #16]
	.loc 1 94 8 view .LVU626
	add	r3, r2, r3, lsl #4
	.loc 1 94 65 view .LVU627
	ldr	r2, [r9, #-4]
	.loc 1 94 8 view .LVU628
	add	r1, r7, r1, lsl #4
	add	r2, r4, r2, lsl #4
	bl	World_GetBlock
.LVL153:
	.loc 1 95 6 view .LVU629
	b	.L122
.L206:
	.loc 1 95 6 view .LVU630
.LBE321:
.LBE323:
	.loc 1 296 8 is_stmt 1 view .LVU631
.LVL154:
.LBB324:
.LBI324:
	.loc 1 170 17 view .LVU632
.LBB325:
	.loc 1 172 2 view .LVU633
	.loc 1 172 5 is_stmt 0 view .LVU634
	ldr	r3, [sp, #28]
	ldrb	r3, [r3, r4, lsl #4]	@ zero_extendqisi2
	tst	r3, #1
	bne	.L119
	ldr	r3, [sp, #32]
	mov	r2, r4
	str	r3, [sp, #8]
	ldr	r3, [sp, #48]
	mov	r1, r7
	str	r3, [sp]
	vmov	r0, s16	@ int
	ldr	r3, [sp, #16]
	str	r8, [sp, #4]
	bl	floodFill.part.0
.LVL155:
	.loc 1 172 5 view .LVU635
.LBE325:
.LBE324:
	.loc 1 296 19 view .LVU636
	ldr	r3, [sp, #20]
	orr	r0, r0, r3
	uxth	r3, r0
	str	r3, [sp, #20]
.LVL156:
	.loc 1 296 19 view .LVU637
	b	.L119
.LVL157:
.L204:
	.loc 1 300 8 is_stmt 1 view .LVU638
	ldrb	r1, [r5, r4, lsl #4]	@ zero_extendqisi2
	.loc 1 303 13 is_stmt 0 view .LVU639
	mov	r0, r3
	.loc 1 300 8 view .LVU640
	and	r1, r1, #15
	.loc 1 303 13 view .LVU641
	str	r1, [sp, #44]
	str	r3, [sp, #40]
	bl	Block_Opaque
.LVL158:
.LBB326:
.LBB327:
.LBB328:
.LBB329:
	.loc 1 165 25 view .LVU642
	ldr	ip, [fp, #12]
	.loc 1 165 29 view .LVU643
	ldr	r3, .L211+8
	.loc 1 166 20 view .LVU644
	ldr	lr, [fp, #16]
	.loc 1 165 29 view .LVU645
	add	r2, r3, ip, lsl #3
	strb	r7, [r3, ip, lsl #3]
	ldr	r3, [sp, #40]
.LBE329:
.LBE328:
.LBE327:
.LBE326:
	.loc 1 303 12 view .LVU646
	eor	r0, r0, #1
.LBB345:
.LBB340:
.LBB335:
.LBB330:
	.loc 1 165 29 view .LVU647
	strb	r3, [r2, #4]
	ldr	r3, [sp, #16]
.LBE330:
.LBE335:
.LBE340:
.LBE345:
	.loc 1 303 12 view .LVU648
	uxtb	r0, r0
.LBB346:
.LBB341:
.LBB336:
.LBB331:
	.loc 1 165 29 view .LVU649
	ldr	r1, [sp, #44]
	strb	r4, [r2, #1]
	strb	r3, [r2, #2]
.LBE331:
.LBE336:
.LBE341:
.LBE346:
.LBE350:
	.loc 1 289 33 view .LVU650
	add	r4, r4, #1
.LBB351:
.LBB347:
.LBB342:
.LBB337:
.LBB332:
	.loc 1 165 29 view .LVU651
	ldr	r3, [sp, #32]
	.loc 1 165 25 view .LVU652
	add	ip, ip, #1
	.loc 1 166 20 view .LVU653
	add	lr, lr, r0
.LBE332:
.LBE337:
.LBE342:
.LBE347:
.LBE351:
	.loc 1 289 24 view .LVU654
	cmp	r4, #16
.LBB352:
.LBB348:
.LBB343:
.LBB338:
.LBB333:
	.loc 1 165 29 view .LVU655
	strb	r8, [r2, #5]
.LVL159:
	.loc 1 165 29 view .LVU656
.LBE333:
.LBE338:
.LBE343:
.LBI326:
	.loc 1 163 20 is_stmt 1 view .LVU657
	.loc 1 164 2 view .LVU658
.LBB344:
.LBI327:
	.loc 1 163 20 view .LVU659
.LBB339:
.LBB334:
	.loc 1 165 3 view .LVU660
	.loc 1 165 29 is_stmt 0 view .LVU661
	strb	r1, [r2, #6]
	.loc 1 165 25 view .LVU662
	str	ip, [fp, #12]
	.loc 1 165 29 view .LVU663
	strb	r3, [r2, #3]
	strb	r0, [r2, #7]
	.loc 1 166 3 is_stmt 1 view .LVU664
	.loc 1 166 20 is_stmt 0 view .LVU665
	str	lr, [fp, #16]
.LVL160:
	.loc 1 166 20 view .LVU666
.LBE334:
.LBE339:
.LBE344:
.LBE348:
.LBE352:
	.loc 1 289 33 is_stmt 1 view .LVU667
	.loc 1 289 24 view .LVU668
	bne	.L124
.L205:
	.loc 1 289 24 is_stmt 0 view .LVU669
.LBE315:
.LBE353:
	.loc 1 283 32 is_stmt 1 discriminator 2 view .LVU670
	add	r7, r7, #1
.LVL161:
	.loc 1 283 23 discriminator 2 view .LVU671
	cmp	r7, #16
	beq	.L207
.LBB354:
	.loc 1 284 6 view .LVU672
.LVL162:
	.loc 1 285 6 view .LVU673
	.loc 1 287 11 view .LVU674
	ldr	r3, [sp, #28]
	.loc 1 288 12 is_stmt 0 view .LVU675
	cmp	r7, #15
	add	r3, r3, #256
	str	r3, [sp, #28]
	movne	r3, #6
	moveq	r3, #1
	add	r6, r6, #256
	add	r5, r5, #256
	str	r3, [sp, #48]
	b	.L115
.LVL163:
.L207:
	.loc 1 288 12 view .LVU676
.LBE354:
.LBE313:
.LBE356:
	.loc 1 281 32 is_stmt 1 discriminator 2 view .LVU677
	ldr	r3, [sp, #16]
	add	r3, r3, #15
	str	r3, [sp, #16]
.LVL164:
	.loc 1 281 22 discriminator 2 view .LVU678
	cmp	r3, #30
	ldr	r3, [sp, #36]
.LVL165:
	.loc 1 281 22 is_stmt 0 discriminator 2 view .LVU679
	add	r3, r3, #15
	str	r3, [sp, #36]
	ldr	r3, [sp, #64]
	add	r3, r3, #15
	str	r3, [sp, #64]
	mov	r3, #5
	str	r3, [sp, #32]
.LVL166:
	.loc 1 281 22 discriminator 2 view .LVU680
	bne	.L126
.LBE358:
	.loc 1 308 4 is_stmt 1 view .LVU681
	.loc 1 308 29 is_stmt 0 view .LVU682
	ldr	r0, [fp, #24]
	.loc 1 311 7 view .LVU683
	ldr	ip, [r10, #16]
	.loc 1 308 13 view .LVU684
	vldr.32	s14, [r0]
.LVL167:
.LBB359:
.LBI359:
	.file 3 "/home/tobi/Dokumente/Craftus-Next/include/misc/NumberUtils.h"
	.loc 3 25 19 is_stmt 1 view .LVU685
.LBB360:
	.loc 3 25 40 view .LVU686
	.loc 3 25 47 is_stmt 0 view .LVU687
	vcvt.s32.f32	s15, s14
	.loc 3 25 58 view .LVU688
	vcvt.f32.s32	s13, s15
	vcmpe.f32	s14, s13
	vmrs	APSR_nzcv, FPSCR
	.loc 3 25 56 view .LVU689
	vmov	r2, s15	@ int
	.loc 3 25 58 view .LVU690
	movmi	r3, #1
	movpl	r3, #0
	.loc 3 25 56 view .LVU691
	sub	r1, r2, r3
.LVL168:
	.loc 3 25 56 view .LVU692
.LBE360:
.LBE359:
	.loc 1 309 4 is_stmt 1 view .LVU693
.LBB361:
.LBI361:
	.loc 3 25 19 view .LVU694
.LBB362:
	.loc 3 25 40 view .LVU695
	.loc 3 25 40 is_stmt 0 view .LVU696
.LBE362:
.LBE361:
	.loc 1 310 4 is_stmt 1 view .LVU697
.LBB364:
.LBI364:
	.loc 3 25 19 view .LVU698
.LBB365:
	.loc 3 25 40 view .LVU699
	.loc 3 25 40 is_stmt 0 view .LVU700
.LBE365:
.LBE364:
	.loc 1 311 4 is_stmt 1 view .LVU701
.LBB367:
.LBI367:
	.file 4 "/home/tobi/Dokumente/Craftus-Next/include/world/World.h"
	.loc 4 51 19 view .LVU702
.LBB368:
	.loc 4 51 46 view .LVU703
	.loc 4 51 56 is_stmt 0 view .LVU704
	add	r2, r1, r1, lsr #31
	.loc 4 51 72 view .LVU705
	cmp	r2, #0
	add	r3, r2, #15
	movge	r3, r2
	asr	r3, r3, #4
	.loc 4 51 79 view .LVU706
	sub	r3, r3, r1, lsr #31
.LVL169:
	.loc 4 51 79 view .LVU707
.LBE368:
.LBE367:
	.loc 1 311 7 view .LVU708
	cmp	ip, r3
	beq	.L208
.LVL170:
.L127:
	.loc 1 317 4 is_stmt 1 view .LVU709
	.loc 1 318 37 is_stmt 0 view .LVU710
	ldr	r3, [fp, #12]
	.loc 1 317 47 view .LVU711
	ldr	r2, [fp, #16]
	.loc 1 321 7 view .LVU712
	cmp	r3, #0
	.loc 1 318 37 view .LVU713
	add	r3, r3, r3, lsl #1
	.loc 1 317 8 view .LVU714
	add	r1, r2, r2, lsl #1
	.loc 1 318 37 view .LVU715
	lsl	r3, r3, #1
	.loc 1 318 8 view .LVU716
	sub	r3, r3, r1, lsl #1
	str	r3, [sp, #52]
	.loc 1 317 8 view .LVU717
	lsl	r3, r1, #1
	str	r3, [sp, #64]
.LVL171:
	.loc 1 318 4 is_stmt 1 view .LVU718
	.loc 1 319 4 view .LVU719
	.loc 1 321 4 view .LVU720
	.loc 1 321 7 is_stmt 0 view .LVU721
	bne	.L209
.LVL172:
.L128:
	.loc 1 369 4 is_stmt 1 view .LVU722
	.loc 1 371 25 is_stmt 0 view .LVU723
	ldrd	r4, [r10, #16]
.LVL173:
	.loc 1 372 4 is_stmt 1 view .LVU724
	.loc 1 373 4 view .LVU725
	.loc 1 374 4 view .LVU726
	.loc 1 375 4 view .LVU727
	.loc 1 377 4 view .LVU728
	ldr	r0, .L211+12
	bl	LightLock_Lock
.LVL174:
	.loc 1 378 4 view .LVU729
	.loc 1 378 6 is_stmt 0 view .LVU730
	ldr	r2, .L211+16
	mov	r3, #40
	vmov	r1, s17	@ int
	sub	r0, r2, #8
	bl	vec_expand_
.LVL175:
	.loc 1 378 133 view .LVU731
	cmp	r0, #0
	bne	.L140
	.loc 1 378 181 discriminator 1 view .LVU732
	ldr	r3, [sp, #64]
	.loc 1 378 149 discriminator 1 view .LVU733
	ldr	ip, [fp, #32]
	.loc 1 378 181 discriminator 1 view .LVU734
	str	r3, [sp, #168]
	ldr	r3, [sp, #20]
	strb	r0, [sp, #172]
	strh	r3, [sp, #174]	@ movhi
	ldr	r3, [sp, #52]
	str	r4, [sp, #152]
	str	r3, [sp, #164]
	ldr	r3, [sp, #80]
	str	r5, [sp, #160]
	str	r3, [sp, #140]
	ldr	r3, [sp, #76]
	add	lr, sp, #136
	str	r3, [sp, #148]
	ldr	r3, [sp, #60]
	str	r3, [sp, #156]
	.loc 1 378 169 discriminator 1 view .LVU735
	ldr	r3, [fp, #36]
	.loc 1 378 181 discriminator 1 view .LVU736
	add	r2, r3, r3, lsl #2
	add	ip, ip, r2, lsl #3
	.loc 1 378 177 discriminator 1 view .LVU737
	add	r3, r3, #1
	str	r3, [fp, #36]
.LVL176:
	.loc 1 378 181 discriminator 1 view .LVU738
	ldmia	lr!, {r0, r1, r2, r3}
	stmia	ip!, {r0, r1, r2, r3}
	ldmia	lr!, {r0, r1, r2, r3}
	stmia	ip!, {r0, r1, r2, r3}
	ldm	lr, {r0, r1}
	stm	ip, {r0, r1}
.LVL177:
.L140:
	.loc 1 379 4 is_stmt 1 view .LVU739
	ldr	r0, .L211+12
	bl	LightLock_Unlock
.LVL178:
	.loc 1 379 4 is_stmt 0 view .LVU740
	b	.L88
.LVL179:
.L208:
	.loc 1 310 13 view .LVU741
	vldr.32	s14, [r0, #8]
.LBB369:
.LBB366:
	.loc 3 25 47 view .LVU742
	vcvt.s32.f32	s15, s14
	.loc 3 25 58 view .LVU743
	vcvt.f32.s32	s13, s15
	vcmpe.f32	s14, s13
	vmrs	APSR_nzcv, FPSCR
	.loc 3 25 56 view .LVU744
	vmov	r2, s15	@ int
	.loc 3 25 58 view .LVU745
	movmi	r3, #1
	movpl	r3, #0
	.loc 3 25 56 view .LVU746
	sub	r3, r2, r3
.LVL180:
	.loc 3 25 56 view .LVU747
.LBE366:
.LBE369:
.LBB370:
.LBI370:
	.loc 4 51 19 is_stmt 1 view .LVU748
.LBB371:
	.loc 4 51 46 view .LVU749
	.loc 4 51 56 is_stmt 0 view .LVU750
	add	lr, r3, r3, lsr #31
	.loc 4 51 72 view .LVU751
	cmp	lr, #0
	add	r2, lr, #15
	movge	r2, lr
.LBE371:
.LBE370:
	.loc 1 311 47 view .LVU752
	ldr	r4, [r10, #20]
.LVL181:
.LBB373:
.LBB372:
	.loc 4 51 72 view .LVU753
	asr	r2, r2, #4
	.loc 4 51 79 view .LVU754
	sub	r2, r2, r3, lsr #31
.LVL182:
	.loc 4 51 79 view .LVU755
.LBE372:
.LBE373:
	.loc 1 311 47 view .LVU756
	cmp	r4, r2
	bne	.L127
	.loc 1 309 13 view .LVU757
	vldr.32	s14, [r0, #4]
.LBB374:
.LBB363:
	.loc 3 25 47 view .LVU758
	vcvt.s32.f32	s15, s14
	.loc 3 25 58 view .LVU759
	vcvt.f32.s32	s13, s15
	vcmpe.f32	s14, s13
	vmrs	APSR_nzcv, FPSCR
	.loc 3 25 56 view .LVU760
	vmov	r0, s15	@ int
.LVL183:
	.loc 3 25 58 view .LVU761
	movmi	r2, #1
	movpl	r2, #0
	.loc 3 25 56 view .LVU762
	sub	r2, r0, r2
.LVL184:
	.loc 3 25 56 view .LVU763
.LBE363:
.LBE374:
.LBB375:
.LBI375:
	.loc 4 51 19 is_stmt 1 view .LVU764
.LBB376:
	.loc 4 51 46 view .LVU765
	.loc 4 51 56 is_stmt 0 view .LVU766
	add	lr, r2, r2, lsr #31
	.loc 4 51 72 view .LVU767
	cmp	lr, #0
	add	r0, lr, #15
	movge	r0, lr
.LBE376:
.LBE375:
	.loc 1 311 89 view .LVU768
	ldr	lr, [sp, #60]
.LBB378:
.LBB377:
	.loc 4 51 72 view .LVU769
	asr	r0, r0, #4
	.loc 4 51 79 view .LVU770
	sub	r0, r0, r2, lsr #31
.LBE377:
.LBE378:
	.loc 1 311 89 view .LVU771
	cmp	r0, lr
	bne	.L127
	.loc 1 313 5 is_stmt 1 view .LVU772
.LVL185:
.LBB379:
.LBI379:
	.loc 4 52 19 view .LVU773
.LBB380:
	.loc 4 52 46 view .LVU774
	.loc 4 52 55 is_stmt 0 view .LVU775
	sub	r1, r1, ip, lsl #4
.LVL186:
	.loc 4 52 55 view .LVU776
.LBE380:
.LBE379:
.LBB381:
.LBI381:
	.loc 4 52 19 is_stmt 1 view .LVU777
.LBB382:
	.loc 4 52 46 view .LVU778
	.loc 4 52 55 is_stmt 0 view .LVU779
	sub	r2, r2, lr, lsl #4
.LVL187:
	.loc 4 52 55 view .LVU780
.LBE382:
.LBE381:
.LBB383:
.LBI383:
	.loc 4 52 19 is_stmt 1 view .LVU781
.LBB384:
	.loc 4 52 46 view .LVU782
	.loc 4 52 46 is_stmt 0 view .LVU783
.LBE384:
.LBE383:
.LBB386:
.LBB387:
	.loc 1 172 29 view .LVU784
	ldr	ip, .L211+4
	add	r0, r2, r1, lsl #4
.LBE387:
.LBE386:
.LBB389:
.LBB385:
	.loc 4 52 55 view .LVU785
	sub	r3, r3, r4, lsl #4
.LVL188:
	.loc 4 52 55 view .LVU786
.LBE385:
.LBE389:
.LBB390:
.LBI386:
	.loc 1 170 17 is_stmt 1 view .LVU787
.LBB388:
	.loc 1 172 2 view .LVU788
	.loc 1 172 29 is_stmt 0 view .LVU789
	add	r0, ip, r0, lsl #4
	.loc 1 172 5 view .LVU790
	ldrb	r0, [r0, r3]	@ zero_extendqisi2
	tst	r0, #1
	bne	.L127
	mov	ip, #6
	vmov	r0, s16	@ int
	str	ip, [sp, #8]
.LVL189:
	.loc 1 172 5 view .LVU791
	str	ip, [sp, #4]
	str	ip, [sp]
	bl	floodFill.part.0
.LVL190:
	.loc 1 172 5 view .LVU792
	b	.L127
.LVL191:
.L209:
	.loc 1 172 5 view .LVU793
.LBE388:
.LBE390:
.LBB391:
	.loc 1 322 5 is_stmt 1 view .LVU794
	.loc 1 323 5 view .LVU795
	.loc 1 323 8 is_stmt 0 view .LVU796
	ldr	r3, [sp, #52]
.LVL192:
	.loc 1 323 8 view .LVU797
	cmp	r3, #0
	.loc 1 323 39 view .LVU798
	add	r3, sp, #120
	str	r3, [sp, #84]
	.loc 1 323 8 view .LVU799
	ble	.L129
	.loc 1 323 28 is_stmt 1 discriminator 1 view .LVU800
	.loc 1 323 39 is_stmt 0 discriminator 1 view .LVU801
	mov	r0, r3
	ldr	r3, [sp, #52]
	lsl	r1, r3, #4
	bl	VBO_Alloc
.LVL193:
	.loc 1 323 39 discriminator 1 view .LVU802
	ldr	r3, [sp, #124]
	.loc 1 325 26 discriminator 1 view .LVU803
	ldr	r2, [fp, #16]
	.loc 1 323 39 discriminator 1 view .LVU804
	str	r3, [sp, #80]
.LVL194:
.L129:
	.loc 1 324 5 is_stmt 1 view .LVU805
	.loc 1 325 5 view .LVU806
	.loc 1 325 48 is_stmt 0 view .LVU807
	add	r3, sp, #128
	.loc 1 325 8 view .LVU808
	cmp	r2, #0
	.loc 1 325 48 view .LVU809
	str	r3, [sp, #88]
	.loc 1 325 8 view .LVU810
	ble	.L130
	.loc 1 325 31 is_stmt 1 discriminator 1 view .LVU811
	.loc 1 325 48 is_stmt 0 discriminator 1 view .LVU812
	mov	r0, r3
	ldr	r3, [sp, #64]
	lsl	r1, r3, #4
	bl	VBO_Alloc
.LVL195:
	ldr	r3, [sp, #132]
	str	r3, [sp, #76]
.LVL196:
.L130:
	.loc 1 327 5 is_stmt 1 view .LVU813
	.loc 1 328 5 view .LVU814
	.loc 1 329 5 view .LVU815
.LBB392:
	.loc 1 329 10 view .LVU816
	.loc 1 329 23 view .LVU817
	ldr	r3, [fp, #12]
	cmp	r3, #0
	ble	.L210
.LBE392:
	.loc 1 328 18 is_stmt 0 view .LVU818
	ldr	r3, [sp, #76]
	ldr	r5, .L211+8
	str	r3, [sp, #28]
	.loc 1 327 18 view .LVU819
	ldr	r3, [sp, #80]
.LBB398:
.LBB393:
.LBB394:
	.loc 1 352 68 view .LVU820
	ldr	r7, .L211+20
.LVL197:
	.loc 1 352 68 view .LVU821
.LBE394:
.LBE393:
.LBE398:
	.loc 1 327 18 view .LVU822
	str	r3, [sp, #24]
.LBB399:
	.loc 1 329 14 view .LVU823
	mov	r3, #0
	str	r3, [sp, #32]
.LBB396:
	.loc 1 334 31 view .LVU824
	ldr	r3, [sp, #60]
	str	r9, [sp, #96]
	lsl	r3, r3, #4
	str	r3, [sp, #48]
.LVL198:
	.loc 1 334 31 view .LVU825
	add	r3, sp, #136
	vmov	s16, r3	@ int
.LVL199:
.L138:
	.loc 1 330 6 is_stmt 1 view .LVU826
	.loc 1 330 11 is_stmt 0 view .LVU827
	ldrb	r3, [r5, #7]	@ zero_extendqisi2
	.loc 1 339 61 view .LVU828
	ldr	r1, [sp, #24]
	.loc 1 330 11 view .LVU829
	mov	r2, r3
	.loc 1 339 61 view .LVU830
	cmp	r2, #0
	.loc 1 330 11 view .LVU831
	str	r3, [sp, #44]
	.loc 1 339 61 view .LVU832
	ldr	r3, [sp, #28]
	moveq	r3, r1
	.loc 1 332 43 view .LVU833
	ldr	r2, [r10, #16]
	.loc 1 339 61 view .LVU834
	str	r3, [sp, #16]
	.loc 1 332 24 view .LVU835
	ldrsb	r3, [r5]
	.loc 1 330 11 view .LVU836
	ldrb	r6, [r5, #3]	@ zero_extendqisi2
.LVL200:
	.loc 1 332 10 view .LVU837
	add	r2, r3, r2, lsl #4
	str	r2, [sp, #36]
	.loc 1 333 24 view .LVU838
	ldrsb	r3, [r5, #2]
	.loc 1 333 43 view .LVU839
	ldr	r2, [r10, #20]
	.loc 1 330 11 view .LVU840
	ldrb	r8, [r5, #4]	@ zero_extendqisi2
.LVL201:
	.loc 1 330 11 view .LVU841
	ldrb	r9, [r5, #6]	@ zero_extendqisi2
.LVL202:
	.loc 1 332 6 is_stmt 1 view .LVU842
	.loc 1 333 6 view .LVU843
	.loc 1 334 6 view .LVU844
	.loc 1 334 10 is_stmt 0 view .LVU845
	ldr	r0, [sp, #48]
	.loc 1 334 24 view .LVU846
	ldrsb	r4, [r5, #1]
	.loc 1 333 10 view .LVU847
	add	r1, r3, r2, lsl #4
	str	r1, [sp, #40]
.LVL203:
	.loc 1 337 6 view .LVU848
	vmov	r3, s16	@ int
	mov	r2, r9
	mov	r1, r6
	.loc 1 334 10 view .LVU849
	add	r4, r4, r0
.LVL204:
	.loc 1 336 6 is_stmt 1 view .LVU850
	.loc 1 337 6 view .LVU851
	mov	r0, r8
	bl	Block_GetTexture
.LVL205:
	.loc 1 339 6 view .LVU852
	.loc 1 340 6 view .LVU853
	ldr	r0, .L211+24
	.loc 1 340 50 is_stmt 0 view .LVU854
	add	r1, r6, r6, lsl #1
	.loc 1 340 6 view .LVU855
	add	r1, r0, r1, lsl #5
	mov	r2, #96
	ldr	r0, [sp, #16]
	bl	memcpy
.LVL206:
	.loc 1 345 6 is_stmt 1 view .LVU856
	.loc 1 346 6 view .LVU857
	add	ip, sp, #116
	mov	r3, ip
	mov	r2, r6
	mov	r1, r9
	mov	r0, r8
	bl	Block_GetColor
.LVL207:
	.loc 1 348 6 view .LVU858
.LBB395:
	.loc 1 348 11 view .LVU859
	.loc 1 348 24 view .LVU860
	ldr	r3, [sp, #16]
	.loc 1 349 22 is_stmt 0 view .LVU861
	ldrh	r8, [sp, #36]
.LVL208:
	.loc 1 351 22 view .LVU862
	ldrh	r9, [sp, #40]
.LVL209:
	.loc 1 352 76 view .LVU863
	ldrh	r6, [sp, #136]
.LVL210:
	.loc 1 353 76 view .LVU864
	ldrh	lr, [sp, #138]
	.loc 1 350 22 view .LVU865
	uxth	r4, r4
.LVL211:
	.loc 1 350 22 view .LVU866
	add	ip, r3, #96
.LVL212:
.L135:
	.loc 1 349 7 is_stmt 1 view .LVU867
	.loc 1 352 68 is_stmt 0 view .LVU868
	ldrsh	r2, [r3, #6]
	.loc 1 349 22 view .LVU869
	ldrh	r0, [r3]
	.loc 1 352 68 view .LVU870
	cmp	r2, #1
	.loc 1 353 68 view .LVU871
	ldrsh	r2, [r3, #8]
	.loc 1 352 68 view .LVU872
	moveq	r1, r7
	movne	r1, #1
	.loc 1 353 68 view .LVU873
	cmp	r2, #1
	moveq	r2, r7
	movne	r2, #1
	.loc 1 349 22 view .LVU874
	add	r0, r8, r0
	strh	r0, [r3]	@ movhi
	.loc 1 350 7 is_stmt 1 view .LVU875
	.loc 1 350 22 is_stmt 0 view .LVU876
	ldrh	r0, [r3, #2]
	.loc 1 353 68 view .LVU877
	add	r2, lr, r2
	.loc 1 350 22 view .LVU878
	add	r0, r4, r0
	strh	r0, [r3, #2]	@ movhi
	.loc 1 351 7 is_stmt 1 view .LVU879
	.loc 1 351 22 is_stmt 0 view .LVU880
	ldrh	r0, [r3, #4]
	.loc 1 352 68 view .LVU881
	add	r1, r6, r1
	.loc 1 351 22 view .LVU882
	add	r0, r9, r0
	strh	r0, [r3, #4]	@ movhi
	.loc 1 352 7 is_stmt 1 view .LVU883
	.loc 1 352 21 is_stmt 0 view .LVU884
	strh	r1, [r3, #6]	@ movhi
	.loc 1 353 7 is_stmt 1 view .LVU885
	.loc 1 353 21 is_stmt 0 view .LVU886
	strh	r2, [r3, #8]	@ movhi
	.loc 1 355 7 is_stmt 1 view .LVU887
	.loc 1 355 29 is_stmt 0 view .LVU888
	ldrb	r2, [sp, #116]	@ zero_extendqisi2
	.loc 1 348 24 view .LVU889
	add	r3, r3, #16
	.loc 1 355 22 view .LVU890
	strb	r2, [r3, #-6]
	.loc 1 356 7 is_stmt 1 view .LVU891
	.loc 1 356 29 is_stmt 0 view .LVU892
	ldrb	r2, [sp, #117]	@ zero_extendqisi2
	.loc 1 356 22 view .LVU893
	strb	r2, [r3, #-5]
	.loc 1 357 7 is_stmt 1 view .LVU894
	.loc 1 357 29 is_stmt 0 view .LVU895
	ldrb	r2, [sp, #118]	@ zero_extendqisi2
	.loc 1 357 22 view .LVU896
	strb	r2, [r3, #-4]
	.loc 1 348 30 is_stmt 1 view .LVU897
	.loc 1 348 24 view .LVU898
	cmp	ip, r3
	bne	.L135
.LBE395:
	.loc 1 359 6 view .LVU899
	.loc 1 359 9 is_stmt 0 view .LVU900
	ldr	r3, [sp, #44]
.LBE396:
	.loc 1 329 23 view .LVU901
	add	r5, r5, #8
.LBB397:
	.loc 1 359 9 view .LVU902
	cmp	r3, #0
	.loc 1 360 7 is_stmt 1 view .LVU903
	.loc 1 360 23 is_stmt 0 view .LVU904
	ldrne	r3, [sp, #28]
	.loc 1 362 18 view .LVU905
	ldreq	r3, [sp, #24]
	.loc 1 360 23 view .LVU906
	addne	r3, r3, #96
	.loc 1 362 18 view .LVU907
	addeq	r3, r3, #96
	.loc 1 360 23 view .LVU908
	strne	r3, [sp, #28]
.LVL213:
	.loc 1 362 7 is_stmt 1 view .LVU909
	.loc 1 362 18 is_stmt 0 view .LVU910
	streq	r3, [sp, #24]
.LVL214:
	.loc 1 362 18 view .LVU911
.LBE397:
	.loc 1 329 39 is_stmt 1 view .LVU912
	ldr	r3, [sp, #32]
	add	r3, r3, #1
	mov	r2, r3
	str	r3, [sp, #32]
.LVL215:
	.loc 1 329 23 view .LVU913
	ldr	r3, [fp, #12]
	cmp	r3, r2
	bgt	.L138
	ldr	r9, [sp, #96]
.LVL216:
.L139:
	.loc 1 329 23 is_stmt 0 view .LVU914
.LBE399:
	.loc 1 365 5 is_stmt 1 view .LVU915
	.loc 1 365 16 is_stmt 0 view .LVU916
	ldr	r3, [sp, #80]
	ldr	r2, [sp, #84]
	str	r3, [sp, #124]
	ldm	r2, {r0, r1}
	vmov	r2, s16	@ int
	.loc 1 366 27 view .LVU917
	ldr	r3, [sp, #76]
	.loc 1 365 16 view .LVU918
	stm	r2, {r0, r1}
.LVL217:
	.loc 1 366 5 is_stmt 1 view .LVU919
	.loc 1 366 27 is_stmt 0 view .LVU920
	ldr	r2, [sp, #88]
	str	r3, [sp, #132]
	add	r3, sp, #144
	ldm	r2, {r0, r1}
	stm	r3, {r0, r1}
.LVL218:
	.loc 1 366 27 view .LVU921
	b	.L128
.LVL219:
.L194:
	.loc 1 366 27 view .LVU922
.LBE391:
.LBE400:
.LBE402:
.LBE404:
	.loc 1 382 2 is_stmt 1 view .LVU923
	.loc 1 383 29 is_stmt 0 view .LVU924
	mov	r3, #0
	.loc 1 382 30 view .LVU925
	ldr	r1, [sp, #92]
.LVL220:
	.loc 1 382 30 view .LVU926
	ldr	r2, [r1, #668]
	.loc 1 383 29 view .LVU927
	strb	r3, [r1, #676]
	.loc 1 382 30 view .LVU928
	str	r2, [r1, #672]
	.loc 1 383 2 is_stmt 1 view .LVU929
	.loc 1 384 1 is_stmt 0 view .LVU930
	add	sp, sp, #180
	.cfi_remember_state
	.cfi_def_cfa_offset 44
	@ sp needed
	vldm	sp!, {d8}
	.cfi_restore 80
	.cfi_restore 81
	.cfi_def_cfa_offset 36
	pop	{r4, r5, r6, r7, r8, r9, r10, fp, pc}
.LVL221:
.L210:
	.cfi_restore_state
	.loc 1 384 1 view .LVU931
	add	r3, sp, #136
	vmov	s16, r3	@ int
	b	.L139
.L212:
	.align	2
.L211:
	.word	.LANCHOR0
	.word	floodfill_visited
	.word	faceBuffer
	.word	.LANCHOR0+28
	.word	.LANCHOR0+40
	.word	4095
	.word	.LANCHOR1
	.cfi_endproc
.LFE149:
	.size	PolyGen_GeneratePolygons, .-PolyGen_GeneratePolygons
	.global	cube_sides_lut
	.section	.rodata
	.align	2
	.set	.LANCHOR1,. + 0
	.type	cube_sides_lut, %object
	.size	cube_sides_lut, 576
cube_sides_lut:
	.short	0
	.short	0
	.short	0
	.short	0
	.short	0
	.ascii	"\377\377\377"
	.ascii	"\000\000\000"
	.short	0
	.short	0
	.short	1
	.short	1
	.short	0
	.ascii	"\377\377\377"
	.ascii	"\000\000\000"
	.short	0
	.short	1
	.short	1
	.short	1
	.short	1
	.ascii	"\377\377\377"
	.ascii	"\000\000\000"
	.short	0
	.short	1
	.short	1
	.short	1
	.short	1
	.ascii	"\377\377\377"
	.ascii	"\000\000\000"
	.short	0
	.short	1
	.short	0
	.short	0
	.short	1
	.ascii	"\377\377\377"
	.ascii	"\000\000\000"
	.short	0
	.short	0
	.short	0
	.short	0
	.short	0
	.ascii	"\377\377\377"
	.ascii	"\000\000\000"
	.short	1
	.short	0
	.short	0
	.short	1
	.short	0
	.ascii	"\377\377\377"
	.ascii	"\000\000\000"
	.short	1
	.short	1
	.short	0
	.short	1
	.short	1
	.ascii	"\377\377\377"
	.ascii	"\000\000\000"
	.short	1
	.short	1
	.short	1
	.short	0
	.short	1
	.ascii	"\377\377\377"
	.ascii	"\000\000\000"
	.short	1
	.short	1
	.short	1
	.short	0
	.short	1
	.ascii	"\377\377\377"
	.ascii	"\000\000\000"
	.short	1
	.short	0
	.short	1
	.short	0
	.short	0
	.ascii	"\377\377\377"
	.ascii	"\000\000\000"
	.short	1
	.short	0
	.short	0
	.short	1
	.short	0
	.ascii	"\377\377\377"
	.ascii	"\000\000\000"
	.short	0
	.short	0
	.short	0
	.short	0
	.short	1
	.ascii	"\377\377\377"
	.ascii	"\000\000\000"
	.short	1
	.short	0
	.short	0
	.short	1
	.short	1
	.ascii	"\377\377\377"
	.ascii	"\000\000\000"
	.short	1
	.short	0
	.short	1
	.short	1
	.short	0
	.ascii	"\377\377\377"
	.ascii	"\000\000\000"
	.short	1
	.short	0
	.short	1
	.short	1
	.short	0
	.ascii	"\377\377\377"
	.ascii	"\000\000\000"
	.short	0
	.short	0
	.short	1
	.short	0
	.short	0
	.ascii	"\377\377\377"
	.ascii	"\000\000\000"
	.short	0
	.short	0
	.short	0
	.short	0
	.short	1
	.ascii	"\377\377\377"
	.ascii	"\000\000\000"
	.short	0
	.short	1
	.short	0
	.short	0
	.short	1
	.ascii	"\377\377\377"
	.ascii	"\000\000\000"
	.short	0
	.short	1
	.short	1
	.short	0
	.short	0
	.ascii	"\377\377\377"
	.ascii	"\000\000\000"
	.short	1
	.short	1
	.short	1
	.short	1
	.short	0
	.ascii	"\377\377\377"
	.ascii	"\000\000\000"
	.short	1
	.short	1
	.short	1
	.short	1
	.short	0
	.ascii	"\377\377\377"
	.ascii	"\000\000\000"
	.short	1
	.short	1
	.short	0
	.short	1
	.short	1
	.ascii	"\377\377\377"
	.ascii	"\000\000\000"
	.short	0
	.short	1
	.short	0
	.short	0
	.short	1
	.ascii	"\377\377\377"
	.ascii	"\000\000\000"
	.short	0
	.short	0
	.short	0
	.short	1
	.short	0
	.ascii	"\377\377\377"
	.ascii	"\000\000\000"
	.short	0
	.short	1
	.short	0
	.short	1
	.short	1
	.ascii	"\377\377\377"
	.ascii	"\000\000\000"
	.short	1
	.short	1
	.short	0
	.short	0
	.short	1
	.ascii	"\377\377\377"
	.ascii	"\000\000\000"
	.short	1
	.short	1
	.short	0
	.short	0
	.short	1
	.ascii	"\377\377\377"
	.ascii	"\000\000\000"
	.short	1
	.short	0
	.short	0
	.short	0
	.short	0
	.ascii	"\377\377\377"
	.ascii	"\000\000\000"
	.short	0
	.short	0
	.short	0
	.short	1
	.short	0
	.ascii	"\377\377\377"
	.ascii	"\000\000\000"
	.short	0
	.short	0
	.short	1
	.short	0
	.short	0
	.ascii	"\377\377\377"
	.ascii	"\000\000\000"
	.short	1
	.short	0
	.short	1
	.short	1
	.short	0
	.ascii	"\377\377\377"
	.ascii	"\000\000\000"
	.short	1
	.short	1
	.short	1
	.short	1
	.short	1
	.ascii	"\377\377\377"
	.ascii	"\000\000\000"
	.short	1
	.short	1
	.short	1
	.short	1
	.short	1
	.ascii	"\377\377\377"
	.ascii	"\000\000\000"
	.short	0
	.short	1
	.short	1
	.short	0
	.short	1
	.ascii	"\377\377\377"
	.ascii	"\000\000\000"
	.short	0
	.short	0
	.short	1
	.short	0
	.short	0
	.ascii	"\377\377\377"
	.ascii	"\000\000\000"
	.bss
	.align	2
	.set	.LANCHOR0,. + 0
	.type	floodfill_queue, %object
	.size	floodfill_queue, 12
floodfill_queue:
	.space	12
	.type	currentFace, %object
	.size	currentFace, 4
currentFace:
	.space	4
	.type	transparentFaces, %object
	.size	transparentFaces, 4
transparentFaces:
	.space	4
	.type	world, %object
	.size	world, 4
world:
	.space	4
	.type	player, %object
	.size	player, 4
player:
	.space	4
	.type	updateLock, %object
	.size	updateLock, 4
updateLock:
	.space	4
	.type	vboUpdates, %object
	.size	vboUpdates, 12
vboUpdates:
	.space	12
	.type	floodfill_visited, %object
	.size	floodfill_visited, 4096
floodfill_visited:
	.space	4096
	.type	faceBuffer, %object
	.size	faceBuffer, 98304
faceBuffer:
	.space	98304
	.text
.Letext0:
	.file 5 "/opt/devkitpro/devkitARM/lib/gcc/arm-none-eabi/11.2.0/include/stddef.h"
	.file 6 "/opt/devkitpro/devkitARM/arm-none-eabi/include/machine/_default_types.h"
	.file 7 "/opt/devkitpro/devkitARM/arm-none-eabi/include/sys/_stdint.h"
	.file 8 "/opt/devkitpro/devkitARM/arm-none-eabi/include/sys/lock.h"
	.file 9 "/home/tobi/Dokumente/Craftus-Next/include/world/Direction.h"
	.file 10 "/home/tobi/Dokumente/Craftus-Next/include/blocks/Block.h"
	.file 11 "/home/tobi/Dokumente/Craftus-Next/include/misc/Xorshift.h"
	.file 12 "/home/tobi/Dokumente/Craftus-Next/include/rendering/VBOCache.h"
	.file 13 "/opt/devkitpro/libctru/include/3ds/types.h"
	.file 14 "/opt/devkitpro/libctru/include/3ds/synchronization.h"
	.file 15 "/opt/devkitpro/libctru/include/3ds/services/csnd.h"
	.file 16 "/opt/devkitpro/libctru/include/3ds/services/ndm.h"
	.file 17 "/opt/devkitpro/libctru/include/3ds/gpu/enums.h"
	.file 18 "/opt/devkitpro/libctru/include/3ds/ndsp/channel.h"
	.file 19 "/opt/devkitpro/libctru/include/3ds/applets/error.h"
	.file 20 "/home/tobi/Dokumente/Craftus-Next/include/world/WorkQueue.h"
	.file 21 "/home/tobi/Dokumente/Craftus-Next/include/blocks/Item.h"
	.file 22 "/home/tobi/Dokumente/Craftus-Next/include/inventory/ItemStack.h"
	.file 23 "/home/tobi/Dokumente/Craftus-Next/include/misc/VecMath.h"
	.file 24 "/home/tobi/Dokumente/Craftus-Next/include/misc/Raycast.h"
	.file 25 "/home/tobi/Dokumente/Craftus-Next/include/entity/Player.h"
	.file 26 "/home/tobi/Dokumente/Craftus-Next/include/rendering/VertexFmt.h"
	.file 27 "/home/tobi/Dokumente/Craftus-Next/dependencies/vec/vec.h"
	.file 28 "/opt/devkitpro/devkitARM/arm-none-eabi/include/string.h"
	.file 29 "/home/tobi/Dokumente/Craftus-Next/include/gui/DebugUI.h"
	.file 30 "/opt/devkitpro/devkitARM/arm-none-eabi/include/stdlib.h"
	.file 31 "<built-in>"