	.arch armv6k
	.eabi_attribute 28, 1
	.eabi_attribute 20, 1
	.eabi_attribute 21, 1
	.eabi_attribute 23, 3
	.eabi_attribute 24, 1
	.eabi_attribute 25, 1
	.eabi_attribute 26, 1
	.eabi_attribute 30, 2
	.eabi_attribute 34, 1
	.eabi_attribute 18, 4
	.file	"Renderer.c"
	.text
.Ltext0:
	.cfi_sections	.debug_frame
	.section	.rodata.str1.4,"aMS",%progbits,1
	.align	2
.LC0:
	.ascii	"projection\000"
	.align	2
.LC1:
	.ascii	"romfs:/assets/textures/gui/title/craftus.png\000"
	.section	.text.Renderer_Init,"ax",%progbits
	.align	2
	.global	Renderer_Init
	.syntax unified
	.arm
	.fpu vfp
	.type	Renderer_Init, %function
Renderer_Init:
.LVL0:
.LFB224:
	.file 1 "/home/tobi/Dokumente/Craftus-Next/source/rendering/Renderer.c"
	.loc 1 49 93 view -0
	.cfi_startproc
	@ args = 0, pretend = 0, frame = 0
	@ frame_needed = 0, uses_anonymous_args = 0
	.loc 1 50 2 view .LVU1
	.loc 1 49 93 is_stmt 0 view .LVU2
	push	{r3, r4, r5, r6, r7, r8, r9, r10, fp, lr}
	.cfi_def_cfa_offset 40
	.cfi_offset 3, -40
	.cfi_offset 4, -36
	.cfi_offset 5, -32
	.cfi_offset 6, -28
	.cfi_offset 7, -24
	.cfi_offset 8, -20
	.cfi_offset 9, -16
	.cfi_offset 10, -12
	.cfi_offset 11, -8
	.cfi_offset 14, -4
	.loc 1 49 93 view .LVU3
	mov	ip, r0
	.loc 1 57 21 view .LVU4
	mov	r5, #0
	.loc 1 50 8 view .LVU5
	ldr	r4, .L4
	.loc 1 55 2 view .LVU6
	mov	r0, #262144
.LVL1:
	.loc 1 50 8 view .LVU7
	str	ip, [r4]
	.loc 1 51 2 is_stmt 1 view .LVU8
	.loc 1 49 93 is_stmt 0 view .LVU9
	mov	r7, r1
	.loc 1 53 12 view .LVU10
	strd	r2, [r4, #8]
	.loc 1 51 9 view .LVU11
	str	r1, [r4, #4]
	.loc 1 52 2 is_stmt 1 view .LVU12
	.loc 1 53 2 view .LVU13
	.loc 1 55 2 view .LVU14
	bl	C3D_Init
.LVL2:
	.loc 1 57 2 view .LVU15
	.loc 1 57 21 is_stmt 0 view .LVU16
	mov	r3, r5
	mov	r2, r5
	mov	r1, #400
	mov	r0, #240
	bl	C3D_RenderTargetCreate
.LVL3:
	.loc 1 58 21 view .LVU17
	mov	r3, r5
	mov	r2, r5
	.loc 1 57 19 view .LVU18
	str	r0, [r4, #16]
	.loc 1 58 2 is_stmt 1 view .LVU19
	.loc 1 58 21 is_stmt 0 view .LVU20
	mov	r1, #400
	mov	r0, #240
	bl	C3D_RenderTargetCreate
.LVL4:
	.loc 1 59 2 view .LVU21
	mov	r2, r5
	mov	r1, r5
	.loc 1 58 19 view .LVU22
	str	r0, [r4, #20]
	.loc 1 59 2 is_stmt 1 view .LVU23
	mov	r3, #4096
	ldr	r0, [r4, #16]
	bl	C3D_RenderTargetSetOutput
.LVL5:
	.loc 1 60 2 view .LVU24
	mov	r1, r5
	ldr	r0, [r4, #20]
	mov	r3, #4096
	mov	r2, #1
	bl	C3D_RenderTargetSetOutput
.LVL6:
	.loc 1 62 2 view .LVU25
	.loc 1 62 16 is_stmt 0 view .LVU26
	mov	r3, r5
	mov	r2, r5
	mov	r1, #320
	mov	r0, #240
	bl	C3D_RenderTargetCreate
.LVL7:
	.loc 1 63 2 view .LVU27
	mov	r2, r5
	mov	r3, #4096
	mov	r1, #1
	.loc 1 62 14 view .LVU28
	str	r0, [r4, #24]
	.loc 1 63 2 is_stmt 1 view .LVU29
	bl	C3D_RenderTargetSetOutput
.LVL8:
	.loc 1 65 2 view .LVU30
	.loc 1 65 15 is_stmt 0 view .LVU31
	ldr	r3, .L4+4
	ldr	r0, .L4+8
	ldr	r1, [r3]
	bl	DVLB_ParseFile
.LVL9:
	.loc 1 66 2 view .LVU32
	add	fp, r4, #32
	.loc 1 65 13 view .LVU33
	str	r0, [r4, #28]
	.loc 1 66 2 is_stmt 1 view .LVU34
	mov	r0, fp
	bl	shaderProgramInit
.LVL10:
	.loc 1 67 2 view .LVU35
	ldr	r3, [r4, #28]
	.loc 1 68 32 is_stmt 0 view .LVU36
	ldr	r9, .L4+12
	.loc 1 67 2 view .LVU37
	ldr	r1, [r3, #20]
	mov	r0, fp
	bl	shaderProgramSetVsh
.LVL11:
	.loc 1 68 2 is_stmt 1 view .LVU38
	.loc 1 68 32 is_stmt 0 view .LVU39
	mov	r1, r9
	ldr	r0, [r4, #32]
	bl	shaderInstanceGetUniformLocation
.LVL12:
	.loc 1 70 13 view .LVU40
	ldr	r3, .L4+16
	.loc 1 68 32 view .LVU41
	str	r0, [r4, #52]
	.loc 1 70 2 is_stmt 1 view .LVU42
	.loc 1 70 13 is_stmt 0 view .LVU43
	ldr	r1, [r3]
	ldr	r0, .L4+20
	bl	DVLB_ParseFile
.LVL13:
	.loc 1 71 2 view .LVU44
	add	r10, r4, #60
	.loc 1 70 11 view .LVU45
	str	r0, [r4, #56]
	.loc 1 71 2 is_stmt 1 view .LVU46
	mov	r0, r10
	bl	shaderProgramInit
.LVL14:
	.loc 1 72 2 view .LVU47
	ldr	r3, [r4, #56]
	mov	r0, r10
	ldr	r1, [r3, #20]
	bl	shaderProgramSetVsh
.LVL15:
	.loc 1 73 2 view .LVU48
	.loc 1 73 30 is_stmt 0 view .LVU49
	mov	r1, r9
	ldr	r0, [r4, #60]
	bl	shaderInstanceGetUniformLocation
.LVL16:
	.loc 1 75 2 view .LVU50
	add	r6, r4, #88
	.loc 1 73 30 view .LVU51
	str	r0, [r4, #80]
	.loc 1 75 2 is_stmt 1 view .LVU52
	mov	r0, r6
	bl	AttrInfo_Init
.LVL17:
	.loc 1 76 2 view .LVU53
	mov	r1, r5
	mov	r3, #3
	mov	r2, #2
	mov	r0, r6
	bl	AttrInfo_AddLoader
.LVL18:
	.loc 1 77 2 view .LVU54
	mov	r3, #2
	mov	r1, #1
	mov	r2, r3
	mov	r0, r6
	bl	AttrInfo_AddLoader
.LVL19:
	.loc 1 78 2 view .LVU55
	mov	r3, #3
	mov	r2, #1
	mov	r1, #2
	mov	r0, r6
	bl	AttrInfo_AddLoader
.LVL20:
	.loc 1 79 2 view .LVU56
	mov	r3, #3
	.loc 1 81 2 is_stmt 0 view .LVU57
	add	r8, r4, #112
	.loc 1 79 2 view .LVU58
	mov	r1, r3
	mov	r2, #1
	mov	r0, r6
	bl	AttrInfo_AddLoader
.LVL21:
	.loc 1 81 2 is_stmt 1 view .LVU59
	mov	r0, r8
	bl	AttrInfo_Init
.LVL22:
	.loc 1 82 2 view .LVU60
	mov	r1, r5
	mov	r3, #3
	mov	r2, #2
	mov	r0, r8
	bl	AttrInfo_AddLoader
.LVL23:
	.loc 1 83 2 view .LVU61
	mov	r3, #3
	mov	r2, #2
	mov	r0, r8
	mov	r1, #1
	bl	AttrInfo_AddLoader
.LVL24:
	.loc 1 85 2 view .LVU62
	mov	r1, r7
	ldr	r0, [r4]
	bl	PolyGen_Init
.LVL25:
	.loc 1 87 2 view .LVU63
	ldmib	r4, {r0, r2}
	ldr	r1, [r4]
	ldr	r3, [r4, #52]
	bl	WorldRenderer_Init
.LVL26:
	.loc 1 89 2 view .LVU64
	ldr	r0, [r4, #80]
	bl	SpriteBatch_Init
.LVL27:
	.loc 1 91 2 view .LVU65
	bl	Gui_Init
.LVL28:
	.loc 1 93 2 view .LVU66
	mov	r0, #2
	bl	C3D_CullFace
.LVL29:
	.loc 1 95 2 view .LVU67
	bl	Block_Init
.LVL30:
	.loc 1 99 2 view .LVU68
	add	r0, r4, #136
	ldr	r1, .L4+24
	.loc 1 100 1 is_stmt 0 view .LVU69
	pop	{r3, r4, r5, r6, r7, r8, r9, r10, fp, lr}
	.cfi_restore 14
	.cfi_restore 11
	.cfi_restore 10
	.cfi_restore 9
	.cfi_restore 8
	.cfi_restore 7
	.cfi_restore 6
	.cfi_restore 5
	.cfi_restore 4
	.cfi_restore 3
	.cfi_def_cfa_offset 0
.LVL31:
	.loc 1 99 2 view .LVU70
	b	Texture_Load
.LVL32:
.L5:
	.align	2
.L4:
	.word	.LANCHOR0
	.word	world_shbin_size
	.word	world_shbin
	.word	.LC0
	.word	gui_shbin_size
	.word	gui_shbin
	.word	.LC1
	.cfi_endproc
.LFE224:
	.size	Renderer_Init, .-Renderer_Init
	.section	.text.Renderer_Deinit,"ax",%progbits
	.align	2
	.global	Renderer_Deinit
	.syntax unified
	.arm
	.fpu vfp
	.type	Renderer_Deinit, %function
Renderer_Deinit:
.LFB225:
	.loc 1 101 24 is_stmt 1 view -0
	.cfi_startproc
	@ args = 0, pretend = 0, frame = 0
	@ frame_needed = 0, uses_anonymous_args = 0
	.loc 1 102 2 view .LVU72
	.loc 1 101 24 is_stmt 0 view .LVU73
	push	{r4, lr}
	.cfi_def_cfa_offset 8
	.cfi_offset 4, -8
	.cfi_offset 14, -4
	.loc 1 102 2 view .LVU74
	ldr	r4, .L8
	add	r0, r4, #136
	bl	C3D_TexDelete
.LVL33:
	.loc 1 104 2 is_stmt 1 view .LVU75
	bl	Item_Deinit
.LVL34:
	.loc 1 106 2 view .LVU76
	bl	Block_Deinit
.LVL35:
	.loc 1 108 2 view .LVU77
	bl	PolyGen_Deinit
.LVL36:
	.loc 1 110 2 view .LVU78
	bl	WorldRenderer_Deinit
.LVL37:
	.loc 1 112 2 view .LVU79
	bl	Gui_Deinit
.LVL38:
	.loc 1 114 2 view .LVU80
	bl	SpriteBatch_Deinit
.LVL39:
	.loc 1 116 2 view .LVU81
	add	r0, r4, #60
	bl	shaderProgramFree
.LVL40:
	.loc 1 117 2 view .LVU82
	ldr	r0, [r4, #56]
	bl	DVLB_Free
.LVL41:
	.loc 1 118 2 view .LVU83
	add	r0, r4, #32
	bl	shaderProgramFree
.LVL42:
	.loc 1 119 2 view .LVU84
	ldr	r0, [r4, #28]
	bl	DVLB_Free
.LVL43:
	.loc 1 121 2 view .LVU85
	.loc 1 122 1 is_stmt 0 view .LVU86
	pop	{r4, lr}
	.cfi_restore 14
	.cfi_restore 4
	.cfi_def_cfa_offset 0
	.loc 1 121 2 view .LVU87
	b	C3D_Fini
.LVL44:
.L9:
	.align	2
.L8:
	.word	.LANCHOR0
	.cfi_endproc
.LFE225:
	.size	Renderer_Deinit, .-Renderer_Deinit
	.section	.rodata.str1.4
	.align	2
.LC2:
	.ascii	"v0.5.4\000"
	.section	.text.Renderer_Render,"ax",%progbits
	.align	2
	.global	Renderer_Render
	.syntax unified
	.arm
	.fpu vfp
	.type	Renderer_Render, %function
Renderer_Render:
.LFB226:
	.loc 1 124 24 is_stmt 1 view -0
	.cfi_startproc
	@ args = 0, pretend = 0, frame = 192
	@ frame_needed = 0, uses_anonymous_args = 0
	.loc 1 125 2 view .LVU89
.LBB48:
.LBI48:
	.file 2 "/opt/devkitpro/libctru/include/3ds/os.h"
	.loc 2 313 21 view .LVU90
.LBB49:
	.loc 2 315 2 view .LVU91
.LBE49:
.LBE48:
	.loc 1 124 24 is_stmt 0 view .LVU92
	push	{r4, r5, r6, r7, r8, r9, r10, lr}
	.cfi_def_cfa_offset 32
	.cfi_offset 4, -32
	.cfi_offset 5, -28
	.cfi_offset 6, -24
	.cfi_offset 7, -20
	.cfi_offset 8, -16
	.cfi_offset 9, -12
	.cfi_offset 10, -8
	.cfi_offset 14, -4
.LBB52:
.LBB50:
	.loc 2 315 40 view .LVU93
	ldr	r3, .L29+36
.LBE50:
.LBE52:
	.loc 1 124 24 view .LVU94
	vpush.64	{d8, d9}
	.cfi_def_cfa_offset 48
	.cfi_offset 80, -48
	.cfi_offset 81, -44
	.cfi_offset 82, -40
	.cfi_offset 83, -36
	.loc 1 125 8 view .LVU95
	vldr.32	s15, .L29
.LBB53:
.LBB51:
	.loc 2 315 40 view .LVU96
	vldr.32	s16, [r3, #128]
.LBE51:
.LBE53:
	.loc 1 129 6 view .LVU97
	ldr	r4, .L29+40
	.loc 1 127 2 view .LVU98
	mov	r0, #1
	.loc 1 124 24 view .LVU99
	sub	sp, sp, #216
	.cfi_def_cfa_offset 264
	.loc 1 125 8 view .LVU100
	vmul.f32	s16, s16, s15
.LVL45:
	.loc 1 127 2 is_stmt 1 view .LVU101
	bl	C3D_FrameBegin
.LVL46:
	.loc 1 129 2 view .LVU102
	.loc 1 129 6 is_stmt 0 view .LVU103
	ldr	r3, [r4, #12]
	.loc 1 129 5 view .LVU104
	ldrb	r3, [r3]	@ zero_extendqisi2
	cmp	r3, #1
	beq	.L27
.L11:
	.loc 1 124 24 view .LVU105
	mov	r7, #0
.LBB54:
.LBB55:
.LBB56:
	.loc 1 154 4 view .LVU106
	vldr.32	s19, .L29+4
	vldr.32	s18, .L29+8
	vldr.32	s17, .L29+12
.LBE56:
.LBB73:
.LBB74:
	.file 3 "/opt/devkitpro/libctru/include/c3d/renderqueue.h"
	.loc 3 74 2 view .LVU107
	mov	r5, r7
	ldr	r6, .L29+44
.LBE74:
.LBE73:
	.loc 1 142 3 view .LVU108
	add	r9, r6, #16
	.loc 1 143 3 view .LVU109
	add	r8, r6, #72
.L17:
.LVL47:
	.loc 1 132 3 is_stmt 1 view .LVU110
	ldr	r0, [r6]
.LVL48:
.LBB76:
.LBI73:
	.loc 3 72 20 view .LVU111
.LBB75:
	.loc 3 74 2 view .LVU112
	mov	r3, #0
	ldr	r2, .L29+48
	mov	r1, #3
	add	r0, r0, #8
.LVL49:
	.loc 3 74 2 is_stmt 0 view .LVU113
	bl	C3D_FrameBufClear
.LVL50:
	.loc 3 74 2 view .LVU114
.LBE75:
.LBE76:
	.loc 1 133 3 is_stmt 1 view .LVU115
	ldr	r0, [r6], #4
	bl	C3D_FrameDrawOn
.LVL51:
	.loc 1 135 3 view .LVU116
	mov	r1, #240
	mov	r0, #400
	bl	SpriteBatch_StartFrame
.LVL52:
	.loc 1 137 3 view .LVU117
	.loc 1 137 21 is_stmt 0 view .LVU118
	mov	r0, #0
	bl	C3D_GetTexEnv
.LVL53:
.LBB77:
.LBB78:
	.file 4 "/opt/devkitpro/libctru/include/c3d/texenv.h"
	.loc 4 38 13 view .LVU119
	mvn	r2, #0
.LBE78:
.LBE77:
	.loc 1 137 21 view .LVU120
	mov	r3, r0
.LBB81:
.LBB82:
	.loc 4 56 15 view .LVU121
	ldr	ip, .L29+52
.LBE82:
.LBE81:
.LBB85:
.LBB86:
	.loc 4 80 16 view .LVU122
	ldr	r1, .L29+56
.LBE86:
.LBE85:
.LBB89:
.LBB83:
	.loc 4 56 15 view .LVU123
	str	ip, [r3]
.LBE83:
.LBE89:
.LBB90:
.LBB87:
	.loc 4 80 16 view .LVU124
	str	r1, [r3, #8]
.LBE87:
.LBE90:
.LBB91:
.LBB79:
	.loc 4 38 13 view .LVU125
	str	r2, [r3, #12]
	.loc 4 35 13 view .LVU126
	str	r5, [r3, #4]
	.loc 4 39 16 view .LVU127
	str	r5, [r3, #16]
.LBE79:
.LBE91:
	.loc 1 142 3 view .LVU128
	mov	r0, r9
.LVL54:
	.loc 1 138 3 is_stmt 1 view .LVU129
.LBB92:
.LBI77:
	.loc 4 31 20 view .LVU130
.LBB80:
	.loc 4 33 2 view .LVU131
	.loc 4 34 2 view .LVU132
	.loc 4 35 2 view .LVU133
	.loc 4 36 2 view .LVU134
	.loc 4 37 2 view .LVU135
	.loc 4 38 2 view .LVU136
	.loc 4 39 2 view .LVU137
	.loc 4 40 2 view .LVU138
	.loc 4 40 2 is_stmt 0 view .LVU139
.LBE80:
.LBE92:
	.loc 1 139 3 is_stmt 1 view .LVU140
.LBB93:
.LBI81:
	.loc 4 49 20 view .LVU141
.LBB84:
	.loc 4 54 2 view .LVU142
	.loc 4 55 2 view .LVU143
	.loc 4 56 3 view .LVU144
	.loc 4 57 2 view .LVU145
	.loc 4 58 3 view .LVU146
	.loc 4 58 3 is_stmt 0 view .LVU147
.LBE84:
.LBE93:
	.loc 1 140 3 is_stmt 1 view .LVU148
.LBB94:
.LBI85:
	.loc 4 77 20 view .LVU149
.LBB88:
	.loc 4 79 2 view .LVU150
	.loc 4 80 3 view .LVU151
	.loc 4 81 2 view .LVU152
	.loc 4 82 3 view .LVU153
	.loc 4 82 3 is_stmt 0 view .LVU154
.LBE88:
.LBE94:
	.loc 1 142 3 is_stmt 1 view .LVU155
	bl	C3D_BindProgram
.LVL55:
	.loc 1 143 3 view .LVU156
	mov	r0, r8
	bl	C3D_SetAttrInfo
.LVL56:
	.loc 1 145 3 view .LVU157
	.loc 1 145 7 is_stmt 0 view .LVU158
	ldr	r3, [r4, #12]
	.loc 1 145 6 view .LVU159
	ldrb	r3, [r3]	@ zero_extendqisi2
	cmp	r3, #1
	beq	.L28
.LBB95:
	.loc 1 153 4 is_stmt 1 view .LVU160
	.loc 1 154 4 view .LVU161
.LBB57:
.LBB58:
.LBB59:
.LBB60:
.LBB61:
	.file 5 "/opt/devkitpro/libctru/include/c3d/maths.h"
	.loc 5 285 2 is_stmt 0 view .LVU162
	mov	r10, #64
.LBE61:
.LBE60:
.LBE59:
.LBE58:
.LBE57:
	.loc 1 154 4 view .LVU163
	cmp	r7, #0
	vnegeq.f32	s4, s16
	vmovne.f32	s4, s16
	vmov.f32	s5, s19
	vmov.f32	s3, s18
	vmov.f32	s2, s17
	vldr.32	s1, .L29+16
	vldr.32	s0, .L29+20
	mov	r1, #0
	add	r0, sp, #24
	bl	Mtx_PerspStereoTilt
.LVL57:
	.loc 1 157 4 is_stmt 1 view .LVU164
	.loc 1 158 4 view .LVU165
.LBB70:
.LBI57:
	.loc 5 319 20 view .LVU166
	.loc 5 321 2 view .LVU167
.LBB67:
.LBI58:
	.loc 5 306 20 view .LVU168
.LBB64:
	.loc 5 308 2 view .LVU169
.LBB63:
.LBI60:
	.loc 5 283 20 view .LVU170
.LBB62:
	.loc 5 285 2 view .LVU171
	mov	r2, r10
	mov	r1, #0
	add	r0, sp, #88
	bl	memset
.LVL58:
	.loc 5 285 2 is_stmt 0 view .LVU172
.LBE62:
.LBE63:
	.loc 5 309 2 is_stmt 1 view .LVU173
.LBE64:
.LBE67:
.LBE70:
	.loc 1 159 4 is_stmt 0 view .LVU174
	vldr.32	s2, .L29+24
.LBB71:
.LBB68:
.LBB65:
	.loc 5 309 14 view .LVU175
	mov	r3, #1065353216
.LBE65:
.LBE68:
.LBE71:
	.loc 1 159 4 view .LVU176
	vmov.f32	s0, s2
	vldr.32	s1, .L29+28
	mov	r1, #0
	add	r0, sp, #88
.LBB72:
.LBB69:
.LBB66:
	.loc 5 309 14 view .LVU177
	str	r3, [sp, #100]	@ float
	.loc 5 310 2 is_stmt 1 view .LVU178
	.loc 5 310 14 is_stmt 0 view .LVU179
	str	r3, [sp, #112]	@ float
	.loc 5 311 2 is_stmt 1 view .LVU180
	.loc 5 311 14 is_stmt 0 view .LVU181
	str	r3, [sp, #124]	@ float
	.loc 5 312 2 is_stmt 1 view .LVU182
	.loc 5 312 14 is_stmt 0 view .LVU183
	str	r3, [sp, #136]	@ float
.LVL59:
	.loc 5 312 14 view .LVU184
.LBE66:
.LBE69:
.LBE72:
	.loc 1 159 4 is_stmt 1 view .LVU185
	bl	Mtx_Translate
.LVL60:
	.loc 1 161 4 view .LVU186
	vldr.32	s0, .L29+32
	mov	r1, #1
	add	r0, sp, #88
	bl	Mtx_RotateX
.LVL61:
	.loc 1 163 4 view .LVU187
	.loc 1 164 4 view .LVU188
	add	r2, sp, #88
	add	r1, sp, #24
	add	r0, sp, #152
	bl	Mtx_Multiply
.LVL62:
	.loc 1 166 4 view .LVU189
	vldr.32	s1, .L29+24
	ldr	r2, [r4]
	vmov.f32	s0, s1
	add	r1, sp, #152
	ldr	r0, [r4, #52]
	bl	Clouds_Render
.LVL63:
	.loc 1 168 4 view .LVU190
	ldr	r0, .L29+60
	bl	SpriteBatch_BindTexture
.LVL64:
	.loc 1 170 4 view .LVU191
	mov	r0, #2
	bl	SpriteBatch_SetScale
.LVL65:
	.loc 1 171 4 view .LVU192
	mov	r0, #128
	mov	r1, #32
	mov	r3, #256
	strd	r0, [sp, #12]
	mov	r2, #0
	mov	r1, #60
	mov	r0, #12
	str	r10, [sp]
	str	r5, [sp, #8]
	str	r5, [sp, #4]
	bl	SpriteBatch_PushQuad
.LVL66:
	.loc 1 173 4 view .LVU193
	mov	r2, #0
	mov	r0, #1
	mvn	r1, #-2147483648
	ldr	r3, .L29+64
	strd	r0, [sp]
	str	r3, [sp, #12]
	mov	r1, r2
	mov	r0, r2
	ldr	r3, .L29+68
	str	r5, [sp, #8]
	bl	SpriteBatch_PushText
.LVL67:
.L14:
	.loc 1 173 4 is_stmt 0 view .LVU194
.LBE95:
	.loc 1 176 3 is_stmt 1 view .LVU195
	ldr	r0, .L29+72
	bl	C3D_BindProgram
.LVL68:
	.loc 1 177 3 view .LVU196
	ldr	r0, .L29+76
	bl	C3D_SetAttrInfo
.LVL69:
	.loc 1 179 3 view .LVU197
	mov	r0, #0
	bl	SpriteBatch_Render
.LVL70:
	.loc 1 181 3 view .LVU198
	.loc 1 181 6 is_stmt 0 view .LVU199
	vcmpe.f32	s16, #0
	vmrs	APSR_nzcv, FPSCR
	bls	.L15
.LBE55:
	.loc 1 131 26 is_stmt 1 discriminator 2 view .LVU200
.LVL71:
	.loc 1 131 20 discriminator 2 view .LVU201
	cmp	r7, #1
	bne	.L22
.LVL72:
.L15:
	.loc 1 131 20 is_stmt 0 discriminator 2 view .LVU202
.LBE54:
	.loc 1 184 2 is_stmt 1 view .LVU203
.LBB97:
.LBI97:
	.loc 3 72 20 view .LVU204
.LBB98:
	.loc 3 74 2 view .LVU205
	ldr	r0, [r4, #24]
	mov	r3, #0
	mov	r2, #255
	mov	r1, #3
	add	r0, r0, #8
	bl	C3D_FrameBufClear
.LVL73:
	.loc 3 74 2 is_stmt 0 view .LVU206
.LBE98:
.LBE97:
	.loc 1 185 2 is_stmt 1 view .LVU207
	ldr	r0, [r4, #24]
	bl	C3D_FrameDrawOn
.LVL74:
	.loc 1 187 2 view .LVU208
	mov	r1, #240
	mov	r0, #320
	bl	SpriteBatch_StartFrame
.LVL75:
	.loc 1 189 2 view .LVU209
	.loc 1 189 6 is_stmt 0 view .LVU210
	ldr	r3, [r4, #12]
	.loc 1 189 5 view .LVU211
	ldrb	r3, [r3]	@ zero_extendqisi2
	cmp	r3, #0
	bne	.L18
	.loc 1 191 3 is_stmt 1 view .LVU212
	bl	WorldSelect_Render
.LVL76:
.L19:
	.loc 1 204 2 view .LVU213
	bl	Gui_Frame
.LVL77:
	.loc 1 206 2 view .LVU214
	mov	r0, #1
	bl	SpriteBatch_Render
.LVL78:
	.loc 1 208 2 view .LVU215
	mov	r0, #0
	.loc 1 209 1 is_stmt 0 view .LVU216
	add	sp, sp, #216
	.cfi_remember_state
	.cfi_def_cfa_offset 48
	@ sp needed
	vldm	sp!, {d8-d9}
	.cfi_restore 82
	.cfi_restore 83
	.cfi_restore 80
	.cfi_restore 81
	.cfi_def_cfa_offset 32
.LVL79:
	.loc 1 209 1 view .LVU217
	pop	{r4, r5, r6, r7, r8, r9, r10, lr}
	.cfi_restore 14
	.cfi_restore 10
	.cfi_restore 9
	.cfi_restore 8
	.cfi_restore 7
	.cfi_restore 6
	.cfi_restore 5
	.cfi_restore 4
	.cfi_def_cfa_offset 0
	.loc 1 208 2 view .LVU218
	b	C3D_FrameEnd
.LVL80:
.L22:
	.cfi_restore_state
.LBB99:
	.loc 1 208 2 view .LVU219
	mov	r7, #1
.LVL81:
	.loc 1 208 2 view .LVU220
	b	.L17
.L18:
	.loc 1 208 2 view .LVU221
.LBE99:
	.loc 1 194 3 is_stmt 1 view .LVU222
	mov	r0, #2
	bl	SpriteBatch_SetScale
.LVL82:
	.loc 1 195 3 view .LVU223
	.loc 1 195 31 is_stmt 0 view .LVU224
	mov	r3, #7
	.loc 1 195 9 view .LVU225
	ldr	ip, [r4, #4]
	.loc 1 196 3 view .LVU226
	mov	r1, #97
	add	lr, ip, #136
	.loc 1 195 31 view .LVU227
	str	r3, [ip, #132]
	.loc 1 196 3 is_stmt 1 view .LVU228
	add	r2, ip, #144
	mov	r0, #3
	str	lr, [sp]
	bl	Inventory_DrawQuickSelect
.LVL83:
	.loc 1 199 3 view .LVU229
	.loc 1 199 27 is_stmt 0 view .LVU230
	mov	ip, #64
	.loc 1 199 60 view .LVU231
	ldr	r4, [r4, #4]
	.loc 1 199 27 view .LVU232
	mov	r2, #160
	ldr	r3, [r4, #140]
	mov	r1, #0
	str	r3, [sp, #4]
	mov	r0, #16
	add	r3, r4, #194
	str	ip, [sp]
	bl	Inventory_Draw
.LVL84:
	.loc 1 201 7 view .LVU233
	ldr	r3, .L29+80
	.loc 1 199 25 view .LVU234
	str	r0, [r4, #140]
	.loc 1 201 3 is_stmt 1 view .LVU235
	.loc 1 201 6 is_stmt 0 view .LVU236
	ldrb	r3, [r3]	@ zero_extendqisi2
	cmp	r3, #0
	beq	.L19
	.loc 1 201 22 is_stmt 1 discriminator 1 view .LVU237
	bl	DebugUI_Draw
.LVL85:
	b	.L19
.LVL86:
.L28:
.LBB100:
.LBB96:
	.loc 1 146 4 view .LVU238
	.loc 1 146 19 is_stmt 0 view .LVU239
	bl	Block_GetTextureMap
.LVL87:
	mov	r1, r0
	.loc 1 146 4 view .LVU240
	mov	r0, #0
	bl	C3D_TexBind
.LVL88:
	.loc 1 148 4 is_stmt 1 view .LVU241
	cmp	r7, #0
	vnegeq.f32	s0, s16
	vmovne.f32	s0, s16
	bl	WorldRenderer_Render
.LVL89:
	.loc 1 150 4 view .LVU242
	mov	r0, #3
	bl	SpriteBatch_BindGuiTexture
.LVL90:
	.loc 1 151 4 view .LVU243
	.loc 1 151 7 is_stmt 0 view .LVU244
	vcmp.f32	s16, #0
	vmrs	APSR_nzcv, FPSCR
	bne	.L14
	.loc 1 151 20 is_stmt 1 discriminator 1 view .LVU245
	mov	r3, #16
	mov	r5, #0
	mov	r2, #240
	mov	r1, #52
	str	r3, [sp, #16]
	str	r3, [sp, #12]
	str	r3, [sp]
	stmib	sp, {r2, r5}
	mov	r0, #92
	mov	r2, r5
	bl	SpriteBatch_PushQuad
.LVL91:
	.loc 1 176 3 discriminator 1 view .LVU246
	ldr	r0, .L29+72
	bl	C3D_BindProgram
.LVL92:
	.loc 1 177 3 discriminator 1 view .LVU247
	ldr	r0, .L29+76
	bl	C3D_SetAttrInfo
.LVL93:
	.loc 1 179 3 discriminator 1 view .LVU248
	mov	r0, r5
	bl	SpriteBatch_Render
.LVL94:
	.loc 1 181 3 discriminator 1 view .LVU249
	b	.L15
.LVL95:
.L27:
	.loc 1 181 3 is_stmt 0 discriminator 1 view .LVU250
.LBE96:
.LBE100:
	.loc 1 129 39 is_stmt 1 discriminator 1 view .LVU251
	bl	PolyGen_Harvest
.LVL96:
	b	.L11
.L30:
	.align	2
.L29:
	.word	1032805417
	.word	1077936128
	.word	1115684864
	.word	1046562734
	.word	1070945621
	.word	1070141403
	.word	0
	.word	-1031012352
	.word	-1090123118
	.word	536350720
	.word	.LANCHOR0
	.word	.LANCHOR0+16
	.word	-1864761345
	.word	196611
	.word	65537
	.word	.LANCHOR0+136
	.word	.LC2
	.word	32767
	.word	.LANCHOR0+60
	.word	.LANCHOR0+112
	.word	showDebugInfo
	.cfi_endproc
.LFE226:
	.size	Renderer_Render, .-Renderer_Render
	.bss
	.align	3
	.set	.LANCHOR0,. + 0
	.type	world, %object
	.size	world, 4
world:
	.space	4
	.type	player, %object
	.size	player, 4
player:
	.space	4
	.type	workqueue, %object
	.size	workqueue, 4
workqueue:
	.space	4
	.type	gamestate, %object
	.size	gamestate, 4
gamestate:
	.space	4
	.type	renderTargets, %object
	.size	renderTargets, 8
renderTargets:
	.space	8
	.type	lowerScreen, %object
	.size	lowerScreen, 4
lowerScreen:
	.space	4
	.type	world_dvlb, %object
	.size	world_dvlb, 4
world_dvlb:
	.space	4
	.type	world_shader, %object
	.size	world_shader, 20
world_shader:
	.space	20
	.type	world_shader_uLocProjection, %object
	.size	world_shader_uLocProjection, 4
world_shader_uLocProjection:
	.space	4
	.type	gui_dvlb, %object
	.size	gui_dvlb, 4
gui_dvlb:
	.space	4
	.type	gui_shader, %object
	.size	gui_shader, 20
gui_shader:
	.space	20
	.type	gui_shader_uLocProjection, %object
	.size	gui_shader_uLocProjection, 4
gui_shader_uLocProjection:
	.space	4
	.space	4
	.type	world_vertexAttribs, %object
	.size	world_vertexAttribs, 24
world_vertexAttribs:
	.space	24
	.type	gui_vertexAttribs, %object
	.size	gui_vertexAttribs, 24
gui_vertexAttribs:
	.space	24
	.type	logoTex, %object
	.size	logoTex, 24
logoTex:
	.space	24
	.text
.Letext0:
	.file 6 "/opt/devkitpro/devkitARM/arm-none-eabi/include/machine/_default_types.h"
	.file 7 "/opt/devkitpro/devkitARM/arm-none-eabi/include/sys/_stdint.h"
	.file 8 "/home/tobi/Dokumente/Craftus-Next/include/world/Direction.h"
	.file 9 "/home/tobi/Dokumente/Craftus-Next/include/blocks/Block.h"
	.file 10 "/home/tobi/Dokumente/Craftus-Next/include/misc/Xorshift.h"
	.file 11 "/opt/devkitpro/devkitARM/lib/gcc/arm-none-eabi/11.2.0/include/stddef.h"
	.file 12 "/opt/devkitpro/devkitARM/arm-none-eabi/include/sys/lock.h"
	.file 13 "/home/tobi/Dokumente/Craftus-Next/include/rendering/VBOCache.h"
	.file 14 "/home/tobi/Dokumente/Craftus-Next/include/world/Chunk.h"
	.file 15 "/opt/devkitpro/libctru/include/3ds/types.h"
	.file 16 "/opt/devkitpro/libctru/include/3ds/synchronization.h"
	.file 17 "/opt/devkitpro/libctru/include/3ds/gfx.h"
	.file 18 "/opt/devkitpro/libctru/include/3ds/services/csnd.h"
	.file 19 "/opt/devkitpro/libctru/include/3ds/services/ndm.h"
	.file 20 "/opt/devkitpro/libctru/include/3ds/gpu/gx.h"
	.file 21 "/opt/devkitpro/libctru/include/3ds/gpu/enums.h"
	.file 22 "/opt/devkitpro/libctru/include/3ds/gpu/shbin.h"
	.file 23 "/opt/devkitpro/libctru/include/3ds/gpu/shaderProgram.h"
	.file 24 "/opt/devkitpro/libctru/include/3ds/ndsp/channel.h"
	.file 25 "/opt/devkitpro/libctru/include/3ds/applets/error.h"
	.file 26 "/home/tobi/Dokumente/Craftus-Next/include/world/WorkQueue.h"
	.file 27 "/home/tobi/Dokumente/Craftus-Next/include/world/World.h"
	.file 28 "/home/tobi/Dokumente/Craftus-Next/include/blocks/Item.h"
	.file 29 "/home/tobi/Dokumente/Craftus-Next/include/inventory/ItemStack.h"
	.file 30 "/home/tobi/Dokumente/Craftus-Next/include/misc/VecMath.h"
	.file 31 "/home/tobi/Dokumente/Craftus-Next/include/misc/Raycast.h"
	.file 32 "/home/tobi/Dokumente/Craftus-Next/include/entity/Player.h"
	.file 33 "/home/tobi/Dokumente/Craftus-Next/include/GameStates.h"
	.file 34 "/opt/devkitpro/libctru/include/c3d/types.h"
	.file 35 "/opt/devkitpro/libctru/include/c3d/attribs.h"
	.file 36 "/opt/devkitpro/libctru/include/c3d/texture.h"
	.file 37 "/opt/devkitpro/libctru/include/c3d/framebuffer.h"
	.file 38 "/home/tobi/Dokumente/Craftus-Next/include/gui/SpriteBatch.h"
	.file 39 "/home/tobi/Dokumente/Craftus-Next/include/rendering/Camera.h"
	.file 40 "/home/tobi/Dokumente/Craftus-Next/build/gui_shbin.h"
	.file 41 "/home/tobi/Dokumente/Craftus-Next/build/world_shbin.h"
	.file 42 "/home/tobi/Dokumente/Craftus-Next/include/gui/Gui.h"
	.file 43 "/home/tobi/Dokumente/Craftus-Next/include/gui/DebugUI.h"
	.file 44 "/opt/devkitpro/devkitARM/arm-none-eabi/include/string.h"
	.file 45 "/home/tobi/Dokumente/Craftus-Next/include/gui/Inventory.h"
	.file 46 "/home/tobi/Dokumente/Craftus-Next/include/gui/WorldSelect.h"
	.file 47 "/home/tobi/Dokumente/Craftus-Next/include/rendering/Clouds.h"
	.file 48 "/home/tobi/Dokumente/Craftus-Next/include/rendering/WorldRenderer.h"
	.file 49 "/opt/devkitpro/libctru/include/c3d/base.h"
	.file 50 "/home/tobi/Dokumente/Craftus-Next/include/rendering/PolyGen.h"
	.file 51 "/home/tobi/Dokumente/Craftus-Next/include/rendering/TextureMap.h"
	.file 52 "/opt/devkitpro/libctru/include/c3d/effect.h"
	.file 53 "<built-in>"