	.arch armv6k
	.eabi_attribute 28, 1
	.eabi_attribute 20, 1
	.eabi_attribute 21, 1
	.eabi_attribute 23, 3
	.eabi_attribute 24, 1
	.eabi_attribute 25, 1
	.eabi_attribute 26, 1
	.eabi_attribute 30, 2
	.eabi_attribute 34, 1
	.eabi_attribute 18, 4
	.file	"SaveManager.c"
	.text
.Ltext0:
	.cfi_sections	.debug_frame
	.section	.text.fetchSuperChunk,"ax",%progbits
	.align	2
	.syntax unified
	.arm
	.fpu vfp
	.type	fetchSuperChunk, %function
fetchSuperChunk:
.LVL0:
.LFB277:
	.file 1 "/home/tobi/Dokumente/Craftus-Next/source/world/savegame/SaveManager.c"
	.loc 1 157 68 view -0
	.cfi_startproc
	@ args = 0, pretend = 0, frame = 0
	@ frame_needed = 0, uses_anonymous_args = 0
	.loc 1 158 2 view .LVU1
.LBB101:
	.loc 1 158 7 view .LVU2
	.loc 1 158 20 view .LVU3
.LBE101:
	.loc 1 157 68 is_stmt 0 view .LVU4
	push	{r4, r5, r6, r7, r8, lr}
	.cfi_def_cfa_offset 24
	.cfi_offset 4, -24
	.cfi_offset 5, -20
	.cfi_offset 6, -16
	.cfi_offset 7, -12
	.cfi_offset 8, -8
	.cfi_offset 14, -4
	.loc 1 157 68 view .LVU5
	mov	r5, r1
.LBB102:
	.loc 1 158 38 view .LVU6
	ldr	r1, [r0, #12]
.LVL1:
	.loc 1 158 38 view .LVU7
.LBE102:
	.loc 1 157 68 view .LVU8
	mov	r6, r0
.LBB103:
	.loc 1 158 20 view .LVU9
	cmp	r1, #0
.LBE103:
	.loc 1 157 68 view .LVU10
	mov	r7, r2
.LBB104:
	.loc 1 158 20 view .LVU11
	ble	.L2
	ldr	ip, [r0, #8]
	.loc 1 158 11 view .LVU12
	mov	r3, #0
	sub	ip, ip, #4
	b	.L5
.LVL2:
.L3:
	.loc 1 158 20 discriminator 2 view .LVU13
	cmp	r1, r3
	beq	.L2
.LVL3:
.L5:
	.loc 1 159 3 is_stmt 1 view .LVU14
	.loc 1 158 48 view .LVU15
	.loc 1 159 28 is_stmt 0 view .LVU16
	ldr	r4, [ip, #4]!
	.loc 1 158 48 view .LVU17
	add	r3, r3, #1
.LVL4:
	.loc 1 158 20 is_stmt 1 view .LVU18
	.loc 1 159 6 is_stmt 0 view .LVU19
	ldr	lr, [r4]
	cmp	lr, r5
	bne	.L3
	.loc 1 159 40 discriminator 1 view .LVU20
	ldr	r0, [r4, #4]
	cmp	r0, r7
	bne	.L3
.LBE104:
	.loc 1 168 1 view .LVU21
	mov	r0, r4
	pop	{r4, r5, r6, r7, r8, pc}
.LVL5:
.L2:
	.loc 1 163 2 is_stmt 1 view .LVU22
	.loc 1 163 40 is_stmt 0 view .LVU23
	ldr	r0, .L10
	bl	malloc
.LVL6:
	.loc 1 164 2 view .LVU24
	mov	r2, r7
	mov	r1, r5
	.loc 1 163 40 view .LVU25
	mov	r4, r0
.LVL7:
	.loc 1 164 2 is_stmt 1 view .LVU26
	bl	SuperChunk_Init
.LVL8:
	.loc 1 165 2 view .LVU27
	.loc 1 165 4 is_stmt 0 view .LVU28
	mov	r3, #4
	add	r2, r6, #16
	add	r1, r6, #12
	add	r0, r6, #8
	bl	vec_expand_
.LVL9:
	.loc 1 165 155 view .LVU29
	cmp	r0, #0
	.loc 1 165 177 view .LVU30
	ldrdeq	r2, [r6, #8]
	.loc 1 165 211 view .LVU31
	addeq	r1, r3, #1
	streq	r1, [r6, #12]
	.loc 1 166 2 view .LVU32
	ldr	r0, .L10+4
	mov	r1, #0
	.loc 1 165 215 view .LVU33
	streq	r4, [r2, r3, lsl #2]
	.loc 1 166 2 is_stmt 1 view .LVU34
	bl	svcSleepThread
.LVL10:
	.loc 1 167 2 view .LVU35
	.loc 1 168 1 is_stmt 0 view .LVU36
	mov	r0, r4
	pop	{r4, r5, r6, r7, r8, pc}
.L11:
	.align	2
.L10:
	.word	1304
	.word	50000
	.cfi_endproc
.LFE277:
	.size	fetchSuperChunk, .-fetchSuperChunk
	.section	.rodata.str1.4,"aMS",%progbits,1
	.align	2
.LC0:
	.ascii	"sdmc:/craftus_redesigned\000"
	.align	2
.LC1:
	.ascii	"sdmc:/craftus_redesigned/saves\000"
	.section	.text.SaveManager_InitFileSystem,"ax",%progbits
	.align	2
	.global	SaveManager_InitFileSystem
	.syntax unified
	.arm
	.fpu vfp
	.type	SaveManager_InitFileSystem, %function
SaveManager_InitFileSystem:
.LFB272:
	.loc 1 14 35 is_stmt 1 view -0
	.cfi_startproc
	@ args = 0, pretend = 0, frame = 0
	@ frame_needed = 0, uses_anonymous_args = 0
	.loc 1 15 2 view .LVU38
	.loc 1 14 35 is_stmt 0 view .LVU39
	push	{r4, lr}
	.cfi_def_cfa_offset 8
	.cfi_offset 4, -8
	.cfi_offset 14, -4
	.loc 1 15 2 view .LVU40
	ldr	r1, .L14
	ldr	r0, .L14+4
	bl	mkdir
.LVL11:
	.loc 1 16 2 is_stmt 1 view .LVU41
	.loc 1 17 1 is_stmt 0 view .LVU42
	pop	{r4, lr}
	.cfi_restore 14
	.cfi_restore 4
	.cfi_def_cfa_offset 0
	.loc 1 16 2 view .LVU43
	ldr	r1, .L14
	ldr	r0, .L14+8
	b	mkdir
.LVL12:
.L15:
	.align	2
.L14:
	.word	509
	.word	.LC0
	.word	.LC1
	.cfi_endproc
.LFE272:
	.size	SaveManager_InitFileSystem, .-SaveManager_InitFileSystem
	.section	.text.SaveManager_Init,"ax",%progbits
	.align	2
	.global	SaveManager_Init
	.syntax unified
	.arm
	.fpu vfp
	.type	SaveManager_Init, %function
SaveManager_Init:
.LVL13:
.LFB273:
	.loc 1 19 57 is_stmt 1 view -0
	.cfi_startproc
	@ args = 0, pretend = 0, frame = 0
	@ frame_needed = 0, uses_anonymous_args = 0
	@ link register save eliminated.
	.loc 1 20 2 view .LVU45
	.loc 1 23 2 is_stmt 0 view .LVU46
	mov	r3, #0
	.loc 1 21 13 view .LVU47
	ldr	r2, [r1, #40]
	.loc 1 23 2 view .LVU48
	str	r3, [r0, #8]	@ unaligned
	.loc 1 21 13 view .LVU49
	stm	r0, {r1, r2}
	.loc 1 23 2 is_stmt 1 view .LVU50
	str	r3, [r0, #12]	@ unaligned
	str	r3, [r0, #16]	@ unaligned
	.loc 1 24 1 is_stmt 0 view .LVU51
	bx	lr
	.cfi_endproc
.LFE273:
	.size	SaveManager_Init, .-SaveManager_Init
	.section	.text.SaveManager_Deinit,"ax",%progbits
	.align	2
	.global	SaveManager_Deinit
	.syntax unified
	.arm
	.fpu vfp
	.type	SaveManager_Deinit, %function
SaveManager_Deinit:
.LVL14:
.LFB274:
	.loc 1 25 43 is_stmt 1 view -0
	.cfi_startproc
	@ args = 0, pretend = 0, frame = 0
	@ frame_needed = 0, uses_anonymous_args = 0
	.loc 1 25 45 view .LVU53
	.loc 1 25 43 is_stmt 0 view .LVU54
	push	{r4, r5, r6, lr}
	.cfi_def_cfa_offset 16
	.cfi_offset 4, -16
	.cfi_offset 5, -12
	.cfi_offset 6, -8
	.cfi_offset 14, -4
	.loc 1 25 47 view .LVU55
	mov	r4, r0
	.loc 1 25 43 view .LVU56
	mov	r5, r0
	.loc 1 25 47 view .LVU57
	ldr	r0, [r4, #8]!
.LVL15:
	.loc 1 25 47 view .LVU58
	bl	free
.LVL16:
	.loc 1 25 80 view .LVU59
	mov	r3, #0
	str	r3, [r5, #8]	@ unaligned
	str	r3, [r4, #4]	@ unaligned
	str	r3, [r4, #8]	@ unaligned
	.loc 1 25 144 view .LVU60
	pop	{r4, r5, r6, pc}
	.cfi_endproc
.LFE274:
	.size	SaveManager_Deinit, .-SaveManager_Deinit
	.section	.rodata.str1.4
	.align	2
.LC2:
	.ascii	"sdmc:/craftus_redesigned/saves/%s\000"
	.align	2
.LC3:
	.ascii	"superchunks\000"
	.align	2
.LC4:
	.ascii	"level.mp\000"
	.align	2
.LC5:
	.ascii	"name\000"
	.align	2
.LC6:
	.ascii	"worldType\000"
	.align	2
.LC7:
	.ascii	"players\000"
	.align	2
.LC8:
	.ascii	"x\000"
	.global	__aeabi_ul2f
	.global	__aeabi_l2f
	.align	2
.LC9:
	.ascii	"y\000"
	.align	2
.LC10:
	.ascii	"z\000"
	.align	2
.LC11:
	.ascii	"hp\000"
	.align	2
.LC12:
	.ascii	"hunger\000"
	.align	2
.LC13:
	.ascii	"pitch\000"
	.align	2
.LC14:
	.ascii	"yaw\000"
	.align	2
.LC15:
	.ascii	"flying\000"
	.align	2
.LC16:
	.ascii	"crouching\000"
	.align	2
.LC17:
	.ascii	"Mpack error %d while loading world manifest %s\000"
	.section	.text.SaveManager_Load,"ax",%progbits
	.align	2
	.global	SaveManager_Load
	.syntax unified
	.arm
	.fpu vfp
	.type	SaveManager_Load, %function
SaveManager_Load:
.LVL17:
.LFB275:
	.loc 1 31 53 is_stmt 1 view -0
	.cfi_startproc
	@ args = 0, pretend = 0, frame = 536
	@ frame_needed = 0, uses_anonymous_args = 0
	.loc 1 32 2 view .LVU62
	.loc 1 34 2 view .LVU63
	.loc 1 31 53 is_stmt 0 view .LVU64
	push	{r4, r5, r6, r7, r8, lr}
	.cfi_def_cfa_offset 24
	.cfi_offset 4, -24
	.cfi_offset 5, -20
	.cfi_offset 6, -16
	.cfi_offset 7, -12
	.cfi_offset 8, -8
	.cfi_offset 14, -4
	mov	r6, r1
	sub	sp, sp, #536
	.cfi_def_cfa_offset 560
	.loc 1 34 2 view .LVU65
	mov	r2, r6
	ldr	r1, .L131
.LVL18:
	.loc 1 31 53 view .LVU66
	mov	r5, r0
	.loc 1 34 2 view .LVU67
	add	r0, sp, #280
	bl	sprintf
.LVL19:
	.loc 1 35 2 is_stmt 1 view .LVU68
	ldr	r1, .L131+4
	add	r0, sp, #280
	bl	mkdir
.LVL20:
	.loc 1 36 2 view .LVU69
	add	r0, sp, #280
	bl	chdir
.LVL21:
	.loc 1 38 2 view .LVU70
	ldr	r1, .L131+4
	ldr	r0, .L131+8
	bl	mkdir
.LVL22:
	.loc 1 40 2 view .LVU71
	.loc 1 40 6 is_stmt 0 view .LVU72
	mov	r1, #0
	ldr	r0, .L131+12
	bl	access
.LVL23:
	.loc 1 40 5 view .LVU73
	cmn	r0, #1
	bne	.L107
.L19:
	.loc 1 98 1 view .LVU74
	add	sp, sp, #536
	.cfi_remember_state
	.cfi_def_cfa_offset 24
	@ sp needed
	pop	{r4, r5, r6, r7, r8, pc}
.LVL24:
.L132:
	.loc 1 98 1 view .LVU75
	.align	2
.L131:
	.word	.LC2
	.word	509
	.word	.LC3
	.word	.LC4
	.word	.LC5
	.word	.LC6
	.word	.LC7
	.word	.LC8
	.word	.LC9
	.word	.LC10
	.word	.LC11
	.word	.LC12
	.word	.LC13
	.word	.LC14
	.word	1036831949
	.word	0
.LVL25:
.L107:
	.cfi_restore_state
.LBB208:
	.loc 1 41 3 is_stmt 1 view .LVU76
	.loc 1 42 3 view .LVU77
	.loc 1 43 23 is_stmt 0 view .LVU78
	mov	r4, sp
	.loc 1 42 3 view .LVU79
	mov	r2, #0
	ldr	r1, .L131+12
	add	r0, sp, #224
	bl	mpack_tree_init_file
.LVL26:
	.loc 1 43 3 is_stmt 1 view .LVU80
	.loc 1 45 3 is_stmt 0 view .LVU81
	add	r7, sp, #40
	.loc 1 43 23 view .LVU82
	mov	r0, r4
	add	r1, sp, #224
	bl	mpack_tree_root
.LVL27:
	.loc 1 45 3 is_stmt 1 view .LVU83
	ldm	r4, {r1, r2}
	mov	r0, r7
	ldr	r3, .L131+16
	bl	mpack_node_map_cstr
.LVL28:
	ldm	r7, {r0, r1}
	.loc 1 45 74 is_stmt 0 view .LVU84
	ldr	r2, [r5, #4]
	.loc 1 45 3 view .LVU85
	mov	r3, #12
	add	r2, r2, #4
	bl	mpack_node_copy_utf8_cstr
.LVL29:
	.loc 1 47 3 is_stmt 1 view .LVU86
	.loc 1 47 32 is_stmt 0 view .LVU87
	ldm	r4, {r1, r2}
	ldr	r3, .L131+20
	add	r0, sp, #8
	bl	mpack_node_map_cstr_optional
.LVL30:
	ldrd	r2, [sp, #8]
.LVL31:
	.loc 1 48 3 is_stmt 1 view .LVU88
.LBB209:
.LBI209:
	.file 2 "/home/tobi/Dokumente/Craftus-Next/dependencies/mpack/mpack.h"
	.loc 2 4730 21 view .LVU89
.LBB210:
	.loc 2 4731 5 view .LVU90
.LBB211:
.LBI211:
	.loc 2 4690 22 view .LVU91
	.loc 2 4691 5 view .LVU92
.LBB212:
.LBI212:
	.loc 2 4592 22 view .LVU93
.LBB213:
	.loc 2 4593 5 view .LVU94
	.loc 2 4593 16 is_stmt 0 view .LVU95
	ldrb	r7, [r3, #32]	@ zero_extendqisi2
.LVL32:
	.loc 2 4593 16 view .LVU96
.LBE213:
.LBE212:
.LBE211:
	.loc 2 4731 8 view .LVU97
	cmp	r7, #0
	bne	.L21
	.loc 2 4733 5 is_stmt 1 view .LVU98
	.loc 2 4733 21 is_stmt 0 view .LVU99
	ldrb	r1, [r2]	@ zero_extendqisi2
.LVL33:
	.loc 2 4733 21 view .LVU100
.LBE210:
.LBE209:
	.loc 1 48 6 view .LVU101
	cmp	r1, #1
	bne	.L108
.L21:
	.loc 1 51 4 is_stmt 1 view .LVU102
	.loc 1 51 33 is_stmt 0 view .LVU103
	mov	r2, #1
	ldr	r3, [r5, #4]
.LVL34:
	.loc 1 51 33 view .LVU104
	strb	r2, [r3, #24]
.L25:
	.loc 1 53 3 is_stmt 1 view .LVU105
	.loc 1 53 25 is_stmt 0 view .LVU106
	add	r7, sp, #48
	ldm	r4, {r1, r2}
	mov	r0, r7
	ldr	r3, .L131+24
	bl	mpack_node_map_cstr
.LVL35:
	ldm	r7, {r0, r1}
	ldr	r4, [sp, #52]
	add	r3, sp, #168
.LBB214:
.LBB215:
	.loc 2 5433 8 view .LVU107
	ldrb	r2, [r4, #32]	@ zero_extendqisi2
	stm	r3, {r0, r1}
.LVL36:
	.loc 2 5433 8 view .LVU108
.LBE215:
.LBI214:
	.loc 2 5432 21 is_stmt 1 view .LVU109
.LBB229:
	.loc 2 5433 5 view .LVU110
.LBB216:
.LBI216:
	.loc 2 4690 22 view .LVU111
	.loc 2 4691 5 view .LVU112
.LBB217:
.LBI217:
	.loc 2 4592 22 view .LVU113
.LBB218:
	.loc 2 4593 5 view .LVU114
	.loc 2 4593 5 is_stmt 0 view .LVU115
.LBE218:
.LBE217:
.LBE216:
	.loc 2 5433 8 view .LVU116
	cmp	r2, #0
	bne	.L104
	ldr	r2, [sp, #48]
	.loc 2 5436 5 is_stmt 1 view .LVU117
	.loc 2 5436 8 is_stmt 0 view .LVU118
	ldrb	r1, [r2]	@ zero_extendqisi2
.LVL37:
	.loc 2 5436 8 view .LVU119
	cmp	r1, #10
	bne	.L109
	.loc 2 5441 5 is_stmt 1 view .LVU120
	.loc 2 5441 8 is_stmt 0 view .LVU121
	ldr	r1, [r2, #4]
	cmp	r1, #0
.LBB219:
.LBB220:
	.loc 2 4522 28 view .LVU122
	ldrne	r3, [r2, #8]
.LBE220:
.LBE219:
	.loc 2 5441 8 view .LVU123
	beq	.L110
.LVL38:
.L27:
.LBB221:
.LBB222:
.LBB223:
.LBB224:
	.loc 2 4518 12 view .LVU124
	str	r3, [sp, #16]
	str	r4, [sp, #20]
.LVL39:
	.loc 2 4518 12 view .LVU125
.LBE224:
.LBE223:
.LBE222:
.LBE221:
.LBE229:
.LBE214:
	.loc 1 55 3 is_stmt 1 view .LVU126
	.loc 1 55 29 is_stmt 0 view .LVU127
	add	r7, sp, #56
	add	r4, sp, #16
	mov	r0, r7
	ldm	r4, {r1, r2}
	ldr	r3, .L131+28
	bl	mpack_node_map_cstr
.LVL40:
	ldm	r7, {r0, r1}
.LBB232:
.LBB233:
.LBB234:
.LBB235:
.LBB236:
	.loc 2 4593 16 view .LVU128
	ldr	r3, [sp, #60]
.LBE236:
.LBE235:
.LBE234:
.LBE233:
.LBE232:
	.loc 1 55 6 view .LVU129
	ldr	r7, [r5]
.LBB246:
.LBB240:
	.loc 2 4991 8 view .LVU130
	ldrb	r3, [r3, #32]	@ zero_extendqisi2
	cmp	r3, #0
	add	r3, sp, #160
	stm	r3, {r0, r1}
.LVL41:
	.loc 2 4991 8 view .LVU131
.LBE240:
.LBI232:
	.loc 2 4990 14 is_stmt 1 view .LVU132
.LBB241:
	.loc 2 4991 5 view .LVU133
.LBB239:
.LBI234:
	.loc 2 4690 22 view .LVU134
	.loc 2 4691 5 view .LVU135
.LBB238:
.LBI235:
	.loc 2 4592 22 view .LVU136
.LBB237:
	.loc 2 4593 5 view .LVU137
	.loc 2 4593 5 is_stmt 0 view .LVU138
.LBE237:
.LBE238:
.LBE239:
	.loc 2 4991 8 view .LVU139
	bne	.L74
	.loc 2 4994 5 is_stmt 1 view .LVU140
	.loc 2 4994 18 is_stmt 0 view .LVU141
	ldrb	r2, [r0]	@ zero_extendqisi2
	.loc 2 4994 8 view .LVU142
	cmp	r2, #6
	beq	.L111
	.loc 2 4996 10 is_stmt 1 view .LVU143
	.loc 2 4996 13 is_stmt 0 view .LVU144
	cmp	r2, #5
	beq	.L112
	.loc 2 4998 10 is_stmt 1 view .LVU145
	.loc 2 4998 13 is_stmt 0 view .LVU146
	cmp	r2, #3
	.loc 2 4999 32 view .LVU147
	vldreq.32	s14, [r0, #8]
	.loc 2 4998 13 view .LVU148
	beq	.L30
	.loc 2 5000 10 is_stmt 1 view .LVU149
	.loc 2 5000 13 is_stmt 0 view .LVU150
	cmp	r2, #4
	beq	.L113
	.loc 2 5003 5 is_stmt 1 view .LVU151
	ldm	r3, {r0, r1}
	.loc 2 5003 5 is_stmt 0 view .LVU152
	mov	r2, #4
	bl	mpack_node_flag_error
.LVL42:
	.loc 2 5004 5 is_stmt 1 view .LVU153
	.loc 2 5004 12 is_stmt 0 view .LVU154
	vldr.32	s14, .L131+60
.L30:
.LVL43:
	.loc 2 5004 12 view .LVU155
.LBE241:
.LBE246:
	.loc 1 56 29 view .LVU156
	ldm	r4, {r1, r2}
	.loc 1 55 27 view .LVU157
	vstr.32	s14, [r7]
	.loc 1 56 3 is_stmt 1 view .LVU158
	.loc 1 56 29 is_stmt 0 view .LVU159
	add	r7, sp, #64
	mov	r0, r7
	ldr	r3, .L131+32
	bl	mpack_node_map_cstr
.LVL44:
	ldm	r7, {r0, r1}
.LBB247:
.LBB248:
.LBB249:
.LBB250:
.LBB251:
	.loc 2 4593 16 view .LVU160
	ldr	r3, [sp, #68]
.LBE251:
.LBE250:
.LBE249:
	.loc 2 4991 8 view .LVU161
	ldrb	r3, [r3, #32]	@ zero_extendqisi2
	cmp	r3, #0
	add	r3, sp, #152
	stm	r3, {r0, r1}
.LVL45:
	.loc 2 4991 8 view .LVU162
.LBE248:
.LBI247:
	.loc 2 4990 14 is_stmt 1 view .LVU163
.LBB255:
	.loc 2 4991 5 view .LVU164
.LBB254:
.LBI249:
	.loc 2 4690 22 view .LVU165
	.loc 2 4691 5 view .LVU166
.LBB253:
.LBI250:
	.loc 2 4592 22 view .LVU167
.LBB252:
	.loc 2 4593 5 view .LVU168
	.loc 2 4593 5 is_stmt 0 view .LVU169
.LBE252:
.LBE253:
.LBE254:
	.loc 2 4991 8 view .LVU170
	bne	.L75
	.loc 2 4994 5 is_stmt 1 view .LVU171
	.loc 2 4994 18 is_stmt 0 view .LVU172
	ldrb	r2, [r0]	@ zero_extendqisi2
	.loc 2 4994 8 view .LVU173
	cmp	r2, #6
	beq	.L114
	.loc 2 4996 10 is_stmt 1 view .LVU174
	.loc 2 4996 13 is_stmt 0 view .LVU175
	cmp	r2, #5
	beq	.L115
	.loc 2 4998 10 is_stmt 1 view .LVU176
	.loc 2 4998 13 is_stmt 0 view .LVU177
	cmp	r2, #3
	beq	.L116
	.loc 2 5000 10 is_stmt 1 view .LVU178
	.loc 2 5000 13 is_stmt 0 view .LVU179
	cmp	r2, #4
	beq	.L117
	.loc 2 5003 5 is_stmt 1 view .LVU180
	ldm	r3, {r0, r1}
	.loc 2 5003 5 is_stmt 0 view .LVU181
	mov	r2, #4
	bl	mpack_node_flag_error
.LVL46:
	.loc 2 5004 5 is_stmt 1 view .LVU182
	.loc 2 5004 12 is_stmt 0 view .LVU183
	vldr.32	s14, .L131+56
.L35:
.LVL47:
	.loc 2 5004 12 view .LVU184
.LBE255:
.LBE247:
	.loc 1 57 29 view .LVU185
	ldm	r4, {r1, r2}
	.loc 1 56 27 view .LVU186
	ldr	r3, [r5]
	.loc 1 57 29 view .LVU187
	add	r7, sp, #72
	mov	r0, r7
	.loc 1 56 27 view .LVU188
	vstr.32	s14, [r3, #4]
	.loc 1 57 3 is_stmt 1 view .LVU189
	.loc 1 57 29 is_stmt 0 view .LVU190
	ldr	r3, .L131+36
	bl	mpack_node_map_cstr
.LVL48:
	ldm	r7, {r0, r1}
.LBB266:
.LBB267:
.LBB268:
.LBB269:
.LBB270:
	.loc 2 4593 16 view .LVU191
	ldr	r3, [sp, #76]
.LBE270:
.LBE269:
.LBE268:
.LBE267:
.LBE266:
	.loc 1 57 6 view .LVU192
	ldr	r7, [r5]
.LBB280:
.LBB274:
	.loc 2 4991 8 view .LVU193
	ldrb	r3, [r3, #32]	@ zero_extendqisi2
	cmp	r3, #0
	add	r3, sp, #144
	stm	r3, {r0, r1}
.LVL49:
	.loc 2 4991 8 view .LVU194
.LBE274:
.LBI266:
	.loc 2 4990 14 is_stmt 1 view .LVU195
.LBB275:
	.loc 2 4991 5 view .LVU196
.LBB273:
.LBI268:
	.loc 2 4690 22 view .LVU197
	.loc 2 4691 5 view .LVU198
.LBB272:
.LBI269:
	.loc 2 4592 22 view .LVU199
.LBB271:
	.loc 2 4593 5 view .LVU200
	.loc 2 4593 5 is_stmt 0 view .LVU201
.LBE271:
.LBE272:
.LBE273:
	.loc 2 4991 8 view .LVU202
	bne	.L76
	.loc 2 4994 5 is_stmt 1 view .LVU203
	.loc 2 4994 18 is_stmt 0 view .LVU204
	ldrb	r2, [r0]	@ zero_extendqisi2
	.loc 2 4994 8 view .LVU205
	cmp	r2, #6
	beq	.L118
	.loc 2 4996 10 is_stmt 1 view .LVU206
	.loc 2 4996 13 is_stmt 0 view .LVU207
	cmp	r2, #5
	beq	.L119
	.loc 2 4998 10 is_stmt 1 view .LVU208
	.loc 2 4998 13 is_stmt 0 view .LVU209
	cmp	r2, #3
	.loc 2 4999 32 view .LVU210
	vldreq.32	s14, [r0, #8]
	.loc 2 4998 13 view .LVU211
	beq	.L40
	.loc 2 5000 10 is_stmt 1 view .LVU212
	.loc 2 5000 13 is_stmt 0 view .LVU213
	cmp	r2, #4
	beq	.L120
	.loc 2 5003 5 is_stmt 1 view .LVU214
	ldm	r3, {r0, r1}
	.loc 2 5003 5 is_stmt 0 view .LVU215
	mov	r2, #4
	bl	mpack_node_flag_error
.LVL50:
	.loc 2 5004 5 is_stmt 1 view .LVU216
	.loc 2 5004 12 is_stmt 0 view .LVU217
	vldr.32	s14, .L131+60
.L40:
.LVL51:
	.loc 2 5004 12 view .LVU218
.LBE275:
.LBE280:
	.loc 1 68 25 view .LVU219
	ldm	r4, {r1, r2}
	.loc 1 57 27 view .LVU220
	vstr.32	s14, [r7, #8]
	.loc 1 68 3 is_stmt 1 view .LVU221
	.loc 1 68 25 is_stmt 0 view .LVU222
	ldr	r3, .L131+40
	add	r0, sp, #24
	bl	mpack_node_map_cstr_optional
.LVL52:
	.loc 1 69 3 is_stmt 1 view .LVU223
.LBB281:
.LBB282:
.LBB283:
.LBB284:
.LBB285:
	.loc 2 4593 16 is_stmt 0 view .LVU224
	ldrd	r2, [sp, #24]
.LBE285:
.LBE284:
.LBE283:
	.loc 2 4731 8 view .LVU225
	ldrb	r7, [r3, #32]	@ zero_extendqisi2
	cmp	r7, #0
	bne	.L45
	.loc 2 4733 5 is_stmt 1 view .LVU226
.LBE282:
.LBE281:
	.loc 1 69 6 is_stmt 0 view .LVU227
	ldrb	r3, [r2]	@ zero_extendqisi2
	cmp	r3, #1
	beq	.L45
	.loc 1 71 4 is_stmt 1 view .LVU228
	.loc 1 71 22 is_stmt 0 view .LVU229
	ldm	r4, {r1, r2}
	ldr	r3, .L131+40
	add	r0, sp, #80
	bl	mpack_node_map_cstr
.LVL53:
	ldr	r2, [sp, #84]
	.loc 1 71 7 view .LVU230
	ldr	r8, [r5]
.LVL54:
.LBB286:
.LBI286:
	.loc 2 4966 12 is_stmt 1 view .LVU231
.LBB287:
	.loc 2 4969 5 view .LVU232
	.loc 2 4970 9 view .LVU233
.LBB288:
.LBI288:
	.loc 2 4883 16 view .LVU234
.LBB289:
	.loc 2 4884 5 view .LVU235
.LBB290:
.LBI290:
	.loc 2 4690 22 view .LVU236
	.loc 2 4691 5 view .LVU237
.LBB291:
.LBI291:
	.loc 2 4592 22 view .LVU238
.LBB292:
	.loc 2 4593 5 view .LVU239
	.loc 2 4593 5 is_stmt 0 view .LVU240
.LBE292:
.LBE291:
.LBE290:
	.loc 2 4884 8 view .LVU241
	ldrb	r1, [r2, #32]	@ zero_extendqisi2
	cmp	r1, #0
	bne	.L46
	ldr	r3, [sp, #80]
	.loc 2 4887 5 is_stmt 1 view .LVU242
	.loc 2 4887 18 is_stmt 0 view .LVU243
	ldrb	r0, [r3]	@ zero_extendqisi2
	.loc 2 4887 8 view .LVU244
	cmp	r0, #6
	beq	.L121
	.loc 2 4890 12 is_stmt 1 view .LVU245
	.loc 2 4890 15 is_stmt 0 view .LVU246
	cmp	r0, #5
	beq	.L122
.L48:
	.loc 2 4895 5 is_stmt 1 view .LVU247
	str	r3, [sp, #176]
	str	r2, [sp, #180]
	add	r3, sp, #176
	mov	r2, #4
.LVL55:
	.loc 2 4895 5 is_stmt 0 view .LVU248
	ldm	r3, {r0, r1}
	bl	mpack_node_flag_error
.LVL56:
	.loc 2 4896 5 is_stmt 1 view .LVU249
	.loc 2 4896 12 is_stmt 0 view .LVU250
	mov	r7, #0
.L46:
.LVL57:
	.loc 2 4896 12 view .LVU251
.LBE289:
.LBE288:
.LBE287:
.LBE286:
	.loc 1 71 20 view .LVU252
	str	r7, [r8, #84]
.L49:
	.loc 1 77 3 is_stmt 1 view .LVU253
	.loc 1 77 29 is_stmt 0 view .LVU254
	ldr	r3, .L131+44
	ldm	r4, {r1, r2}
	add	r0, sp, #32
	bl	mpack_node_map_cstr_optional
.LVL58:
	.loc 1 78 3 is_stmt 1 view .LVU255
.LBB296:
.LBB297:
.LBB298:
.LBB299:
.LBB300:
	.loc 2 4593 16 is_stmt 0 view .LVU256
	ldrd	r2, [sp, #32]
.LBE300:
.LBE299:
.LBE298:
	.loc 2 4731 8 view .LVU257
	ldrb	r7, [r3, #32]	@ zero_extendqisi2
	cmp	r7, #0
	bne	.L50
	.loc 2 4733 5 is_stmt 1 view .LVU258
.LBE297:
.LBE296:
	.loc 1 78 6 is_stmt 0 view .LVU259
	ldrb	r3, [r2]	@ zero_extendqisi2
	cmp	r3, #1
	beq	.L50
	.loc 1 80 4 is_stmt 1 view .LVU260
	.loc 1 80 26 is_stmt 0 view .LVU261
	ldm	r4, {r1, r2}
	ldr	r3, .L131+44
	add	r0, sp, #88
	bl	mpack_node_map_cstr
.LVL59:
	ldr	r2, [sp, #92]
	.loc 1 80 7 view .LVU262
	ldr	r8, [r5]
.LVL60:
.LBB301:
.LBI301:
	.loc 2 4966 12 is_stmt 1 view .LVU263
.LBB302:
	.loc 2 4969 5 view .LVU264
	.loc 2 4970 9 view .LVU265
.LBB303:
.LBI303:
	.loc 2 4883 16 view .LVU266
.LBB304:
	.loc 2 4884 5 view .LVU267
.LBB305:
.LBI305:
	.loc 2 4690 22 view .LVU268
	.loc 2 4691 5 view .LVU269
.LBB306:
.LBI306:
	.loc 2 4592 22 view .LVU270
.LBB307:
	.loc 2 4593 5 view .LVU271
	.loc 2 4593 5 is_stmt 0 view .LVU272
.LBE307:
.LBE306:
.LBE305:
	.loc 2 4884 8 view .LVU273
	ldrb	r1, [r2, #32]	@ zero_extendqisi2
	cmp	r1, #0
	bne	.L51
	ldr	r3, [sp, #88]
	.loc 2 4887 5 is_stmt 1 view .LVU274
	.loc 2 4887 18 is_stmt 0 view .LVU275
	ldrb	r0, [r3]	@ zero_extendqisi2
	.loc 2 4887 8 view .LVU276
	cmp	r0, #6
	beq	.L123
	.loc 2 4890 12 is_stmt 1 view .LVU277
	.loc 2 4890 15 is_stmt 0 view .LVU278
	cmp	r0, #5
	beq	.L124
.L53:
	.loc 2 4895 5 is_stmt 1 view .LVU279
	str	r3, [sp, #184]
	str	r2, [sp, #188]
	add	r3, sp, #184
	mov	r2, #4
.LVL61:
	.loc 2 4895 5 is_stmt 0 view .LVU280
	ldm	r3, {r0, r1}
	bl	mpack_node_flag_error
.LVL62:
	.loc 2 4896 5 is_stmt 1 view .LVU281
	.loc 2 4896 12 is_stmt 0 view .LVU282
	mov	r7, #0
.L51:
.LVL63:
	.loc 2 4896 12 view .LVU283
.LBE304:
.LBE303:
.LBE302:
.LBE301:
	.loc 1 80 24 view .LVU284
	str	r7, [r8, #96]
.L54:
	.loc 1 86 3 is_stmt 1 view .LVU285
	.loc 1 86 24 is_stmt 0 view .LVU286
	add	r7, sp, #96
	mov	r0, r7
	ldm	r4, {r1, r2}
	ldr	r3, .L131+48
	bl	mpack_node_map_cstr
.LVL64:
	ldm	r7, {r0, r1}
.LBB314:
.LBB315:
.LBB316:
.LBB317:
.LBB318:
	.loc 2 4593 16 view .LVU287
	ldr	r3, [sp, #100]
.LBE318:
.LBE317:
.LBE316:
.LBE315:
.LBE314:
	.loc 1 86 6 view .LVU288
	ldr	r7, [r5]
.LBB328:
.LBB322:
	.loc 2 4991 8 view .LVU289
	ldrb	r3, [r3, #32]	@ zero_extendqisi2
	cmp	r3, #0
	add	r3, sp, #200
	stm	r3, {r0, r1}
.LVL65:
	.loc 2 4991 8 view .LVU290
.LBE322:
.LBI314:
	.loc 2 4990 14 is_stmt 1 view .LVU291
.LBB323:
	.loc 2 4991 5 view .LVU292
.LBB321:
.LBI316:
	.loc 2 4690 22 view .LVU293
	.loc 2 4691 5 view .LVU294
.LBB320:
.LBI317:
	.loc 2 4592 22 view .LVU295
.LBB319:
	.loc 2 4593 5 view .LVU296
	.loc 2 4593 5 is_stmt 0 view .LVU297
.LBE319:
.LBE320:
.LBE321:
	.loc 2 4991 8 view .LVU298
	bne	.L79
	.loc 2 4994 5 is_stmt 1 view .LVU299
	.loc 2 4994 18 is_stmt 0 view .LVU300
	ldrb	r2, [r0]	@ zero_extendqisi2
	.loc 2 4994 8 view .LVU301
	cmp	r2, #6
	beq	.L125
	.loc 2 4996 10 is_stmt 1 view .LVU302
	.loc 2 4996 13 is_stmt 0 view .LVU303
	cmp	r2, #5
	beq	.L126
	.loc 2 4998 10 is_stmt 1 view .LVU304
	.loc 2 4998 13 is_stmt 0 view .LVU305
	cmp	r2, #3
	.loc 2 4999 32 view .LVU306
	vldreq.32	s14, [r0, #8]
	.loc 2 4998 13 view .LVU307
	beq	.L55
	.loc 2 5000 10 is_stmt 1 view .LVU308
	.loc 2 5000 13 is_stmt 0 view .LVU309
	cmp	r2, #4
	beq	.L127
	.loc 2 5003 5 is_stmt 1 view .LVU310
	ldm	r3, {r0, r1}
	.loc 2 5003 5 is_stmt 0 view .LVU311
	mov	r2, #4
	bl	mpack_node_flag_error
.LVL66:
	.loc 2 5004 5 is_stmt 1 view .LVU312
	.loc 2 5004 12 is_stmt 0 view .LVU313
	vldr.32	s14, .L131+60
.L55:
.LVL67:
	.loc 2 5004 12 view .LVU314
.LBE323:
.LBE328:
	.loc 1 87 22 view .LVU315
	ldm	r4, {r1, r2}
	.loc 1 86 22 view .LVU316
	vstr.32	s14, [r7, #12]
	.loc 1 87 3 is_stmt 1 view .LVU317
	.loc 1 87 22 is_stmt 0 view .LVU318
	add	r7, sp, #104
	mov	r0, r7
	ldr	r3, .L131+52
	bl	mpack_node_map_cstr
.LVL68:
	ldm	r7, {r0, r1}
.LBB329:
.LBB330:
.LBB331:
.LBB332:
.LBB333:
	.loc 2 4593 16 view .LVU319
	ldr	r3, [sp, #108]
.LBE333:
.LBE332:
.LBE331:
.LBE330:
.LBE329:
	.loc 1 87 6 view .LVU320
	ldr	r7, [r5]
.LBB343:
.LBB337:
	.loc 2 4991 8 view .LVU321
	ldrb	r3, [r3, #32]	@ zero_extendqisi2
	cmp	r3, #0
	add	r3, sp, #192
	stm	r3, {r0, r1}
.LVL69:
	.loc 2 4991 8 view .LVU322
.LBE337:
.LBI329:
	.loc 2 4990 14 is_stmt 1 view .LVU323
.LBB338:
	.loc 2 4991 5 view .LVU324
.LBB336:
.LBI331:
	.loc 2 4690 22 view .LVU325
	.loc 2 4691 5 view .LVU326
.LBB335:
.LBI332:
	.loc 2 4592 22 view .LVU327
.LBB334:
	.loc 2 4593 5 view .LVU328
	.loc 2 4593 5 is_stmt 0 view .LVU329
.LBE334:
.LBE335:
.LBE336:
	.loc 2 4991 8 view .LVU330
	bne	.L80
	.loc 2 4994 5 is_stmt 1 view .LVU331
	.loc 2 4994 18 is_stmt 0 view .LVU332
	ldrb	r2, [r0]	@ zero_extendqisi2
	.loc 2 4994 8 view .LVU333
	cmp	r2, #6
	beq	.L128
	.loc 2 4996 10 is_stmt 1 view .LVU334
	.loc 2 4996 13 is_stmt 0 view .LVU335
	cmp	r2, #5
	beq	.L129
	.loc 2 4998 10 is_stmt 1 view .LVU336
	.loc 2 4998 13 is_stmt 0 view .LVU337
	cmp	r2, #3
	.loc 2 4999 32 view .LVU338
	vldreq.32	s14, [r0, #8]
	.loc 2 4998 13 view .LVU339
	beq	.L60
	.loc 2 5000 10 is_stmt 1 view .LVU340
	.loc 2 5000 13 is_stmt 0 view .LVU341
	cmp	r2, #4
	beq	.L130
	.loc 2 5003 5 is_stmt 1 view .LVU342
	ldm	r3, {r0, r1}
	.loc 2 5003 5 is_stmt 0 view .LVU343
	mov	r2, #4
	bl	mpack_node_flag_error
.LVL70:
	.loc 2 5004 5 is_stmt 1 view .LVU344
	.loc 2 5004 12 is_stmt 0 view .LVU345
	vldr.32	s14, .L133
.L60:
.LVL71:
	.loc 2 5004 12 view .LVU346
.LBE338:
.LBE343:
	.loc 1 89 27 view .LVU347
	ldm	r4, {r1, r2}
	ldr	r3, .L133+8
	.loc 1 87 20 view .LVU348
	vstr.32	s14, [r7, #16]
	.loc 1 89 3 is_stmt 1 view .LVU349
	.loc 1 89 27 is_stmt 0 view .LVU350
	add	r0, sp, #112
	bl	mpack_node_map_cstr_optional
.LVL72:
.LBB344:
.LBB345:
.LBB346:
.LBB347:
.LBB348:
	.loc 2 4593 16 view .LVU351
	ldrd	r2, [sp, #112]
.LBE348:
.LBE347:
.LBE346:
	.loc 2 4731 8 view .LVU352
	ldrb	r3, [r3, #32]	@ zero_extendqisi2
	cmp	r3, #0
	bne	.L67
	.loc 2 4733 5 is_stmt 1 view .LVU353
.LBE345:
.LBE344:
	.loc 1 89 185 is_stmt 0 view .LVU354
	ldrb	r3, [r2]	@ zero_extendqisi2
	cmp	r3, #1
	beq	.L67
	.loc 1 89 116 discriminator 1 view .LVU355
	ldm	r4, {r1, r2}
	add	r8, sp, #120
	mov	r0, r8
	ldr	r3, .L133+8
	bl	mpack_node_map_cstr_optional
.LVL73:
	ldm	r8, {r0, r1}
.LBB349:
.LBB350:
.LBB351:
.LBB352:
.LBB353:
	.loc 2 4593 16 discriminator 1 view .LVU356
	ldr	r3, [sp, #124]
.LBE353:
.LBE352:
.LBE351:
	.loc 2 4751 8 discriminator 1 view .LVU357
	ldrb	r7, [r3, #32]	@ zero_extendqisi2
	add	r3, sp, #208
	cmp	r7, #0
	stm	r3, {r0, r1}
.LVL74:
	.loc 2 4751 8 discriminator 1 view .LVU358
.LBE350:
.LBI349:
	.loc 2 4750 18 is_stmt 1 discriminator 1 view .LVU359
.LBB357:
	.loc 2 4751 5 discriminator 1 view .LVU360
.LBB356:
.LBI351:
	.loc 2 4690 22 discriminator 1 view .LVU361
	.loc 2 4691 5 discriminator 1 view .LVU362
.LBB355:
.LBI352:
	.loc 2 4592 22 discriminator 1 view .LVU363
.LBB354:
	.loc 2 4593 5 discriminator 1 view .LVU364
	.loc 2 4593 5 is_stmt 0 discriminator 1 view .LVU365
.LBE354:
.LBE355:
.LBE356:
	.loc 2 4751 8 discriminator 1 view .LVU366
	bne	.L67
	.loc 2 4754 5 is_stmt 1 view .LVU367
	.loc 2 4754 8 is_stmt 0 view .LVU368
	ldrb	r1, [r0]	@ zero_extendqisi2
.LVL75:
	.loc 2 4754 8 view .LVU369
	cmp	r1, #2
	.loc 2 4755 32 view .LVU370
	ldrbeq	r3, [r0, #8]	@ zero_extendqisi2
.LVL76:
	.loc 2 4754 8 view .LVU371
	beq	.L66
	.loc 2 4757 5 is_stmt 1 view .LVU372
	ldm	r3, {r0, r1}
.LVL77:
	.loc 2 4757 5 is_stmt 0 view .LVU373
	mov	r2, #4
	bl	mpack_node_flag_error
.LVL78:
	.loc 2 4758 5 is_stmt 1 view .LVU374
	.loc 2 4758 5 is_stmt 0 view .LVU375
.LBE357:
.LBE349:
	.loc 1 89 185 view .LVU376
	mov	r3, r7
.L66:
	.loc 1 89 23 discriminator 6 view .LVU377
	ldr	r2, [r5]
	.loc 1 90 30 discriminator 6 view .LVU378
	add	r0, sp, #128
	.loc 1 89 23 discriminator 6 view .LVU379
	strb	r3, [r2, #35]
	.loc 1 90 3 is_stmt 1 discriminator 6 view .LVU380
	.loc 1 90 30 is_stmt 0 discriminator 6 view .LVU381
	ldr	r3, .L133+12
	ldm	r4, {r1, r2}
	bl	mpack_node_map_cstr_optional
.LVL79:
.LBB358:
.LBB359:
.LBB360:
.LBB361:
.LBB362:
	.loc 2 4593 16 discriminator 6 view .LVU382
	ldrd	r2, [sp, #128]
.LBE362:
.LBE361:
.LBE360:
	.loc 2 4731 8 discriminator 6 view .LVU383
	ldrb	r3, [r3, #32]	@ zero_extendqisi2
	cmp	r3, #0
	bne	.L71
	.loc 2 4733 5 is_stmt 1 view .LVU384
.LBE359:
.LBE358:
	.loc 1 90 194 is_stmt 0 view .LVU385
	ldrb	r3, [r2]	@ zero_extendqisi2
	cmp	r3, #1
	beq	.L71
	.loc 1 90 122 discriminator 1 view .LVU386
	ldm	r4, {r1, r2}
	add	r7, sp, #136
	mov	r0, r7
	ldr	r3, .L133+12
	bl	mpack_node_map_cstr_optional
.LVL80:
	ldm	r7, {r0, r1}
.LBB363:
.LBB364:
.LBB365:
.LBB366:
.LBB367:
	.loc 2 4593 16 discriminator 1 view .LVU387
	ldr	r2, [sp, #140]
	add	r3, sp, #216
.LBE367:
.LBE366:
.LBE365:
	.loc 2 4751 8 discriminator 1 view .LVU388
	ldrb	r4, [r2, #32]	@ zero_extendqisi2
	stm	r3, {r0, r1}
.LVL81:
	.loc 2 4751 8 discriminator 1 view .LVU389
.LBE364:
.LBI363:
	.loc 2 4750 18 is_stmt 1 discriminator 1 view .LVU390
.LBB371:
	.loc 2 4751 5 discriminator 1 view .LVU391
.LBB370:
.LBI365:
	.loc 2 4690 22 discriminator 1 view .LVU392
	.loc 2 4691 5 discriminator 1 view .LVU393
.LBB369:
.LBI366:
	.loc 2 4592 22 discriminator 1 view .LVU394
.LBB368:
	.loc 2 4593 5 discriminator 1 view .LVU395
	.loc 2 4593 5 is_stmt 0 discriminator 1 view .LVU396
.LBE368:
.LBE369:
.LBE370:
	.loc 2 4751 8 discriminator 1 view .LVU397
	cmp	r4, #0
	bne	.L71
	.loc 2 4754 5 is_stmt 1 view .LVU398
	.loc 2 4754 8 is_stmt 0 view .LVU399
	ldrb	r1, [r0]	@ zero_extendqisi2
.LVL82:
	.loc 2 4754 8 view .LVU400
	cmp	r1, #2
	.loc 2 4755 32 view .LVU401
	ldrbeq	r3, [r0, #8]	@ zero_extendqisi2
	.loc 2 4754 8 view .LVU402
	beq	.L70
	.loc 2 4757 5 is_stmt 1 view .LVU403
	ldm	r3, {r0, r1}
.LVL83:
	.loc 2 4757 5 is_stmt 0 view .LVU404
	mov	r2, #4
.LVL84:
	.loc 2 4757 5 view .LVU405
	bl	mpack_node_flag_error
.LVL85:
	.loc 2 4758 5 is_stmt 1 view .LVU406
	.loc 2 4758 5 is_stmt 0 view .LVU407
.LBE371:
.LBE363:
	.loc 1 90 194 view .LVU408
	mov	r3, r4
.L70:
	.loc 1 90 26 discriminator 6 view .LVU409
	ldr	r2, [r5]
	.loc 1 93 23 discriminator 6 view .LVU410
	add	r0, sp, #224
	.loc 1 90 26 discriminator 6 view .LVU411
	strb	r3, [r2, #36]
	.loc 1 93 3 is_stmt 1 discriminator 6 view .LVU412
	.loc 1 93 23 is_stmt 0 discriminator 6 view .LVU413
	bl	mpack_tree_destroy
.LVL86:
	.loc 1 94 3 is_stmt 1 discriminator 6 view .LVU414
	.loc 1 94 6 is_stmt 0 discriminator 6 view .LVU415
	subs	r1, r0, #0
	beq	.L19
	.loc 1 95 4 is_stmt 1 view .LVU416
	mov	r2, r6
	ldr	r0, .L133+16
.LVL87:
	.loc 1 95 4 is_stmt 0 view .LVU417
	bl	Crash
.LVL88:
	.loc 1 95 4 view .LVU418
.LBE208:
	.loc 1 98 1 view .LVU419
	add	sp, sp, #536
	.cfi_remember_state
	.cfi_def_cfa_offset 24
	@ sp needed
	pop	{r4, r5, r6, r7, r8, pc}
.LVL89:
.L109:
	.cfi_restore_state
.LBB416:
.LBB372:
.LBB230:
	.loc 2 5437 9 is_stmt 1 view .LVU420
	mov	r2, #4
	ldm	r3, {r0, r1}
.LVL90:
	.loc 2 5437 9 is_stmt 0 view .LVU421
	bl	mpack_node_flag_error
.LVL91:
.L104:
	.loc 2 5438 9 is_stmt 1 view .LVU422
.LBB225:
.LBI225:
	.loc 2 4525 21 view .LVU423
.LBB226:
	.loc 2 4526 5 view .LVU424
	.loc 2 4526 12 is_stmt 0 view .LVU425
	add	r3, r4, #16
.LVL92:
	.loc 2 4526 12 view .LVU426
.LBE226:
.LBE225:
	.loc 2 5438 16 view .LVU427
	b	.L27
.LVL93:
.L108:
	.loc 2 5438 16 view .LVU428
.LBE230:
.LBE372:
	.loc 1 49 4 is_stmt 1 view .LVU429
.LBB373:
.LBI373:
	.loc 2 4944 21 view .LVU430
.LBB374:
	.loc 2 4947 5 view .LVU431
	.loc 2 4948 9 view .LVU432
.LBB375:
.LBB376:
	.loc 2 4867 8 is_stmt 0 view .LVU433
	cmp	r1, #6
	str	r3, [sp, #220]
.LBE376:
.LBI375:
	.loc 2 4863 17 is_stmt 1 view .LVU434
.LVL94:
.LBB377:
	.loc 2 4864 5 view .LVU435
	.loc 2 4867 5 view .LVU436
	str	r2, [sp, #216]
	.loc 2 4867 8 is_stmt 0 view .LVU437
	beq	.L106
	.loc 2 4870 12 is_stmt 1 view .LVU438
	.loc 2 4870 15 is_stmt 0 view .LVU439
	cmp	r1, #5
	beq	.L106
.LVL95:
.L23:
	.loc 2 4875 5 is_stmt 1 view .LVU440
	add	r3, sp, #216
	mov	r2, #4
.LVL96:
	.loc 2 4875 5 is_stmt 0 view .LVU441
	ldm	r3, {r0, r1}
	bl	mpack_node_flag_error
.LVL97:
	.loc 2 4876 5 is_stmt 1 view .LVU442
.L24:
	.loc 2 4876 5 is_stmt 0 view .LVU443
.LBE377:
.LBE375:
.LBE374:
.LBE373:
	.loc 1 49 33 view .LVU444
	ldr	r3, [r5, #4]
	strb	r7, [r3, #24]
	b	.L25
.LVL98:
.L106:
.LBB384:
.LBB382:
.LBB380:
.LBB378:
	.loc 2 4871 9 is_stmt 1 view .LVU445
	.loc 2 4871 12 is_stmt 0 view .LVU446
	mvn	r0, #0
	.loc 2 4871 29 view .LVU447
	ldr	r1, [r2, #8]
	ldr	r3, [r2, #12]
.LVL99:
	.loc 2 4871 12 view .LVU448
	cmp	r0, r1
	sbcs	r3, r7, r3
.LBE378:
.LBE380:
.LBE382:
.LBE384:
	.loc 1 49 35 view .LVU449
	uxtbcs	r7, r1
.LBB385:
.LBB383:
.LBB381:
.LBB379:
	.loc 2 4871 12 view .LVU450
	bcc	.L23
	b	.L24
.LVL100:
.L71:
	.loc 2 4871 12 view .LVU451
.LBE379:
.LBE381:
.LBE383:
.LBE385:
	.loc 1 90 194 view .LVU452
	mov	r3, #0
	b	.L70
.L67:
	.loc 1 89 185 view .LVU453
	mov	r3, #0
	b	.L66
.L45:
	.loc 1 75 4 is_stmt 1 view .LVU454
	.loc 1 75 20 is_stmt 0 view .LVU455
	mov	r2, #20
	ldr	r3, [r5]
	str	r2, [r3, #84]
	b	.L49
.L50:
	.loc 1 84 4 is_stmt 1 view .LVU456
	.loc 1 84 24 is_stmt 0 view .LVU457
	mov	r2, #20
	ldr	r3, [r5]
	str	r2, [r3, #96]
	b	.L54
.LVL101:
.L75:
.LBB386:
.LBB256:
	.loc 1 84 24 view .LVU458
	vldr.32	s14, .L133+4
	b	.L35
.LVL102:
.L74:
	.loc 1 84 24 view .LVU459
.LBE256:
.LBE386:
.LBB387:
.LBB242:
	.loc 2 4992 16 view .LVU460
	vldr.32	s14, .L133
	b	.L30
.LVL103:
.L76:
	.loc 2 4992 16 view .LVU461
.LBE242:
.LBE387:
.LBB388:
.LBB276:
	vldr.32	s14, .L133
	b	.L40
.LVL104:
.L80:
	.loc 2 4992 16 view .LVU462
.LBE276:
.LBE388:
.LBB389:
.LBB339:
	vldr.32	s14, .L133
	b	.L60
.LVL105:
.L79:
	.loc 2 4992 16 view .LVU463
.LBE339:
.LBE389:
.LBB390:
.LBB324:
	vldr.32	s14, .L133
	b	.L55
.LVL106:
.L128:
	.loc 2 4992 16 view .LVU464
.LBE324:
.LBE390:
.LBB391:
.LBB340:
	.loc 2 4995 9 is_stmt 1 view .LVU465
	.loc 2 4995 16 is_stmt 0 view .LVU466
	ldrd	r0, [r0, #8]
.LVL107:
	.loc 2 4995 16 view .LVU467
	bl	__aeabi_ul2f
.LVL108:
	.loc 2 4995 16 view .LVU468
	vmov	s14, r0
	b	.L60
.LVL109:
.L118:
	.loc 2 4995 16 view .LVU469
.LBE340:
.LBE391:
.LBB392:
.LBB277:
	.loc 2 4995 9 is_stmt 1 view .LVU470
	.loc 2 4995 16 is_stmt 0 view .LVU471
	ldrd	r0, [r0, #8]
.LVL110:
	.loc 2 4995 16 view .LVU472
	bl	__aeabi_ul2f
.LVL111:
	.loc 2 4995 16 view .LVU473
	vmov	s14, r0
	b	.L40
.LVL112:
.L111:
	.loc 2 4995 16 view .LVU474
.LBE277:
.LBE392:
.LBB393:
.LBB243:
	.loc 2 4995 9 is_stmt 1 view .LVU475
	.loc 2 4995 16 is_stmt 0 view .LVU476
	ldrd	r0, [r0, #8]
.LVL113:
	.loc 2 4995 16 view .LVU477
	bl	__aeabi_ul2f
.LVL114:
	.loc 2 4995 16 view .LVU478
	vmov	s14, r0
	b	.L30
.LVL115:
.L114:
	.loc 2 4995 16 view .LVU479
.LBE243:
.LBE393:
.LBB394:
.LBB257:
	.loc 2 4995 9 is_stmt 1 view .LVU480
	.loc 2 4995 16 is_stmt 0 view .LVU481
	ldrd	r0, [r0, #8]
.LVL116:
	.loc 2 4995 16 view .LVU482
	bl	__aeabi_ul2f
.LVL117:
	.loc 2 4995 16 view .LVU483
.LBE257:
.LBE394:
	.loc 1 56 80 view .LVU484
	vldr.32	s15, .L133+4
	vmov	s14, r0
	vadd.f32	s14, s14, s15
.LBB395:
.LBB258:
	.loc 2 4995 16 view .LVU485
	b	.L35
.LVL118:
.L125:
	.loc 2 4995 16 view .LVU486
.LBE258:
.LBE395:
.LBB396:
.LBB325:
	.loc 2 4995 9 is_stmt 1 view .LVU487
	.loc 2 4995 16 is_stmt 0 view .LVU488
	ldrd	r0, [r0, #8]
.LVL119:
	.loc 2 4995 16 view .LVU489
	bl	__aeabi_ul2f
.LVL120:
	.loc 2 4995 16 view .LVU490
	vmov	s14, r0
	b	.L55
.LVL121:
.L113:
	.loc 2 4995 16 view .LVU491
.LBE325:
.LBE396:
.LBB397:
.LBB244:
	.loc 2 5001 9 is_stmt 1 view .LVU492
	.loc 2 5001 16 is_stmt 0 view .LVU493
	vldr.64	d7, [r0, #8]
	vcvt.f32.f64	s14, d7
	b	.L30
.LVL122:
.L120:
	.loc 2 5001 16 view .LVU494
.LBE244:
.LBE397:
.LBB398:
.LBB278:
	.loc 2 5001 9 is_stmt 1 view .LVU495
	.loc 2 5001 16 is_stmt 0 view .LVU496
	vldr.64	d7, [r0, #8]
	vcvt.f32.f64	s14, d7
	b	.L40
.LVL123:
.L117:
	.loc 2 5001 16 view .LVU497
.LBE278:
.LBE398:
.LBB399:
.LBB259:
	.loc 2 5001 9 is_stmt 1 view .LVU498
	.loc 2 5001 16 is_stmt 0 view .LVU499
	vldr.64	d7, [r0, #8]
.LBE259:
.LBE399:
	.loc 1 56 80 view .LVU500
	vldr.32	s13, .L133+4
.LBB400:
.LBB260:
	.loc 2 5001 16 view .LVU501
	vcvt.f32.f64	s14, d7
.LBE260:
.LBE400:
	.loc 1 56 80 view .LVU502
	vadd.f32	s14, s14, s13
.LBB401:
.LBB261:
	.loc 2 5001 16 view .LVU503
	b	.L35
.LVL124:
.L130:
	.loc 2 5001 16 view .LVU504
.LBE261:
.LBE401:
.LBB402:
.LBB341:
	.loc 2 5001 9 is_stmt 1 view .LVU505
	.loc 2 5001 16 is_stmt 0 view .LVU506
	vldr.64	d7, [r0, #8]
	vcvt.f32.f64	s14, d7
	b	.L60
.LVL125:
.L127:
	.loc 2 5001 16 view .LVU507
.LBE341:
.LBE402:
.LBB403:
.LBB326:
	.loc 2 5001 9 is_stmt 1 view .LVU508
	.loc 2 5001 16 is_stmt 0 view .LVU509
	vldr.64	d7, [r0, #8]
	vcvt.f32.f64	s14, d7
	b	.L55
.LVL126:
.L129:
	.loc 2 5001 16 view .LVU510
.LBE326:
.LBE403:
.LBB404:
.LBB342:
	.loc 2 4997 9 is_stmt 1 view .LVU511
	.loc 2 4997 16 is_stmt 0 view .LVU512
	ldrd	r0, [r0, #8]
.LVL127:
	.loc 2 4997 16 view .LVU513
	bl	__aeabi_l2f
.LVL128:
	.loc 2 4997 16 view .LVU514
	vmov	s14, r0
	b	.L60
.LVL129:
.L115:
	.loc 2 4997 16 view .LVU515
.LBE342:
.LBE404:
.LBB405:
.LBB262:
	.loc 2 4997 9 is_stmt 1 view .LVU516
	.loc 2 4997 16 is_stmt 0 view .LVU517
	ldrd	r0, [r0, #8]
.LVL130:
	.loc 2 4997 16 view .LVU518
	bl	__aeabi_l2f
.LVL131:
	.loc 2 4997 16 view .LVU519
.LBE262:
.LBE405:
	.loc 1 56 80 view .LVU520
	vldr.32	s15, .L133+4
	vmov	s14, r0
	vadd.f32	s14, s14, s15
.LBB406:
.LBB263:
	.loc 2 4997 16 view .LVU521
	b	.L35
.LVL132:
.L126:
	.loc 2 4997 16 view .LVU522
.LBE263:
.LBE406:
.LBB407:
.LBB327:
	.loc 2 4997 9 is_stmt 1 view .LVU523
	.loc 2 4997 16 is_stmt 0 view .LVU524
	ldrd	r0, [r0, #8]
.LVL133:
	.loc 2 4997 16 view .LVU525
	bl	__aeabi_l2f
.LVL134:
	.loc 2 4997 16 view .LVU526
	vmov	s14, r0
	b	.L55
.LVL135:
.L119:
	.loc 2 4997 16 view .LVU527
.LBE327:
.LBE407:
.LBB408:
.LBB279:
	.loc 2 4997 9 is_stmt 1 view .LVU528
	.loc 2 4997 16 is_stmt 0 view .LVU529
	ldrd	r0, [r0, #8]
.LVL136:
	.loc 2 4997 16 view .LVU530
	bl	__aeabi_l2f
.LVL137:
	.loc 2 4997 16 view .LVU531
	vmov	s14, r0
	b	.L40
.LVL138:
.L112:
	.loc 2 4997 16 view .LVU532
.LBE279:
.LBE408:
.LBB409:
.LBB245:
	.loc 2 4997 9 is_stmt 1 view .LVU533
	.loc 2 4997 16 is_stmt 0 view .LVU534
	ldrd	r0, [r0, #8]
.LVL139:
	.loc 2 4997 16 view .LVU535
	bl	__aeabi_l2f
.LVL140:
	.loc 2 4997 16 view .LVU536
	vmov	s14, r0
	b	.L30
.LVL141:
.L110:
	.loc 2 4997 16 view .LVU537
.LBE245:
.LBE409:
.LBB410:
.LBB231:
	.loc 2 5442 9 is_stmt 1 view .LVU538
	ldm	r3, {r0, r1}
.LVL142:
	.loc 2 5442 9 is_stmt 0 view .LVU539
	mov	r2, #8
.LVL143:
	.loc 2 5442 9 view .LVU540
	bl	mpack_node_flag_error
.LVL144:
	.loc 2 5443 9 is_stmt 1 view .LVU541
.LBB227:
.LBI227:
	.loc 2 4525 21 view .LVU542
.LBB228:
	.loc 2 4526 5 view .LVU543
	.loc 2 4526 12 is_stmt 0 view .LVU544
	add	r3, r4, #16
.LVL145:
	.loc 2 4526 12 view .LVU545
.LBE228:
.LBE227:
	.loc 2 5443 16 view .LVU546
	b	.L27
.LVL146:
.L116:
	.loc 2 5443 16 view .LVU547
.LBE231:
.LBE410:
.LBB411:
.LBB264:
	.loc 2 4999 9 is_stmt 1 view .LVU548
.LBE264:
.LBE411:
	.loc 1 56 80 is_stmt 0 view .LVU549
	vldr.32	s14, [r0, #8]
	vldr.32	s15, .L133+4
	vadd.f32	s14, s14, s15
.LBB412:
.LBB265:
	.loc 2 4999 32 view .LVU550
	b	.L35
.LVL147:
.L124:
	.loc 2 4999 32 view .LVU551
.LBE265:
.LBE412:
.LBB413:
.LBB312:
.LBB310:
.LBB308:
	.loc 2 4891 9 is_stmt 1 view .LVU552
	.loc 2 4891 12 is_stmt 0 view .LVU553
	mvn	lr, #0
	.loc 2 4891 29 view .LVU554
	ldr	r7, [r3, #8]
	ldr	r0, [r3, #12]
	.loc 2 4891 44 view .LVU555
	adds	ip, r7, #-2147483648
	adc	r0, r0, #0
	.loc 2 4891 12 view .LVU556
	cmp	lr, ip
	sbcs	r1, r1, r0
	bcc	.L53
	b	.L51
.LVL148:
.L122:
	.loc 2 4891 12 view .LVU557
.LBE308:
.LBE310:
.LBE312:
.LBE413:
.LBB414:
.LBB295:
.LBB294:
.LBB293:
	.loc 2 4891 9 is_stmt 1 view .LVU558
	.loc 2 4891 12 is_stmt 0 view .LVU559
	mvn	lr, #0
	.loc 2 4891 29 view .LVU560
	ldr	r7, [r3, #8]
	ldr	r0, [r3, #12]
	.loc 2 4891 44 view .LVU561
	adds	ip, r7, #-2147483648
	adc	r0, r0, #0
	.loc 2 4891 12 view .LVU562
	cmp	lr, ip
	sbcs	r1, r1, r0
	bcc	.L48
	b	.L46
.L121:
	.loc 2 4888 9 is_stmt 1 view .LVU563
	.loc 2 4888 29 is_stmt 0 view .LVU564
	ldr	r7, [r3, #8]
	ldr	r1, [r3, #12]
	.loc 2 4888 12 view .LVU565
	cmp	r7, #-2147483648
	sbcs	r1, r1, #0
	bcs	.L48
	b	.L46
.LVL149:
.L123:
	.loc 2 4888 12 view .LVU566
.LBE293:
.LBE294:
.LBE295:
.LBE414:
.LBB415:
.LBB313:
.LBB311:
.LBB309:
	.loc 2 4888 9 is_stmt 1 view .LVU567
	.loc 2 4888 29 is_stmt 0 view .LVU568
	ldr	r7, [r3, #8]
	ldr	r1, [r3, #12]
	.loc 2 4888 12 view .LVU569
	cmp	r7, #-2147483648
	sbcs	r1, r1, #0
	bcs	.L53
	b	.L51
.L134:
	.align	2
.L133:
	.word	0
	.word	1036831949
	.word	.LC15
	.word	.LC16
	.word	.LC17
.LBE309:
.LBE311:
.LBE313:
.LBE415:
.LBE416:
	.cfi_endproc
.LFE275:
	.size	SaveManager_Load, .-SaveManager_Load
	.section	.rodata.str1.4
	.align	2
.LC18:
	.ascii	"Mpack error %d while saving world manifest\000"
	.section	.text.SaveManager_Unload,"ax",%progbits
	.align	2
	.global	SaveManager_Unload
	.syntax unified
	.arm
	.fpu vfp
	.type	SaveManager_Unload, %function
SaveManager_Unload:
.LVL150:
.LFB276:
	.loc 1 100 43 is_stmt 1 view -0
	.cfi_startproc
	@ args = 0, pretend = 0, frame = 40
	@ frame_needed = 0, uses_anonymous_args = 0
	.loc 1 101 2 view .LVU571
	.loc 1 102 2 view .LVU572
	.loc 1 100 43 is_stmt 0 view .LVU573
	push	{r4, r5, lr}
	.cfi_def_cfa_offset 12
	.cfi_offset 4, -12
	.cfi_offset 5, -8
	.cfi_offset 14, -4
	mov	r5, r0
	sub	sp, sp, #44
	.cfi_def_cfa_offset 56
	.loc 1 102 2 view .LVU574
	mov	r0, sp
	ldr	r1, .L145
	bl	mpack_writer_init_file
.LVL151:
	.loc 1 103 2 is_stmt 1 view .LVU575
	mov	r1, #3
	mov	r0, sp
	bl	mpack_start_map
.LVL152:
	.loc 1 105 2 view .LVU576
	mov	r0, sp
	ldr	r1, .L145+4
	bl	mpack_write_cstr
.LVL153:
	.loc 1 106 2 view .LVU577
	.loc 1 106 38 is_stmt 0 view .LVU578
	ldr	r1, [r5, #4]
	.loc 1 106 2 view .LVU579
	mov	r0, sp
	add	r1, r1, #4
	bl	mpack_write_cstr
.LVL154:
	.loc 1 108 2 is_stmt 1 view .LVU580
	mov	r0, sp
	ldr	r1, .L145+8
	bl	mpack_write_cstr
.LVL155:
	.loc 1 109 2 view .LVU581
	mov	r1, #1
	mov	r0, sp
	bl	mpack_start_array
.LVL156:
	.loc 1 110 2 view .LVU582
	mov	r1, #9
	mov	r0, sp
	bl	mpack_start_map
.LVL157:
	.loc 1 112 2 view .LVU583
	ldr	r1, .L145+12
	mov	r0, sp
	bl	mpack_write_cstr
.LVL158:
	.loc 1 113 2 view .LVU584
	ldr	r3, [r5]
	mov	r0, sp
	vldr.32	s0, [r3]
	bl	mpack_write_float
.LVL159:
	.loc 1 114 2 view .LVU585
	ldr	r1, .L145+16
	mov	r0, sp
	bl	mpack_write_cstr
.LVL160:
	.loc 1 115 2 view .LVU586
	ldr	r3, [r5]
	mov	r0, sp
	vldr.32	s0, [r3, #4]
	bl	mpack_write_float
.LVL161:
	.loc 1 116 2 view .LVU587
	ldr	r1, .L145+20
	mov	r0, sp
	bl	mpack_write_cstr
.LVL162:
	.loc 1 117 2 view .LVU588
	ldr	r3, [r5]
	mov	r0, sp
	vldr.32	s0, [r3, #8]
	bl	mpack_write_float
.LVL163:
	.loc 1 118 2 view .LVU589
	ldr	r1, .L145+24
	mov	r0, sp
	bl	mpack_write_cstr
.LVL164:
	.loc 1 119 2 view .LVU590
.LBB417:
.LBI417:
	.loc 2 1750 13 view .LVU591
.LBB418:
	.loc 2 1751 5 view .LVU592
.LBE418:
.LBE417:
	.loc 1 119 37 is_stmt 0 view .LVU593
	ldr	r3, [r5]
.LBB421:
.LBB419:
	.loc 2 1751 5 view .LVU594
	mov	r0, sp
.LBE419:
.LBE421:
	.loc 1 119 2 view .LVU595
	ldr	r2, [r3, #84]
.LBB422:
.LBB420:
	.loc 2 1751 5 view .LVU596
	asr	r3, r2, #31
	bl	mpack_write_i64
.LVL165:
	.loc 2 1751 5 view .LVU597
.LBE420:
.LBE422:
	.loc 1 120 2 is_stmt 1 view .LVU598
	ldr	r1, .L145+28
	mov	r0, sp
	bl	mpack_write_cstr
.LVL166:
	.loc 1 121 2 view .LVU599
.LBB423:
.LBI423:
	.loc 2 1750 13 view .LVU600
.LBB424:
	.loc 2 1751 5 view .LVU601
.LBE424:
.LBE423:
	.loc 1 121 37 is_stmt 0 view .LVU602
	ldr	r3, [r5]
.LBB427:
.LBB425:
	.loc 2 1751 5 view .LVU603
	mov	r0, sp
.LBE425:
.LBE427:
	.loc 1 121 2 view .LVU604
	ldr	r2, [r3, #96]
.LBB428:
.LBB426:
	.loc 2 1751 5 view .LVU605
	asr	r3, r2, #31
	bl	mpack_write_i64
.LVL167:
	.loc 2 1751 5 view .LVU606
.LBE426:
.LBE428:
	.loc 1 128 2 is_stmt 1 view .LVU607
	ldr	r1, .L145+32
	mov	r0, sp
	bl	mpack_write_cstr
.LVL168:
	.loc 1 129 2 view .LVU608
	ldr	r3, [r5]
	mov	r0, sp
	vldr.32	s0, [r3, #12]
	bl	mpack_write_float
.LVL169:
	.loc 1 130 2 view .LVU609
	ldr	r1, .L145+36
	mov	r0, sp
	bl	mpack_write_cstr
.LVL170:
	.loc 1 131 2 view .LVU610
	ldr	r3, [r5]
	mov	r0, sp
	vldr.32	s0, [r3, #16]
	bl	mpack_write_float
.LVL171:
	.loc 1 133 2 view .LVU611
	mov	r0, sp
	ldr	r1, .L145+40
	bl	mpack_write_cstr
.LVL172:
	.loc 1 134 2 view .LVU612
	ldr	r3, [r5]
	mov	r0, sp
	ldrb	r1, [r3, #35]	@ zero_extendqisi2
	bl	mpack_write_bool
.LVL173:
	.loc 1 136 2 view .LVU613
	mov	r0, sp
	ldr	r1, .L145+44
	bl	mpack_write_cstr
.LVL174:
	.loc 1 137 2 view .LVU614
	ldr	r3, [r5]
	mov	r0, sp
	ldrb	r1, [r3, #36]	@ zero_extendqisi2
	bl	mpack_write_bool
.LVL175:
	.loc 1 139 2 view .LVU615
	.loc 1 140 2 view .LVU616
	.loc 1 142 2 view .LVU617
	ldr	r1, .L145+48
	mov	r0, sp
	bl	mpack_write_cstr
.LVL176:
	.loc 1 143 2 view .LVU618
.LBB429:
.LBI429:
	.loc 2 1767 13 view .LVU619
.LBB430:
	.loc 2 1768 5 view .LVU620
.LBE430:
.LBE429:
	.loc 1 143 51 is_stmt 0 view .LVU621
	ldr	r2, [r5, #4]
.LBB432:
.LBB431:
	.loc 2 1768 5 view .LVU622
	mov	r3, #0
	mov	r0, sp
	ldrb	r2, [r2, #24]	@ zero_extendqisi2
	bl	mpack_write_u64
.LVL177:
	.loc 2 1768 5 view .LVU623
.LBE431:
.LBE432:
	.loc 1 145 2 is_stmt 1 view .LVU624
	.loc 1 145 22 is_stmt 0 view .LVU625
	mov	r0, sp
	bl	mpack_writer_destroy
.LVL178:
	.loc 1 146 2 is_stmt 1 view .LVU626
	.loc 1 146 5 is_stmt 0 view .LVU627
	subs	r1, r0, #0
	bne	.L144
.LVL179:
.L136:
.LBB433:
	.loc 1 150 20 is_stmt 1 discriminator 1 view .LVU628
	ldr	r3, [r5, #12]
	cmp	r3, #0
	ble	.L137
	.loc 1 150 20 is_stmt 0 view .LVU629
	mov	r4, #0
.LVL180:
.L138:
	.loc 1 151 3 is_stmt 1 discriminator 3 view .LVU630
	ldr	r3, [r5, #8]
	ldr	r0, [r3, r4, lsl #2]
	bl	SuperChunk_Deinit
.LVL181:
	.loc 1 152 3 discriminator 3 view .LVU631
	ldr	r3, [r5, #8]
	ldr	r0, [r3, r4, lsl #2]
	bl	free
.LVL182:
	.loc 1 150 48 discriminator 3 view .LVU632
	.loc 1 150 20 is_stmt 0 discriminator 3 view .LVU633
	ldr	r3, [r5, #12]
	.loc 1 150 48 discriminator 3 view .LVU634
	add	r4, r4, #1
.LVL183:
	.loc 1 150 20 is_stmt 1 discriminator 3 view .LVU635
	cmp	r3, r4
	bgt	.L138
.LVL184:
.L137:
	.loc 1 150 20 is_stmt 0 discriminator 3 view .LVU636
.LBE433:
	.loc 1 154 2 is_stmt 1 view .LVU637
	.loc 1 154 31 is_stmt 0 view .LVU638
	mov	r3, #0
	str	r3, [r5, #12]
	.loc 1 155 1 view .LVU639
	add	sp, sp, #44
	.cfi_remember_state
	.cfi_def_cfa_offset 12
	@ sp needed
	pop	{r4, r5, pc}
.LVL185:
.L144:
	.cfi_restore_state
	.loc 1 147 3 is_stmt 1 view .LVU640
	ldr	r0, .L145+52
.LVL186:
	.loc 1 147 3 is_stmt 0 view .LVU641
	bl	Crash
.LVL187:
	b	.L136
.L146:
	.align	2
.L145:
	.word	.LC4
	.word	.LC5
	.word	.LC7
	.word	.LC8
	.word	.LC9
	.word	.LC10
	.word	.LC11
	.word	.LC12
	.word	.LC13
	.word	.LC14
	.word	.LC15
	.word	.LC16
	.word	.LC6
	.word	.LC18
	.cfi_endproc
.LFE276:
	.size	SaveManager_Unload, .-SaveManager_Unload
	.section	.text.SaveManager_LoadChunk,"ax",%progbits
	.align	2
	.global	SaveManager_LoadChunk
	.syntax unified
	.arm
	.fpu vfp
	.type	SaveManager_LoadChunk, %function
SaveManager_LoadChunk:
.LVL188:
.LFB278:
	.loc 1 170 75 is_stmt 1 view -0
	.cfi_startproc
	@ args = 4, pretend = 0, frame = 16
	@ frame_needed = 0, uses_anonymous_args = 0
	.loc 1 170 75 is_stmt 0 view .LVU643
	push	{r4, lr}
	.cfi_def_cfa_offset 8
	.cfi_offset 4, -8
	.cfi_offset 14, -4
	sub	sp, sp, #16
	.cfi_def_cfa_offset 24
	.loc 1 173 10 view .LVU644
	ldr	ip, [r2, #20]
	.loc 1 170 75 view .LVU645
	add	r0, sp, #16
	stmdb	r0, {r1, r2, r3}
	.loc 1 172 10 view .LVU646
	ldr	r1, [r2, #16]
.LBB434:
.LBB435:
	.file 3 "/home/tobi/Dokumente/Craftus-Next/include/world/savegame/SuperChunk.h"
	.loc 3 25 61 view .LVU647
	add	r3, ip, ip, lsr #31
.LBE435:
.LBE434:
.LBB440:
.LBB441:
	add	r0, r1, r1, lsr #31
.LVL189:
	.loc 3 25 61 view .LVU648
.LBE441:
.LBE440:
.LBB445:
.LBB436:
	.loc 3 25 77 view .LVU649
	cmp	r3, #0
	mov	r4, r2
.LVL190:
	.loc 3 25 77 view .LVU650
.LBE436:
.LBE445:
	.loc 1 171 2 is_stmt 1 view .LVU651
	.loc 1 172 2 view .LVU652
.LBB446:
.LBI440:
	.loc 3 25 19 view .LVU653
.LBB442:
	.loc 3 25 51 view .LVU654
	.loc 3 25 51 is_stmt 0 view .LVU655
.LBE442:
.LBE446:
	.loc 1 173 2 is_stmt 1 view .LVU656
.LBB447:
.LBI434:
	.loc 3 25 19 view .LVU657
.LBB437:
	.loc 3 25 51 view .LVU658
	.loc 3 25 51 is_stmt 0 view .LVU659
.LBE437:
.LBE447:
	.loc 1 174 2 is_stmt 1 view .LVU660
.LBB448:
.LBB438:
	.loc 3 25 77 is_stmt 0 view .LVU661
	add	r2, r3, #7
.LVL191:
	.loc 3 25 77 view .LVU662
	movge	r2, r3
.LBE438:
.LBE448:
.LBB449:
.LBB443:
	cmp	r0, #0
	add	r3, r0, #7
	movge	r3, r0
.LBE443:
.LBE449:
.LBB450:
.LBB439:
	asr	r2, r2, #3
.LBE439:
.LBE450:
.LBB451:
.LBB444:
	asr	r3, r3, #3
.LBE444:
.LBE451:
	.loc 1 174 27 view .LVU663
	sub	r1, r3, r1, lsr #31
.LVL192:
	.loc 1 174 27 view .LVU664
	ldr	r0, [sp, #24]
	sub	r2, r2, ip, lsr #31
	bl	fetchSuperChunk
.LVL193:
	.loc 1 176 2 is_stmt 1 view .LVU665
	mov	r1, r4
	.loc 1 177 1 is_stmt 0 view .LVU666
	add	sp, sp, #16
	.cfi_def_cfa_offset 8
	@ sp needed
	pop	{r4, lr}
	.cfi_restore 14
	.cfi_restore 4
	.cfi_def_cfa_offset 0
.LVL194:
	.loc 1 176 2 view .LVU667
	b	SuperChunk_LoadChunk
.LVL195:
	.loc 1 176 2 view .LVU668
	.cfi_endproc
.LFE278:
	.size	SaveManager_LoadChunk, .-SaveManager_LoadChunk
	.section	.text.SaveManager_SaveChunk,"ax",%progbits
	.align	2
	.global	SaveManager_SaveChunk
	.syntax unified
	.arm
	.fpu vfp
	.type	SaveManager_SaveChunk, %function
SaveManager_SaveChunk:
.LVL196:
.LFB279:
	.loc 1 178 75 is_stmt 1 view -0
	.cfi_startproc
	@ args = 4, pretend = 0, frame = 16
	@ frame_needed = 0, uses_anonymous_args = 0
	.loc 1 178 75 is_stmt 0 view .LVU670
	push	{r4, lr}
	.cfi_def_cfa_offset 8
	.cfi_offset 4, -8
	.cfi_offset 14, -4
	sub	sp, sp, #16
	.cfi_def_cfa_offset 24
	.loc 1 181 10 view .LVU671
	ldr	ip, [r2, #20]
	.loc 1 178 75 view .LVU672
	add	r0, sp, #16
	stmdb	r0, {r1, r2, r3}
	.loc 1 180 10 view .LVU673
	ldr	r1, [r2, #16]
.LBB452:
.LBB453:
	.loc 3 25 61 view .LVU674
	add	r3, ip, ip, lsr #31
.LBE453:
.LBE452:
.LBB458:
.LBB459:
	add	r0, r1, r1, lsr #31
.LVL197:
	.loc 3 25 61 view .LVU675
.LBE459:
.LBE458:
.LBB463:
.LBB454:
	.loc 3 25 77 view .LVU676
	cmp	r3, #0
	mov	r4, r2
.LVL198:
	.loc 3 25 77 view .LVU677
.LBE454:
.LBE463:
	.loc 1 179 2 is_stmt 1 view .LVU678
	.loc 1 180 2 view .LVU679
.LBB464:
.LBI458:
	.loc 3 25 19 view .LVU680
.LBB460:
	.loc 3 25 51 view .LVU681
	.loc 3 25 51 is_stmt 0 view .LVU682
.LBE460:
.LBE464:
	.loc 1 181 2 is_stmt 1 view .LVU683
.LBB465:
.LBI452:
	.loc 3 25 19 view .LVU684
.LBB455:
	.loc 3 25 51 view .LVU685
	.loc 3 25 51 is_stmt 0 view .LVU686
.LBE455:
.LBE465:
	.loc 1 183 2 is_stmt 1 view .LVU687
.LBB466:
.LBB456:
	.loc 3 25 77 is_stmt 0 view .LVU688
	add	r2, r3, #7
.LVL199:
	.loc 3 25 77 view .LVU689
	movge	r2, r3
.LBE456:
.LBE466:
.LBB467:
.LBB461:
	cmp	r0, #0
	add	r3, r0, #7
	movge	r3, r0
.LBE461:
.LBE467:
.LBB468:
.LBB457:
	asr	r2, r2, #3
.LBE457:
.LBE468:
.LBB469:
.LBB462:
	asr	r3, r3, #3
.LBE462:
.LBE469:
	.loc 1 183 27 view .LVU690
	sub	r1, r3, r1, lsr #31
.LVL200:
	.loc 1 183 27 view .LVU691
	ldr	r0, [sp, #24]
	sub	r2, r2, ip, lsr #31
	bl	fetchSuperChunk
.LVL201:
	.loc 1 185 2 is_stmt 1 view .LVU692
	mov	r1, r4
	.loc 1 186 1 is_stmt 0 view .LVU693
	add	sp, sp, #16
	.cfi_def_cfa_offset 8
	@ sp needed
	pop	{r4, lr}
	.cfi_restore 14
	.cfi_restore 4
	.cfi_def_cfa_offset 0
.LVL202:
	.loc 1 185 2 view .LVU694
	b	SuperChunk_SaveChunk
.LVL203:
	.loc 1 185 2 view .LVU695
	.cfi_endproc
.LFE279:
	.size	SaveManager_SaveChunk, .-SaveManager_SaveChunk
	.text
.Letext0:
	.file 4 "/opt/devkitpro/devkitARM/arm-none-eabi/include/machine/_default_types.h"
	.file 5 "/opt/devkitpro/devkitARM/lib/gcc/arm-none-eabi/11.2.0/include/stddef.h"
	.file 6 "/opt/devkitpro/devkitARM/arm-none-eabi/include/machine/_types.h"
	.file 7 "/opt/devkitpro/devkitARM/arm-none-eabi/include/sys/_types.h"
	.file 8 "/opt/devkitpro/devkitARM/arm-none-eabi/include/sys/reent.h"
	.file 9 "/opt/devkitpro/devkitARM/arm-none-eabi/include/sys/_stdint.h"
	.file 10 "/opt/devkitpro/devkitARM/arm-none-eabi/include/sys/lock.h"
	.file 11 "/opt/devkitpro/devkitARM/arm-none-eabi/include/sys/types.h"
	.file 12 "/opt/devkitpro/devkitARM/arm-none-eabi/include/stdio.h"
	.file 13 "/home/tobi/Dokumente/Craftus-Next/include/world/Direction.h"
	.file 14 "/home/tobi/Dokumente/Craftus-Next/include/blocks/Block.h"
	.file 15 "/home/tobi/Dokumente/Craftus-Next/include/misc/Xorshift.h"
	.file 16 "/home/tobi/Dokumente/Craftus-Next/include/rendering/VBOCache.h"
	.file 17 "/home/tobi/Dokumente/Craftus-Next/include/world/Chunk.h"
	.file 18 "/opt/devkitpro/libctru/include/3ds/types.h"
	.file 19 "/opt/devkitpro/libctru/include/3ds/synchronization.h"
	.file 20 "/home/tobi/Dokumente/Craftus-Next/include/world/WorkQueue.h"
	.file 21 "/home/tobi/Dokumente/Craftus-Next/include/world/World.h"
	.file 22 "/home/tobi/Dokumente/Craftus-Next/include/inventory/ItemStack.h"
	.file 23 "/home/tobi/Dokumente/Craftus-Next/include/misc/VecMath.h"
	.file 24 "/home/tobi/Dokumente/Craftus-Next/include/misc/Raycast.h"
	.file 25 "/home/tobi/Dokumente/Craftus-Next/include/entity/Player.h"
	.file 26 "/home/tobi/Dokumente/Craftus-Next/include/world/savegame/SaveManager.h"
	.file 27 "/opt/devkitpro/libctru/include/3ds/svc.h"
	.file 28 "/home/tobi/Dokumente/Craftus-Next/dependencies/vec/vec.h"
	.file 29 "/opt/devkitpro/devkitARM/arm-none-eabi/include/stdlib.h"
	.file 30 "/home/tobi/Dokumente/Craftus-Next/include/misc/Crash.h"
	.file 31 "/opt/devkitpro/devkitARM/arm-none-eabi/include/sys/unistd.h"
	.file 32 "/opt/devkitpro/devkitARM/arm-none-eabi/include/string.h"
	.file 33 "/opt/devkitpro/devkitARM/arm-none-eabi/include/sys/stat.h"