	.arch armv6k
	.eabi_attribute 28, 1
	.eabi_attribute 20, 1
	.eabi_attribute 21, 1
	.eabi_attribute 23, 3
	.eabi_attribute 24, 1
	.eabi_attribute 25, 1
	.eabi_attribute 26, 1
	.eabi_attribute 30, 2
	.eabi_attribute 34, 1
	.eabi_attribute 18, 4
	.file	"sino.c"
	.text
.Ltext0:
	.cfi_sections	.debug_frame
	.section	.text.sino_init,"ax",%progbits
	.align	2
	.global	sino_init
	.syntax unified
	.arm
	.fpu vfp
	.type	sino_init, %function
sino_init:
.LFB0:
	.file 1 "/home/tobi/Dokumente/Craftus-Next/dependencies/sino/sino.c"
	.loc 1 66 1 view -0
	.cfi_startproc
	@ args = 0, pretend = 0, frame = 0
	@ frame_needed = 0, uses_anonymous_args = 0
	.loc 1 68 2 view .LVU1
	.loc 1 66 1 is_stmt 0 view .LVU2
	push	{r4, r5, r6, r7, r8, lr}
	.cfi_def_cfa_offset 24
	.cfi_offset 4, -24
	.cfi_offset 5, -20
	.cfi_offset 6, -16
	.cfi_offset 7, -12
	.cfi_offset 8, -8
	.cfi_offset 14, -4
	.loc 1 68 18 view .LVU3
	mov	r0, #1024
	bl	malloc
.LVL0:
	mov	r4, r0
	.loc 1 68 7 view .LVU4
	ldr	r7, .L7
	.loc 1 69 23 view .LVU5
	mov	r0, #1024
	.loc 1 68 7 view .LVU6
	str	r4, [r7]
	.loc 1 69 2 is_stmt 1 view .LVU7
	.loc 1 69 23 is_stmt 0 view .LVU8
	bl	malloc
.LVL1:
	.loc 1 69 12 view .LVU9
	mov	r2, #151
.LBB44:
	.loc 1 70 11 view .LVU10
	mov	r1, #0
	.loc 1 73 20 view .LVU11
	ldr	r5, .L7+4
	.loc 1 72 24 view .LVU12
	ldr	r6, .L7+8
	sub	r4, r4, #2
.LBE44:
	.loc 1 69 12 view .LVU13
	str	r0, [r7, #4]
	.loc 1 70 2 is_stmt 1 view .LVU14
.LBB45:
	.loc 1 70 7 view .LVU15
.LVL2:
	.loc 1 70 17 view .LVU16
	sub	lr, r0, #2
.LVL3:
.L3:
	.loc 1 72 3 discriminator 3 view .LVU17
	.loc 1 73 20 is_stmt 0 discriminator 3 view .LVU18
	smull	r3, r0, r5, r2
	asr	r3, r2, #31
	rsb	r3, r3, r0, asr #1
	.loc 1 70 24 discriminator 3 view .LVU19
	add	r1, r1, #1
.LVL4:
	.loc 1 73 20 discriminator 3 view .LVU20
	add	r3, r3, r3, lsl #1
	.loc 1 72 28 discriminator 3 view .LVU21
	uxtb	ip, r1
	.loc 1 73 20 discriminator 3 view .LVU22
	sub	r3, r2, r3, lsl #2
	.loc 1 70 17 discriminator 3 view .LVU23
	cmp	r1, #512
	.loc 1 72 24 discriminator 3 view .LVU24
	lsl	ip, ip, #1
	.loc 1 72 11 discriminator 3 view .LVU25
	strh	r2, [r4, #2]!	@ movhi
	.loc 1 73 3 is_stmt 1 discriminator 3 view .LVU26
	.loc 1 73 18 is_stmt 0 discriminator 3 view .LVU27
	strh	r3, [lr, #2]!	@ movhi
	.loc 1 70 24 is_stmt 1 discriminator 3 view .LVU28
	.loc 1 70 17 discriminator 3 view .LVU29
	popeq	{r4, r5, r6, r7, r8, pc}
	.loc 1 72 24 is_stmt 0 view .LVU30
	ldrsh	r2, [r6, ip]
	b	.L3
.L8:
	.align	2
.L7:
	.word	.LANCHOR0
	.word	715827883
	.word	.LANCHOR1
.LBE45:
	.cfi_endproc
.LFE0:
	.size	sino_init, .-sino_init
	.section	.text.sino_exit,"ax",%progbits
	.align	2
	.global	sino_exit
	.syntax unified
	.arm
	.fpu vfp
	.type	sino_exit, %function
sino_exit:
.LFB1:
	.loc 1 78 1 is_stmt 1 view -0
	.cfi_startproc
	@ args = 0, pretend = 0, frame = 0
	@ frame_needed = 0, uses_anonymous_args = 0
	.loc 1 79 2 view .LVU32
	.loc 1 78 1 is_stmt 0 view .LVU33
	push	{r4, lr}
	.cfi_def_cfa_offset 8
	.cfi_offset 4, -8
	.cfi_offset 14, -4
	.loc 1 79 2 view .LVU34
	ldr	r4, .L11
	ldr	r0, [r4]
	bl	free
.LVL5:
	.loc 1 80 2 is_stmt 1 view .LVU35
	ldr	r0, [r4, #4]
	bl	free
.LVL6:
	.loc 1 81 2 view .LVU36
	.loc 1 81 7 is_stmt 0 view .LVU37
	mov	r3, #0
	str	r3, [r4]
	.loc 1 82 2 is_stmt 1 view .LVU38
	.loc 1 82 12 is_stmt 0 view .LVU39
	str	r3, [r4, #4]
	.loc 1 83 1 view .LVU40
	pop	{r4, pc}
.L12:
	.align	2
.L11:
	.word	.LANCHOR0
	.cfi_endproc
.LFE1:
	.size	sino_exit, .-sino_exit
	.section	.text.sino_2d,"ax",%progbits
	.align	2
	.global	sino_2d
	.syntax unified
	.arm
	.fpu vfp
	.type	sino_2d, %function
sino_2d:
.LVL7:
.LFB6:
	.loc 1 120 1 is_stmt 1 view -0
	.cfi_startproc
	@ args = 0, pretend = 0, frame = 0
	@ frame_needed = 0, uses_anonymous_args = 0
	.loc 1 121 5 view .LVU42
	.loc 1 123 5 view .LVU43
	.loc 1 123 22 is_stmt 0 view .LVU44
	vadd.f32	s14, s0, s1
	.loc 1 123 30 view .LVU45
	vldr.64	d6, .L32
	.loc 1 123 22 view .LVU46
	vcvt.f64.f32	d7, s14
	.loc 1 123 30 view .LVU47
	vmul.f64	d7, d7, d6
	.loc 1 123 12 view .LVU48
	vcvt.f32.f64	s14, d7
.LVL8:
	.loc 1 124 5 is_stmt 1 view .LVU49
	.loc 1 124 13 is_stmt 0 view .LVU50
	vadd.f32	s15, s0, s14
.LVL9:
.LBB46:
.LBI46:
	.loc 1 112 23 is_stmt 1 view .LVU51
.LBB47:
	.loc 1 114 2 view .LVU52
	.loc 1 114 6 is_stmt 0 view .LVU53
	vcvt.s32.f32	s13, s15
	.loc 1 115 10 view .LVU54
	vcvt.f32.s32	s12, s13
	.loc 1 115 21 view .LVU55
	vcmpe.f32	s15, s12
	.loc 1 114 6 view .LVU56
	vmov	r2, s13	@ int
.LVL10:
	.loc 1 115 2 is_stmt 1 view .LVU57
	.loc 1 115 21 is_stmt 0 view .LVU58
	vmrs	APSR_nzcv, FPSCR
	submi	r2, r2, #1
.LVL11:
	.loc 1 115 21 view .LVU59
.LBE47:
.LBE46:
	.loc 1 127 18 view .LVU60
	vmovmi	s15, r2	@ int
.LVL12:
	.loc 1 125 13 view .LVU61
	vadd.f32	s14, s1, s14
.LVL13:
	.loc 1 127 18 view .LVU62
	vcvtmi.f32.s32	s12, s15
.LVL14:
	.loc 1 125 5 is_stmt 1 view .LVU63
.LBB48:
.LBI48:
	.loc 1 112 23 view .LVU64
.LBB49:
	.loc 1 114 2 view .LVU65
	.loc 1 114 6 is_stmt 0 view .LVU66
	vcvt.s32.f32	s15, s14
	.loc 1 115 10 view .LVU67
	vcvt.f32.s32	s13, s15
	.loc 1 115 21 view .LVU68
	vcmpe.f32	s14, s13
	.loc 1 114 6 view .LVU69
	vmov	r3, s15	@ int
.LVL15:
	.loc 1 115 2 is_stmt 1 view .LVU70
	.loc 1 115 21 is_stmt 0 view .LVU71
	vmrs	APSR_nzcv, FPSCR
	submi	r3, r3, #1
.LVL16:
	.loc 1 115 21 view .LVU72
.LBE49:
.LBE48:
	.loc 1 126 19 view .LVU73
	add	r1, r3, r2
	.loc 1 128 18 view .LVU74
	vmovmi	s15, r3	@ int
.LVL17:
	.loc 1 126 19 view .LVU75
	vmov	s14, r1	@ int
.LVL18:
	.loc 1 126 24 view .LVU76
	vldr.64	d5, .L32+8
	.loc 1 128 18 view .LVU77
	vcvtmi.f32.s32	s13, s15
.LVL19:
	.loc 1 126 5 is_stmt 1 view .LVU78
	.loc 1 126 24 is_stmt 0 view .LVU79
	vcvt.f64.s32	d7, s14
	vmul.f64	d7, d7, d5
	.loc 1 126 12 view .LVU80
	vcvt.f32.f64	s14, d7
.LVL20:
	.loc 1 127 5 is_stmt 1 view .LVU81
	.loc 1 128 5 view .LVU82
	.loc 1 129 5 view .LVU83
	.loc 1 127 12 is_stmt 0 view .LVU84
	vsub.f32	s12, s12, s14
.LVL21:
	.loc 1 128 12 view .LVU85
	vsub.f32	s13, s13, s14
.LVL22:
	.loc 1 129 12 view .LVU86
	vsub.f32	s0, s0, s12
.LVL23:
	.loc 1 130 5 is_stmt 1 view .LVU87
	.loc 1 130 12 is_stmt 0 view .LVU88
	vsub.f32	s1, s1, s13
.LVL24:
	.loc 1 133 5 is_stmt 1 view .LVU89
	.loc 1 134 5 view .LVU90
	.loc 1 150 25 is_stmt 0 view .LVU91
	vmul.f32	s2, s0, s0
	.loc 1 134 7 view .LVU92
	vcmpe.f32	s0, s1
	.loc 1 150 21 view .LVU93
	vldr.64	d6, .L32+16
.LVL25:
	.loc 1 150 31 view .LVU94
	vmul.f32	s4, s1, s1
	.loc 1 150 25 view .LVU95
	vcvt.f64.f32	d1, s2
	.loc 1 134 7 view .LVU96
	vmrs	APSR_nzcv, FPSCR
	.loc 1 150 31 view .LVU97
	vcvt.f64.f32	d2, s4
	.loc 1 150 21 view .LVU98
	vsub.f64	d6, d6, d1
	.loc 1 139 20 view .LVU99
	vldrgt.32	s10, .L32+40
	.loc 1 140 20 view .LVU100
	vldrle.32	s14, .L32+40
.LVL26:
	.loc 1 150 28 view .LVU101
	vsub.f64	d6, d6, d2
	.loc 1 120 1 view .LVU102
	push	{r4, r5, lr}
	.cfi_def_cfa_offset 12
	.cfi_offset 4, -12
	.cfi_offset 5, -8
	.cfi_offset 14, -4
	.loc 1 139 20 view .LVU103
	vmovgt.f32	s14, s1
	.loc 1 120 1 view .LVU104
	vpush.64	{d8, d9}
	.cfi_def_cfa_offset 28
	.cfi_offset 80, -28
	.cfi_offset 81, -24
	.cfi_offset 82, -20
	.cfi_offset 83, -16
	.loc 1 139 20 view .LVU105
	vsubgt.f32	s10, s0, s10
	.loc 1 135 12 is_stmt 1 view .LVU106
.LVL27:
	.loc 1 135 18 view .LVU107
	.loc 1 140 20 is_stmt 0 view .LVU108
	vmovle.f32	s10, s0
	vsuble.f32	s14, s1, s14
	.loc 1 141 20 view .LVU109
	vldr.64	d8, .L32+24
	vcvt.f64.f32	d3, s0
	.loc 1 142 20 view .LVU110
	vcvt.f64.f32	d4, s1
	.loc 1 150 12 view .LVU111
	vcvt.f32.f64	s12, d6
	.loc 1 139 25 view .LVU112
	vldr.64	d9, .L32+8
.LVL28:
	.loc 1 141 26 view .LVU113
	vldr.64	d2, .L32+32
	.loc 1 139 20 view .LVU114
	vcvt.f64.f32	d5, s10
	.loc 1 140 20 view .LVU115
	vcvt.f64.f32	d7, s14
	.loc 1 141 20 view .LVU116
	vsub.f64	d3, d3, d8
	.loc 1 142 20 view .LVU117
	vsub.f64	d4, d4, d8
	.loc 1 151 7 view .LVU118
	vcmpe.f32	s12, #0
	.loc 1 139 25 view .LVU119
	vadd.f64	d5, d5, d9
	.loc 1 134 27 view .LVU120
	movgt	ip, #0
	.loc 1 134 21 view .LVU121
	movgt	r1, #1
.LVL29:
	.loc 1 135 20 view .LVU122
	movle	ip, #1
.LVL30:
	.loc 1 135 14 view .LVU123
	movle	r1, #0
.LVL31:
	.loc 1 139 5 is_stmt 1 view .LVU124
	.loc 1 140 25 is_stmt 0 view .LVU125
	vadd.f64	d7, d7, d9
	.loc 1 141 26 view .LVU126
	vadd.f64	d3, d3, d2
	.loc 1 142 26 view .LVU127
	vadd.f64	d4, d4, d2
	.loc 1 151 7 view .LVU128
	vmrs	APSR_nzcv, FPSCR
	.loc 1 146 24 view .LVU129
	ldr	lr, .L32+52
	.loc 1 139 12 view .LVU130
	vcvt.f32.f64	s11, d5
.LVL32:
	.loc 1 140 5 is_stmt 1 view .LVU131
	.loc 1 140 12 is_stmt 0 view .LVU132
	vcvt.f32.f64	s15, d7
.LVL33:
	.loc 1 141 5 is_stmt 1 view .LVU133
	.loc 1 141 12 is_stmt 0 view .LVU134
	vcvt.f32.f64	s10, d3
.LVL34:
	.loc 1 142 5 is_stmt 1 view .LVU135
	.loc 1 142 12 is_stmt 0 view .LVU136
	vcvt.f32.f64	s9, d4
.LVL35:
	.loc 1 144 5 is_stmt 1 view .LVU137
	.loc 1 146 24 is_stmt 0 view .LVU138
	ldr	r0, [lr, #4]
	.loc 1 146 33 view .LVU139
	ldr	r4, [lr]
	.loc 1 144 9 view .LVU140
	uxtb	r2, r2
.LVL36:
	.loc 1 145 5 is_stmt 1 view .LVU141
	.loc 1 145 9 is_stmt 0 view .LVU142
	uxtb	r3, r3
.LVL37:
	.loc 1 146 5 is_stmt 1 view .LVU143
	.loc 1 147 5 view .LVU144
	.loc 1 148 5 view .LVU145
	.loc 1 150 5 view .LVU146
	.loc 1 151 5 view .LVU147
	.loc 1 151 7 is_stmt 0 view .LVU148
	bmi	.L24
	.loc 1 146 33 view .LVU149
	lsl	lr, r3, #1
.LVL38:
	.loc 1 146 33 view .LVU150
	ldrsh	lr, [r4, lr]
.LVL39:
	.loc 1 153 10 view .LVU151
	vmul.f32	s12, s12, s12
.LVL40:
	.loc 1 146 24 view .LVU152
	add	lr, lr, r2
	lsl	lr, lr, #1
	.loc 1 146 9 view .LVU153
	ldrsh	r5, [r0, lr]
	.loc 1 153 7 is_stmt 1 view .LVU154
.LVL41:
	.loc 1 154 7 view .LVU155
.LBB50:
.LBI50:
	.loc 1 94 26 view .LVU156
.LBB51:
	.loc 1 96 2 view .LVU157
	.loc 1 96 12 is_stmt 0 view .LVU158
	ldr	lr, .L32+56
.LBE51:
.LBE50:
	.loc 1 154 15 view .LVU159
	vmul.f32	s12, s12, s12
.LVL42:
.LBB53:
.LBB52:
	.loc 1 96 12 view .LVU160
	add	lr, lr, r5, lsl #4
	.loc 1 96 20 view .LVU161
	vldr.32	s13, [lr, #516]
.LVL43:
	.loc 1 96 12 view .LVU162
	vldr.32	s14, [lr, #512]
	.loc 1 96 20 view .LVU163
	vmul.f32	s1, s1, s13
.LVL44:
	.loc 1 96 15 view .LVU164
	vmla.f32	s1, s0, s14
.LBE52:
.LBE53:
	.loc 1 154 10 view .LVU165
	vmul.f32	s1, s1, s12
.LVL45:
.L21:
	.loc 1 156 5 is_stmt 1 view .LVU166
	.loc 1 156 25 is_stmt 0 view .LVU167
	vmul.f32	s4, s11, s11
	.loc 1 156 21 view .LVU168
	vldr.64	d6, .L32+16
	.loc 1 156 31 view .LVU169
	vmul.f32	s6, s15, s15
	.loc 1 156 25 view .LVU170
	vcvt.f64.f32	d2, s4
	.loc 1 156 31 view .LVU171
	vcvt.f64.f32	d3, s6
	.loc 1 156 21 view .LVU172
	vsub.f64	d6, d6, d2
	.loc 1 156 28 view .LVU173
	vsub.f64	d6, d6, d3
	.loc 1 156 12 view .LVU174
	vcvt.f32.f64	s12, d6
.LVL46:
	.loc 1 157 5 is_stmt 1 view .LVU175
	.loc 1 157 7 is_stmt 0 view .LVU176
	vcmpe.f32	s12, #0
	vmrs	APSR_nzcv, FPSCR
	bmi	.L25
	.loc 1 147 36 view .LVU177
	add	ip, ip, r3
.LVL47:
	.loc 1 147 36 view .LVU178
	lsl	ip, ip, #1
	ldrsh	ip, [r4, ip]
	.loc 1 147 24 view .LVU179
	add	r1, r1, r2
.LVL48:
	.loc 1 147 24 view .LVU180
	add	r1, r1, ip
	lsl	r1, r1, #1
	.loc 1 147 9 view .LVU181
	ldrsh	ip, [r0, r1]
	.loc 1 159 7 is_stmt 1 view .LVU182
.LBB54:
.LBB55:
	.loc 1 96 12 is_stmt 0 view .LVU183
	ldr	r1, .L32+56
.LBE55:
.LBE54:
	.loc 1 159 10 view .LVU184
	vmul.f32	s12, s12, s12
.LVL49:
	.loc 1 160 7 is_stmt 1 view .LVU185
.LBB58:
.LBI54:
	.loc 1 94 26 view .LVU186
.LBB56:
	.loc 1 96 2 view .LVU187
	.loc 1 96 12 is_stmt 0 view .LVU188
	add	r1, r1, ip, lsl #4
	.loc 1 96 20 view .LVU189
	vldr.32	s13, [r1, #516]
	.loc 1 96 12 view .LVU190
	vldr.32	s14, [r1, #512]
	.loc 1 96 20 view .LVU191
	vmul.f32	s15, s15, s13
.LVL50:
	.loc 1 96 20 view .LVU192
.LBE56:
.LBE58:
	.loc 1 160 15 view .LVU193
	vmul.f32	s12, s12, s12
.LVL51:
.LBB59:
.LBB57:
	.loc 1 96 15 view .LVU194
	vmla.f32	s15, s11, s14
.LBE57:
.LBE59:
	.loc 1 160 10 view .LVU195
	vmul.f32	s12, s15, s12
.LVL52:
.L22:
	.loc 1 162 5 is_stmt 1 view .LVU196
	.loc 1 162 25 is_stmt 0 view .LVU197
	vmul.f32	s4, s10, s10
	.loc 1 162 21 view .LVU198
	vldr.64	d7, .L32+16
	.loc 1 162 31 view .LVU199
	vmul.f32	s6, s9, s9
	.loc 1 162 25 view .LVU200
	vcvt.f64.f32	d2, s4
	.loc 1 162 31 view .LVU201
	vcvt.f64.f32	d3, s6
	.loc 1 162 21 view .LVU202
	vsub.f64	d7, d7, d2
	.loc 1 162 28 view .LVU203
	vsub.f64	d7, d7, d3
	.loc 1 162 12 view .LVU204
	vcvt.f32.f64	s14, d7
.LVL53:
	.loc 1 163 5 is_stmt 1 view .LVU205
	.loc 1 163 7 is_stmt 0 view .LVU206
	vcmpe.f32	s14, #0
	vmrs	APSR_nzcv, FPSCR
	bmi	.L26
	.loc 1 148 35 view .LVU207
	add	r3, r4, r3, lsl #1
.LVL54:
	.loc 1 148 35 view .LVU208
	ldrsh	r1, [r3, #2]
.LBB60:
.LBB61:
	.loc 1 96 12 view .LVU209
	ldr	r3, .L32+56
.LBE61:
.LBE60:
	.loc 1 148 24 view .LVU210
	add	r2, r2, r1
.LVL55:
	.loc 1 148 24 view .LVU211
	add	r0, r0, r2, lsl #1
.LVL56:
	.loc 1 148 9 view .LVU212
	ldrsh	r2, [r0, #2]
	.loc 1 165 7 is_stmt 1 view .LVU213
	.loc 1 165 10 is_stmt 0 view .LVU214
	vmul.f32	s14, s14, s14
.LVL57:
	.loc 1 166 7 is_stmt 1 view .LVU215
.LBB64:
.LBI60:
	.loc 1 94 26 view .LVU216
.LBB62:
	.loc 1 96 2 view .LVU217
	.loc 1 96 12 is_stmt 0 view .LVU218
	add	r3, r3, r2, lsl #4
	.loc 1 96 20 view .LVU219
	vldr.32	s13, [r3, #516]
	.loc 1 96 12 view .LVU220
	vldr.32	s15, [r3, #512]
	.loc 1 96 20 view .LVU221
	vmul.f32	s13, s9, s13
.LBE62:
.LBE64:
	.loc 1 166 15 view .LVU222
	vmul.f32	s14, s14, s14
.LVL58:
.LBB65:
.LBB63:
	.loc 1 96 15 view .LVU223
	vmla.f32	s13, s10, s15
.LBE63:
.LBE65:
	.loc 1 166 10 view .LVU224
	vmul.f32	s14, s13, s14
.LVL59:
.L23:
	.loc 1 170 5 is_stmt 1 view .LVU225
	.loc 1 171 1 is_stmt 0 view .LVU226
	vldm	sp!, {d8-d9}
	.cfi_remember_state
	.cfi_restore 82
	.cfi_restore 83
	.cfi_restore 80
	.cfi_restore 81
	.cfi_def_cfa_offset 12
.LVL60:
	.loc 1 170 24 view .LVU227
	vadd.f32	s1, s1, s12
.LVL61:
	.loc 1 170 17 view .LVU228
	vldr.32	s0, .L32+44
.LVL62:
	.loc 1 170 29 view .LVU229
	vadd.f32	s1, s1, s14
	.loc 1 171 1 view .LVU230
	vmul.f32	s0, s1, s0
	pop	{r4, r5, pc}
.LVL63:
.L24:
	.cfi_restore_state
	.loc 1 151 17 view .LVU231
	vldr.32	s1, .L32+48
.LVL64:
	.loc 1 151 17 view .LVU232
	b	.L21
.LVL65:
.L26:
	.loc 1 163 17 view .LVU233
	vldr.32	s14, .L32+48
.LVL66:
	.loc 1 163 17 view .LVU234
	b	.L23
.LVL67:
.L25:
	.loc 1 157 17 view .LVU235
	vldr.32	s12, .L32+48
.LVL68:
	.loc 1 157 17 view .LVU236
	b	.L22
.L33:
	.align	3
.L32:
	.word	-793732780
	.word	1071082741
	.word	1960810952
	.word	1070271665
	.word	0
	.word	1071644672
	.word	0
	.word	1072693248
	.word	1960810952
	.word	1071320241
	.word	1065353216
	.word	1116471296
	.word	0
	.word	.LANCHOR0
	.word	.LANCHOR1
	.cfi_endproc
.LFE6:
	.size	sino_2d, .-sino_2d
	.section	.text.sino_3d,"ax",%progbits
	.align	2
	.global	sino_3d
	.syntax unified
	.arm
	.fpu vfp
	.type	sino_3d, %function
sino_3d:
.LVL69:
.LFB7:
	.loc 1 175 1 is_stmt 1 view -0
	.cfi_startproc
	@ args = 0, pretend = 0, frame = 0
	@ frame_needed = 0, uses_anonymous_args = 0
	.loc 1 176 5 view .LVU238
	.loc 1 178 5 view .LVU239
	.loc 1 178 21 is_stmt 0 view .LVU240
	vadd.f32	s14, s0, s1
	.loc 1 178 25 view .LVU241
	vadd.f32	s14, s14, s2
	.loc 1 178 31 view .LVU242
	vldr.64	d6, .L72
	.loc 1 178 25 view .LVU243
	vcvt.f64.f32	d7, s14
	.loc 1 178 31 view .LVU244
	vmul.f64	d7, d7, d6
	.loc 1 178 12 view .LVU245
	vcvt.f32.f64	s14, d7
.LVL70:
	.loc 1 179 5 is_stmt 1 view .LVU246
	.loc 1 179 13 is_stmt 0 view .LVU247
	vadd.f32	s15, s0, s14
.LVL71:
.LBB66:
.LBI66:
	.loc 1 112 23 is_stmt 1 view .LVU248
.LBB67:
	.loc 1 114 2 view .LVU249
	.loc 1 114 6 is_stmt 0 view .LVU250
	vcvt.s32.f32	s13, s15
	.loc 1 115 10 view .LVU251
	vcvt.f32.s32	s11, s13
	.loc 1 115 21 view .LVU252
	vcmpe.f32	s15, s11
	.loc 1 114 6 view .LVU253
	vmov	r0, s13	@ int
.LVL72:
	.loc 1 115 2 is_stmt 1 view .LVU254
	.loc 1 115 21 is_stmt 0 view .LVU255
	vmrs	APSR_nzcv, FPSCR
	submi	r0, r0, #1
.LVL73:
	.loc 1 115 21 view .LVU256
.LBE67:
.LBE66:
	.loc 1 183 18 view .LVU257
	vmovmi	s15, r0	@ int
.LVL74:
	.loc 1 183 18 view .LVU258
	vcvtmi.f32.s32	s11, s15
.LVL75:
	.loc 1 180 5 is_stmt 1 view .LVU259
	.loc 1 180 13 is_stmt 0 view .LVU260
	vadd.f32	s15, s1, s14
.LVL76:
.LBB68:
.LBI68:
	.loc 1 112 23 is_stmt 1 view .LVU261
.LBB69:
	.loc 1 114 2 view .LVU262
	.loc 1 114 6 is_stmt 0 view .LVU263
	vcvt.s32.f32	s13, s15
	.loc 1 115 10 view .LVU264
	vcvt.f32.s32	s12, s13
	.loc 1 115 21 view .LVU265
	vcmpe.f32	s15, s12
	.loc 1 114 6 view .LVU266
	vmov	r2, s13	@ int
.LVL77:
	.loc 1 115 2 is_stmt 1 view .LVU267
	.loc 1 115 21 is_stmt 0 view .LVU268
	vmrs	APSR_nzcv, FPSCR
	submi	r2, r2, #1
.LVL78:
	.loc 1 115 21 view .LVU269
.LBE69:
.LBE68:
	.loc 1 181 13 view .LVU270
	vadd.f32	s14, s2, s14
.LVL79:
	.loc 1 184 18 view .LVU271
	vmovmi	s15, r2	@ int
.LVL80:
	.loc 1 184 18 view .LVU272
	vcvtmi.f32.s32	s12, s15
.LVL81:
	.loc 1 181 5 is_stmt 1 view .LVU273
.LBB70:
.LBI70:
	.loc 1 112 23 view .LVU274
.LBB71:
	.loc 1 114 2 view .LVU275
	.loc 1 114 6 is_stmt 0 view .LVU276
	vcvt.s32.f32	s15, s14
	.loc 1 115 10 view .LVU277
	vcvt.f32.s32	s13, s15
	.loc 1 115 21 view .LVU278
	vcmpe.f32	s14, s13
	.loc 1 114 6 view .LVU279
	vmov	r1, s15	@ int
.LVL82:
	.loc 1 115 2 is_stmt 1 view .LVU280
	.loc 1 115 21 is_stmt 0 view .LVU281
	vmrs	APSR_nzcv, FPSCR
.LBE71:
.LBE70:
	.loc 1 182 19 view .LVU282
	add	r3, r2, r0
.LBB73:
.LBB72:
	.loc 1 115 21 view .LVU283
	submi	r1, r1, #1
.LVL83:
	.loc 1 115 21 view .LVU284
.LBE72:
.LBE73:
	.loc 1 182 21 view .LVU285
	add	r3, r3, r1
	.loc 1 185 18 view .LVU286
	vmovmi	s15, r1	@ int
.LVL84:
	.loc 1 182 21 view .LVU287
	vmov	s14, r3	@ int
.LVL85:
	.loc 1 185 18 view .LVU288
	vcvtmi.f32.s32	s13, s15
.LVL86:
	.loc 1 182 5 is_stmt 1 view .LVU289
	.loc 1 182 25 is_stmt 0 view .LVU290
	vldr.64	d4, .L72+8
	vcvt.f64.s32	d7, s14
	vmul.f64	d7, d7, d4
	.loc 1 182 12 view .LVU291
	vcvt.f32.f64	s14, d7
.LVL87:
	.loc 1 183 5 is_stmt 1 view .LVU292
	.loc 1 184 5 view .LVU293
	.loc 1 185 5 view .LVU294
	.loc 1 186 5 view .LVU295
	.loc 1 183 12 is_stmt 0 view .LVU296
	vsub.f32	s11, s11, s14
.LVL88:
	.loc 1 184 12 view .LVU297
	vsub.f32	s12, s12, s14
.LVL89:
	.loc 1 186 12 view .LVU298
	vsub.f32	s0, s0, s11
.LVL90:
	.loc 1 187 5 is_stmt 1 view .LVU299
	.loc 1 187 12 is_stmt 0 view .LVU300
	vsub.f32	s1, s1, s12
.LVL91:
	.loc 1 188 5 is_stmt 1 view .LVU301
	.loc 1 185 12 is_stmt 0 view .LVU302
	vsub.f32	s13, s13, s14
.LVL92:
	.loc 1 193 7 view .LVU303
	vcmpe.f32	s0, s1
	.loc 1 188 12 view .LVU304
	vsub.f32	s2, s2, s13
.LVL93:
	.loc 1 191 5 is_stmt 1 view .LVU305
	.loc 1 192 5 view .LVU306
	.loc 1 193 5 view .LVU307
	.loc 1 193 7 is_stmt 0 view .LVU308
	vmrs	APSR_nzcv, FPSCR
	.loc 1 175 1 view .LVU309
	push	{r4, r5, r6, r7, r8, r9, r10, lr}
	.cfi_def_cfa_offset 32
	.cfi_offset 4, -32
	.cfi_offset 5, -28
	.cfi_offset 6, -24
	.cfi_offset 7, -20
	.cfi_offset 8, -16
	.cfi_offset 9, -12
	.cfi_offset 10, -8
	.cfi_offset 14, -4
	.loc 1 194 9 view .LVU310
	vcmpe.f32	s1, s2
	.loc 1 175 1 view .LVU311
	vpush.64	{d8, d9, d10, d11, d12, d13}
	.cfi_def_cfa_offset 80
	.cfi_offset 80, -80
	.cfi_offset 81, -76
	.cfi_offset 82, -72
	.cfi_offset 83, -68
	.cfi_offset 84, -64
	.cfi_offset 85, -60
	.cfi_offset 86, -56
	.cfi_offset 87, -52
	.cfi_offset 88, -48
	.cfi_offset 89, -44
	.cfi_offset 90, -40
	.cfi_offset 91, -36
	.loc 1 193 7 view .LVU312
	blt	.L66
	.loc 1 194 7 is_stmt 1 view .LVU313
	.loc 1 211 20 is_stmt 0 view .LVU314
	vldr.32	s14, .L72+16
.LVL94:
	.loc 1 194 9 view .LVU315
	vmrs	APSR_nzcv, FPSCR
	.loc 1 211 20 view .LVU316
	vsub.f32	s8, s0, s14
.LVL95:
	.loc 1 194 9 view .LVU317
	blt	.L67
	.loc 1 195 43 view .LVU318
	mov	lr, #0
	.loc 1 195 37 view .LVU319
	mov	ip, #1
	.loc 1 212 20 view .LVU320
	vsub.f32	s14, s1, s14
	vmov.f32	s22, s2
	vmov.f32	s10, s2
	vmov.f32	s12, s1
.LVL96:
	.loc 1 212 20 view .LVU321
	vmov.f32	s16, s8
	.loc 1 195 25 view .LVU322
	mov	r8, lr
	.loc 1 195 31 view .LVU323
	mov	r4, ip
	.loc 1 195 19 view .LVU324
	mov	r7, lr
	.loc 1 195 13 view .LVU325
	mov	r6, ip
	b	.L45
.L73:
	.align	3
.L72:
	.word	1431655765
	.word	1070945621
	.word	1431655765
	.word	1069897045
	.word	1065353216
.LVL97:
.L66:
	.loc 1 200 7 is_stmt 1 view .LVU326
	.loc 1 212 20 is_stmt 0 view .LVU327
	vldr.32	s10, .L72+16
	.loc 1 200 9 view .LVU328
	vmrs	APSR_nzcv, FPSCR
	.loc 1 212 20 view .LVU329
	vsub.f32	s14, s1, s10
.LVL98:
	.loc 1 200 9 view .LVU330
	bpl	.L68
	.loc 1 200 51 view .LVU331
	mov	lr, #1
	.loc 1 200 39 view .LVU332
	mov	r4, #0
	.loc 1 210 20 view .LVU333
	vsub.f32	s10, s2, s10
	vmov.f32	s8, s0
.LVL99:
	.loc 1 210 20 view .LVU334
	vmov.f32	s12, s1
.LVL100:
	.loc 1 210 20 view .LVU335
	vmov.f32	s16, s0
	.loc 1 200 45 view .LVU336
	mov	ip, lr
	.loc 1 210 20 view .LVU337
	vmov.f32	s22, s10
	.loc 1 200 33 view .LVU338
	mov	r8, lr
	.loc 1 200 27 view .LVU339
	mov	r7, r4
	.loc 1 200 21 view .LVU340
	mov	r6, r4
.L45:
.LVL101:
	.loc 1 208 5 is_stmt 1 view .LVU341
	.loc 1 208 25 is_stmt 0 view .LVU342
	vldr.64	d13, .L74
.LVL102:
	.loc 1 209 20 view .LVU343
	vcvt.f64.f32	d6, s12
	.loc 1 226 25 view .LVU344
	vmul.f32	s24, s0, s0
	.loc 1 209 25 view .LVU345
	vadd.f64	d6, d6, d13
	.loc 1 226 33 view .LVU346
	vmul.f32	s20, s1, s1
	.loc 1 209 12 view .LVU347
	vcvt.f32.f64	s3, d6
	.loc 1 226 25 view .LVU348
	vcvt.f64.f32	d12, s24
	.loc 1 226 21 view .LVU349
	vldr.64	d6, .L74+8
	.loc 1 226 33 view .LVU350
	vcvt.f64.f32	d10, s20
	.loc 1 226 41 view .LVU351
	vmul.f32	s18, s2, s2
	.loc 1 226 21 view .LVU352
	vsub.f64	d6, d6, d12
	.loc 1 226 41 view .LVU353
	vcvt.f64.f32	d9, s18
	.loc 1 226 29 view .LVU354
	vsub.f64	d6, d6, d10
	.loc 1 214 20 view .LVU355
	vldr.64	d2, .L74+16
	.loc 1 226 37 view .LVU356
	vsub.f64	d6, d6, d9
	.loc 1 216 20 view .LVU357
	vcvt.f64.f32	d10, s2
	.loc 1 214 20 view .LVU358
	vcvt.f64.f32	d3, s0
	.loc 1 215 20 view .LVU359
	vcvt.f64.f32	d9, s1
	.loc 1 214 20 view .LVU360
	vsub.f64	d3, d3, d2
	.loc 1 213 20 view .LVU361
	vcvt.f64.f32	d11, s22
	.loc 1 215 20 view .LVU362
	vsub.f64	d9, d9, d2
	.loc 1 211 20 view .LVU363
	vcvt.f64.f32	d4, s8
	.loc 1 216 20 view .LVU364
	vsub.f64	d2, d10, d2
	.loc 1 212 20 view .LVU365
	vcvt.f64.f32	d7, s14
	.loc 1 211 25 view .LVU366
	vldr.64	d10, .L74+24
.LVL103:
	.loc 1 226 12 view .LVU367
	vcvt.f32.f64	s12, d6
	.loc 1 211 25 view .LVU368
	vadd.f64	d4, d4, d10
	.loc 1 212 25 view .LVU369
	vadd.f64	d7, d7, d10
	.loc 1 208 20 view .LVU370
	vcvt.f64.f32	d8, s16
	.loc 1 213 25 view .LVU371
	vadd.f64	d10, d11, d10
.LVL104:
	.loc 1 210 20 view .LVU372
	vcvt.f64.f32	d5, s10
	.loc 1 214 26 view .LVU373
	vldr.64	d11, .L74+32
	.loc 1 227 7 view .LVU374
	vcmpe.f32	s12, #0
	.loc 1 208 25 view .LVU375
	vadd.f64	d8, d8, d13
	.loc 1 210 25 view .LVU376
	vadd.f64	d5, d5, d13
	.loc 1 214 26 view .LVU377
	vadd.f64	d3, d3, d11
	.loc 1 215 26 view .LVU378
	vadd.f64	d9, d9, d11
	.loc 1 216 26 view .LVU379
	vadd.f64	d2, d2, d11
	.loc 1 227 7 view .LVU380
	vmrs	APSR_nzcv, FPSCR
	.loc 1 218 9 view .LVU381
	uxtb	r3, r0
.LVL105:
	.loc 1 221 24 view .LVU382
	ldr	r0, .L74+48
.LVL106:
	.loc 1 210 12 view .LVU383
	vcvt.f32.f64	s10, d5
	.loc 1 221 32 view .LVU384
	ldm	r0, {r0, r5}
	.loc 1 208 12 view .LVU385
	vcvt.f32.f64	s16, d8
.LVL107:
	.loc 1 209 5 is_stmt 1 view .LVU386
	.loc 1 210 5 view .LVU387
	.loc 1 211 5 view .LVU388
	.loc 1 211 12 is_stmt 0 view .LVU389
	vcvt.f32.f64	s8, d4
.LVL108:
	.loc 1 212 5 is_stmt 1 view .LVU390
	.loc 1 212 12 is_stmt 0 view .LVU391
	vcvt.f32.f64	s14, d7
.LVL109:
	.loc 1 213 5 is_stmt 1 view .LVU392
	.loc 1 213 12 is_stmt 0 view .LVU393
	vcvt.f32.f64	s20, d10
.LVL110:
	.loc 1 214 5 is_stmt 1 view .LVU394
	.loc 1 214 12 is_stmt 0 view .LVU395
	vcvt.f32.f64	s6, d3
.LVL111:
	.loc 1 215 5 is_stmt 1 view .LVU396
	.loc 1 215 12 is_stmt 0 view .LVU397
	vcvt.f32.f64	s18, d9
.LVL112:
	.loc 1 216 5 is_stmt 1 view .LVU398
	.loc 1 216 12 is_stmt 0 view .LVU399
	vcvt.f32.f64	s4, d2
.LVL113:
	.loc 1 218 5 is_stmt 1 view .LVU400
	.loc 1 219 5 view .LVU401
	.loc 1 219 9 is_stmt 0 view .LVU402
	uxtb	r2, r2
.LVL114:
	.loc 1 220 5 is_stmt 1 view .LVU403
	.loc 1 220 9 is_stmt 0 view .LVU404
	uxtb	r1, r1
.LVL115:
	.loc 1 221 5 is_stmt 1 view .LVU405
	.loc 1 222 5 view .LVU406
	.loc 1 223 5 view .LVU407
	.loc 1 224 5 view .LVU408
	.loc 1 226 5 view .LVU409
	.loc 1 227 5 view .LVU410
	.loc 1 227 7 is_stmt 0 view .LVU411
	bmi	.L55
	.loc 1 221 40 view .LVU412
	lsl	r9, r1, #1
.LVL116:
	.loc 1 221 40 view .LVU413
	ldrsh	r9, [r0, r9]
.LVL117:
	.loc 1 229 10 view .LVU414
	vmul.f32	s12, s12, s12
.LVL118:
	.loc 1 221 32 view .LVU415
	add	r9, r9, r2
	lsl	r9, r9, #1
	ldrsh	r9, [r0, r9]
	.loc 1 230 15 view .LVU416
	vmul.f32	s12, s12, s12
	.loc 1 221 24 view .LVU417
	add	r9, r9, r3
	lsl	r9, r9, #1
	.loc 1 221 9 view .LVU418
	ldrsh	r10, [r5, r9]
	.loc 1 229 7 is_stmt 1 view .LVU419
.LVL119:
	.loc 1 230 7 view .LVU420
.LBB74:
.LBI74:
	.loc 1 100 26 view .LVU421
.LBB75:
	.loc 1 102 2 view .LVU422
	.loc 1 102 12 is_stmt 0 view .LVU423
	ldr	r9, .L74+52
	add	r9, r9, r10, lsl #4
	.loc 1 102 20 view .LVU424
	vldr.32	s11, [r9, #516]
.LVL120:
	.loc 1 102 12 view .LVU425
	vldr.32	s13, [r9, #512]
.LVL121:
	.loc 1 102 20 view .LVU426
	vmul.f32	s1, s1, s11
.LVL122:
	.loc 1 102 28 view .LVU427
	vldr.32	s15, [r9, #520]
.LVL123:
	.loc 1 102 15 view .LVU428
	vmla.f32	s1, s0, s13
	.loc 1 102 23 view .LVU429
	vmla.f32	s1, s2, s15
.LBE75:
.LBE74:
	.loc 1 230 10 view .LVU430
	vmul.f32	s1, s1, s12
.LVL124:
.L50:
	.loc 1 232 5 is_stmt 1 view .LVU431
	.loc 1 232 25 is_stmt 0 view .LVU432
	vmul.f32	s26, s16, s16
.LVL125:
	.loc 1 232 21 view .LVU433
	vldr.64	d6, .L74+8
	.loc 1 232 33 view .LVU434
	vmul.f32	s24, s3, s3
	.loc 1 232 25 view .LVU435
	vcvt.f64.f32	d13, s26
	.loc 1 232 41 view .LVU436
	vmul.f32	s22, s10, s10
	.loc 1 232 33 view .LVU437
	vcvt.f64.f32	d12, s24
	.loc 1 232 21 view .LVU438
	vsub.f64	d6, d6, d13
	.loc 1 232 41 view .LVU439
	vcvt.f64.f32	d11, s22
	.loc 1 232 29 view .LVU440
	vsub.f64	d6, d6, d12
	.loc 1 232 37 view .LVU441
	vsub.f64	d6, d6, d11
	.loc 1 232 12 view .LVU442
	vcvt.f32.f64	s12, d6
.LVL126:
	.loc 1 233 5 is_stmt 1 view .LVU443
	.loc 1 233 7 is_stmt 0 view .LVU444
	vcmpe.f32	s12, #0
	vmrs	APSR_nzcv, FPSCR
	bmi	.L56
	.loc 1 222 46 view .LVU445
	add	r8, r8, r1
.LVL127:
	.loc 1 222 46 view .LVU446
	lsl	r8, r8, #1
	ldrsh	r8, [r0, r8]
	.loc 1 222 35 view .LVU447
	add	r7, r7, r2
.LVL128:
	.loc 1 222 35 view .LVU448
	add	r7, r7, r8
	lsl	r7, r7, #1
	ldrsh	r7, [r0, r7]
	.loc 1 222 24 view .LVU449
	add	r6, r6, r3
.LVL129:
	.loc 1 222 24 view .LVU450
	add	r6, r6, r7
	lsl	r6, r6, #1
	.loc 1 222 9 view .LVU451
	ldrsh	r7, [r5, r6]
	.loc 1 235 7 is_stmt 1 view .LVU452
.LBB76:
.LBB77:
	.loc 1 102 12 is_stmt 0 view .LVU453
	ldr	r6, .L74+52
.LBE77:
.LBE76:
	.loc 1 235 10 view .LVU454
	vmul.f32	s12, s12, s12
.LVL130:
	.loc 1 236 7 is_stmt 1 view .LVU455
.LBB80:
.LBI76:
	.loc 1 100 26 view .LVU456
.LBB78:
	.loc 1 102 2 view .LVU457
	.loc 1 102 12 is_stmt 0 view .LVU458
	add	r6, r6, r7, lsl #4
	.loc 1 102 20 view .LVU459
	vldr.32	s11, [r6, #516]
	.loc 1 102 12 view .LVU460
	vldr.32	s13, [r6, #512]
	.loc 1 102 20 view .LVU461
	vmul.f32	s3, s3, s11
.LVL131:
	.loc 1 102 28 view .LVU462
	vldr.32	s15, [r6, #520]
	.loc 1 102 15 view .LVU463
	vmla.f32	s3, s16, s13
.LBE78:
.LBE80:
	.loc 1 236 15 view .LVU464
	vmul.f32	s12, s12, s12
.LVL132:
.LBB81:
.LBB79:
	.loc 1 102 23 view .LVU465
	vmla.f32	s3, s10, s15
.LBE79:
.LBE81:
	.loc 1 236 10 view .LVU466
	vmul.f32	s12, s3, s12
.LVL133:
.L51:
	.loc 1 238 5 is_stmt 1 view .LVU467
	.loc 1 238 25 is_stmt 0 view .LVU468
	vmul.f32	s22, s8, s8
	.loc 1 238 21 view .LVU469
	vldr.64	d5, .L74+8
.LVL134:
	.loc 1 238 33 view .LVU470
	vmul.f32	s16, s14, s14
.LVL135:
	.loc 1 238 25 view .LVU471
	vcvt.f64.f32	d11, s22
	.loc 1 238 41 view .LVU472
	vmul.f32	s2, s20, s20
.LVL136:
	.loc 1 238 33 view .LVU473
	vcvt.f64.f32	d8, s16
	.loc 1 238 21 view .LVU474
	vsub.f64	d5, d5, d11
	.loc 1 238 41 view .LVU475
	vcvt.f64.f32	d1, s2
	.loc 1 238 29 view .LVU476
	vsub.f64	d5, d5, d8
	.loc 1 238 37 view .LVU477
	vsub.f64	d5, d5, d1
	.loc 1 238 12 view .LVU478
	vcvt.f32.f64	s10, d5
.LVL137:
	.loc 1 239 5 is_stmt 1 view .LVU479
	.loc 1 239 7 is_stmt 0 view .LVU480
	vcmpe.f32	s10, #0
	vmrs	APSR_nzcv, FPSCR
	bmi	.L57
	.loc 1 223 46 view .LVU481
	add	lr, lr, r1
.LVL138:
	.loc 1 223 46 view .LVU482
	lsl	lr, lr, #1
	ldrsh	lr, [r0, lr]
	.loc 1 223 35 view .LVU483
	add	ip, ip, r2
.LVL139:
	.loc 1 223 35 view .LVU484
	add	ip, ip, lr
	lsl	ip, ip, #1
	ldrsh	ip, [r0, ip]
	.loc 1 223 24 view .LVU485
	add	r4, r4, r3
.LVL140:
	.loc 1 223 24 view .LVU486
	add	r4, r4, ip
	lsl	r4, r4, #1
	.loc 1 223 9 view .LVU487
	ldrsh	lr, [r5, r4]
	.loc 1 241 7 is_stmt 1 view .LVU488
.LBB82:
.LBB83:
	.loc 1 102 12 is_stmt 0 view .LVU489
	ldr	ip, .L74+52
.LBE83:
.LBE82:
	.loc 1 241 10 view .LVU490
	vmul.f32	s10, s10, s10
.LVL141:
	.loc 1 242 7 is_stmt 1 view .LVU491
.LBB86:
.LBI82:
	.loc 1 100 26 view .LVU492
.LBB84:
	.loc 1 102 2 view .LVU493
	.loc 1 102 12 is_stmt 0 view .LVU494
	add	ip, ip, lr, lsl #4
	.loc 1 102 20 view .LVU495
	vldr.32	s11, [ip, #516]
	.loc 1 102 12 view .LVU496
	vldr.32	s13, [ip, #512]
	.loc 1 102 20 view .LVU497
	vmul.f32	s14, s14, s11
.LVL142:
	.loc 1 102 28 view .LVU498
	vldr.32	s15, [ip, #520]
	.loc 1 102 15 view .LVU499
	vmla.f32	s14, s8, s13
.LBE84:
.LBE86:
	.loc 1 242 15 view .LVU500
	vmul.f32	s10, s10, s10
.LVL143:
.LBB87:
.LBB85:
	.loc 1 102 23 view .LVU501
	vmla.f32	s14, s20, s15
.LBE85:
.LBE87:
	.loc 1 242 10 view .LVU502
	vmul.f32	s13, s14, s10
.LVL144:
.L52:
	.loc 1 244 5 is_stmt 1 view .LVU503
	.loc 1 244 25 is_stmt 0 view .LVU504
	vmul.f32	s2, s6, s6
	.loc 1 244 21 view .LVU505
	vldr.64	d7, .L74+8
	.loc 1 244 33 view .LVU506
	vmul.f32	s8, s18, s18
.LVL145:
	.loc 1 244 25 view .LVU507
	vcvt.f64.f32	d1, s2
	.loc 1 244 41 view .LVU508
	vmul.f32	s10, s4, s4
	.loc 1 244 33 view .LVU509
	vcvt.f64.f32	d4, s8
	.loc 1 244 21 view .LVU510
	vsub.f64	d7, d7, d1
	.loc 1 244 41 view .LVU511
	vcvt.f64.f32	d5, s10
	.loc 1 244 29 view .LVU512
	vsub.f64	d7, d7, d4
	.loc 1 244 37 view .LVU513
	vsub.f64	d7, d7, d5
	.loc 1 244 12 view .LVU514
	vcvt.f32.f64	s14, d7
.LVL146:
	.loc 1 245 5 is_stmt 1 view .LVU515
	.loc 1 245 7 is_stmt 0 view .LVU516
	vcmpe.f32	s14, #0
	vmrs	APSR_nzcv, FPSCR
	bmi	.L58
	.loc 1 224 44 view .LVU517
	add	r1, r0, r1, lsl #1
.LVL147:
	.loc 1 224 44 view .LVU518
	ldrsh	r1, [r1, #2]
	.loc 1 247 10 view .LVU519
	vmul.f32	s14, s14, s14
.LVL148:
	.loc 1 224 34 view .LVU520
	add	r2, r2, r1
.LVL149:
	.loc 1 224 34 view .LVU521
	add	r0, r0, r2, lsl #1
	.loc 1 224 34 view .LVU522
	ldrsh	r1, [r0, #2]
.LBB88:
.LBB89:
	.loc 1 102 12 view .LVU523
	ldr	r2, .L74+52
.LBE89:
.LBE88:
	.loc 1 224 24 view .LVU524
	add	r3, r3, r1
.LVL150:
	.loc 1 224 24 view .LVU525
	add	r5, r5, r3, lsl #1
	.loc 1 224 9 view .LVU526
	ldrsh	r3, [r5, #2]
	.loc 1 247 7 is_stmt 1 view .LVU527
.LVL151:
	.loc 1 248 7 view .LVU528
.LBB92:
.LBI88:
	.loc 1 100 26 view .LVU529
.LBB90:
	.loc 1 102 2 view .LVU530
	.loc 1 102 2 is_stmt 0 view .LVU531
.LBE90:
.LBE92:
	.loc 1 248 15 view .LVU532
	vmul.f32	s14, s14, s14
.LVL152:
.LBB93:
.LBB91:
	.loc 1 102 12 view .LVU533
	add	r3, r2, r3, lsl #4
	.loc 1 102 20 view .LVU534
	vldr.32	s10, [r3, #516]
.LVL153:
	.loc 1 102 12 view .LVU535
	vldr.32	s11, [r3, #512]
	.loc 1 102 20 view .LVU536
	vmul.f32	s18, s18, s10
.LVL154:
	.loc 1 102 28 view .LVU537
	vldr.32	s15, [r3, #520]
	.loc 1 102 15 view .LVU538
	vmla.f32	s18, s6, s11
	.loc 1 102 23 view .LVU539
	vmla.f32	s18, s4, s15
.LBE91:
.LBE93:
	.loc 1 248 10 view .LVU540
	vmul.f32	s18, s18, s14
.LVL155:
.L53:
	.loc 1 252 5 is_stmt 1 view .LVU541
	.loc 1 252 24 is_stmt 0 view .LVU542
	vadd.f32	s1, s1, s12
.LVL156:
	.loc 1 252 29 view .LVU543
	vadd.f32	s1, s1, s13
	.loc 1 252 17 view .LVU544
	vldr.32	s0, .L74+40
.LVL157:
	.loc 1 252 34 view .LVU545
	vadd.f32	s1, s1, s18
	.loc 1 253 1 view .LVU546
	vldm	sp!, {d8-d13}
	.cfi_remember_state
	.cfi_restore 90
	.cfi_restore 91
	.cfi_restore 88
	.cfi_restore 89
	.cfi_restore 86
	.cfi_restore 87
	.cfi_restore 84
	.cfi_restore 85
	.cfi_restore 82
	.cfi_restore 83
	.cfi_restore 80
	.cfi_restore 81
	.cfi_def_cfa_offset 32
.LVL158:
	.loc 1 253 1 view .LVU547
	vmul.f32	s0, s1, s0
	pop	{r4, r5, r6, r7, r8, r9, r10, pc}
.LVL159:
.L68:
	.cfi_restore_state
	.loc 1 201 12 is_stmt 1 view .LVU548
	.loc 1 201 14 is_stmt 0 view .LVU549
	vcmpe.f32	s0, s2
	vmrs	APSR_nzcv, FPSCR
	bpl	.L69
	.loc 1 201 56 view .LVU550
	mov	lr, #1
	.loc 1 201 44 view .LVU551
	mov	r4, #0
	.loc 1 210 20 view .LVU552
	vsub.f32	s22, s2, s10
	vmov.f32	s8, s0
.LVL160:
	.loc 1 210 20 view .LVU553
	vmov.f32	s10, s2
	vmov.f32	s12, s14
.LVL161:
	.loc 1 210 20 view .LVU554
	vmov.f32	s16, s0
	.loc 1 201 50 view .LVU555
	mov	ip, lr
	.loc 1 201 32 view .LVU556
	mov	r7, lr
	.loc 1 201 38 view .LVU557
	mov	r8, r4
	.loc 1 201 26 view .LVU558
	mov	r6, r4
	b	.L45
.LVL162:
.L67:
	.loc 1 196 14 is_stmt 1 view .LVU559
	.loc 1 196 16 is_stmt 0 view .LVU560
	vcmpe.f32	s0, s2
	vmrs	APSR_nzcv, FPSCR
	.loc 1 210 20 view .LVU561
	vsub.f32	s22, s2, s14
	.loc 1 196 59 view .LVU562
	mov	lr, #1
	.loc 1 196 53 view .LVU563
	mov	ip, #0
	vmov.f32	s14, s1
	.loc 1 196 16 view .LVU564
	blt	.L71
	.loc 1 196 16 view .LVU565
	vmov.f32	s10, s2
	vmov.f32	s12, s1
.LVL163:
	.loc 1 196 16 view .LVU566
	vmov.f32	s16, s8
	.loc 1 196 47 view .LVU567
	mov	r4, lr
	.loc 1 196 41 view .LVU568
	mov	r8, ip
	.loc 1 196 35 view .LVU569
	mov	r7, ip
	.loc 1 196 29 view .LVU570
	mov	r6, lr
	b	.L45
.LVL164:
.L58:
	.loc 1 245 17 view .LVU571
	vldr.32	s18, .L74+44
.LVL165:
	.loc 1 245 17 view .LVU572
	b	.L53
.LVL166:
.L57:
	.loc 1 239 17 view .LVU573
	vldr.32	s13, .L74+44
	b	.L52
.LVL167:
.L56:
	.loc 1 233 17 view .LVU574
	vldr.32	s12, .L74+44
.LVL168:
	.loc 1 233 17 view .LVU575
	b	.L51
.LVL169:
.L55:
	.loc 1 227 17 view .LVU576
	vldr.32	s1, .L74+44
.LVL170:
	.loc 1 227 17 view .LVU577
	b	.L50
.LVL171:
.L71:
	.loc 1 196 16 view .LVU578
	vmov.f32	s10, s22
	vmov.f32	s12, s1
.LVL172:
	.loc 1 196 16 view .LVU579
	vmov.f32	s16, s0
	.loc 1 197 36 view .LVU580
	mov	r4, lr
	.loc 1 197 30 view .LVU581
	mov	r8, lr
	.loc 1 197 24 view .LVU582
	mov	r7, ip
	.loc 1 197 18 view .LVU583
	mov	r6, ip
	b	.L45
.LVL173:
.L69:
	.loc 1 202 14 is_stmt 1 view .LVU584
	.loc 1 202 20 view .LVU585
	.loc 1 202 26 view .LVU586
	.loc 1 202 32 view .LVU587
	.loc 1 202 38 view .LVU588
	.loc 1 202 44 view .LVU589
	.loc 1 202 46 is_stmt 0 view .LVU590
	mov	lr, #0
	.loc 1 202 40 view .LVU591
	mov	ip, #1
	.loc 1 211 20 view .LVU592
	vsub.f32	s8, s0, s10
.LVL174:
	.loc 1 211 20 view .LVU593
	vmov.f32	s22, s2
	vmov.f32	s10, s2
	vmov.f32	s12, s14
.LVL175:
	.loc 1 211 20 view .LVU594
	vmov.f32	s16, s0
	.loc 1 202 28 view .LVU595
	mov	r8, lr
	.loc 1 202 34 view .LVU596
	mov	r4, ip
	.loc 1 202 22 view .LVU597
	mov	r7, ip
	.loc 1 202 16 view .LVU598
	mov	r6, lr
	b	.L45
.L75:
	.align	3
.L74:
	.word	1431655765
	.word	1069897045
	.word	858993459
	.word	1071854387
	.word	0
	.word	1072693248
	.word	1431655765
	.word	1070945621
	.word	0
	.word	1071644672
	.word	1107296256
	.word	0
	.word	.LANCHOR0
	.word	.LANCHOR1
	.cfi_endproc
.LFE7:
	.size	sino_3d, .-sino_3d
	.section	.text.sino_4d,"ax",%progbits
	.align	2
	.global	sino_4d
	.syntax unified
	.arm
	.fpu vfp
	.type	sino_4d, %function
sino_4d:
.LVL176:
.LFB8:
	.loc 1 257 1 is_stmt 1 view -0
	.cfi_startproc
	@ args = 0, pretend = 0, frame = 56
	@ frame_needed = 0, uses_anonymous_args = 0
	.loc 1 258 5 view .LVU600
	.loc 1 260 5 view .LVU601
	.loc 1 260 19 is_stmt 0 view .LVU602
	vadd.f32	s14, s0, s1
	.loc 1 260 23 view .LVU603
	vadd.f32	s14, s14, s2
	.loc 1 260 27 view .LVU604
	vadd.f32	s14, s14, s3
	.loc 1 260 32 view .LVU605
	vldr.64	d6, .L127
	.loc 1 260 27 view .LVU606
	vcvt.f64.f32	d7, s14
	.loc 1 260 32 view .LVU607
	vmul.f64	d7, d7, d6
	.loc 1 260 12 view .LVU608
	vcvt.f32.f64	s14, d7
.LVL177:
	.loc 1 261 5 is_stmt 1 view .LVU609
	.loc 1 261 13 is_stmt 0 view .LVU610
	vadd.f32	s15, s0, s14
.LVL178:
.LBB94:
.LBI94:
	.loc 1 112 23 is_stmt 1 view .LVU611
.LBB95:
	.loc 1 114 2 view .LVU612
	.loc 1 114 6 is_stmt 0 view .LVU613
	vcvt.s32.f32	s13, s15
	.loc 1 115 10 view .LVU614
	vcvt.f32.s32	s10, s13
	.loc 1 115 21 view .LVU615
	vcmpe.f32	s15, s10
	.loc 1 114 6 view .LVU616
	vmov	ip, s13	@ int
.LVL179:
	.loc 1 115 2 is_stmt 1 view .LVU617
	.loc 1 115 21 is_stmt 0 view .LVU618
	vmrs	APSR_nzcv, FPSCR
	submi	ip, ip, #1
.LVL180:
	.loc 1 115 21 view .LVU619
.LBE95:
.LBE94:
	.loc 1 266 19 view .LVU620
	vmovmi	s15, ip	@ int
.LVL181:
	.loc 1 266 19 view .LVU621
	vcvtmi.f32.s32	s10, s15
.LVL182:
	.loc 1 262 5 is_stmt 1 view .LVU622
	.loc 1 262 13 is_stmt 0 view .LVU623
	vadd.f32	s15, s1, s14
.LVL183:
.LBB96:
.LBI96:
	.loc 1 112 23 is_stmt 1 view .LVU624
.LBB97:
	.loc 1 114 2 view .LVU625
	.loc 1 114 6 is_stmt 0 view .LVU626
	vcvt.s32.f32	s13, s15
	.loc 1 115 10 view .LVU627
	vcvt.f32.s32	s11, s13
	.loc 1 115 21 view .LVU628
	vcmpe.f32	s15, s11
	.loc 1 114 6 view .LVU629
	vmov	r2, s13	@ int
.LVL184:
	.loc 1 115 2 is_stmt 1 view .LVU630
	.loc 1 115 21 is_stmt 0 view .LVU631
	vmrs	APSR_nzcv, FPSCR
	submi	r2, r2, #1
.LVL185:
	.loc 1 115 21 view .LVU632
.LBE97:
.LBE96:
	.loc 1 267 19 view .LVU633
	vmovmi	s15, r2	@ int
.LVL186:
	.loc 1 267 19 view .LVU634
	vcvtmi.f32.s32	s11, s15
.LVL187:
	.loc 1 263 5 is_stmt 1 view .LVU635
	.loc 1 263 13 is_stmt 0 view .LVU636
	vadd.f32	s15, s2, s14
.LVL188:
.LBB98:
.LBI98:
	.loc 1 112 23 is_stmt 1 view .LVU637
.LBB99:
	.loc 1 114 2 view .LVU638
	.loc 1 114 6 is_stmt 0 view .LVU639
	vcvt.s32.f32	s13, s15
	.loc 1 115 10 view .LVU640
	vcvt.f32.s32	s12, s13
	.loc 1 115 21 view .LVU641
	vcmpe.f32	s15, s12
	.loc 1 114 6 view .LVU642
	vmov	r1, s13	@ int
.LVL189:
	.loc 1 115 2 is_stmt 1 view .LVU643
	.loc 1 115 21 is_stmt 0 view .LVU644
	vmrs	APSR_nzcv, FPSCR
	submi	r1, r1, #1
.LVL190:
	.loc 1 115 21 view .LVU645
.LBE99:
.LBE98:
	.loc 1 268 19 view .LVU646
	vmovmi	s15, r1	@ int
.LVL191:
	.loc 1 264 13 view .LVU647
	vadd.f32	s14, s3, s14
.LVL192:
	.loc 1 268 19 view .LVU648
	vcvtmi.f32.s32	s12, s15
.LVL193:
	.loc 1 264 5 is_stmt 1 view .LVU649
.LBB100:
.LBI100:
	.loc 1 112 23 view .LVU650
.LBB101:
	.loc 1 114 2 view .LVU651
	.loc 1 114 6 is_stmt 0 view .LVU652
	vcvt.s32.f32	s15, s14
	.loc 1 115 10 view .LVU653
	vcvt.f32.s32	s13, s15
	.loc 1 115 21 view .LVU654
	vcmpe.f32	s14, s13
.LBE101:
.LBE100:
	.loc 1 257 1 view .LVU655
	push	{r4, r5, r6, r7, r8, r9, r10, fp, lr}
	.cfi_def_cfa_offset 36
	.cfi_offset 4, -36
	.cfi_offset 5, -32
	.cfi_offset 6, -28
	.cfi_offset 7, -24
	.cfi_offset 8, -20
	.cfi_offset 9, -16
	.cfi_offset 10, -12
	.cfi_offset 11, -8
	.cfi_offset 14, -4
.LBB104:
.LBB102:
	.loc 1 115 21 view .LVU656
	vmrs	APSR_nzcv, FPSCR
	.loc 1 114 6 view .LVU657
	vmov	lr, s15	@ int
.LVL194:
	.loc 1 115 2 is_stmt 1 view .LVU658
.LBE102:
.LBE104:
	.loc 1 265 19 is_stmt 0 view .LVU659
	add	r3, r2, ip
.LBB105:
.LBB103:
	.loc 1 115 21 view .LVU660
	submi	lr, lr, #1
.LVL195:
	.loc 1 115 21 view .LVU661
.LBE103:
.LBE105:
	.loc 1 265 23 view .LVU662
	add	r3, r3, r1
	.loc 1 265 27 view .LVU663
	add	r3, r3, lr
	vmov	s14, r3	@ int
.LVL196:
	.loc 1 269 19 view .LVU664
	vmovmi	s15, lr	@ int
.LVL197:
	.loc 1 265 32 view .LVU665
	vldr.64	d4, .L127+8
	.loc 1 269 19 view .LVU666
	vcvtmi.f32.s32	s13, s15
.LVL198:
	.loc 1 265 5 is_stmt 1 view .LVU667
	.loc 1 265 32 is_stmt 0 view .LVU668
	vcvt.f64.s32	d7, s14
	vmul.f64	d7, d7, d4
	.loc 1 265 12 view .LVU669
	vcvt.f32.f64	s14, d7
.LVL199:
	.loc 1 266 5 is_stmt 1 view .LVU670
	.loc 1 267 5 view .LVU671
	.loc 1 268 5 view .LVU672
	.loc 1 269 5 view .LVU673
	.loc 1 270 5 view .LVU674
	.loc 1 266 12 is_stmt 0 view .LVU675
	vsub.f32	s10, s10, s14
.LVL200:
	.loc 1 267 12 view .LVU676
	vsub.f32	s11, s11, s14
.LVL201:
	.loc 1 257 1 view .LVU677
	vpush.64	{d8, d9, d10, d11, d12, d13, d14, d15}
	.cfi_def_cfa_offset 100
	.cfi_offset 80, -100
	.cfi_offset 81, -96
	.cfi_offset 82, -92
	.cfi_offset 83, -88
	.cfi_offset 84, -84
	.cfi_offset 85, -80
	.cfi_offset 86, -76
	.cfi_offset 87, -72
	.cfi_offset 88, -68
	.cfi_offset 89, -64
	.cfi_offset 90, -60
	.cfi_offset 91, -56
	.cfi_offset 92, -52
	.cfi_offset 93, -48
	.cfi_offset 94, -44
	.cfi_offset 95, -40
	.loc 1 268 12 view .LVU678
	vsub.f32	s12, s12, s14
.LVL202:
	.loc 1 270 12 view .LVU679
	vsub.f32	s22, s0, s10
.LVL203:
	.loc 1 271 5 is_stmt 1 view .LVU680
	.loc 1 271 12 is_stmt 0 view .LVU681
	vsub.f32	s21, s1, s11
.LVL204:
	.loc 1 272 5 is_stmt 1 view .LVU682
	.loc 1 272 12 is_stmt 0 view .LVU683
	vsub.f32	s23, s2, s12
.LVL205:
	.loc 1 273 5 is_stmt 1 view .LVU684
	.loc 1 269 12 is_stmt 0 view .LVU685
	vsub.f32	s13, s13, s14
.LVL206:
	.loc 1 283 36 view .LVU686
	vcmpe.f32	s22, s21
	.loc 1 273 12 view .LVU687
	vsub.f32	s24, s3, s13
.LVL207:
	.loc 1 279 5 is_stmt 1 view .LVU688
	.loc 1 280 5 view .LVU689
	.loc 1 281 5 view .LVU690
	.loc 1 282 5 view .LVU691
	.loc 1 283 5 view .LVU692
	.loc 1 283 36 is_stmt 0 view .LVU693
	vmrs	APSR_nzcv, FPSCR
	.loc 1 284 7 view .LVU694
	vcmpe.f32	s22, s23
	.loc 1 283 36 view .LVU695
	movgt	r4, #0
	movgt	r8, #1
	movle	r4, #1
	movle	r8, #0
.LVL208:
	.loc 1 284 5 is_stmt 1 view .LVU696
	.loc 1 284 7 is_stmt 0 view .LVU697
	vmrs	APSR_nzcv, FPSCR
	.loc 1 284 17 is_stmt 1 view .LVU698
	.loc 1 285 7 is_stmt 0 view .LVU699
	vcmpe.f32	s22, s24
	.loc 1 339 25 view .LVU700
	vmul.f32	s4, s22, s22
	.loc 1 284 22 view .LVU701
	addgt	r8, r8, #1
.LVL209:
	.loc 1 281 9 view .LVU702
	movgt	r3, #0
	.loc 1 284 36 view .LVU703
	movle	r3, #1
.LVL210:
	.loc 1 285 5 is_stmt 1 view .LVU704
	.loc 1 285 7 is_stmt 0 view .LVU705
	vmrs	APSR_nzcv, FPSCR
	.loc 1 285 17 is_stmt 1 view .LVU706
	.loc 1 286 7 is_stmt 0 view .LVU707
	vcmpe.f32	s21, s23
	.loc 1 339 25 view .LVU708
	vcvt.f64.f32	d2, s4
	.loc 1 339 21 view .LVU709
	vldr.64	d0, .L127+16
.LVL211:
	.loc 1 339 33 view .LVU710
	vmul.f32	s10, s21, s21
.LVL212:
	.loc 1 285 22 view .LVU711
	addgt	r8, r8, #1
.LVL213:
	.loc 1 285 36 view .LVU712
	movle	r0, #1
	.loc 1 282 9 view .LVU713
	movgt	r0, #0
.LVL214:
	.loc 1 286 5 is_stmt 1 view .LVU714
	.loc 1 286 7 is_stmt 0 view .LVU715
	vmrs	APSR_nzcv, FPSCR
	.loc 1 286 17 is_stmt 1 view .LVU716
	.loc 1 287 7 is_stmt 0 view .LVU717
	vcmpe.f32	s21, s24
	.loc 1 339 21 view .LVU718
	vsub.f64	d0, d0, d2
	.loc 1 339 41 view .LVU719
	vmul.f32	s8, s23, s23
	.loc 1 339 33 view .LVU720
	vcvt.f64.f32	d5, s10
	.loc 1 286 22 view .LVU721
	addgt	r4, r4, #1
.LVL215:
	.loc 1 286 31 is_stmt 1 view .LVU722
	.loc 1 286 36 is_stmt 0 view .LVU723
	addle	r3, r3, #1
.LVL216:
	.loc 1 287 5 is_stmt 1 view .LVU724
	.loc 1 287 7 is_stmt 0 view .LVU725
	vmrs	APSR_nzcv, FPSCR
	.loc 1 287 17 is_stmt 1 view .LVU726
	.loc 1 288 7 is_stmt 0 view .LVU727
	vcmpe.f32	s23, s24
	.loc 1 339 41 view .LVU728
	vcvt.f64.f32	d4, s8
	.loc 1 339 29 view .LVU729
	vsub.f64	d5, d0, d5
	.loc 1 339 49 view .LVU730
	vmul.f32	s2, s24, s24
.LVL217:
	.loc 1 287 22 view .LVU731
	addgt	r4, r4, #1
.LVL218:
	.loc 1 287 31 is_stmt 1 view .LVU732
	.loc 1 287 36 is_stmt 0 view .LVU733
	addle	r0, r0, #1
.LVL219:
	.loc 1 288 5 is_stmt 1 view .LVU734
	.loc 1 288 7 is_stmt 0 view .LVU735
	vmrs	APSR_nzcv, FPSCR
	.loc 1 288 17 is_stmt 1 view .LVU736
	.loc 1 339 49 is_stmt 0 view .LVU737
	vcvt.f64.f32	d1, s2
	.loc 1 339 37 view .LVU738
	vsub.f64	d5, d5, d4
	.loc 1 288 22 view .LVU739
	addgt	r3, r3, #1
.LVL220:
	.loc 1 288 31 is_stmt 1 view .LVU740
	.loc 1 288 36 is_stmt 0 view .LVU741
	addle	r0, r0, #1
.LVL221:
	.loc 1 289 5 is_stmt 1 view .LVU742
	.loc 1 290 5 view .LVU743
	.loc 1 291 5 view .LVU744
	.loc 1 297 5 view .LVU745
	.loc 1 297 25 is_stmt 0 view .LVU746
	cmp	r8, #2
	movle	r5, #0
	movgt	r5, #1
.LVL222:
	.loc 1 298 5 is_stmt 1 view .LVU747
	.loc 1 298 25 is_stmt 0 view .LVU748
	cmp	r4, #2
	movle	r6, #0
	movgt	r6, #1
.LVL223:
	.loc 1 299 5 is_stmt 1 view .LVU749
	.loc 1 299 25 is_stmt 0 view .LVU750
	cmp	r3, #2
	movle	r7, #0
	movgt	r7, #1
.LVL224:
	.loc 1 300 5 is_stmt 1 view .LVU751
	.loc 1 300 25 is_stmt 0 view .LVU752
	cmp	r0, #2
	.loc 1 339 45 view .LVU753
	vsub.f64	d5, d5, d1
	.loc 1 300 25 view .LVU754
	movle	r9, #0
	movgt	r9, #1
.LVL225:
	.loc 1 302 5 is_stmt 1 view .LVU755
	.loc 1 302 25 is_stmt 0 view .LVU756
	cmp	r8, #1
	movle	r10, #0
	movgt	r10, #1
	.loc 1 307 25 view .LVU757
	cmp	r8, #0
	movle	fp, #0
	movgt	fp, #1
	.loc 1 303 25 view .LVU758
	cmp	r4, #1
	movle	r8, #0
.LVL226:
	.loc 1 303 25 view .LVU759
	movgt	r8, #1
	.loc 1 308 25 view .LVU760
	cmp	r4, #0
	movle	r4, #0
.LVL227:
	.loc 1 308 25 view .LVU761
	movgt	r4, #1
	.loc 1 339 12 view .LVU762
	vcvt.f32.f64	s25, d5
	.loc 1 315 20 view .LVU763
	vmov	s11, r9	@ int
.LVL228:
	.loc 1 257 1 view .LVU764
	sub	sp, sp, #60
	.cfi_def_cfa_offset 160
	.loc 1 304 25 view .LVU765
	cmp	r3, #1
	.loc 1 308 25 view .LVU766
	str	r4, [sp]
	.loc 1 313 20 view .LVU767
	vmov	s9, r6	@ int
	.loc 1 304 25 view .LVU768
	movle	r4, #0
	movgt	r4, #1
	.loc 1 315 20 view .LVU769
	vcvt.f32.s32	s18, s11
	.loc 1 316 20 view .LVU770
	vmov	s11, r10	@ int
	.loc 1 309 25 view .LVU771
	cmp	r3, #0
	movle	r3, #0
.LVL229:
	.loc 1 309 25 view .LVU772
	movgt	r3, #1
	.loc 1 305 25 view .LVU773
	cmp	r0, #1
	.loc 1 303 25 view .LVU774
	vmov	s27, r8	@ int
	.loc 1 313 20 view .LVU775
	vcvt.f32.s32	s8, s9
	.loc 1 305 25 view .LVU776
	movle	r8, #0
	movgt	r8, #1
	.loc 1 314 20 view .LVU777
	vmov	s9, r7	@ int
	.loc 1 316 20 view .LVU778
	vcvt.f32.s32	s0, s11
	.loc 1 318 20 view .LVU779
	vmov	s11, r4	@ int
	.loc 1 314 20 view .LVU780
	vcvt.f32.s32	s2, s9
	.loc 1 318 20 view .LVU781
	vcvt.f32.s32	s29, s11
	.loc 1 319 20 view .LVU782
	vmov	s11, r8	@ int
	.loc 1 314 20 view .LVU783
	vsub.f32	s2, s23, s2
	.loc 1 319 20 view .LVU784
	vcvt.f32.s32	s28, s11
	.loc 1 320 20 view .LVU785
	vmov	s11, fp	@ int
	.loc 1 312 25 view .LVU786
	vldr.64	d6, .L127+8
.LVL230:
	.loc 1 312 20 view .LVU787
	vmov	s5, r5	@ int
	.loc 1 320 20 view .LVU788
	vcvt.f32.s32	s20, s11
	.loc 1 314 20 view .LVU789
	vcvt.f64.f32	d1, s2
	.loc 1 321 20 view .LVU790
	vldr.32	s11, [sp]	@ int
	.loc 1 310 25 view .LVU791
	cmp	r0, #0
	.loc 1 309 25 view .LVU792
	str	r3, [sp, #4]
	.loc 1 314 25 view .LVU793
	vadd.f64	d1, d1, d6
	.loc 1 310 25 view .LVU794
	movle	r0, #0
.LVL231:
	.loc 1 310 25 view .LVU795
	movgt	r0, #1
	.loc 1 312 20 view .LVU796
	vcvt.f32.s32	s4, s5
	.loc 1 321 20 view .LVU797
	vcvt.f32.s32	s17, s11
	.loc 1 316 20 view .LVU798
	vsub.f32	s0, s22, s0
	.loc 1 322 20 view .LVU799
	vldr.32	s11, [sp, #4]	@ int
	.loc 1 317 20 view .LVU800
	vcvt.f32.s32	s1, s27
.LVL232:
	.loc 1 322 20 view .LVU801
	vcvt.f32.s32	s16, s11
	.loc 1 318 20 view .LVU802
	vsub.f32	s29, s23, s29
	.loc 1 320 20 view .LVU803
	vsub.f32	s20, s22, s20
	.loc 1 312 20 view .LVU804
	vsub.f32	s4, s22, s4
	.loc 1 313 20 view .LVU805
	vsub.f32	s8, s21, s8
	.loc 1 323 20 view .LVU806
	vmov	s11, r0	@ int
	.loc 1 315 20 view .LVU807
	vsub.f32	s18, s24, s18
	.loc 1 317 20 view .LVU808
	vsub.f32	s1, s21, s1
	.loc 1 314 12 view .LVU809
	vcvt.f32.f64	s26, d1
	.loc 1 316 20 view .LVU810
	vcvt.f64.f32	d1, s0
	.loc 1 318 20 view .LVU811
	vcvt.f64.f32	d15, s29
	.loc 1 321 20 view .LVU812
	vsub.f32	s17, s21, s17
	.loc 1 322 20 view .LVU813
	vsub.f32	s16, s23, s16
	.loc 1 312 20 view .LVU814
	vcvt.f64.f32	d2, s4
	.loc 1 313 20 view .LVU815
	vcvt.f64.f32	d4, s8
	.loc 1 316 20 view .LVU816
	vstr.64	d1, [sp, #16]
	.loc 1 317 20 view .LVU817
	vcvt.f64.f32	d0, s1
	.loc 1 320 20 view .LVU818
	vcvt.f64.f32	d1, s20
	.loc 1 323 20 view .LVU819
	vcvt.f32.s32	s11, s11
	.loc 1 315 20 view .LVU820
	vcvt.f64.f32	d9, s18
	.loc 1 316 25 view .LVU821
	vldr.64	d7, .L127+24
.LVL233:
	.loc 1 315 25 view .LVU822
	vadd.f64	d9, d9, d6
	.loc 1 317 20 view .LVU823
	vstr.64	d0, [sp, #24]
	.loc 1 318 20 view .LVU824
	vstr.64	d15, [sp, #32]
	.loc 1 320 20 view .LVU825
	vstr.64	d1, [sp, #40]
	.loc 1 312 25 view .LVU826
	vadd.f64	d15, d2, d6
	.loc 1 321 20 view .LVU827
	vcvt.f64.f32	d0, s17
	.loc 1 322 20 view .LVU828
	vcvt.f64.f32	d1, s16
	.loc 1 319 20 view .LVU829
	vsub.f32	s28, s24, s28
	.loc 1 313 25 view .LVU830
	vadd.f64	d8, d4, d6
	.loc 1 323 20 view .LVU831
	vsub.f32	s11, s24, s11
	.loc 1 316 25 view .LVU832
	vldr.64	d6, [sp, #16]
.LVL234:
	.loc 1 320 25 view .LVU833
	vldr.64	d3, .L127+32
	.loc 1 323 20 view .LVU834
	vcvt.f64.f32	d5, s11
	.loc 1 313 25 view .LVU835
	vstr.64	d8, [sp, #8]
	.loc 1 319 20 view .LVU836
	vcvt.f64.f32	d14, s28
	.loc 1 316 25 view .LVU837
	vadd.f64	d8, d6, d7
	.loc 1 318 25 view .LVU838
	vldr.64	d4, [sp, #32]
	.loc 1 317 25 view .LVU839
	vldr.64	d6, [sp, #24]
	.loc 1 320 25 view .LVU840
	vldr.64	d2, [sp, #40]
	.loc 1 318 25 view .LVU841
	vadd.f64	d4, d4, d7
	.loc 1 317 25 view .LVU842
	vadd.f64	d6, d6, d7
	.loc 1 320 25 view .LVU843
	vadd.f64	d2, d2, d3
	.loc 1 321 25 view .LVU844
	vadd.f64	d0, d0, d3
	.loc 1 322 25 view .LVU845
	vadd.f64	d1, d1, d3
	.loc 1 319 25 view .LVU846
	vadd.f64	d7, d14, d7
	.loc 1 323 25 view .LVU847
	vadd.f64	d3, d5, d3
	.loc 1 313 12 view .LVU848
	vldr.64	d5, [sp, #8]
	.loc 1 317 12 view .LVU849
	vcvt.f32.f64	s12, d6
	.loc 1 313 12 view .LVU850
	vcvt.f32.f64	s11, d5
	.loc 1 320 12 view .LVU851
	vcvt.f32.f64	s4, d2
	.loc 1 315 12 view .LVU852
	vcvt.f32.f64	s10, d9
	.loc 1 321 12 view .LVU853
	vcvt.f32.f64	s13, d0
.LVL235:
	.loc 1 318 12 view .LVU854
	vcvt.f32.f64	s18, d4
	.loc 1 316 12 view .LVU855
	vcvt.f32.f64	s19, d8
	.loc 1 319 12 view .LVU856
	vcvt.f32.f64	s9, d7
	.loc 1 322 12 view .LVU857
	vcvt.f32.f64	s5, d1
	.loc 1 323 12 view .LVU858
	vcvt.f32.f64	s8, d3
	.loc 1 324 20 view .LVU859
	vldr.64	d1, .L127+40
	vcvt.f64.f32	d3, s22
	.loc 1 325 20 view .LVU860
	vcvt.f64.f32	d7, s21
	.loc 1 326 20 view .LVU861
	vcvt.f64.f32	d8, s23
	.loc 1 327 20 view .LVU862
	vcvt.f64.f32	d0, s24
	.loc 1 324 20 view .LVU863
	vsub.f64	d3, d3, d1
	.loc 1 325 20 view .LVU864
	vsub.f64	d7, d7, d1
	.loc 1 326 20 view .LVU865
	vsub.f64	d8, d8, d1
	.loc 1 327 20 view .LVU866
	vsub.f64	d0, d0, d1
	.loc 1 340 7 view .LVU867
	vcmpe.f32	s25, #0
.LVL236:
	.loc 1 324 26 view .LVU868
	vldr.64	d1, .L127+48
	.loc 1 340 7 view .LVU869
	vmrs	APSR_nzcv, FPSCR
	.loc 1 324 26 view .LVU870
	vadd.f64	d3, d3, d1
	.loc 1 325 26 view .LVU871
	vadd.f64	d7, d7, d1
	.loc 1 326 26 view .LVU872
	vadd.f64	d8, d8, d1
	.loc 1 327 26 view .LVU873
	vadd.f64	d1, d0, d1
	.loc 1 333 19 view .LVU874
	ldr	r3, .L127+56
	.loc 1 324 12 view .LVU875
	vcvt.f32.f64	s6, d3
	.loc 1 325 12 view .LVU876
	vcvt.f32.f64	s14, d7
	.loc 1 312 12 view .LVU877
	vcvt.f32.f64	s20, d15
	.loc 1 326 12 view .LVU878
	vcvt.f32.f64	s15, d8
.LVL237:
	.loc 1 327 12 view .LVU879
	vcvt.f32.f64	s7, d1
	.loc 1 333 19 view .LVU880
	ldr	r3, [r3]
	.loc 1 329 9 view .LVU881
	uxtb	ip, ip
.LVL238:
	.loc 1 330 9 view .LVU882
	uxtb	r2, r2
.LVL239:
	.loc 1 331 9 view .LVU883
	uxtb	r1, r1
.LVL240:
	.loc 1 332 9 view .LVU884
	uxtb	lr, lr
.LVL241:
	.loc 1 302 25 view .LVU885
	str	r10, [sp, #48]
.LVL242:
	.loc 1 303 5 is_stmt 1 view .LVU886
	.loc 1 304 5 view .LVU887
	.loc 1 305 5 view .LVU888
	.loc 1 307 5 view .LVU889
	.loc 1 308 5 view .LVU890
	.loc 1 309 5 view .LVU891
	.loc 1 310 5 view .LVU892
	.loc 1 312 5 view .LVU893
	.loc 1 313 5 view .LVU894
	.loc 1 314 5 view .LVU895
	.loc 1 315 5 view .LVU896
	.loc 1 316 5 view .LVU897
	.loc 1 317 5 view .LVU898
	.loc 1 318 5 view .LVU899
	.loc 1 319 5 view .LVU900
	.loc 1 320 5 view .LVU901
	.loc 1 321 5 view .LVU902
	.loc 1 322 5 view .LVU903
	.loc 1 323 5 view .LVU904
	.loc 1 324 5 view .LVU905
	.loc 1 325 5 view .LVU906
	.loc 1 326 5 view .LVU907
	.loc 1 327 5 view .LVU908
	.loc 1 329 5 view .LVU909
	.loc 1 330 5 view .LVU910
	.loc 1 331 5 view .LVU911
	.loc 1 332 5 view .LVU912
	.loc 1 333 5 view .LVU913
	.loc 1 334 5 view .LVU914
	.loc 1 335 5 view .LVU915
	.loc 1 336 5 view .LVU916
	.loc 1 337 5 view .LVU917
	.loc 1 339 5 view .LVU918
	.loc 1 340 5 view .LVU919
	.loc 1 307 25 is_stmt 0 view .LVU920
	str	fp, [sp, #52]
.LVL243:
	.loc 1 340 7 view .LVU921
	bmi	.L107
	b	.L128
.L129:
	.align	3
.L127:
	.word	925886800
	.word	1070843631
	.word	488638739
	.word	1069658221
	.word	858993459
	.word	1071854387
	.word	488638739
	.word	1070706797
	.word	-1414525540
	.word	1071286435
	.word	0
	.word	1072693248
	.word	488638739
	.word	1071755373
	.word	.LANCHOR0
	.word	.LANCHOR1
.L128:
	.loc 1 333 44 view .LVU922
	lsl	r10, lr, #1
.LVL244:
	.loc 1 333 44 view .LVU923
	ldrsh	r10, [r3, r10]
.LVL245:
	.loc 1 342 10 view .LVU924
	vmul.f32	s25, s25, s25
.LVL246:
	.loc 1 333 36 view .LVU925
	add	r10, r10, r1
	lsl	r10, r10, #1
	ldrsh	r10, [r3, r10]
	.loc 1 343 15 view .LVU926
	vmul.f32	s25, s25, s25
	.loc 1 333 28 view .LVU927
	add	r10, r10, r2
	lsl	r10, r10, #1
	ldrsh	r10, [r3, r10]
	.loc 1 333 19 view .LVU928
	add	r10, r10, ip
	lsl	r10, r10, #1
	.loc 1 333 53 view .LVU929
	ldrsh	r10, [r3, r10]
	rsbs	fp, r10, #0
.LVL247:
	.loc 1 333 53 view .LVU930
	and	fp, fp, #31
	and	r10, r10, #31
	.loc 1 333 9 view .LVU931
	rsbpl	r10, fp, #0
	.loc 1 342 7 is_stmt 1 view .LVU932
.LVL248:
	.loc 1 343 7 view .LVU933
.LBB106:
.LBI106:
	.loc 1 106 26 view .LVU934
.LBB107:
	.loc 1 108 2 view .LVU935
	.loc 1 108 12 is_stmt 0 view .LVU936
	ldr	fp, .L127+60
	add	fp, fp, r10, lsl #4
	.loc 1 108 20 view .LVU937
	vldr.32	s3, [fp, #708]
.LVL249:
	.loc 1 108 12 view .LVU938
	vldr.32	s2, [fp, #704]
	.loc 1 108 20 view .LVU939
	vmul.f32	s3, s21, s3
	.loc 1 108 15 view .LVU940
	vmla.f32	s3, s22, s2
	.loc 1 108 28 view .LVU941
	vldr.32	s2, [fp, #712]
	.loc 1 108 23 view .LVU942
	vmla.f32	s3, s23, s2
	.loc 1 108 36 view .LVU943
	vldr.32	s2, [fp, #716]
	.loc 1 108 31 view .LVU944
	vmla.f32	s3, s24, s2
.LBE107:
.LBE106:
	.loc 1 343 10 view .LVU945
	vmul.f32	s21, s3, s25
.LVL250:
.L99:
	.loc 1 345 4 is_stmt 1 view .LVU946
	.loc 1 345 24 is_stmt 0 view .LVU947
	vmul.f32	s22, s20, s20
.LVL251:
	.loc 1 345 32 view .LVU948
	vmul.f32	s16, s11, s11
	.loc 1 345 20 view .LVU949
	vldr.64	d12, .L130
.LVL252:
	.loc 1 345 24 view .LVU950
	vcvt.f64.f32	d11, s22
	.loc 1 345 40 view .LVU951
	vmul.f32	s2, s26, s26
	.loc 1 345 20 view .LVU952
	vsub.f64	d11, d12, d11
	.loc 1 345 32 view .LVU953
	vcvt.f64.f32	d8, s16
	.loc 1 345 48 view .LVU954
	vmul.f32	s0, s10, s10
	.loc 1 345 28 view .LVU955
	vsub.f64	d8, d11, d8
	.loc 1 345 40 view .LVU956
	vcvt.f64.f32	d1, s2
	.loc 1 345 48 view .LVU957
	vcvt.f64.f32	d0, s0
	.loc 1 345 36 view .LVU958
	vsub.f64	d1, d8, d1
	.loc 1 345 44 view .LVU959
	vsub.f64	d1, d1, d0
	.loc 1 345 11 view .LVU960
	vcvt.f32.f64	s2, d1
.LVL253:
	.loc 1 346 5 is_stmt 1 view .LVU961
	.loc 1 346 7 is_stmt 0 view .LVU962
	vcmpe.f32	s2, #0
	vmrs	APSR_nzcv, FPSCR
	bmi	.L108
	.loc 1 334 53 view .LVU963
	add	r9, r9, lr
.LVL254:
	.loc 1 334 53 view .LVU964
	lsl	r9, r9, #1
	ldrsh	r9, [r3, r9]
	.loc 1 334 42 view .LVU965
	add	r7, r7, r1
.LVL255:
	.loc 1 334 42 view .LVU966
	add	r7, r7, r9
	lsl	r7, r7, #1
	ldrsh	r7, [r3, r7]
	.loc 1 334 31 view .LVU967
	add	r6, r6, r2
.LVL256:
	.loc 1 334 31 view .LVU968
	add	r6, r6, r7
	lsl	r6, r6, #1
	ldrsh	r6, [r3, r6]
	.loc 1 334 19 view .LVU969
	add	r5, r5, ip
.LVL257:
	.loc 1 334 19 view .LVU970
	add	r5, r5, r6
	lsl	r5, r5, #1
	.loc 1 334 65 view .LVU971
	ldrsh	r5, [r3, r5]
	.loc 1 348 10 view .LVU972
	vmul.f32	s2, s2, s2
.LVL258:
	.loc 1 334 65 view .LVU973
	rsbs	r6, r5, #0
	and	r6, r6, #31
	and	r5, r5, #31
	.loc 1 334 9 view .LVU974
	rsbpl	r5, r6, #0
	.loc 1 348 7 is_stmt 1 view .LVU975
.LVL259:
	.loc 1 349 7 view .LVU976
.LBB108:
.LBI108:
	.loc 1 106 26 view .LVU977
.LBB109:
	.loc 1 108 2 view .LVU978
	.loc 1 108 12 is_stmt 0 view .LVU979
	ldr	r6, .L130+16
.LBE109:
.LBE108:
	.loc 1 349 15 view .LVU980
	vmul.f32	s2, s2, s2
.LVL260:
.LBB111:
.LBB110:
	.loc 1 108 12 view .LVU981
	add	r6, r6, r5, lsl #4
	.loc 1 108 20 view .LVU982
	vldr.32	s3, [r6, #708]
	vmul.f32	s11, s11, s3
.LVL261:
	.loc 1 108 12 view .LVU983
	vldr.32	s3, [r6, #704]
	.loc 1 108 15 view .LVU984
	vmla.f32	s11, s20, s3
	.loc 1 108 28 view .LVU985
	vldr.32	s3, [r6, #712]
	.loc 1 108 23 view .LVU986
	vmla.f32	s11, s26, s3
	vmov.f32	s20, s11
.LVL262:
	.loc 1 108 36 view .LVU987
	vldr.32	s11, [r6, #716]
	.loc 1 108 31 view .LVU988
	vmla.f32	s20, s10, s11
.LBE110:
.LBE111:
	.loc 1 349 10 view .LVU989
	vmul.f32	s20, s20, s2
.LVL263:
.L100:
	.loc 1 351 4 is_stmt 1 view .LVU990
	.loc 1 351 40 is_stmt 0 view .LVU991
	vmul.f32	s10, s18, s18
.LVL264:
	.loc 1 351 48 view .LVU992
	vmul.f32	s11, s9, s9
	.loc 1 351 24 view .LVU993
	vmul.f32	s0, s19, s19
	.loc 1 351 40 view .LVU994
	vcvt.f64.f32	d8, s10
	.loc 1 351 48 view .LVU995
	vcvt.f64.f32	d11, s11
	.loc 1 351 32 view .LVU996
	vmul.f32	s2, s12, s12
	.loc 1 351 24 view .LVU997
	vcvt.f64.f32	d0, s0
	.loc 1 351 20 view .LVU998
	vldr.64	d5, .L130
	.loc 1 351 32 view .LVU999
	vcvt.f64.f32	d1, s2
	.loc 1 351 20 view .LVU1000
	vsub.f64	d5, d5, d0
	.loc 1 351 28 view .LVU1001
	vsub.f64	d5, d5, d1
	.loc 1 351 36 view .LVU1002
	vsub.f64	d5, d5, d8
	.loc 1 351 44 view .LVU1003
	vsub.f64	d5, d5, d11
	.loc 1 351 11 view .LVU1004
	vcvt.f32.f64	s10, d5
.LVL265:
	.loc 1 352 5 is_stmt 1 view .LVU1005
	.loc 1 352 7 is_stmt 0 view .LVU1006
	vcmpe.f32	s10, #0
	vmrs	APSR_nzcv, FPSCR
	bmi	.L109
	.loc 1 335 53 view .LVU1007
	add	r8, r8, lr
.LVL266:
	.loc 1 335 53 view .LVU1008
	lsl	r8, r8, #1
	ldrsh	r5, [r3, r8]
	.loc 1 335 42 view .LVU1009
	add	r4, r4, r1
.LVL267:
	.loc 1 335 42 view .LVU1010
	add	r4, r4, r5
	lsl	r4, r4, #1
	ldrsh	r5, [r3, r4]
	.loc 1 335 31 view .LVU1011
	vmov	r4, s27	@ int
	add	r4, r4, r2
	add	r4, r4, r5
	lsl	r4, r4, #1
	ldrsh	r5, [r3, r4]
	.loc 1 335 19 view .LVU1012
	ldr	r4, [sp, #48]
	.loc 1 354 10 view .LVU1013
	vmul.f32	s10, s10, s10
.LVL268:
	.loc 1 335 19 view .LVU1014
	add	r4, r4, ip
	add	r4, r4, r5
	lsl	r4, r4, #1
	.loc 1 335 65 view .LVU1015
	ldrsh	r4, [r3, r4]
	.loc 1 355 15 view .LVU1016
	vmul.f32	s10, s10, s10
	.loc 1 335 65 view .LVU1017
	rsbs	r5, r4, #0
	and	r5, r5, #31
	and	r4, r4, #31
	.loc 1 335 9 view .LVU1018
	rsbpl	r4, r5, #0
	.loc 1 354 7 is_stmt 1 view .LVU1019
.LVL269:
	.loc 1 355 7 view .LVU1020
.LBB112:
.LBI112:
	.loc 1 106 26 view .LVU1021
.LBB113:
	.loc 1 108 2 view .LVU1022
	.loc 1 108 12 is_stmt 0 view .LVU1023
	ldr	r5, .L130+16
	add	r4, r5, r4, lsl #4
	.loc 1 108 20 view .LVU1024
	vldr.32	s11, [r4, #708]
	.loc 1 108 12 view .LVU1025
	vldr.32	s2, [r4, #704]
	.loc 1 108 20 view .LVU1026
	vmul.f32	s12, s12, s11
.LVL270:
	.loc 1 108 28 view .LVU1027
	vldr.32	s3, [r4, #712]
	.loc 1 108 15 view .LVU1028
	vmla.f32	s12, s19, s2
	.loc 1 108 36 view .LVU1029
	vldr.32	s11, [r4, #716]
	.loc 1 108 23 view .LVU1030
	vmla.f32	s12, s18, s3
	.loc 1 108 31 view .LVU1031
	vmla.f32	s12, s9, s11
.LBE113:
.LBE112:
	.loc 1 355 10 view .LVU1032
	vmul.f32	s12, s12, s10
.LVL271:
.L101:
	.loc 1 357 4 is_stmt 1 view .LVU1033
	.loc 1 357 24 is_stmt 0 view .LVU1034
	vmul.f32	s10, s4, s4
	.loc 1 357 20 view .LVU1035
	vldr.64	d9, .L130
.LVL272:
	.loc 1 357 32 view .LVU1036
	vmul.f32	s16, s13, s13
	.loc 1 357 24 view .LVU1037
	vcvt.f64.f32	d5, s10
	.loc 1 357 40 view .LVU1038
	vmul.f32	s0, s5, s5
	.loc 1 357 20 view .LVU1039
	vsub.f64	d5, d9, d5
	.loc 1 357 32 view .LVU1040
	vcvt.f64.f32	d8, s16
	.loc 1 357 48 view .LVU1041
	vmul.f32	s2, s8, s8
	.loc 1 357 28 view .LVU1042
	vsub.f64	d5, d5, d8
	.loc 1 357 40 view .LVU1043
	vcvt.f64.f32	d0, s0
	.loc 1 357 48 view .LVU1044
	vcvt.f64.f32	d1, s2
	.loc 1 357 36 view .LVU1045
	vsub.f64	d5, d5, d0
	.loc 1 357 44 view .LVU1046
	vsub.f64	d5, d5, d1
	.loc 1 357 11 view .LVU1047
	vcvt.f32.f64	s10, d5
.LVL273:
	.loc 1 358 5 is_stmt 1 view .LVU1048
	.loc 1 358 7 is_stmt 0 view .LVU1049
	vcmpe.f32	s10, #0
	vmrs	APSR_nzcv, FPSCR
	bmi	.L110
	.loc 1 336 53 view .LVU1050
	add	r0, r0, lr
.LVL274:
	.loc 1 336 53 view .LVU1051
	lsl	r0, r0, #1
	ldrsh	r4, [r3, r0]
	.loc 1 336 42 view .LVU1052
	ldr	r0, [sp, #4]
	.loc 1 360 10 view .LVU1053
	vmul.f32	s10, s10, s10
.LVL275:
	.loc 1 336 42 view .LVU1054
	add	r0, r0, r1
	add	r0, r0, r4
	lsl	r0, r0, #1
	ldrsh	r4, [r3, r0]
	.loc 1 336 31 view .LVU1055
	ldr	r0, [sp]
	.loc 1 361 15 view .LVU1056
	vmul.f32	s10, s10, s10
	.loc 1 336 31 view .LVU1057
	add	r0, r0, r2
	add	r0, r0, r4
	lsl	r0, r0, #1
	ldrsh	r4, [r3, r0]
	.loc 1 336 19 view .LVU1058
	ldr	r0, [sp, #52]
	add	r0, r0, ip
	add	r0, r0, r4
	lsl	r0, r0, #1
	.loc 1 336 65 view .LVU1059
	ldrsh	r0, [r3, r0]
	rsbs	r4, r0, #0
	and	r4, r4, #31
	and	r0, r0, #31
	.loc 1 336 9 view .LVU1060
	rsbpl	r0, r4, #0
	.loc 1 360 7 is_stmt 1 view .LVU1061
.LVL276:
	.loc 1 361 7 view .LVU1062
.LBB114:
.LBI114:
	.loc 1 106 26 view .LVU1063
.LBB115:
	.loc 1 108 2 view .LVU1064
	.loc 1 108 12 is_stmt 0 view .LVU1065
	ldr	r4, .L130+16
	add	r0, r4, r0, lsl #4
	.loc 1 108 20 view .LVU1066
	vldr.32	s2, [r0, #708]
	.loc 1 108 12 view .LVU1067
	vldr.32	s3, [r0, #704]
	.loc 1 108 20 view .LVU1068
	vmul.f32	s13, s13, s2
.LVL277:
	.loc 1 108 28 view .LVU1069
	vldr.32	s9, [r0, #712]
.LVL278:
	.loc 1 108 15 view .LVU1070
	vmla.f32	s13, s4, s3
	.loc 1 108 36 view .LVU1071
	vldr.32	s11, [r0, #716]
	.loc 1 108 23 view .LVU1072
	vmla.f32	s13, s5, s9
	.loc 1 108 31 view .LVU1073
	vmla.f32	s13, s8, s11
.LBE115:
.LBE114:
	.loc 1 361 10 view .LVU1074
	vmul.f32	s13, s13, s10
.LVL279:
.L102:
	.loc 1 363 4 is_stmt 1 view .LVU1075
	.loc 1 363 24 is_stmt 0 view .LVU1076
	vmul.f32	s0, s6, s6
	.loc 1 363 20 view .LVU1077
	vldr.64	d5, .L130
	.loc 1 363 32 view .LVU1078
	vmul.f32	s2, s14, s14
	.loc 1 363 24 view .LVU1079
	vcvt.f64.f32	d0, s0
	.loc 1 363 40 view .LVU1080
	vmul.f32	s4, s15, s15
.LVL280:
	.loc 1 363 32 view .LVU1081
	vcvt.f64.f32	d1, s2
	.loc 1 363 20 view .LVU1082
	vsub.f64	d5, d5, d0
	.loc 1 363 48 view .LVU1083
	vmul.f32	s8, s7, s7
.LVL281:
	.loc 1 363 40 view .LVU1084
	vcvt.f64.f32	d2, s4
	.loc 1 363 28 view .LVU1085
	vsub.f64	d5, d5, d1
	.loc 1 363 48 view .LVU1086
	vcvt.f64.f32	d4, s8
	.loc 1 363 36 view .LVU1087
	vsub.f64	d5, d5, d2
	.loc 1 363 44 view .LVU1088
	vsub.f64	d5, d5, d4
	.loc 1 363 11 view .LVU1089
	vcvt.f32.f64	s10, d5
.LVL282:
	.loc 1 364 5 is_stmt 1 view .LVU1090
	.loc 1 364 7 is_stmt 0 view .LVU1091
	vcmpe.f32	s10, #0
	vmrs	APSR_nzcv, FPSCR
	bmi	.L111
	.loc 1 337 50 view .LVU1092
	add	lr, r3, lr, lsl #1
.LVL283:
	.loc 1 337 50 view .LVU1093
	ldrsh	r0, [lr, #2]
	.loc 1 366 10 view .LVU1094
	vmul.f32	s10, s10, s10
.LVL284:
	.loc 1 337 40 view .LVU1095
	add	r1, r1, r0
.LVL285:
	.loc 1 337 40 view .LVU1096
	add	r1, r3, r1, lsl #1
	ldrsh	r0, [r1, #2]
.LBB116:
.LBB117:
	.loc 1 108 12 view .LVU1097
	ldr	r1, .L130+16
.LBE117:
.LBE116:
	.loc 1 337 30 view .LVU1098
	add	r2, r2, r0
.LVL286:
	.loc 1 337 30 view .LVU1099
	add	r2, r3, r2, lsl #1
	ldrsh	r2, [r2, #2]
	.loc 1 367 15 view .LVU1100
	vmul.f32	s10, s10, s10
	.loc 1 337 19 view .LVU1101
	add	ip, ip, r2
.LVL287:
	.loc 1 337 19 view .LVU1102
	add	r3, r3, ip, lsl #1
	.loc 1 337 61 view .LVU1103
	ldrsh	r3, [r3, #2]
	rsbs	r2, r3, #0
	and	r2, r2, #31
	and	r3, r3, #31
	.loc 1 337 9 view .LVU1104
	rsbpl	r3, r2, #0
	.loc 1 366 7 is_stmt 1 view .LVU1105
.LVL288:
	.loc 1 367 7 view .LVU1106
.LBB119:
.LBI116:
	.loc 1 106 26 view .LVU1107
.LBB118:
	.loc 1 108 2 view .LVU1108
	.loc 1 108 12 is_stmt 0 view .LVU1109
	add	r3, r1, r3, lsl #4
	.loc 1 108 20 view .LVU1110
	vldr.32	s5, [r3, #708]
.LVL289:
	.loc 1 108 12 view .LVU1111
	vldr.32	s8, [r3, #704]
	.loc 1 108 20 view .LVU1112
	vmul.f32	s14, s14, s5
.LVL290:
	.loc 1 108 28 view .LVU1113
	vldr.32	s9, [r3, #712]
	.loc 1 108 15 view .LVU1114
	vmla.f32	s14, s6, s8
	.loc 1 108 23 view .LVU1115
	vmla.f32	s14, s15, s9
	.loc 1 108 36 view .LVU1116
	vldr.32	s11, [r3, #716]
	.loc 1 108 31 view .LVU1117
	vmov.f32	s15, s14
.LVL291:
	.loc 1 108 31 view .LVU1118
	vmla.f32	s15, s7, s11
.LBE118:
.LBE119:
	.loc 1 367 10 view .LVU1119
	vmul.f32	s15, s15, s10
.LVL292:
.L103:
	.loc 1 370 5 is_stmt 1 view .LVU1120
	.loc 1 370 24 is_stmt 0 view .LVU1121
	vadd.f32	s21, s21, s20
.LVL293:
	.loc 1 370 29 view .LVU1122
	vadd.f32	s21, s21, s12
	.loc 1 370 34 view .LVU1123
	vadd.f32	s21, s21, s13
	.loc 1 370 17 view .LVU1124
	vldr.32	s0, .L130+8
	.loc 1 370 39 view .LVU1125
	vadd.f32	s21, s21, s15
	.loc 1 371 1 view .LVU1126
	vmul.f32	s0, s21, s0
	add	sp, sp, #60
	.cfi_remember_state
	.cfi_def_cfa_offset 100
	@ sp needed
	vldm	sp!, {d8-d15}
	.cfi_restore 94
	.cfi_restore 95
	.cfi_restore 92
	.cfi_restore 93
	.cfi_restore 90
	.cfi_restore 91
	.cfi_restore 88
	.cfi_restore 89
	.cfi_restore 86
	.cfi_restore 87
	.cfi_restore 84
	.cfi_restore 85
	.cfi_restore 82
	.cfi_restore 83
	.cfi_restore 80
	.cfi_restore 81
	.cfi_def_cfa_offset 36
.LVL294:
	.loc 1 371 1 view .LVU1127
	pop	{r4, r5, r6, r7, r8, r9, r10, fp, pc}
.LVL295:
.L107:
	.cfi_restore_state
	.loc 1 340 17 view .LVU1128
	vldr.32	s21, .L130+12
.LVL296:
	.loc 1 340 17 view .LVU1129
	b	.L99
.LVL297:
.L111:
	.loc 1 364 17 view .LVU1130
	vldr.32	s15, .L130+12
.LVL298:
	.loc 1 364 17 view .LVU1131
	b	.L103
.LVL299:
.L110:
	.loc 1 358 17 view .LVU1132
	vldr.32	s13, .L130+12
.LVL300:
	.loc 1 358 17 view .LVU1133
	b	.L102
.LVL301:
.L109:
	.loc 1 352 17 view .LVU1134
	vldr.32	s12, .L130+12
.LVL302:
	.loc 1 352 17 view .LVU1135
	b	.L101
.LVL303:
.L108:
	.loc 1 346 17 view .LVU1136
	vldr.32	s20, .L130+12
.LVL304:
	.loc 1 346 17 view .LVU1137
	b	.L100
.L131:
	.align	3
.L130:
	.word	858993459
	.word	1071854387
	.word	1104674816
	.word	0
	.word	.LANCHOR1
	.cfi_endproc
.LFE8:
	.size	sino_4d, .-sino_4d
	.section	.rodata
	.align	2
	.set	.LANCHOR1,. + 0
	.type	singletable, %object
	.size	singletable, 512
singletable:
	.short	151
	.short	160
	.short	137
	.short	91
	.short	90
	.short	15
	.short	131
	.short	13
	.short	201
	.short	95
	.short	96
	.short	53
	.short	194
	.short	233
	.short	7
	.short	225
	.short	140
	.short	36
	.short	103
	.short	30
	.short	69
	.short	142
	.short	8
	.short	99
	.short	37
	.short	240
	.short	21
	.short	10
	.short	23
	.short	190
	.short	6
	.short	148
	.short	247
	.short	120
	.short	234
	.short	75
	.short	0
	.short	26
	.short	197
	.short	62
	.short	94
	.short	252
	.short	219
	.short	203
	.short	117
	.short	35
	.short	11
	.short	32
	.short	57
	.short	177
	.short	33
	.short	88
	.short	237
	.short	149
	.short	56
	.short	87
	.short	174
	.short	20
	.short	125
	.short	136
	.short	171
	.short	168
	.short	68
	.short	175
	.short	74
	.short	165
	.short	71
	.short	134
	.short	139
	.short	48
	.short	27
	.short	166
	.short	77
	.short	146
	.short	158
	.short	231
	.short	83
	.short	111
	.short	229
	.short	122
	.short	60
	.short	211
	.short	133
	.short	230
	.short	220
	.short	105
	.short	92
	.short	41
	.short	55
	.short	46
	.short	245
	.short	40
	.short	244
	.short	102
	.short	143
	.short	54
	.short	65
	.short	25
	.short	63
	.short	161
	.short	1
	.short	216
	.short	80
	.short	73
	.short	209
	.short	76
	.short	132
	.short	187
	.short	208
	.short	89
	.short	18
	.short	169
	.short	200
	.short	196
	.short	135
	.short	130
	.short	116
	.short	188
	.short	159
	.short	86
	.short	164
	.short	100
	.short	109
	.short	198
	.short	173
	.short	186
	.short	3
	.short	64
	.short	52
	.short	217
	.short	226
	.short	250
	.short	124
	.short	123
	.short	5
	.short	202
	.short	38
	.short	147
	.short	118
	.short	126
	.short	255
	.short	82
	.short	85
	.short	212
	.short	207
	.short	206
	.short	59
	.short	227
	.short	47
	.short	16
	.short	58
	.short	17
	.short	182
	.short	189
	.short	28
	.short	42
	.short	223
	.short	183
	.short	170
	.short	213
	.short	119
	.short	248
	.short	152
	.short	2
	.short	44
	.short	154
	.short	163
	.short	70
	.short	221
	.short	153
	.short	101
	.short	155
	.short	167
	.short	43
	.short	172
	.short	9
	.short	129
	.short	22
	.short	39
	.short	253
	.short	19
	.short	98
	.short	108
	.short	110
	.short	79
	.short	113
	.short	224
	.short	232
	.short	178
	.short	185
	.short	112
	.short	104
	.short	218
	.short	246
	.short	97
	.short	228
	.short	251
	.short	34
	.short	242
	.short	193
	.short	238
	.short	210
	.short	144
	.short	12
	.short	191
	.short	179
	.short	162
	.short	241
	.short	81
	.short	51
	.short	145
	.short	235
	.short	249
	.short	14
	.short	239
	.short	107
	.short	49
	.short	192
	.short	214
	.short	31
	.short	181
	.short	199
	.short	106
	.short	157
	.short	184
	.short	84
	.short	204
	.short	176
	.short	115
	.short	121
	.short	50
	.short	45
	.short	127
	.short	4
	.short	150
	.short	254
	.short	138
	.short	236
	.short	205
	.short	93
	.short	222
	.short	114
	.short	67
	.short	29
	.short	24
	.short	72
	.short	243
	.short	141
	.short	128
	.short	195
	.short	78
	.short	66
	.short	215
	.short	61
	.short	156
	.short	180
	.type	grad3, %object
	.size	grad3, 192
grad3:
	.word	1065353216
	.word	1065353216
	.word	0
	.word	0
	.word	-1082130432
	.word	1065353216
	.word	0
	.word	0
	.word	1065353216
	.word	-1082130432
	.word	0
	.word	0
	.word	-1082130432
	.word	-1082130432
	.word	0
	.word	0
	.word	1065353216
	.word	0
	.word	1065353216
	.word	0
	.word	-1082130432
	.word	0
	.word	1065353216
	.word	0
	.word	1065353216
	.word	0
	.word	-1082130432
	.word	0
	.word	-1082130432
	.word	0
	.word	-1082130432
	.word	0
	.word	0
	.word	1065353216
	.word	1065353216
	.word	0
	.word	0
	.word	-1082130432
	.word	1065353216
	.word	0
	.word	0
	.word	1065353216
	.word	-1082130432
	.word	0
	.word	0
	.word	-1082130432
	.word	-1082130432
	.word	0
	.type	grad4, %object
	.size	grad4, 512
grad4:
	.word	0
	.word	1065353216
	.word	1065353216
	.word	1065353216
	.word	0
	.word	1065353216
	.word	1065353216
	.word	-1082130432
	.word	0
	.word	1065353216
	.word	-1082130432
	.word	1065353216
	.word	0
	.word	1065353216
	.word	-1082130432
	.word	-1082130432
	.word	0
	.word	-1082130432
	.word	-1082130432
	.word	1065353216
	.word	0
	.word	-1082130432
	.word	1065353216
	.word	-1082130432
	.word	0
	.word	-1082130432
	.word	-1082130432
	.word	1065353216
	.word	0
	.word	-1082130432
	.word	-1082130432
	.word	-1082130432
	.word	1065353216
	.word	0
	.word	1065353216
	.word	1065353216
	.word	1065353216
	.word	0
	.word	1065353216
	.word	-1082130432
	.word	1065353216
	.word	0
	.word	-1082130432
	.word	1065353216
	.word	1065353216
	.word	0
	.word	-1082130432
	.word	-1082130432
	.word	-1082130432
	.word	0
	.word	1065353216
	.word	1065353216
	.word	-1082130432
	.word	0
	.word	1065353216
	.word	-1082130432
	.word	-1082130432
	.word	0
	.word	-1082130432
	.word	1065353216
	.word	-1082130432
	.word	0
	.word	-1082130432
	.word	-1082130432
	.word	1065353216
	.word	1065353216
	.word	0
	.word	1065353216
	.word	1065353216
	.word	1065353216
	.word	0
	.word	-1082130432
	.word	1065353216
	.word	-1082130432
	.word	0
	.word	1065353216
	.word	1065353216
	.word	-1082130432
	.word	0
	.word	-1082130432
	.word	-1082130432
	.word	1065353216
	.word	0
	.word	1065353216
	.word	-1082130432
	.word	1065353216
	.word	0
	.word	-1082130432
	.word	-1082130432
	.word	-1082130432
	.word	0
	.word	1065353216
	.word	-1082130432
	.word	-1082130432
	.word	0
	.word	-1082130432
	.word	1065353216
	.word	1065353216
	.word	1065353216
	.word	0
	.word	1065353216
	.word	1065353216
	.word	-1082130432
	.word	0
	.word	1065353216
	.word	-1082130432
	.word	1065353216
	.word	0
	.word	1065353216
	.word	-1082130432
	.word	-1082130432
	.word	0
	.word	-1082130432
	.word	1065353216
	.word	1065353216
	.word	0
	.word	-1082130432
	.word	1065353216
	.word	-1082130432
	.word	0
	.word	-1082130432
	.word	-1082130432
	.word	1065353216
	.word	0
	.word	-1082130432
	.word	-1082130432
	.word	-1082130432
	.word	0
	.bss
	.align	2
	.set	.LANCHOR0,. + 0
	.type	perm, %object
	.size	perm, 4
perm:
	.space	4
	.type	permMod12, %object
	.size	permMod12, 4
permMod12:
	.space	4
	.text
.Letext0:
	.file 2 "/opt/devkitpro/devkitARM/lib/gcc/arm-none-eabi/11.2.0/include/stddef.h"
	.file 3 "/home/tobi/Dokumente/Craftus-Next/dependencies/sino/sino.h"
	.file 4 "/opt/devkitpro/devkitARM/arm-none-eabi/include/stdlib.h"