	.arch armv6k
	.eabi_attribute 28, 1
	.eabi_attribute 20, 1
	.eabi_attribute 21, 1
	.eabi_attribute 23, 3
	.eabi_attribute 24, 1
	.eabi_attribute 25, 1
	.eabi_attribute 26, 1
	.eabi_attribute 30, 2
	.eabi_attribute 34, 1
	.eabi_attribute 18, 4
	.file	"SmeaGen.c"
	.text
.Ltext0:
	.cfi_sections	.debug_frame
	.section	.text.SmeaGen_Init,"ax",%progbits
	.align	2
	.global	SmeaGen_Init
	.syntax unified
	.arm
	.fpu vfp
	.type	SmeaGen_Init, %function
SmeaGen_Init:
.LVL0:
.LFB124:
	.file 1 "/home/tobi/Dokumente/Craftus-Next/source/world/worldgen/SmeaGen.c"
	.loc 1 5 47 view -0
	.cfi_startproc
	@ args = 0, pretend = 0, frame = 0
	@ frame_needed = 0, uses_anonymous_args = 0
	@ link register save eliminated.
	.loc 1 5 49 view .LVU1
	.loc 1 5 60 is_stmt 0 view .LVU2
	str	r1, [r0]
	.loc 1 5 69 view .LVU3
	bx	lr
	.cfi_endproc
.LFE124:
	.size	SmeaGen_Init, .-SmeaGen_Init
	.section	.text.SmeaGen_Generate,"ax",%progbits
	.align	2
	.global	SmeaGen_Generate
	.syntax unified
	.arm
	.fpu vfp
	.type	SmeaGen_Generate, %function
SmeaGen_Generate:
.LVL1:
.LFB125:
	.loc 1 8 70 is_stmt 1 view -0
	.cfi_startproc
	@ args = 4, pretend = 0, frame = 16
	@ frame_needed = 0, uses_anonymous_args = 0
	.loc 1 8 70 is_stmt 0 view .LVU5
	push	{r4, r5, r6, r7, r8, r9, r10, fp, lr}
	.cfi_def_cfa_offset 36
	.cfi_offset 4, -36
	.cfi_offset 5, -32
	.cfi_offset 6, -28
	.cfi_offset 7, -24
	.cfi_offset 8, -20
	.cfi_offset 9, -16
	.cfi_offset 10, -12
	.cfi_offset 11, -8
	.cfi_offset 14, -4
	vpush.64	{d8}
	.cfi_def_cfa_offset 44
	.cfi_offset 80, -44
	.cfi_offset 81, -40
.LBB19:
	.loc 1 9 11 view .LVU6
	mov	r6, #0
.LBB20:
.LBB21:
	.loc 1 16 23 view .LVU7
	vldr.32	s16, .L15
	.loc 1 16 93 view .LVU8
	vldr.32	s17, .L15+4
	mov	r4, r2
.LVL2:
	.loc 1 16 93 view .LVU9
.LBE21:
.LBE20:
.LBE19:
	.loc 1 9 2 is_stmt 1 view .LVU10
.LBB98:
	.loc 1 9 7 view .LVU11
	.loc 1 9 20 view .LVU12
.LBB96:
.LBB92:
.LBB22:
.LBB23:
.LBB24:
	.file 2 "/home/tobi/Dokumente/Craftus-Next/include/world/Chunk.h"
	.loc 2 112 47 is_stmt 0 view .LVU13
	mov	r8, #1
.LBE24:
.LBE23:
.LBE22:
.LBE92:
.LBE96:
.LBE98:
	.loc 1 8 70 view .LVU14
	sub	sp, sp, #20
	.cfi_def_cfa_offset 64
	.loc 1 8 70 view .LVU15
	add	r0, sp, #16
	stmdb	r0, {r1, r2, r3}
	add	r9, r2, #65536
.LVL3:
.L4:
.LBB99:
.LBB97:
	.loc 1 10 21 is_stmt 1 view .LVU16
	.loc 1 10 12 is_stmt 0 view .LVU17
	mov	r5, #0
	lsl	r7, r6, #4
.LVL4:
.L9:
.LBB93:
	.loc 1 11 4 is_stmt 1 view .LVU18
	.loc 1 12 4 view .LVU19
	.loc 1 14 4 view .LVU20
	.loc 1 15 4 view .LVU21
	.loc 1 16 4 view .LVU22
	.loc 1 12 41 is_stmt 0 view .LVU23
	ldr	r2, [r4, #20]
	.loc 1 11 41 view .LVU24
	ldr	r3, [r4, #16]
	.loc 1 12 25 view .LVU25
	add	r2, r5, r2, lsl #4
	.loc 1 11 25 view .LVU26
	add	r3, r6, r3, lsl #4
	.loc 1 12 25 view .LVU27
	vmov	s1, r2	@ int
	.loc 1 11 25 view .LVU28
	vmov	s0, r3	@ int
	.loc 1 12 10 view .LVU29
	vcvt.f32.s32	s1, s1
	.loc 1 11 10 view .LVU30
	vcvt.f32.s32	s0, s0
	.loc 1 16 23 view .LVU31
	vmul.f32	s1, s1, s16
	vmul.f32	s0, s0, s16
	bl	sino_2d
.LVL5:
	.loc 1 16 93 view .LVU32
	vmul.f32	s0, s0, s17
	.loc 1 16 17 view .LVU33
	vcvt.s32.f32	s15, s0
	vmov	lr, s15	@ int
.LBB47:
	.loc 1 19 31 view .LVU34
	add	r0, lr, #61
	.loc 1 19 22 view .LVU35
	cmp	r0, #0
	ldrle	r10, [r9, #668]
.LBE47:
	.loc 1 16 8 view .LVU36
	add	ip, lr, #64
.LVL6:
	.loc 1 19 4 is_stmt 1 view .LVU37
.LBB48:
	.loc 1 19 9 view .LVU38
	.loc 1 19 22 view .LVU39
	ble	.L6
	.loc 1 19 13 is_stmt 0 view .LVU40
	mov	r1, #0
	ldr	r10, [r9, #668]
.LVL7:
.L7:
	.loc 1 20 5 is_stmt 1 view .LVU41
.LBB43:
.LBI23:
	.loc 2 110 13 view .LVU42
.LBB39:
	.loc 2 111 2 view .LVU43
	.loc 2 111 40 is_stmt 0 view .LVU44
	asr	r3, r1, #4
.LVL8:
	.loc 2 112 2 is_stmt 1 view .LVU45
	.loc 2 112 47 is_stmt 0 view .LVU46
	add	fp, r3, r3, lsl #8
	add	r3, r3, fp, lsl #1
.LVL9:
	.loc 2 112 23 view .LVU47
	and	r2, r1, #15
.LBB25:
.LBB26:
	.loc 2 101 8 view .LVU48
	lsl	fp, r3, #4
.LBE26:
.LBE25:
	.loc 2 112 47 view .LVU49
	add	r3, r7, r3
	add	r3, r3, r2
.LBB33:
.LBB27:
	.loc 2 101 8 view .LVU50
	add	r2, r7, r2
	add	r2, fp, r2, lsl #4
.LBE27:
.LBE33:
	.loc 2 112 47 view .LVU51
	add	r3, r4, r3, lsl #4
.LBB34:
.LBB28:
	.loc 2 101 8 view .LVU52
	add	r2, r4, r2
.LBE28:
.LBE34:
	.loc 2 112 47 view .LVU53
	add	r3, r3, r5
	strb	r8, [r3, #28]
	.loc 2 113 2 is_stmt 1 view .LVU54
.LVL10:
.LBB35:
.LBI25:
	.loc 2 97 13 view .LVU55
.LBB29:
	.loc 2 98 2 view .LVU56
	.loc 2 99 2 view .LVU57
	.loc 2 100 2 view .LVU58
	.loc 2 101 2 view .LVU59
	.loc 2 101 8 is_stmt 0 view .LVU60
	add	r3, r2, r5
	add	r3, r3, #4096
	.loc 2 101 17 view .LVU61
	ldrb	r2, [r3, #28]	@ zero_extendqisi2
	.loc 2 102 2 view .LVU62
	add	fp, r4, fp
	.loc 2 101 17 view .LVU63
	bic	r2, r2, #15
	.loc 2 102 2 view .LVU64
	add	fp, fp, #8192
	.loc 2 101 8 view .LVU65
	strb	r2, [r3, #28]
	.loc 2 102 2 is_stmt 1 view .LVU66
	ldr	r3, [fp, #28]
.LBE29:
.LBE35:
.LBE39:
.LBE43:
	.loc 1 19 37 is_stmt 0 view .LVU67
	add	r1, r1, #1
.LVL11:
.LBB44:
.LBB40:
.LBB36:
.LBB30:
	.loc 2 102 2 view .LVU68
	add	r3, r3, #1
.LBE30:
.LBE36:
.LBE40:
.LBE44:
	.loc 1 19 22 view .LVU69
	cmp	r0, r1
.LBB45:
.LBB41:
.LBB37:
.LBB31:
	.loc 2 102 2 view .LVU70
	str	r3, [fp, #28]
	.loc 2 103 2 is_stmt 1 view .LVU71
.LVL12:
	.loc 2 103 2 is_stmt 0 view .LVU72
.LBE31:
.LBE37:
.LBE41:
.LBE45:
	.loc 1 19 37 is_stmt 1 view .LVU73
	.loc 1 19 22 view .LVU74
	bne	.L7
.LBB46:
.LBB42:
.LBB38:
.LBB32:
	.loc 2 103 2 is_stmt 0 view .LVU75
	add	r10, r10, #61
	add	r10, r10, lr
.LVL13:
.L6:
	.loc 2 103 2 view .LVU76
.LBE32:
.LBE38:
.LBE42:
.LBE46:
.LBE48:
.LBB49:
	.loc 1 22 31 is_stmt 1 view .LVU77
.LBB50:
.LBB51:
	.loc 2 112 47 is_stmt 0 view .LVU78
	mov	lr, #2
.L8:
	.loc 2 112 47 view .LVU79
.LBE51:
.LBE50:
	.loc 1 23 5 is_stmt 1 view .LVU80
.LVL14:
.LBB69:
.LBI50:
	.loc 2 110 13 view .LVU81
.LBB66:
	.loc 2 111 2 view .LVU82
	.loc 2 111 40 is_stmt 0 view .LVU83
	cmp	r0, #0
	add	r3, r0, #15
	movge	r3, r0
	.loc 2 112 23 view .LVU84
	rsbs	r2, r0, #0
	.loc 2 111 40 view .LVU85
	asr	r3, r3, #4
.LVL15:
	.loc 2 112 2 is_stmt 1 view .LVU86
	.loc 2 112 23 is_stmt 0 view .LVU87
	and	r2, r2, #15
	.loc 2 112 47 view .LVU88
	add	fp, r3, r3, lsl #8
	.loc 2 112 23 view .LVU89
	and	r1, r0, #15
	.loc 2 112 47 view .LVU90
	add	r3, r3, fp, lsl #1
.LVL16:
	.loc 2 112 23 view .LVU91
	rsbpl	r1, r2, #0
.LBB52:
.LBB53:
	.loc 2 101 8 view .LVU92
	lsl	fp, r3, #4
	add	r2, r7, r1
.LBE53:
.LBE52:
	.loc 2 112 47 view .LVU93
	add	r3, r7, r3
.LBB60:
.LBB54:
	.loc 2 101 8 view .LVU94
	add	r2, fp, r2, lsl #4
.LBE54:
.LBE60:
	.loc 2 112 47 view .LVU95
	add	r3, r3, r1
	add	r3, r4, r3, lsl #4
.LBB61:
.LBB55:
	.loc 2 101 8 view .LVU96
	add	r2, r4, r2
.LBE55:
.LBE61:
	.loc 2 112 47 view .LVU97
	add	r3, r3, r5
.LBB62:
.LBB56:
	.loc 2 101 8 view .LVU98
	add	r2, r2, r5
.LBE56:
.LBE62:
	.loc 2 112 47 view .LVU99
	strb	lr, [r3, #28]
	.loc 2 113 2 is_stmt 1 view .LVU100
.LVL17:
.LBB63:
.LBI52:
	.loc 2 97 13 view .LVU101
.LBB57:
	.loc 2 98 2 view .LVU102
	.loc 2 99 2 view .LVU103
	.loc 2 100 2 view .LVU104
	.loc 2 101 2 view .LVU105
	.loc 2 101 8 is_stmt 0 view .LVU106
	add	r2, r2, #4096
	.loc 2 101 17 view .LVU107
	ldrb	r3, [r2, #28]	@ zero_extendqisi2
	.loc 2 102 2 view .LVU108
	add	fp, r4, fp
	.loc 2 101 17 view .LVU109
	bic	r3, r3, #15
	.loc 2 102 2 view .LVU110
	add	fp, fp, #8192
	.loc 2 101 8 view .LVU111
	strb	r3, [r2, #28]
	.loc 2 102 2 is_stmt 1 view .LVU112
	ldr	r3, [fp, #28]
.LBE57:
.LBE63:
.LBE66:
.LBE69:
	.loc 1 22 42 is_stmt 0 view .LVU113
	add	r0, r0, #1
.LVL18:
.LBB70:
.LBB67:
.LBB64:
.LBB58:
	.loc 2 102 2 view .LVU114
	add	r3, r3, #1
.LBE58:
.LBE64:
.LBE67:
.LBE70:
	.loc 1 22 31 view .LVU115
	cmp	ip, r0
.LBB71:
.LBB68:
.LBB65:
.LBB59:
	.loc 2 102 2 view .LVU116
	str	r3, [fp, #28]
	.loc 2 103 2 is_stmt 1 view .LVU117
.LVL19:
	.loc 2 103 2 is_stmt 0 view .LVU118
.LBE59:
.LBE65:
.LBE68:
.LBE71:
	.loc 1 22 42 is_stmt 1 view .LVU119
	.loc 1 22 31 view .LVU120
	bne	.L8
.LBE49:
	.loc 1 25 4 view .LVU121
.LVL20:
.LBB72:
.LBI72:
	.loc 2 110 13 view .LVU122
.LBB73:
	.loc 2 111 2 view .LVU123
	.loc 2 111 40 is_stmt 0 view .LVU124
	cmp	ip, #0
	add	r3, ip, #15
	movge	r3, ip
	.loc 2 112 47 view .LVU125
	mov	r2, #3
	.loc 2 112 23 view .LVU126
	rsbs	r1, ip, #0
	.loc 2 111 40 view .LVU127
	asr	r3, r3, #4
.LVL21:
	.loc 2 112 2 is_stmt 1 view .LVU128
	.loc 2 112 23 is_stmt 0 view .LVU129
	and	r1, r1, #15
	.loc 2 112 47 view .LVU130
	add	r0, r3, r3, lsl #8
.LVL22:
	.loc 2 112 23 view .LVU131
	and	ip, ip, #15
.LVL23:
	.loc 2 112 47 view .LVU132
	add	r3, r3, r0, lsl #1
.LVL24:
	.loc 2 112 23 view .LVU133
	rsbpl	ip, r1, #0
.LBB74:
.LBB75:
	.loc 2 101 8 view .LVU134
	lsl	r0, r3, #4
	add	r1, r7, ip
.LBE75:
.LBE74:
	.loc 2 112 47 view .LVU135
	add	r3, r7, r3
.LBB82:
.LBB76:
	.loc 2 101 8 view .LVU136
	add	r1, r0, r1, lsl #4
.LBE76:
.LBE82:
	.loc 2 112 47 view .LVU137
	add	r3, r3, ip
	add	r3, r4, r3, lsl #4
.LBB83:
.LBB77:
	.loc 2 101 8 view .LVU138
	add	r1, r4, r1
.LBE77:
.LBE83:
	.loc 2 112 47 view .LVU139
	add	r3, r3, r5
.LBB84:
.LBB78:
	.loc 2 101 8 view .LVU140
	add	r1, r1, r5
.LBE78:
.LBE84:
	.loc 2 112 47 view .LVU141
	strb	r2, [r3, #28]
	.loc 2 113 2 is_stmt 1 view .LVU142
.LVL25:
.LBB85:
.LBI74:
	.loc 2 97 13 view .LVU143
.LBB79:
	.loc 2 98 2 view .LVU144
	.loc 2 99 2 view .LVU145
	.loc 2 100 2 view .LVU146
	.loc 2 101 2 view .LVU147
	.loc 2 101 8 is_stmt 0 view .LVU148
	add	r3, r1, #4096
	.loc 2 101 17 view .LVU149
	ldrb	r2, [r3, #28]	@ zero_extendqisi2
	.loc 2 102 2 view .LVU150
	add	r0, r4, r0
	.loc 2 101 17 view .LVU151
	bic	r2, r2, #15
	.loc 2 101 8 view .LVU152
	strb	r2, [r3, #28]
	.loc 2 102 2 is_stmt 1 view .LVU153
	add	r0, r0, #8192
	ldr	r3, [r0, #28]
.LBE79:
.LBE85:
.LBE73:
.LBE72:
.LBE93:
	.loc 1 10 30 is_stmt 0 view .LVU154
	add	r5, r5, #1
.LVL26:
.LBB94:
.LBB90:
.LBB88:
.LBB86:
.LBB80:
	.loc 2 103 2 view .LVU155
	add	r10, r10, #4
	.loc 2 102 2 view .LVU156
	add	r3, r3, #1
.LBE80:
.LBE86:
.LBE88:
.LBE90:
.LBE94:
	.loc 1 10 21 view .LVU157
	cmp	r5, #16
.LBB95:
.LBB91:
.LBB89:
.LBB87:
.LBB81:
	.loc 2 102 2 view .LVU158
	str	r3, [r0, #28]
	.loc 2 103 2 is_stmt 1 view .LVU159
	str	r10, [r9, #668]
.LVL27:
	.loc 2 103 2 is_stmt 0 view .LVU160
.LBE81:
.LBE87:
.LBE89:
.LBE91:
.LBE95:
	.loc 1 10 30 is_stmt 1 view .LVU161
	.loc 1 10 21 view .LVU162
	bne	.L9
.LBE97:
	.loc 1 9 29 discriminator 2 view .LVU163
	add	r6, r6, #1
.LVL28:
	.loc 1 9 20 discriminator 2 view .LVU164
	cmp	r6, #16
	bne	.L4
.LBE99:
	.loc 1 28 1 is_stmt 0 view .LVU165
	add	sp, sp, #20
	.cfi_def_cfa_offset 44
	@ sp needed
	vldm	sp!, {d8}
	.cfi_restore 80
	.cfi_restore 81
	.cfi_def_cfa_offset 36
	pop	{r4, r5, r6, r7, r8, r9, r10, fp, pc}
.LVL29:
.L16:
	.loc 1 28 1 view .LVU166
	.align	2
.L15:
	.word	1023410176
	.word	1090519040
	.cfi_endproc
.LFE125:
	.size	SmeaGen_Generate, .-SmeaGen_Generate
	.text
.Letext0:
	.file 3 "/opt/devkitpro/devkitARM/arm-none-eabi/include/machine/_default_types.h"
	.file 4 "/opt/devkitpro/devkitARM/arm-none-eabi/include/sys/_stdint.h"
	.file 5 "/home/tobi/Dokumente/Craftus-Next/include/blocks/Block.h"
	.file 6 "/home/tobi/Dokumente/Craftus-Next/include/misc/Xorshift.h"
	.file 7 "/opt/devkitpro/devkitARM/lib/gcc/arm-none-eabi/11.2.0/include/stddef.h"
	.file 8 "/opt/devkitpro/devkitARM/arm-none-eabi/include/sys/lock.h"
	.file 9 "/home/tobi/Dokumente/Craftus-Next/include/rendering/VBOCache.h"
	.file 10 "/opt/devkitpro/libctru/include/3ds/synchronization.h"
	.file 11 "/home/tobi/Dokumente/Craftus-Next/include/world/WorkQueue.h"
	.file 12 "/home/tobi/Dokumente/Craftus-Next/include/world/World.h"
	.file 13 "/home/tobi/Dokumente/Craftus-Next/include/world/worldgen/SmeaGen.h"
	.file 14 "/home/tobi/Dokumente/Craftus-Next/dependencies/sino/sino.h"
	.file 15 "/opt/devkitpro/libctru/include/3ds/types.h"