	.arch armv6k
	.eabi_attribute 28, 1
	.eabi_attribute 20, 1
	.eabi_attribute 21, 1
	.eabi_attribute 23, 3
	.eabi_attribute 24, 1
	.eabi_attribute 25, 1
	.eabi_attribute 26, 1
	.eabi_attribute 30, 2
	.eabi_attribute 34, 1
	.eabi_attribute 18, 4
	.file	"SpriteBatch.c"
	.text
.Ltext0:
	.cfi_sections	.debug_frame
	.section	.text.compareDrawCommands,"ax",%progbits
	.align	2
	.syntax unified
	.arm
	.fpu vfp
	.type	compareDrawCommands, %function
compareDrawCommands:
.LVL0:
.LFB218:
	.file 1 "/home/tobi/Dokumente/Craftus-Next/source/gui/SpriteBatch.c"
	.loc 1 237 62 view -0
	.cfi_startproc
	@ args = 0, pretend = 0, frame = 0
	@ frame_needed = 0, uses_anonymous_args = 0
	@ link register save eliminated.
	.loc 1 238 2 view .LVU1
	.loc 1 239 2 view .LVU2
	.loc 1 241 2 view .LVU3
	.loc 1 241 24 is_stmt 0 view .LVU4
	ldr	r3, [r1]
	.loc 1 241 11 view .LVU5
	ldr	r2, [r0]
	.loc 1 241 60 view .LVU6
	cmp	r2, r3
	.loc 1 241 46 view .LVU7
	ldreq	r3, [r1, #4]
	ldreq	r2, [r0, #4]
	subeq	r0, r3, r2
.LVL1:
	.loc 1 241 60 view .LVU8
	asreq	r0, r0, #3
	addeq	r3, r0, r0, lsl #2
	addeq	r3, r3, r3, lsl #4
	addeq	r3, r3, r3, lsl #8
	addeq	r3, r3, r3, lsl #16
	addeq	r0, r0, r3, lsl #1
	subne	r0, r3, r2
	.loc 1 242 1 view .LVU9
	bx	lr
	.cfi_endproc
.LFE218:
	.size	compareDrawCommands, .-compareDrawCommands
	.section	.rodata.str1.4,"aMS",%progbits,1
	.align	2
.LC0:
	.ascii	"romfs:/assets/textures/font/ascii.png\000"
	.align	2
.LC1:
	.ascii	"romfs:/assets/textures/gui/widgets.png\000"
	.align	2
.LC2:
	.ascii	"romfs:/assets/textures/gui/options_background.png\000"
	.align	2
.LC3:
	.ascii	"romfs:/assets/textures/gui/icons.png\000"
	.section	.text.SpriteBatch_Init,"ax",%progbits
	.align	2
	.global	SpriteBatch_Init
	.syntax unified
	.arm
	.fpu vfp
	.type	SpriteBatch_Init, %function
SpriteBatch_Init:
.LVL2:
.LFB206:
	.loc 1 37 41 is_stmt 1 view -0
	.cfi_startproc
	@ args = 0, pretend = 0, frame = 256
	@ frame_needed = 0, uses_anonymous_args = 0
	.loc 1 38 2 view .LVU11
	.loc 1 37 41 is_stmt 0 view .LVU12
	push	{r4, r5, r6, r7, r8, lr}
	.cfi_def_cfa_offset 24
	.cfi_offset 4, -24
	.cfi_offset 5, -20
	.cfi_offset 6, -16
	.cfi_offset 7, -12
	.cfi_offset 8, -8
	.cfi_offset 14, -4
	.loc 1 38 2 view .LVU13
	mov	r5, #0
	ldr	r4, .L7+8
	.loc 1 37 41 view .LVU14
	sub	sp, sp, #256
	.cfi_def_cfa_offset 280
	.loc 1 37 41 view .LVU15
	mov	r7, r0
	.loc 1 40 18 view .LVU16
	mov	r0, #3072
.LVL3:
	.loc 1 38 2 view .LVU17
	str	r5, [r4]
	str	r5, [r4, #4]
	str	r5, [r4, #8]
	.loc 1 40 2 is_stmt 1 view .LVU18
	.loc 1 40 18 is_stmt 0 view .LVU19
	bl	linearAlloc
.LVL4:
	mov	r3, r0
	.loc 1 41 18 view .LVU20
	mov	r0, #122880
	.loc 1 40 16 view .LVU21
	str	r3, [r4, #12]
	.loc 1 41 2 is_stmt 1 view .LVU22
	.loc 1 41 18 is_stmt 0 view .LVU23
	bl	linearAlloc
.LVL5:
	.loc 1 41 16 view .LVU24
	str	r0, [r4, #16]
	.loc 1 43 2 is_stmt 1 view .LVU25
	.loc 1 45 2 view .LVU26
	.loc 1 45 16 is_stmt 0 view .LVU27
	mov	r0, #280
	.loc 1 43 14 view .LVU28
	str	r7, [r4, #20]
	.loc 1 45 16 view .LVU29
	bl	malloc
.LVL6:
	.loc 1 46 2 view .LVU30
	ldr	r1, .L7+12
	.loc 1 45 7 view .LVU31
	str	r0, [r4, #24]
	.loc 1 46 2 is_stmt 1 view .LVU32
	bl	FontLoader_Init
.LVL7:
	.loc 1 47 2 view .LVU33
	add	r0, r4, #28
	ldr	r1, .L7+16
	bl	Texture_Load
.LVL8:
	.loc 1 49 2 view .LVU34
	.loc 1 50 2 view .LVU35
.LBB51:
.LBB52:
	.file 2 "/opt/devkitpro/libctru/include/c3d/texture.h"
	.loc 2 96 9 is_stmt 0 view .LVU36
	add	r8, r4, #52
.LBE52:
.LBE51:
	.loc 1 50 2 view .LVU37
	mov	r2, #256
	mov	r1, #255
	mov	r0, sp
	bl	memset
.LVL9:
	.loc 1 51 2 is_stmt 1 view .LVU38
.LBB54:
.LBI51:
	.loc 2 94 19 view .LVU39
.LBB53:
	.loc 2 96 2 view .LVU40
	.loc 2 96 9 is_stmt 0 view .LVU41
	mov	r1, r5
	mov	r3, #112
	mov	r0, r8
	ldr	r2, .L7+20
	bl	C3D_TexInitWithParams
.LVL10:
	.loc 2 96 9 view .LVU42
.LBE53:
.LBE54:
	.loc 1 52 2 is_stmt 1 view .LVU43
	mov	r3, r5
	mov	r2, r5
	mov	r1, sp
	mov	r0, r8
	bl	C3D_TexLoadImage
.LVL11:
	.loc 1 54 2 view .LVU44
	add	r0, r4, #76
	ldr	r1, .L7+24
	bl	Texture_Load
.LVL12:
	.loc 1 55 9 view .LVU45
.LBB55:
.LBB56:
.LBB57:
.LBB58:
.LBB59:
	.file 3 "/opt/devkitpro/libctru/include/c3d/maths.h"
	.loc 3 285 2 is_stmt 0 view .LVU46
	add	r6, r4, #124
.LBE59:
.LBE58:
.LBE57:
.LBE56:
.LBE55:
	.loc 1 55 9 view .LVU47
	add	r0, r4, #100
	ldr	r1, .L7+28
	bl	Texture_Load
.LVL13:
	.loc 1 58 2 is_stmt 1 view .LVU48
.LBB66:
.LBI55:
	.loc 3 319 20 view .LVU49
	.loc 3 321 2 view .LVU50
.LBB64:
.LBI56:
	.loc 3 306 20 view .LVU51
.LBB62:
	.loc 3 308 2 view .LVU52
.LBB61:
.LBI58:
	.loc 3 283 20 view .LVU53
.LBB60:
	.loc 3 285 2 view .LVU54
	mov	r2, #64
	mov	r1, r5
	mov	r0, r6
	bl	memset
.LVL14:
	.loc 3 285 2 is_stmt 0 view .LVU55
.LBE60:
.LBE61:
	.loc 3 309 2 is_stmt 1 view .LVU56
	.loc 3 309 14 is_stmt 0 view .LVU57
	mov	r3, #1065353216
.LBE62:
.LBE64:
.LBE66:
	.loc 1 59 2 view .LVU58
	mov	r0, r6
	mov	r1, r5
	vldr.32	s0, .L7
.LBB67:
.LBB65:
.LBB63:
	.loc 3 309 14 view .LVU59
	str	r3, [r4, #136]	@ float
	.loc 3 310 2 is_stmt 1 view .LVU60
	.loc 3 310 14 is_stmt 0 view .LVU61
	str	r3, [r4, #148]	@ float
	.loc 3 311 2 is_stmt 1 view .LVU62
	.loc 3 311 14 is_stmt 0 view .LVU63
	str	r3, [r4, #160]	@ float
	.loc 3 312 2 is_stmt 1 view .LVU64
	.loc 3 312 14 is_stmt 0 view .LVU65
	str	r3, [r4, #172]	@ float
.LVL15:
	.loc 3 312 14 view .LVU66
.LBE63:
.LBE65:
.LBE67:
	.loc 1 59 2 is_stmt 1 view .LVU67
	bl	Mtx_RotateY
.LVL16:
	.loc 1 60 2 view .LVU68
	mov	r1, r5
	vldr.32	s0, .L7+4
	mov	r0, r6
	bl	Mtx_RotateX
.LVL17:
	.loc 1 61 1 is_stmt 0 view .LVU69
	add	sp, sp, #256
	.cfi_def_cfa_offset 24
	@ sp needed
	pop	{r4, r5, r6, r7, r8, pc}
.LVL18:
.L8:
	.loc 1 61 1 view .LVU70
	.align	2
.L7:
	.word	1061752795
	.word	1057360530
	.word	.LANCHOR0
	.word	.LC0
	.word	.LC1
	.word	1048592
	.word	.LC2
	.word	.LC3
	.cfi_endproc
.LFE206:
	.size	SpriteBatch_Init, .-SpriteBatch_Init
	.section	.text.SpriteBatch_Deinit,"ax",%progbits
	.align	2
	.global	SpriteBatch_Deinit
	.syntax unified
	.arm
	.fpu vfp
	.type	SpriteBatch_Deinit, %function
SpriteBatch_Deinit:
.LFB207:
	.loc 1 62 27 is_stmt 1 view -0
	.cfi_startproc
	@ args = 0, pretend = 0, frame = 0
	@ frame_needed = 0, uses_anonymous_args = 0
	.loc 1 63 2 view .LVU72
	.loc 1 62 27 is_stmt 0 view .LVU73
	push	{r4, lr}
	.cfi_def_cfa_offset 8
	.cfi_offset 4, -8
	.cfi_offset 14, -4
	.loc 1 63 19 view .LVU74
	ldr	r4, .L11
	.loc 1 63 4 view .LVU75
	ldr	r0, [r4]
	bl	free
.LVL19:
	.loc 1 63 28 view .LVU76
	mov	r3, #0
	.loc 1 64 2 view .LVU77
	ldr	r0, [r4, #12]
	.loc 1 63 28 view .LVU78
	str	r3, [r4]
	str	r3, [r4, #4]
	str	r3, [r4, #8]
	.loc 1 64 2 is_stmt 1 view .LVU79
	bl	linearFree
.LVL20:
	.loc 1 65 2 view .LVU80
	ldr	r0, [r4, #16]
	bl	linearFree
.LVL21:
	.loc 1 67 2 view .LVU81
	ldr	r0, [r4, #24]
	add	r0, r0, #256
	bl	C3D_TexDelete
.LVL22:
	.loc 1 68 2 view .LVU82
	ldr	r0, [r4, #24]
	bl	free
.LVL23:
	.loc 1 70 2 view .LVU83
	add	r0, r4, #52
	bl	C3D_TexDelete
.LVL24:
	.loc 1 71 2 view .LVU84
	add	r0, r4, #28
	bl	C3D_TexDelete
.LVL25:
	.loc 1 72 2 view .LVU85
	add	r0, r4, #76
	.loc 1 73 1 is_stmt 0 view .LVU86
	pop	{r4, lr}
	.cfi_restore 14
	.cfi_restore 4
	.cfi_def_cfa_offset 0
	.loc 1 72 2 view .LVU87
	b	C3D_TexDelete
.LVL26:
.L12:
	.align	2
.L11:
	.word	.LANCHOR0
	.cfi_endproc
.LFE207:
	.size	SpriteBatch_Deinit, .-SpriteBatch_Deinit
	.section	.text.SpriteBatch_BindTexture,"ax",%progbits
	.align	2
	.global	SpriteBatch_BindTexture
	.syntax unified
	.arm
	.fpu vfp
	.type	SpriteBatch_BindTexture, %function
SpriteBatch_BindTexture:
.LVL27:
.LFB208:
	.loc 1 75 48 is_stmt 1 view -0
	.cfi_startproc
	@ args = 0, pretend = 0, frame = 0
	@ frame_needed = 0, uses_anonymous_args = 0
	@ link register save eliminated.
	.loc 1 75 50 view .LVU89
	.loc 1 75 65 is_stmt 0 view .LVU90
	ldr	r3, .L14
	str	r0, [r3, #188]
	.loc 1 75 76 view .LVU91
	bx	lr
.L15:
	.align	2
.L14:
	.word	.LANCHOR0
	.cfi_endproc
.LFE208:
	.size	SpriteBatch_BindTexture, .-SpriteBatch_BindTexture
	.section	.text.SpriteBatch_BindGuiTexture,"ax",%progbits
	.align	2
	.global	SpriteBatch_BindGuiTexture
	.syntax unified
	.arm
	.fpu vfp
	.type	SpriteBatch_BindGuiTexture, %function
SpriteBatch_BindGuiTexture:
.LVL28:
.LFB209:
	.loc 1 76 53 is_stmt 1 view -0
	.cfi_startproc
	@ args = 0, pretend = 0, frame = 0
	@ frame_needed = 0, uses_anonymous_args = 0
	@ link register save eliminated.
	.loc 1 77 2 view .LVU93
	cmp	r0, #4
	ldrls	pc, [pc, r0, asl #2]
	b	.L16
.L19:
	.word	.L23
	.word	.L22
	.word	.L21
	.word	.L20
	.word	.L18
.L18:
	.loc 1 91 4 view .LVU94
	.loc 1 91 19 is_stmt 0 view .LVU95
	ldr	r3, .L24
	add	r2, r3, #76
	str	r2, [r3, #188]
	.loc 1 92 4 is_stmt 1 view .LVU96
.L16:
	.loc 1 96 1 is_stmt 0 view .LVU97
	bx	lr
.L23:
	.loc 1 79 4 is_stmt 1 view .LVU98
	.loc 1 79 19 is_stmt 0 view .LVU99
	ldr	r3, .L24
	add	r2, r3, #52
	str	r2, [r3, #188]
	.loc 1 80 4 is_stmt 1 view .LVU100
	bx	lr
.L22:
	.loc 1 82 4 view .LVU101
	.loc 1 82 19 is_stmt 0 view .LVU102
	ldr	r2, .L24
	.loc 1 82 21 view .LVU103
	ldr	r3, [r2, #24]
	add	r3, r3, #256
	.loc 1 82 19 view .LVU104
	str	r3, [r2, #188]
	.loc 1 83 4 is_stmt 1 view .LVU105
	bx	lr
.L21:
	.loc 1 88 4 view .LVU106
	.loc 1 88 19 is_stmt 0 view .LVU107
	ldr	r3, .L24
	add	r2, r3, #100
	str	r2, [r3, #188]
	.loc 1 89 4 is_stmt 1 view .LVU108
	bx	lr
.L20:
	.loc 1 85 4 view .LVU109
	.loc 1 85 19 is_stmt 0 view .LVU110
	ldr	r3, .L24
	add	r2, r3, #28
	str	r2, [r3, #188]
	.loc 1 86 4 is_stmt 1 view .LVU111
	bx	lr
.L25:
	.align	2
.L24:
	.word	.LANCHOR0
	.cfi_endproc
.LFE209:
	.size	SpriteBatch_BindGuiTexture, .-SpriteBatch_BindGuiTexture
	.section	.text.SpriteBatch_PushSingleColorQuad,"ax",%progbits
	.align	2
	.global	SpriteBatch_PushSingleColorQuad
	.syntax unified
	.arm
	.fpu vfp
	.type	SpriteBatch_PushSingleColorQuad, %function
SpriteBatch_PushSingleColorQuad:
.LVL29:
.LFB210:
	.loc 1 98 88 view -0
	.cfi_startproc
	@ args = 8, pretend = 0, frame = 0
	@ frame_needed = 0, uses_anonymous_args = 0
	.loc 1 99 2 view .LVU113
.LBB74:
.LBI74:
	.loc 1 75 6 view .LVU114
.LBB75:
	.loc 1 75 50 view .LVU115
.LBE75:
.LBE74:
	.loc 1 98 88 is_stmt 0 view .LVU116
	push	{r4, r5, r6, r7, r8, r9, r10, lr}
	.cfi_def_cfa_offset 32
	.cfi_offset 4, -32
	.cfi_offset 5, -28
	.cfi_offset 6, -24
	.cfi_offset 7, -20
	.cfi_offset 8, -16
	.cfi_offset 9, -12
	.cfi_offset 10, -8
	.cfi_offset 14, -4
.LBB78:
.LBB76:
	.loc 1 75 65 view .LVU117
	ldr	r4, .L29
.LBE76:
.LBE78:
	.loc 1 98 88 view .LVU118
	mov	r7, r2
.LBB79:
.LBB77:
	.loc 1 75 65 view .LVU119
	add	r2, r4, #52
.LVL30:
	.loc 1 75 65 view .LVU120
	str	r2, [r4, #188]
.LVL31:
	.loc 1 75 65 view .LVU121
.LBE77:
.LBE79:
	.loc 1 100 2 is_stmt 1 view .LVU122
	.loc 1 98 88 is_stmt 0 view .LVU123
	mov	r9, r0
	mov	r8, r1
	mov	r5, r3
.LBB80:
.LBB81:
	.loc 1 106 4 view .LVU124
	mov	r0, r4
.LVL32:
	.loc 1 106 4 view .LVU125
	mov	r3, #36
.LVL33:
	.loc 1 106 4 view .LVU126
	add	r2, r4, #8
	add	r1, r4, #4
.LVL34:
	.loc 1 106 4 view .LVU127
.LBE81:
.LBE80:
	.loc 1 98 88 view .LVU128
	ldrsh	r6, [sp, #36]
.LVL35:
.LBB85:
.LBI80:
	.loc 1 105 6 is_stmt 1 view .LVU129
.LBB84:
	.loc 1 106 2 view .LVU130
	.loc 1 106 4 is_stmt 0 view .LVU131
	bl	vec_expand_
.LVL36:
	.loc 1 106 119 view .LVU132
	cmp	r0, #0
	popne	{r4, r5, r6, r7, r8, r9, r10, pc}
.LVL37:
.LBB82:
.LBI82:
	.loc 1 105 6 is_stmt 1 view .LVU133
.LBB83:
	.loc 1 106 161 is_stmt 0 view .LVU134
	ldr	r3, .L29+4
	.loc 1 106 224 view .LVU135
	add	r5, r9, r5
.LVL38:
	.loc 1 106 161 view .LVU136
	ldrh	r2, [r3]
	.loc 1 106 272 view .LVU137
	ldr	r3, [sp, #32]
	.loc 1 106 161 view .LVU138
	smulbb	r9, r9, r2
.LVL39:
	.loc 1 106 272 view .LVU139
	add	r3, r8, r3
	.loc 1 106 161 view .LVU140
	smulbb	r5, r5, r2
	smulbb	r8, r8, r2
.LVL40:
	.loc 1 106 161 view .LVU141
	smulbb	r3, r3, r2
	.loc 1 106 149 view .LVU142
	ldr	r2, [r4, #4]
	.loc 1 106 132 view .LVU143
	ldr	ip, [r4]
	.loc 1 106 138 view .LVU144
	add	r1, r2, r2, lsl #3
	.loc 1 106 157 view .LVU145
	add	r2, r2, #1
	str	r2, [r4, #4]
	.loc 1 106 161 view .LVU146
	str	r7, [ip, r1, lsl #2]
	.loc 1 106 138 view .LVU147
	add	r2, ip, r1, lsl #2
	.loc 1 106 161 view .LVU148
	ldr	r1, [r4, #188]
	sxth	r9, r9
	str	r1, [r2, #4]
	ldr	r1, .L29+8
	sxth	r5, r5
	sxth	r8, r8
	sxth	r3, r3
	str	r0, [r2, #24]
	strh	r6, [r2, #32]	@ movhi
.LVL41:
	.loc 1 106 161 view .LVU149
	strh	r9, [r2, #8]	@ movhi
	strh	r8, [r2, #10]	@ movhi
	strh	r5, [r2, #12]	@ movhi
	strh	r8, [r2, #14]	@ movhi
	strh	r9, [r2, #16]	@ movhi
	strh	r3, [r2, #18]	@ movhi
	strh	r5, [r2, #20]	@ movhi
	strh	r3, [r2, #22]	@ movhi
	str	r1, [r2, #28]
.LBE83:
.LBE82:
.LBE84:
.LBE85:
	.loc 1 101 1 view .LVU150
	pop	{r4, r5, r6, r7, r8, r9, r10, pc}
.L30:
	.align	2
.L29:
	.word	.LANCHOR0
	.word	.LANCHOR1
	.word	262148
	.cfi_endproc
.LFE210:
	.size	SpriteBatch_PushSingleColorQuad, .-SpriteBatch_PushSingleColorQuad
	.section	.text.SpriteBatch_PushQuad,"ax",%progbits
	.align	2
	.global	SpriteBatch_PushQuad
	.syntax unified
	.arm
	.fpu vfp
	.type	SpriteBatch_PushQuad, %function
SpriteBatch_PushQuad:
.LVL42:
.LFB211:
	.loc 1 102 94 is_stmt 1 view -0
	.cfi_startproc
	@ args = 20, pretend = 0, frame = 0
	@ frame_needed = 0, uses_anonymous_args = 0
	.loc 1 103 2 view .LVU152
	.loc 1 102 94 is_stmt 0 view .LVU153
	push	{r4, r5, r6, r7, r8, lr}
	.cfi_def_cfa_offset 24
	.cfi_offset 4, -24
	.cfi_offset 5, -20
	.cfi_offset 6, -16
	.cfi_offset 7, -12
	.cfi_offset 8, -8
	.cfi_offset 14, -4
.LBB90:
.LBB91:
	.loc 1 106 4 view .LVU154
	ldr	r5, .L34
.LBE91:
.LBE90:
	.loc 1 102 94 view .LVU155
	mov	r8, r0
	mov	r7, r1
	mov	r6, r2
	mov	r4, r3
.LBB96:
.LBB94:
	.loc 1 106 4 view .LVU156
	mov	r0, r5
.LVL43:
	.loc 1 106 4 view .LVU157
	mov	r3, #36
.LVL44:
	.loc 1 106 4 view .LVU158
	add	r2, r5, #8
.LVL45:
	.loc 1 106 4 view .LVU159
	add	r1, r5, #4
.LVL46:
	.loc 1 106 4 view .LVU160
.LBE94:
.LBI90:
	.loc 1 105 6 is_stmt 1 view .LVU161
.LBB95:
	.loc 1 106 2 view .LVU162
	.loc 1 106 4 is_stmt 0 view .LVU163
	bl	vec_expand_
.LVL47:
	.loc 1 106 119 view .LVU164
	cmp	r0, #0
	popne	{r4, r5, r6, r7, r8, pc}
.LVL48:
.LBB92:
.LBI92:
	.loc 1 105 6 is_stmt 1 view .LVU165
.LBB93:
	.loc 1 106 161 is_stmt 0 view .LVU166
	mvn	r1, #32768
	ldr	r3, .L34+4
	.loc 1 106 224 view .LVU167
	add	r4, r8, r4
.LVL49:
	.loc 1 106 161 view .LVU168
	ldrh	r2, [r3]
	.loc 1 106 272 view .LVU169
	ldr	r3, [sp, #24]
	.loc 1 106 161 view .LVU170
	smulbb	r8, r8, r2
.LVL50:
	.loc 1 106 272 view .LVU171
	add	r3, r7, r3
	.loc 1 106 161 view .LVU172
	smulbb	r4, r4, r2
	smulbb	r7, r7, r2
.LVL51:
	.loc 1 106 161 view .LVU173
	smulbb	r3, r3, r2
	.loc 1 106 149 view .LVU174
	ldr	r2, [r5, #4]
	.loc 1 106 132 view .LVU175
	ldr	ip, [r5]
	.loc 1 106 138 view .LVU176
	add	r0, r2, r2, lsl #3
	.loc 1 106 157 view .LVU177
	add	r2, r2, #1
	str	r2, [r5, #4]
	.loc 1 106 138 view .LVU178
	add	r2, ip, r0, lsl #2
	.loc 1 106 161 view .LVU179
	str	r6, [ip, r0, lsl #2]
	strh	r1, [r2, #32]	@ movhi
.LVL52:
	.loc 1 106 161 view .LVU180
	ldr	r1, [r5, #188]
	sxth	r3, r3
	.loc 1 106 340 view .LVU181
	ldr	r0, [sp, #36]
	.loc 1 106 161 view .LVU182
	str	r1, [r2, #4]
	strh	r3, [r2, #18]	@ movhi
	.loc 1 106 340 view .LVU183
	ldr	r1, [sp, #28]
	.loc 1 106 161 view .LVU184
	strh	r3, [r2, #22]	@ movhi
	ldr	r3, [sp, #28]
	.loc 1 106 340 view .LVU185
	add	r1, r1, r0
	.loc 1 106 161 view .LVU186
	strh	r3, [r2, #24]	@ movhi
	.loc 1 106 349 view .LVU187
	ldr	r0, [sp, #40]
	ldr	r3, [sp, #32]
	.loc 1 106 161 view .LVU188
	sxth	r8, r8
	.loc 1 106 349 view .LVU189
	add	r3, r3, r0
	.loc 1 106 161 view .LVU190
	ldr	r0, [sp, #32]
	sxth	r4, r4
	sxth	r7, r7
	strh	r8, [r2, #8]	@ movhi
	strh	r8, [r2, #16]	@ movhi
	strh	r7, [r2, #10]	@ movhi
	strh	r7, [r2, #14]	@ movhi
	strh	r4, [r2, #12]	@ movhi
	strh	r4, [r2, #20]	@ movhi
	strh	r0, [r2, #26]	@ movhi
	strh	r1, [r2, #28]	@ movhi
	strh	r3, [r2, #30]	@ movhi
.LBE93:
.LBE92:
.LBE95:
.LBE96:
	.loc 1 104 1 view .LVU191
	pop	{r4, r5, r6, r7, r8, pc}
.L35:
	.align	2
.L34:
	.word	.LANCHOR0
	.word	.LANCHOR1
	.cfi_endproc
.LFE211:
	.size	SpriteBatch_PushQuad, .-SpriteBatch_PushQuad
	.section	.text.SpriteBatch_PushQuadColor,"ax",%progbits
	.align	2
	.global	SpriteBatch_PushQuadColor
	.syntax unified
	.arm
	.fpu vfp
	.type	SpriteBatch_PushQuadColor, %function
SpriteBatch_PushQuadColor:
.LVL53:
.LFB212:
	.loc 1 105 114 is_stmt 1 view -0
	.cfi_startproc
	@ args = 24, pretend = 0, frame = 0
	@ frame_needed = 0, uses_anonymous_args = 0
	.loc 1 106 2 view .LVU193
	.loc 1 105 114 is_stmt 0 view .LVU194
	push	{r4, r5, r6, r7, r8, r9, r10, lr}
	.cfi_def_cfa_offset 32
	.cfi_offset 4, -32
	.cfi_offset 5, -28
	.cfi_offset 6, -24
	.cfi_offset 7, -20
	.cfi_offset 8, -16
	.cfi_offset 9, -12
	.cfi_offset 10, -8
	.cfi_offset 14, -4
	.loc 1 106 4 view .LVU195
	ldr	r5, .L39
	.loc 1 105 114 view .LVU196
	mov	r9, r0
	mov	r8, r1
	mov	r7, r2
	mov	r4, r3
	.loc 1 106 4 view .LVU197
	mov	r0, r5
.LVL54:
	.loc 1 106 4 view .LVU198
	mov	r3, #36
.LVL55:
	.loc 1 106 4 view .LVU199
	add	r2, r5, #8
.LVL56:
	.loc 1 106 4 view .LVU200
	add	r1, r5, #4
.LVL57:
	.loc 1 105 114 view .LVU201
	ldrsh	r6, [sp, #52]
	.loc 1 106 4 view .LVU202
	bl	vec_expand_
.LVL58:
	.loc 1 106 119 view .LVU203
	cmp	r0, #0
	popne	{r4, r5, r6, r7, r8, r9, r10, pc}
.LVL59:
.LBB99:
.LBI99:
	.loc 1 105 6 is_stmt 1 view .LVU204
.LBB100:
	.loc 1 106 161 is_stmt 0 view .LVU205
	ldr	r3, .L39+4
	.loc 1 106 224 view .LVU206
	add	r4, r9, r4
.LVL60:
	.loc 1 106 161 view .LVU207
	ldrh	r2, [r3]
	.loc 1 106 272 view .LVU208
	ldr	r3, [sp, #32]
	.loc 1 106 161 view .LVU209
	smulbb	r0, r9, r2
	.loc 1 106 272 view .LVU210
	add	r3, r8, r3
	.loc 1 106 161 view .LVU211
	smulbb	r4, r4, r2
	smulbb	r8, r8, r2
.LVL61:
	.loc 1 106 161 view .LVU212
	smulbb	r3, r3, r2
	.loc 1 106 149 view .LVU213
	ldr	r2, [r5, #4]
	.loc 1 106 132 view .LVU214
	ldr	ip, [r5]
	.loc 1 106 138 view .LVU215
	add	r1, r2, r2, lsl #3
	.loc 1 106 157 view .LVU216
	add	r2, r2, #1
	str	r2, [r5, #4]
	.loc 1 106 161 view .LVU217
	str	r7, [ip, r1, lsl #2]
	.loc 1 106 138 view .LVU218
	add	r2, ip, r1, lsl #2
	.loc 1 106 161 view .LVU219
	ldr	r1, [r5, #188]
	sxth	r0, r0
	sxth	r3, r3
	str	r1, [r2, #4]
	strh	r0, [r2, #8]	@ movhi
	.loc 1 106 340 view .LVU220
	ldr	r1, [sp, #36]
	.loc 1 106 161 view .LVU221
	strh	r0, [r2, #16]	@ movhi
	strh	r3, [r2, #18]	@ movhi
	.loc 1 106 340 view .LVU222
	ldr	r0, [sp, #44]
	.loc 1 106 161 view .LVU223
	strh	r3, [r2, #22]	@ movhi
	ldr	r3, [sp, #36]
	.loc 1 106 340 view .LVU224
	add	r1, r1, r0
	.loc 1 106 161 view .LVU225
	strh	r3, [r2, #24]	@ movhi
	.loc 1 106 349 view .LVU226
	ldr	r0, [sp, #48]
	ldr	r3, [sp, #40]
	.loc 1 106 161 view .LVU227
	sxth	r4, r4
	.loc 1 106 349 view .LVU228
	add	r3, r3, r0
	.loc 1 106 161 view .LVU229
	ldr	r0, [sp, #40]
	sxth	r8, r8
	strh	r6, [r2, #32]	@ movhi
.LVL62:
	.loc 1 106 161 view .LVU230
	strh	r8, [r2, #10]	@ movhi
	strh	r8, [r2, #14]	@ movhi
	strh	r4, [r2, #12]	@ movhi
	strh	r4, [r2, #20]	@ movhi
	strh	r0, [r2, #26]	@ movhi
	strh	r1, [r2, #28]	@ movhi
	strh	r3, [r2, #30]	@ movhi
.LBE100:
.LBE99:
	.loc 1 108 1 view .LVU231
	pop	{r4, r5, r6, r7, r8, r9, r10, pc}
.L40:
	.align	2
.L39:
	.word	.LANCHOR0
	.word	.LANCHOR1
	.cfi_endproc
.LFE212:
	.size	SpriteBatch_PushQuadColor, .-SpriteBatch_PushQuadColor
	.section	.text.SpriteBatch_PushIcon,"ax",%progbits
	.align	2
	.global	SpriteBatch_PushIcon
	.syntax unified
	.arm
	.fpu vfp
	.type	SpriteBatch_PushIcon, %function
SpriteBatch_PushIcon:
.LVL63:
.LFB213:
	.loc 1 112 79 is_stmt 1 view -0
	.cfi_startproc
	@ args = 4, pretend = 0, frame = 656
	@ frame_needed = 0, uses_anonymous_args = 0
	.loc 1 113 2 view .LVU233
	.loc 1 114 2 view .LVU234
	.loc 1 112 79 is_stmt 0 view .LVU235
	push	{r4, r5, r6, r7, r8, r9, r10, fp, lr}
	.cfi_def_cfa_offset 36
	.cfi_offset 4, -36
	.cfi_offset 5, -32
	.cfi_offset 6, -28
	.cfi_offset 7, -24
	.cfi_offset 8, -20
	.cfi_offset 9, -16
	.cfi_offset 10, -12
	.cfi_offset 11, -8
	.cfi_offset 14, -4
	vpush.64	{d8, d9, d10}
	.cfi_def_cfa_offset 60
	.cfi_offset 80, -60
	.cfi_offset 81, -56
	.cfi_offset 82, -52
	.cfi_offset 83, -48
	.cfi_offset 84, -44
	.cfi_offset 85, -40
	mov	lr, r0
	mov	ip, r2
	sub	sp, sp, #660
	.cfi_def_cfa_offset 720
.LBB101:
.LBB102:
.LBB103:
.LBB104:
	.loc 1 130 17 view .LVU236
	ldr	r8, .L54+12
.LBE104:
.LBE103:
.LBE102:
.LBE101:
	.loc 1 112 79 view .LVU237
	mov	fp, r1
	.loc 1 114 2 view .LVU238
	mov	r2, #576
.LVL64:
	.loc 1 114 2 view .LVU239
	ldr	r1, .L54+16
.LVL65:
	.loc 1 114 2 view .LVU240
	add	r0, sp, #80
	.loc 1 112 79 view .LVU241
	str	r3, [sp, #36]
	vmov	s19, lr	@ int
	str	ip, [sp, #32]
	.loc 1 114 2 view .LVU242
	bl	memcpy
.LVL66:
	.loc 1 115 2 is_stmt 1 view .LVU243
.LBB148:
	.loc 1 115 7 view .LVU244
	.loc 1 115 20 view .LVU245
.LBB145:
	.loc 1 147 5 is_stmt 0 view .LVU246
	sub	r3, r8, #116
.LBB142:
.LBB137:
	.loc 1 129 8 view .LVU247
	vldr.32	s16, .L54
.LBE137:
.LBE142:
.LBE145:
	.loc 1 115 11 view .LVU248
	mov	r7, #0
	vldr.32	s18, .L54+4
.LBB146:
	.loc 1 147 5 view .LVU249
	vmov	s20, r3	@ int
	ldr	r9, .L54+20
	add	r10, sp, #160
.LVL67:
.L43:
	.loc 1 116 3 is_stmt 1 view .LVU250
	.loc 1 116 9 is_stmt 0 view .LVU251
	sub	r3, r7, #3
	bic	r3, r3, #2
	.loc 1 116 50 view .LVU252
	cmp	r7, #0
	cmpne	r3, #0
	bne	.L48
	.loc 1 117 3 is_stmt 1 view .LVU253
	.loc 1 118 3 view .LVU254
.LBB143:
.LBB138:
	.loc 1 131 39 is_stmt 0 view .LVU255
	vldr.32	s17, .L54+8
	uxtb	r4, r7
.LBE138:
.LBE143:
	.loc 1 118 3 view .LVU256
	mov	r1, r4
	mov	r2, fp
	vmov	r0, s19	@ int
	add	r3, sp, #44
	bl	Block_GetTexture
.LVL68:
	.loc 1 123 3 is_stmt 1 view .LVU257
	.loc 1 124 3 view .LVU258
	mov	r2, r4
	add	r3, sp, #40
	mov	r1, fp
	vmov	r0, s19	@ int
	bl	Block_GetColor
.LVL69:
	.loc 1 126 3 view .LVU259
.LBB144:
	.loc 1 126 8 view .LVU260
	.loc 1 126 21 view .LVU261
.LBB139:
	.loc 1 131 63 is_stmt 0 view .LVU262
	ldr	r3, [sp, #32]
	sub	r6, r10, #80
	add	r5, r3, #16
	.loc 1 132 64 view .LVU263
	ldr	r3, [sp, #36]
	.loc 1 131 58 view .LVU264
	uxth	r5, r5
	.loc 1 132 64 view .LVU265
	add	r4, r3, #16
	.loc 1 132 59 view .LVU266
	uxth	r4, r4
.LVL70:
.L45:
	.loc 1 127 4 is_stmt 1 discriminator 3 view .LVU267
	.loc 1 128 4 discriminator 3 view .LVU268
	.loc 1 129 18 is_stmt 0 discriminator 3 view .LVU269
	ldrsh	r3, [r6]
	.loc 1 130 17 discriminator 3 view .LVU270
	vldr.32	s0, .L54+4
	.loc 1 129 18 discriminator 3 view .LVU271
	vmov	s3, r3	@ int
	.loc 1 129 52 discriminator 3 view .LVU272
	ldrsh	r3, [r6, #2]
	.loc 1 129 18 discriminator 3 view .LVU273
	vcvt.f32.s32	s3, s3
	.loc 1 129 52 discriminator 3 view .LVU274
	vmov	s2, r3	@ int
	.loc 1 129 86 discriminator 3 view .LVU275
	ldrsh	r3, [r6, #4]
	.loc 1 129 52 discriminator 3 view .LVU276
	vcvt.f32.s32	s2, s2
	.loc 1 129 86 discriminator 3 view .LVU277
	vmov	s1, r3	@ int
	vcvt.f32.s32	s1, s1
	.loc 1 129 8 discriminator 3 view .LVU278
	vsub.f32	s3, s3, s16
	vsub.f32	s2, s2, s16
	vsub.f32	s1, s1, s16
.LVL71:
.LBB105:
.LBI105:
	.loc 3 156 24 is_stmt 1 discriminator 3 view .LVU279
	.loc 3 158 2 discriminator 3 view .LVU280
.LBB106:
.LBI106:
	.loc 3 48 24 discriminator 3 view .LVU281
	.loc 3 50 2 discriminator 3 view .LVU282
	.loc 3 50 2 is_stmt 0 discriminator 3 view .LVU283
.LBE106:
.LBE105:
	.loc 1 130 17 discriminator 3 view .LVU284
	mov	r0, r8
	vstr.32	s18, [sp, #48]
	vstr.32	s3, [sp, #60]
.LVL72:
	.loc 1 130 4 is_stmt 1 discriminator 3 view .LVU285
	vstr.32	s2, [sp, #56]
	vstr.32	s1, [sp, #52]
	.loc 1 130 17 is_stmt 0 discriminator 3 view .LVU286
	bl	Mtx_MultiplyFVec3
.LVL73:
	.loc 1 131 25 discriminator 3 view .LVU287
	ldr	r3, [r9]
	.loc 1 131 39 discriminator 3 view .LVU288
	vmul.f32	s12, s3, s17
	.loc 1 131 25 discriminator 3 view .LVU289
	vmov	s15, r3	@ int
	vcvt.f32.s32	s15, s15
	vmul.f32	s12, s12, s15
	.loc 1 132 40 discriminator 3 view .LVU290
	vmul.f32	s13, s2, s17
.LBB107:
.LBB108:
	.file 4 "/home/tobi/Dokumente/Craftus-Next/include/misc/NumberUtils.h"
	.loc 4 25 47 discriminator 3 view .LVU291
	vcvt.s32.f32	s14, s12
.LBE108:
.LBE107:
	.loc 1 132 26 discriminator 3 view .LVU292
	vmul.f32	s13, s13, s15
.LBB115:
.LBB109:
	.loc 4 25 58 discriminator 3 view .LVU293
	vcvt.f32.s32	s10, s14
.LBE109:
.LBE115:
.LBB116:
.LBB117:
	.loc 4 25 47 discriminator 3 view .LVU294
	vcvt.s32.f32	s15, s13
.LBE117:
.LBE116:
.LBB125:
.LBB110:
	.loc 4 25 58 discriminator 3 view .LVU295
	vcmpe.f32	s12, s10
.LBE110:
.LBE125:
.LBB126:
.LBB118:
	vcvt.f32.s32	s11, s15
.LBE118:
.LBE126:
.LBB127:
.LBB111:
	vmrs	APSR_nzcv, FPSCR
.LBE111:
.LBE127:
.LBB128:
.LBB119:
	vcmpe.f32	s13, s11
.LBE119:
.LBE128:
.LBB129:
.LBB112:
	movmi	r2, #1
	movpl	r2, #0
	.loc 4 25 56 discriminator 3 view .LVU296
	vmov	r0, s14	@ int
.LBE112:
.LBE129:
.LBB130:
.LBB120:
	.loc 4 25 58 discriminator 3 view .LVU297
	vmrs	APSR_nzcv, FPSCR
.LBE120:
.LBE130:
.LBB131:
.LBB113:
	.loc 4 25 56 discriminator 3 view .LVU298
	sub	r2, r0, r2
.LBE113:
.LBE131:
	.loc 1 132 59 discriminator 3 view .LVU299
	smulbb	r1, r3, r4
	.loc 1 131 58 discriminator 3 view .LVU300
	smlabb	r3, r3, r5, r2
.LBB132:
.LBB121:
	.loc 4 25 56 discriminator 3 view .LVU301
	vmov	r2, s15	@ int
.LBE121:
.LBE132:
	.loc 1 131 23 discriminator 3 view .LVU302
	strh	r3, [r6]	@ movhi
.LBB133:
.LBB122:
	.loc 4 25 58 discriminator 3 view .LVU303
	movmi	r3, #1
	movpl	r3, #0
.LBE122:
.LBE133:
.LBE139:
	.loc 1 126 21 discriminator 3 view .LVU304
	add	r6, r6, #16
.LBB140:
.LBB134:
.LBB123:
	.loc 4 25 56 discriminator 3 view .LVU305
	sub	r3, r2, r3
.LBE123:
.LBE134:
	.loc 1 132 59 discriminator 3 view .LVU306
	sub	r3, r1, r3
.LBE140:
	.loc 1 126 21 discriminator 3 view .LVU307
	cmp	r10, r6
.LBB141:
	.loc 1 130 17 discriminator 3 view .LVU308
	vstr.32	s0, [sp, #64]
	vstr.32	s1, [sp, #68]
	vstr.32	s2, [sp, #72]
	vstr.32	s3, [sp, #76]
	.loc 1 131 4 is_stmt 1 discriminator 3 view .LVU309
.LVL74:
.LBB135:
.LBI107:
	.loc 4 25 19 discriminator 3 view .LVU310
.LBB114:
	.loc 4 25 40 discriminator 3 view .LVU311
	.loc 4 25 40 is_stmt 0 discriminator 3 view .LVU312
.LBE114:
.LBE135:
	.loc 1 132 4 is_stmt 1 discriminator 3 view .LVU313
.LBB136:
.LBI116:
	.loc 4 25 19 discriminator 3 view .LVU314
.LBB124:
	.loc 4 25 40 discriminator 3 view .LVU315
	.loc 4 25 40 is_stmt 0 discriminator 3 view .LVU316
.LBE124:
.LBE136:
	.loc 1 132 23 discriminator 3 view .LVU317
	strh	r3, [r6, #-14]	@ movhi
.LBE141:
	.loc 1 126 27 is_stmt 1 discriminator 3 view .LVU318
	.loc 1 126 21 discriminator 3 view .LVU319
	bne	.L45
.LBE144:
	.loc 1 135 3 view .LVU320
	.loc 1 135 15 is_stmt 0 view .LVU321
	ldrsh	r3, [r10, #-80]
	.loc 1 138 15 view .LVU322
	ldrsh	r6, [r10, #-16]
	.loc 1 135 15 view .LVU323
	str	r3, [sp, #12]
.LVL75:
	.loc 1 135 15 view .LVU324
	ldrsh	r3, [r10, #-78]
	str	r3, [sp, #4]
.LVL76:
	.loc 1 136 3 is_stmt 1 view .LVU325
	.loc 1 136 15 is_stmt 0 view .LVU326
	ldrsh	r3, [r10, #-64]
	str	r3, [sp, #8]
.LVL77:
	.loc 1 136 15 view .LVU327
	ldrsh	r3, [r10, #-62]
	str	r3, [sp, #16]
.LVL78:
	.loc 1 137 3 is_stmt 1 view .LVU328
	.loc 1 137 15 is_stmt 0 view .LVU329
	ldrsh	r3, [r10, #-48]
	str	r3, [sp, #20]
.LVL79:
	.loc 1 137 15 view .LVU330
	ldrsh	r3, [r10, #-46]
	str	r3, [sp, #24]
.LVL80:
	.loc 1 138 3 is_stmt 1 view .LVU331
	.loc 1 138 15 is_stmt 0 view .LVU332
	ldrsh	r3, [r10, #-14]
	str	r3, [sp, #28]
.LVL81:
	.loc 1 140 3 is_stmt 1 view .LVU333
	.loc 1 140 22 is_stmt 0 view .LVU334
	bl	Block_GetTextureMap
.LVL82:
	.loc 1 142 105 view .LVU335
	ldrb	r4, [sp, #40]	@ zero_extendqisi2
	.loc 1 142 73 view .LVU336
	ldrb	r3, [sp, #41]	@ zero_extendqisi2
	.loc 1 142 105 view .LVU337
	lsr	r4, r4, #3
	.loc 1 142 73 view .LVU338
	lsr	r3, r3, #3
	.loc 1 142 105 view .LVU339
	lsl	r4, r4, #10
	.loc 1 142 11 view .LVU340
	orr	r4, r4, r3, lsl #5
	.loc 1 142 38 view .LVU341
	ldrb	r3, [sp, #42]	@ zero_extendqisi2
	.loc 1 143 5 view .LVU342
	cmp	r7, #5
	.loc 1 140 22 view .LVU343
	mov	r5, r0
.LVL83:
	.loc 1 142 3 is_stmt 1 view .LVU344
	.loc 1 142 11 is_stmt 0 view .LVU345
	orr	r4, r4, r3, lsr #3
.LVL84:
	.loc 1 143 3 is_stmt 1 view .LVU346
	.loc 1 143 5 is_stmt 0 view .LVU347
	beq	.L53
	.loc 1 144 8 is_stmt 1 view .LVU348
	.loc 1 144 10 is_stmt 0 view .LVU349
	cmp	r7, #0
	bne	.L47
	.loc 1 144 32 is_stmt 1 discriminator 1 view .LVU350
	.loc 1 144 188 is_stmt 0 discriminator 1 view .LVU351
	asr	r3, r4, #10
	add	r3, r3, r3, lsl #2
	.loc 1 144 193 discriminator 1 view .LVU352
	asr	r2, r3, #3
	.loc 1 144 46 discriminator 1 view .LVU353
	and	r3, r4, #31
	.loc 1 144 69 discriminator 1 view .LVU354
	add	r3, r3, r3, lsl #2
	.loc 1 144 94 discriminator 1 view .LVU355
	asr	r4, r4, #5
.LVL85:
	.loc 1 144 94 discriminator 1 view .LVU356
	and	r4, r4, #31
	.loc 1 144 74 discriminator 1 view .LVU357
	lsr	r3, r3, #3
	orr	r3, r3, r2, lsl #10
	.loc 1 144 126 discriminator 1 view .LVU358
	add	r4, r4, r4, lsl #2
	.loc 1 144 131 discriminator 1 view .LVU359
	lsr	r4, r4, #3
	sxth	r3, r3
	.loc 1 144 40 discriminator 1 view .LVU360
	orr	r4, r3, r4, lsl #5
.LVL86:
.L47:
	.loc 1 147 3 is_stmt 1 view .LVU361
	.loc 1 147 5 is_stmt 0 view .LVU362
	ldr	r1, .L54+24
	mov	r3, #36
	vmov	r2, s20	@ int
	sub	r0, r1, #4
.LVL87:
	.loc 1 147 5 view .LVU363
	bl	vec_expand_
.LVL88:
	.loc 1 147 120 view .LVU364
	cmp	r0, #0
	bne	.L48
	.loc 1 147 162 discriminator 1 view .LVU365
	ldrsh	r2, [sp, #44]
	.loc 1 147 380 discriminator 1 view .LVU366
	ldrsh	r3, [sp, #46]
	.loc 1 147 162 discriminator 1 view .LVU367
	cmp	r2, #0
	add	r1, r2, #255
	movge	r1, r2
	.loc 1 147 380 discriminator 1 view .LVU368
	cmp	r3, #0
	add	r2, r3, #255
	movge	r2, r3
	.loc 1 147 150 discriminator 1 view .LVU369
	ldr	lr, .L54+28
	.loc 1 147 162 discriminator 1 view .LVU370
	asr	r1, r1, #8
	.loc 1 147 150 discriminator 1 view .LVU371
	ldr	r0, [lr, #4]
	.loc 1 147 133 discriminator 1 view .LVU372
	ldr	r3, [lr]
	.loc 1 147 139 discriminator 1 view .LVU373
	add	ip, r0, r0, lsl #3
	.loc 1 147 158 discriminator 1 view .LVU374
	add	r0, r0, #1
	str	r0, [lr, #4]
	.loc 1 147 162 discriminator 1 view .LVU375
	ldr	r0, [sp, #720]
	.loc 1 147 380 discriminator 1 view .LVU376
	asr	r2, r2, #8
	.loc 1 147 162 discriminator 1 view .LVU377
	str	r0, [r3, ip, lsl #2]
	ldr	r0, [sp, #28]
	.loc 1 147 139 discriminator 1 view .LVU378
	add	r3, r3, ip, lsl #2
	.loc 1 147 162 discriminator 1 view .LVU379
	strh	r0, [r3, #10]	@ movhi
	ldr	r0, [sp, #20]
	strh	r1, [r3, #24]	@ movhi
	strh	r0, [r3, #12]	@ movhi
	ldr	r0, [sp, #24]
	.loc 1 147 402 discriminator 1 view .LVU380
	add	r1, r1, #16
	.loc 1 147 162 discriminator 1 view .LVU381
	strh	r0, [r3, #14]	@ movhi
	ldr	r0, [sp, #12]
	strh	r2, [r3, #30]	@ movhi
	strh	r0, [r3, #16]	@ movhi
	ldr	r0, [sp, #4]
	.loc 1 147 380 discriminator 1 view .LVU382
	add	r2, r2, #16
	.loc 1 147 162 discriminator 1 view .LVU383
	strh	r0, [r3, #18]	@ movhi
	ldr	r0, [sp, #8]
	str	r5, [r3, #4]
	strh	r0, [r3, #20]	@ movhi
	ldr	r0, [sp, #16]
	strh	r6, [r3, #8]	@ movhi
	strh	r0, [r3, #22]	@ movhi
	strh	r4, [r3, #32]	@ movhi
	strh	r1, [r3, #28]	@ movhi
	strh	r2, [r3, #26]	@ movhi
.LVL89:
.L48:
	.loc 1 116 74 is_stmt 1 discriminator 2 view .LVU384
.LBE146:
	.loc 1 115 26 discriminator 2 view .LVU385
	add	r7, r7, #1
.LVL90:
	.loc 1 115 20 discriminator 2 view .LVU386
	cmp	r7, #6
	add	r10, r10, #96
	bne	.L43
.LBE148:
	.loc 1 153 1 is_stmt 0 view .LVU387
	add	sp, sp, #660
	.cfi_remember_state
	.cfi_def_cfa_offset 60
	@ sp needed
	vldm	sp!, {d8-d10}
	.cfi_restore 84
	.cfi_restore 85
	.cfi_restore 82
	.cfi_restore 83
	.cfi_restore 80
	.cfi_restore 81
	.cfi_def_cfa_offset 36
	pop	{r4, r5, r6, r7, r8, r9, r10, fp, pc}
.LVL91:
.L53:
	.cfi_restore_state
.LBB149:
.LBB147:
	.loc 1 143 28 is_stmt 1 discriminator 1 view .LVU388
	.loc 1 143 184 is_stmt 0 discriminator 1 view .LVU389
	lsr	r3, r4, #10
	rsb	r3, r3, r3, lsl #3
	.loc 1 143 189 discriminator 1 view .LVU390
	asr	r2, r3, #3
	.loc 1 143 42 discriminator 1 view .LVU391
	and	r3, r4, #31
	.loc 1 143 65 discriminator 1 view .LVU392
	rsb	r3, r3, r3, lsl #3
	.loc 1 143 90 discriminator 1 view .LVU393
	asr	r4, r4, #5
.LVL92:
	.loc 1 143 90 discriminator 1 view .LVU394
	and	r4, r4, #31
	.loc 1 143 70 discriminator 1 view .LVU395
	asr	r3, r3, #3
	orr	r3, r3, r2, lsl #10
	.loc 1 143 122 discriminator 1 view .LVU396
	rsb	r4, r4, r4, lsl #3
	.loc 1 143 127 discriminator 1 view .LVU397
	asr	r4, r4, #3
	sxth	r3, r3
	.loc 1 143 36 discriminator 1 view .LVU398
	orr	r4, r3, r4, lsl #5
.LVL93:
	.loc 1 143 36 discriminator 1 view .LVU399
	b	.L47
.L55:
	.align	2
.L54:
	.word	1056964608
	.word	0
	.word	1101004800
	.word	.LANCHOR0+124
	.word	cube_sides_lut
	.word	.LANCHOR1
	.word	.LANCHOR0+4
	.word	.LANCHOR0
.LBE147:
.LBE149:
	.cfi_endproc
.LFE213:
	.size	SpriteBatch_PushIcon, .-SpriteBatch_PushIcon
	.section	.text.SpriteBatch_PushTextVargs,"ax",%progbits
	.align	2
	.global	SpriteBatch_PushTextVargs
	.syntax unified
	.arm
	.fpu vfp
	.type	SpriteBatch_PushTextVargs, %function
SpriteBatch_PushTextVargs:
.LVL94:
.LFB215:
	.loc 1 163 131 is_stmt 1 view -0
	.cfi_startproc
	@ args = 20, pretend = 0, frame = 296
	@ frame_needed = 0, uses_anonymous_args = 0
	.loc 1 164 2 view .LVU401
.LBB150:
.LBI150:
	.loc 1 75 6 view .LVU402
.LBB151:
	.loc 1 75 50 view .LVU403
.LBE151:
.LBE150:
	.loc 1 163 131 is_stmt 0 view .LVU404
	push	{r4, r5, r6, r7, r8, r9, r10, fp, lr}
	.cfi_def_cfa_offset 36
	.cfi_offset 4, -36
	.cfi_offset 5, -32
	.cfi_offset 6, -28
	.cfi_offset 7, -24
	.cfi_offset 8, -20
	.cfi_offset 9, -16
	.cfi_offset 10, -12
	.cfi_offset 11, -8
	.cfi_offset 14, -4
	mov	ip, r2
	mov	lr, r0
	sub	sp, sp, #324
	.cfi_def_cfa_offset 360
	.loc 1 163 131 view .LVU405
	ldrb	r2, [sp, #360]	@ zero_extendqisi2
.LVL95:
.LBB154:
.LBB152:
	.loc 1 75 65 view .LVU406
	ldr	r9, .L83
.LBE152:
.LBE154:
	.loc 1 163 131 view .LVU407
	str	r2, [sp, #40]
	.loc 1 164 2 view .LVU408
	ldr	r2, [r9, #24]
	.loc 1 163 131 view .LVU409
	str	r1, [sp, #28]
	.loc 1 164 2 view .LVU410
	add	r2, r2, #256
.LVL96:
.LBB155:
.LBB153:
	.loc 1 75 65 view .LVU411
	str	r2, [r9, #188]
.LVL97:
	.loc 1 75 65 view .LVU412
.LBE153:
.LBE155:
	.loc 1 168 2 is_stmt 1 view .LVU413
	.loc 1 169 2 view .LVU414
	ldr	r1, [sp, #372]
.LVL98:
	.loc 1 169 2 is_stmt 0 view .LVU415
	ldr	r2, [sp, #376]
	add	r0, sp, #64
	.loc 1 163 131 view .LVU416
	mov	r5, ip
	ldr	fp, [sp, #364]
	str	lr, [sp, #24]
	str	ip, [sp, #32]
	str	r3, [sp, #36]
	.loc 1 169 2 view .LVU417
	bl	vsprintf
.LVL99:
	.loc 1 171 2 is_stmt 1 view .LVU418
	.loc 1 172 2 view .LVU419
	.loc 1 174 2 view .LVU420
	.loc 1 176 2 view .LVU421
	.loc 1 178 2 view .LVU422
	.loc 1 178 15 view .LVU423
	.loc 1 178 9 is_stmt 0 view .LVU424
	ldrb	r0, [sp, #64]	@ zero_extendqisi2
	.loc 1 178 15 view .LVU425
	cmp	r0, #0
	beq	.L68
	.loc 1 174 6 view .LVU426
	mov	r7, #0
.LBB156:
.LBB157:
	.loc 1 192 6 view .LVU427
	sub	r3, r5, #1
	.loc 1 190 5 view .LVU428
	mov	r4, #8
.LBE157:
.LBE156:
	.loc 1 172 6 view .LVU429
	mov	r8, r7
	.loc 1 171 6 view .LVU430
	mov	r5, r7
.LVL100:
	.loc 1 171 6 view .LVU431
	mov	r10, fp
	.loc 1 176 8 view .LVU432
	add	r6, sp, #64
.LBB161:
.LBB158:
	.loc 1 192 6 view .LVU433
	str	r3, [sp, #52]
	b	.L66
.LVL101:
.L81:
	.loc 1 192 6 view .LVU434
.LBE158:
	.loc 1 180 21 discriminator 1 view .LVU435
	cmp	r3, r10
	blt	.L79
	.loc 1 181 4 is_stmt 1 view .LVU436
	.loc 1 182 13 is_stmt 0 view .LVU437
	cmp	r7, r5
	movlt	r7, r5
.LVL102:
	.loc 1 181 12 view .LVU438
	add	r8, r8, #8
.LVL103:
	.loc 1 182 4 is_stmt 1 view .LVU439
	.loc 1 183 4 view .LVU440
	.loc 1 184 4 view .LVU441
.L61:
	.loc 1 184 23 discriminator 1 view .LVU442
	.loc 1 183 12 is_stmt 0 discriminator 1 view .LVU443
	mov	r5, #0
	.loc 1 184 23 discriminator 1 view .LVU444
	sub	r3, r6, #1
.LVL104:
.L62:
	.loc 1 197 3 is_stmt 1 view .LVU445
	.loc 1 197 3 is_stmt 0 view .LVU446
.LBE161:
	.loc 1 178 15 is_stmt 1 view .LVU447
	.loc 1 178 9 is_stmt 0 view .LVU448
	ldrb	r0, [r3, #1]	@ zero_extendqisi2
	.loc 1 178 15 view .LVU449
	cmp	r0, #0
	beq	.L80
.LVL105:
.L66:
.LBB162:
	.loc 1 179 2 is_stmt 1 view .LVU450
	.loc 1 179 37 is_stmt 0 view .LVU451
	ldr	r2, [r9, #24]
	.loc 1 180 6 view .LVU452
	cmp	r0, #10
	.loc 1 179 48 view .LVU453
	ldrb	r3, [r2, r0]	@ zero_extendqisi2
	.loc 1 179 31 view .LVU454
	add	r3, r3, r5
	.loc 1 180 3 is_stmt 1 view .LVU455
	.loc 1 180 6 is_stmt 0 view .LVU456
	bne	.L81
	.loc 1 181 4 is_stmt 1 view .LVU457
	.loc 1 182 13 is_stmt 0 view .LVU458
	cmp	r7, r5
	movlt	r7, r5
.LVL106:
	.loc 1 184 7 view .LVU459
	cmp	r3, r10
	.loc 1 181 12 view .LVU460
	add	r8, r8, #8
.LVL107:
	.loc 1 182 4 is_stmt 1 view .LVU461
	.loc 1 183 4 view .LVU462
	.loc 1 184 4 view .LVU463
	.loc 1 184 7 is_stmt 0 view .LVU464
	bge	.L61
	.loc 1 197 3 view .LVU465
	mov	r3, r6
.LBE162:
	.loc 1 178 9 view .LVU466
	ldrb	r0, [r3, #1]	@ zero_extendqisi2
.LBB163:
	.loc 1 183 12 view .LVU467
	mov	r5, #0
.LVL108:
	.loc 1 197 3 is_stmt 1 view .LVU468
	.loc 1 197 3 is_stmt 0 view .LVU469
.LBE163:
	.loc 1 178 15 is_stmt 1 view .LVU470
	cmp	r0, #0
.LBB164:
	.loc 1 197 3 is_stmt 0 view .LVU471
	add	r6, r6, #1
.LVL109:
	.loc 1 197 3 view .LVU472
.LBE164:
	.loc 1 178 15 view .LVU473
	bne	.L66
.LVL110:
.L80:
	.loc 1 200 11 view .LVU474
	cmp	r5, r7
	movge	r0, r5
	movlt	r0, r7
.LVL111:
.L57:
	.loc 1 200 2 is_stmt 1 view .LVU475
	.loc 1 202 2 view .LVU476
	.loc 1 202 5 is_stmt 0 view .LVU477
	ldr	r3, [sp, #368]
	cmp	r3, #0
	.loc 1 202 20 is_stmt 1 discriminator 1 view .LVU478
	.loc 1 202 37 is_stmt 0 discriminator 1 view .LVU479
	addne	r8, r8, #8
	.loc 1 202 27 discriminator 1 view .LVU480
	strne	r8, [r3]
	.loc 1 204 2 is_stmt 1 discriminator 1 view .LVU481
.L56:
	.loc 1 205 1 is_stmt 0 view .LVU482
	add	sp, sp, #324
	.cfi_remember_state
	.cfi_def_cfa_offset 36
	@ sp needed
	pop	{r4, r5, r6, r7, r8, r9, r10, fp, pc}
.LVL112:
.L79:
	.cfi_restore_state
.LBB165:
	.loc 1 185 10 is_stmt 1 view .LVU483
	.loc 1 185 13 is_stmt 0 view .LVU484
	cmp	r0, #9
	.loc 1 197 3 view .LVU485
	add	fp, r6, #1
	.loc 1 185 13 view .LVU486
	beq	.L82
	.loc 1 188 4 is_stmt 1 view .LVU487
	.loc 1 188 7 is_stmt 0 view .LVU488
	cmp	r0, #32
	beq	.L64
.LBB159:
	.loc 1 189 5 is_stmt 1 view .LVU489
	.loc 1 190 5 is_stmt 0 view .LVU490
	ldr	r3, [sp, #36]
	.loc 1 189 32 view .LVU491
	lsr	r2, r0, #4
	.loc 1 190 5 view .LVU492
	str	r3, [sp, #20]
	.loc 1 189 9 view .LVU493
	and	r3, r0, #15
	lsl	r3, r3, #3
	str	r3, [sp, #56]
.LVL113:
	.loc 1 190 5 view .LVU494
	str	r3, [sp, #4]
	ldr	r3, [sp, #24]
.LVL114:
	.loc 1 189 32 view .LVU495
	lsl	r2, r2, #3
	.loc 1 190 5 view .LVU496
	add	r0, r3, r5
	ldr	r3, [sp, #28]
	.loc 1 189 32 view .LVU497
	str	r2, [sp, #60]
.LVL115:
	.loc 1 190 5 is_stmt 1 view .LVU498
	add	r1, r3, r8
	str	r2, [sp, #8]
	mov	r3, #8
	ldr	r2, [sp, #32]
.LVL116:
	.loc 1 190 5 is_stmt 0 view .LVU499
	str	r4, [sp, #16]
	str	r4, [sp, #12]
	str	r4, [sp]
	strd	r0, [sp, #44]
	bl	SpriteBatch_PushQuadColor
.LVL117:
	.loc 1 191 5 is_stmt 1 view .LVU500
	.loc 1 191 8 is_stmt 0 view .LVU501
	ldrd	r0, [sp, #44]
	ldr	r3, [sp, #40]
	cmp	r3, #0
	bne	.L65
.L78:
.LBE159:
	.loc 1 195 19 view .LVU502
	ldr	r2, [r9, #24]
.LVL118:
.L64:
	.loc 1 195 4 is_stmt 1 view .LVU503
	.loc 1 195 31 is_stmt 0 view .LVU504
	ldrb	r3, [r6]	@ zero_extendqisi2
	.loc 1 195 30 view .LVU505
	ldrb	r3, [r2, r3]	@ zero_extendqisi2
	.loc 1 195 12 view .LVU506
	add	r5, r5, r3
.LVL119:
	.loc 1 195 12 view .LVU507
	mov	r3, r6
	mov	r6, fp
.LVL120:
	.loc 1 195 12 view .LVU508
	b	.L62
.LVL121:
.L82:
	.loc 1 186 4 is_stmt 1 view .LVU509
	.loc 1 186 33 is_stmt 0 view .LVU510
	bic	r5, r5, #31
.LVL122:
	.loc 1 186 33 view .LVU511
	mov	r3, r6
	.loc 1 186 12 view .LVU512
	add	r5, r5, #32
.LVL123:
	.loc 1 186 12 view .LVU513
	mov	r6, fp
.LVL124:
	.loc 1 186 12 view .LVU514
	b	.L62
.LVL125:
.L65:
.LBB160:
	.loc 1 192 6 is_stmt 1 view .LVU515
	ldr	r3, [sp, #60]
	ldr	r2, [sp, #52]
	str	r3, [sp, #8]
	ldr	r3, [sp, #56]
	str	r4, [sp, #16]
	str	r3, [sp, #4]
	ldr	r3, .L83+4
	str	r4, [sp, #12]
	str	r3, [sp, #20]
	str	r4, [sp]
	mov	r3, #8
	add	r1, r1, #1
	add	r0, r0, #1
	bl	SpriteBatch_PushQuadColor
.LVL126:
	b	.L78
.LVL127:
.L68:
	.loc 1 192 6 is_stmt 0 view .LVU516
.LBE160:
.LBE165:
	.loc 1 172 6 view .LVU517
	mov	r8, r0
	b	.L57
.L84:
	.align	2
.L83:
	.word	.LANCHOR0
	.word	10570
	.cfi_endproc
.LFE215:
	.size	SpriteBatch_PushTextVargs, .-SpriteBatch_PushTextVargs
	.section	.text.SpriteBatch_PushText,"ax",%progbits
	.align	2
	.global	SpriteBatch_PushText
	.syntax unified
	.arm
	.fpu vfp
	.type	SpriteBatch_PushText, %function
SpriteBatch_PushText:
.LVL128:
.LFB214:
	.loc 1 155 118 is_stmt 1 view -0
	.cfi_startproc
	@ args = 16, pretend = 0, frame = 8
	@ frame_needed = 0, uses_anonymous_args = 1
	.loc 1 156 2 view .LVU519
	.loc 1 157 1 view .LVU520
	.loc 1 155 118 is_stmt 0 view .LVU521
	str	lr, [sp, #-4]!
	.cfi_def_cfa_offset 4
	.cfi_offset 14, -4
	sub	sp, sp, #36
	.cfi_def_cfa_offset 40
	.loc 1 155 118 view .LVU522
	ldrb	ip, [sp, #40]	@ zero_extendqisi2
	.loc 1 158 15 view .LVU523
	str	ip, [sp]
	.loc 1 155 118 view .LVU524
	ldr	ip, [sp, #44]
	.loc 1 158 15 view .LVU525
	str	ip, [sp, #4]
	.loc 1 155 118 view .LVU526
	ldr	ip, [sp, #48]
	.loc 1 158 15 view .LVU527
	str	ip, [sp, #8]
	.loc 1 155 118 view .LVU528
	ldr	ip, [sp, #52]
	.loc 1 158 15 view .LVU529
	str	ip, [sp, #12]
	.loc 1 157 1 view .LVU530
	add	ip, sp, #56
	.loc 1 158 15 view .LVU531
	str	ip, [sp, #16]
	.loc 1 157 1 view .LVU532
	str	ip, [sp, #28]
	.loc 1 158 2 is_stmt 1 view .LVU533
	.loc 1 158 15 is_stmt 0 view .LVU534
	bl	SpriteBatch_PushTextVargs
.LVL129:
	.loc 1 159 1 is_stmt 1 view .LVU535
	.loc 1 160 2 view .LVU536
	.loc 1 161 1 is_stmt 0 view .LVU537
	add	sp, sp, #36
	.cfi_def_cfa_offset 4
	@ sp needed
	ldr	pc, [sp], #4
	.cfi_endproc
.LFE214:
	.size	SpriteBatch_PushText, .-SpriteBatch_PushText
	.section	.text.SpriteBatch_CalcTextWidthVargs,"ax",%progbits
	.align	2
	.global	SpriteBatch_CalcTextWidthVargs
	.syntax unified
	.arm
	.fpu vfp
	.type	SpriteBatch_CalcTextWidthVargs, %function
SpriteBatch_CalcTextWidthVargs:
.LVL130:
.LFB217:
	.loc 1 216 68 is_stmt 1 view -0
	.cfi_startproc
	@ args = 0, pretend = 0, frame = 256
	@ frame_needed = 0, uses_anonymous_args = 0
	.loc 1 217 2 view .LVU539
	.loc 1 218 2 view .LVU540
	.loc 1 216 68 is_stmt 0 view .LVU541
	mov	r3, r0
	str	lr, [sp, #-4]!
	.cfi_def_cfa_offset 4
	.cfi_offset 14, -4
	sub	sp, sp, #260
	.cfi_def_cfa_offset 264
	.loc 1 216 68 view .LVU542
	mov	r2, r1
	.loc 1 218 2 view .LVU543
	mov	r0, sp
	mov	r1, r3
.LVL131:
	.loc 1 218 2 view .LVU544
	bl	vsprintf
.LVL132:
	.loc 1 220 2 is_stmt 1 view .LVU545
	.loc 1 222 2 view .LVU546
	.loc 1 223 2 view .LVU547
	.loc 1 224 2 view .LVU548
	.loc 1 224 13 view .LVU549
	.loc 1 224 9 is_stmt 0 view .LVU550
	ldrb	r3, [sp]	@ zero_extendqisi2
	.loc 1 224 13 view .LVU551
	cmp	r3, #0
	beq	.L92
	.loc 1 223 6 view .LVU552
	mov	r0, #0
	.loc 1 229 18 view .LVU553
	ldr	r1, .L96
	.loc 1 220 8 view .LVU554
	mov	r2, sp
	.loc 1 229 18 view .LVU555
	ldr	ip, [r1, #24]
	.loc 1 222 6 view .LVU556
	mov	r1, r0
	b	.L91
.LVL133:
.L89:
	.loc 1 229 29 view .LVU557
	ldrb	r3, [ip, r3]	@ zero_extendqisi2
	.loc 1 229 39 view .LVU558
	add	r2, r2, #1
.LVL134:
	.loc 1 229 11 view .LVU559
	add	r1, r1, r3
.LVL135:
	.loc 1 224 13 is_stmt 1 view .LVU560
	.loc 1 224 9 is_stmt 0 view .LVU561
	ldrb	r3, [r2]	@ zero_extendqisi2
	.loc 1 224 13 view .LVU562
	cmp	r3, #0
	beq	.L95
.LVL136:
.L91:
	.loc 1 225 3 is_stmt 1 view .LVU563
	.loc 1 229 4 view .LVU564
	.loc 1 225 6 is_stmt 0 view .LVU565
	cmp	r3, #10
	bne	.L89
	.loc 1 226 4 is_stmt 1 view .LVU566
	.loc 1 224 9 is_stmt 0 view .LVU567
	ldrb	r3, [r2]	@ zero_extendqisi2
	.loc 1 226 14 view .LVU568
	cmp	r0, r1
	movlt	r0, r1
.LVL137:
	.loc 1 227 4 is_stmt 1 view .LVU569
	.loc 1 224 13 is_stmt 0 view .LVU570
	cmp	r3, #0
	.loc 1 227 11 view .LVU571
	mov	r1, #0
.LVL138:
	.loc 1 224 13 is_stmt 1 view .LVU572
	bne	.L91
.L95:
	.loc 1 232 12 is_stmt 0 view .LVU573
	cmp	r0, r1
	movlt	r0, r1
.LVL139:
	.loc 1 235 1 view .LVU574
	add	sp, sp, #260
	.cfi_remember_state
	.cfi_def_cfa_offset 4
	@ sp needed
	ldr	pc, [sp], #4
.LVL140:
.L92:
	.cfi_restore_state
	.loc 1 224 13 view .LVU575
	mov	r0, r3
	.loc 1 232 2 is_stmt 1 view .LVU576
.LVL141:
	.loc 1 234 2 view .LVU577
	.loc 1 235 1 is_stmt 0 view .LVU578
	add	sp, sp, #260
	.cfi_def_cfa_offset 4
	@ sp needed
	ldr	pc, [sp], #4
.L97:
	.align	2
.L96:
	.word	.LANCHOR0
	.cfi_endproc
.LFE217:
	.size	SpriteBatch_CalcTextWidthVargs, .-SpriteBatch_CalcTextWidthVargs
	.section	.text.SpriteBatch_CalcTextWidth,"ax",%progbits
	.align	2
	.global	SpriteBatch_CalcTextWidth
	.syntax unified
	.arm
	.fpu vfp
	.type	SpriteBatch_CalcTextWidth, %function
SpriteBatch_CalcTextWidth:
.LVL142:
.LFB216:
	.loc 1 207 54 is_stmt 1 view -0
	.cfi_startproc
	@ args = 4, pretend = 16, frame = 8
	@ frame_needed = 0, uses_anonymous_args = 1
	.loc 1 208 2 view .LVU580
	.loc 1 209 1 view .LVU581
	.loc 1 207 54 is_stmt 0 view .LVU582
	push	{r0, r1, r2, r3}
	.cfi_def_cfa_offset 16
	.cfi_offset 0, -16
	.cfi_offset 1, -12
	.cfi_offset 2, -8
	.cfi_offset 3, -4
	str	lr, [sp, #-4]!
	.cfi_def_cfa_offset 20
	.cfi_offset 14, -20
	sub	sp, sp, #12
	.cfi_def_cfa_offset 32
	.loc 1 209 1 view .LVU583
	add	r1, sp, #20
	.loc 1 210 15 view .LVU584
	ldr	r0, [sp, #16]
	.loc 1 209 1 view .LVU585
	str	r1, [sp, #4]
	.loc 1 210 2 is_stmt 1 view .LVU586
	.loc 1 210 15 is_stmt 0 view .LVU587
	bl	SpriteBatch_CalcTextWidthVargs
.LVL143:
	.loc 1 211 1 is_stmt 1 view .LVU588
	.loc 1 213 2 view .LVU589
	.loc 1 214 1 is_stmt 0 view .LVU590
	add	sp, sp, #12
	.cfi_def_cfa_offset 20
	@ sp needed
	ldr	lr, [sp], #4
	.cfi_restore 14
	.cfi_def_cfa_offset 16
	add	sp, sp, #16
	.cfi_restore 3
	.cfi_restore 2
	.cfi_restore 1
	.cfi_restore 0
	.cfi_def_cfa_offset 0
	bx	lr
	.cfi_endproc
.LFE216:
	.size	SpriteBatch_CalcTextWidth, .-SpriteBatch_CalcTextWidth
	.global	__aeabi_idiv
	.section	.text.SpriteBatch_GetWidth,"ax",%progbits
	.align	2
	.global	SpriteBatch_GetWidth
	.syntax unified
	.arm
	.fpu vfp
	.type	SpriteBatch_GetWidth, %function
SpriteBatch_GetWidth:
.LFB219:
	.loc 1 244 28 is_stmt 1 view -0
	.cfi_startproc
	@ args = 0, pretend = 0, frame = 0
	@ frame_needed = 0, uses_anonymous_args = 0
	.loc 1 244 30 view .LVU592
	.loc 1 244 49 is_stmt 0 view .LVU593
	ldr	r2, .L102
	ldr	r3, .L102+4
	.loc 1 244 28 view .LVU594
	push	{r4, lr}
	.cfi_def_cfa_offset 8
	.cfi_offset 4, -8
	.cfi_offset 14, -4
	.loc 1 244 49 view .LVU595
	ldr	r0, [r2, #192]
	ldr	r1, [r3]
	bl	__aeabi_idiv
.LVL144:
	.loc 1 244 61 view .LVU596
	pop	{r4, pc}
.L103:
	.align	2
.L102:
	.word	.LANCHOR0
	.word	.LANCHOR1
	.cfi_endproc
.LFE219:
	.size	SpriteBatch_GetWidth, .-SpriteBatch_GetWidth
	.section	.text.SpriteBatch_GetHeight,"ax",%progbits
	.align	2
	.global	SpriteBatch_GetHeight
	.syntax unified
	.arm
	.fpu vfp
	.type	SpriteBatch_GetHeight, %function
SpriteBatch_GetHeight:
.LFB220:
	.loc 1 245 29 is_stmt 1 view -0
	.cfi_startproc
	@ args = 0, pretend = 0, frame = 0
	@ frame_needed = 0, uses_anonymous_args = 0
	.loc 1 245 31 view .LVU598
	.loc 1 245 51 is_stmt 0 view .LVU599
	ldr	r2, .L106
	ldr	r3, .L106+4
	.loc 1 245 29 view .LVU600
	push	{r4, lr}
	.cfi_def_cfa_offset 8
	.cfi_offset 4, -8
	.cfi_offset 14, -4
	.loc 1 245 51 view .LVU601
	ldr	r0, [r2, #196]
	ldr	r1, [r3]
	bl	__aeabi_idiv
.LVL145:
	.loc 1 245 63 view .LVU602
	pop	{r4, pc}
.L107:
	.align	2
.L106:
	.word	.LANCHOR0
	.word	.LANCHOR1
	.cfi_endproc
.LFE220:
	.size	SpriteBatch_GetHeight, .-SpriteBatch_GetHeight
	.section	.text.SpriteBatch_SetScale,"ax",%progbits
	.align	2
	.global	SpriteBatch_SetScale
	.syntax unified
	.arm
	.fpu vfp
	.type	SpriteBatch_SetScale, %function
SpriteBatch_SetScale:
.LVL146:
.LFB221:
	.loc 1 247 38 is_stmt 1 view -0
	.cfi_startproc
	@ args = 0, pretend = 0, frame = 0
	@ frame_needed = 0, uses_anonymous_args = 0
	@ link register save eliminated.
	.loc 1 247 40 view .LVU604
	.loc 1 247 49 is_stmt 0 view .LVU605
	ldr	r3, .L109
	str	r0, [r3]
	.loc 1 247 58 view .LVU606
	bx	lr
.L110:
	.align	2
.L109:
	.word	.LANCHOR1
	.cfi_endproc
.LFE221:
	.size	SpriteBatch_SetScale, .-SpriteBatch_SetScale
	.section	.text.SpriteBatch_GetScale,"ax",%progbits
	.align	2
	.global	SpriteBatch_GetScale
	.syntax unified
	.arm
	.fpu vfp
	.type	SpriteBatch_GetScale, %function
SpriteBatch_GetScale:
.LFB222:
	.loc 1 248 28 is_stmt 1 view -0
	.cfi_startproc
	@ args = 0, pretend = 0, frame = 0
	@ frame_needed = 0, uses_anonymous_args = 0
	@ link register save eliminated.
	.loc 1 248 30 view .LVU608
	.loc 1 248 37 is_stmt 0 view .LVU609
	ldr	r3, .L112
	.loc 1 248 47 view .LVU610
	ldr	r0, [r3]
	bx	lr
.L113:
	.align	2
.L112:
	.word	.LANCHOR1
	.cfi_endproc
.LFE222:
	.size	SpriteBatch_GetScale, .-SpriteBatch_GetScale
	.section	.text.SpriteBatch_StartFrame,"ax",%progbits
	.align	2
	.global	SpriteBatch_StartFrame
	.syntax unified
	.arm
	.fpu vfp
	.type	SpriteBatch_StartFrame, %function
SpriteBatch_StartFrame:
.LVL147:
.LFB223:
	.loc 1 250 52 is_stmt 1 view -0
	.cfi_startproc
	@ args = 0, pretend = 0, frame = 0
	@ frame_needed = 0, uses_anonymous_args = 0
	@ link register save eliminated.
	.loc 1 251 2 view .LVU612
	.loc 1 251 14 is_stmt 0 view .LVU613
	ldr	r3, .L115
	.loc 1 252 15 view .LVU614
	strd	r0, [r3, #192]
	.loc 1 253 1 view .LVU615
	bx	lr
.L116:
	.align	2
.L115:
	.word	.LANCHOR0
	.cfi_endproc
.LFE223:
	.size	SpriteBatch_StartFrame, .-SpriteBatch_StartFrame
	.section	.text.SpriteBatch_Render,"ax",%progbits
	.align	2
	.global	SpriteBatch_Render
	.syntax unified
	.arm
	.fpu vfp
	.type	SpriteBatch_Render, %function
SpriteBatch_Render:
.LVL148:
.LFB224:
	.loc 1 255 45 is_stmt 1 view -0
	.cfi_startproc
	@ args = 0, pretend = 0, frame = 88
	@ frame_needed = 0, uses_anonymous_args = 0
	.loc 1 256 2 view .LVU617
	.loc 1 255 45 is_stmt 0 view .LVU618
	push	{r4, r5, r6, r7, r8, r9, r10, fp, lr}
	.cfi_def_cfa_offset 36
	.cfi_offset 4, -36
	.cfi_offset 5, -32
	.cfi_offset 6, -28
	.cfi_offset 7, -24
	.cfi_offset 8, -20
	.cfi_offset 9, -16
	.cfi_offset 10, -12
	.cfi_offset 11, -8
	.cfi_offset 14, -4
	.loc 1 256 6 view .LVU619
	ldr	r5, .L129+32
	vldr.64	d6, .L129
	vldr.32	s14, [r5, #200]
	vcvt.f64.f32	d7, s14
	vadd.f64	d7, d7, d6
	.loc 1 255 45 view .LVU620
	vpush.64	{d8, d9}
	.cfi_def_cfa_offset 52
	.cfi_offset 80, -52
	.cfi_offset 81, -48
	.cfi_offset 82, -44
	.cfi_offset 83, -40
	.loc 1 256 6 view .LVU621
	vcvt.f32.f64	s14, d7
	.loc 1 255 45 view .LVU622
	sub	sp, sp, #100
	.cfi_def_cfa_offset 152
	.loc 1 257 2 view .LVU623
	mov	r2, #36
	.loc 1 255 45 view .LVU624
	mov	r4, r0
	.loc 1 257 2 view .LVU625
	ldrd	r0, [r5]
.LVL149:
	.loc 1 257 2 view .LVU626
	ldr	r3, .L129+36
	.loc 1 256 6 view .LVU627
	vstr.32	s14, [r5, #200]
	.loc 1 257 2 is_stmt 1 view .LVU628
	bl	qsort
.LVL150:
	.loc 1 259 2 view .LVU629
	.loc 1 260 2 view .LVU630
	ldr	r3, [r5, #196]
	vldr.32	s3, .L129+16
	vmov	s15, r3	@ int
	ldr	r3, [r5, #192]
	vcvt.f32.s32	s2, s15
	vmov	s15, r3	@ int
	vldr.32	s5, .L129+20
	vldr.32	s4, .L129+24
	vcvt.f32.s32	s1, s15
	vmov.f32	s0, s3
	mov	r1, #0
	add	r0, sp, #32
	str	r3, [sp, #8]
	bl	Mtx_OrthoTilt
.LVL151:
	.loc 1 262 2 view .LVU631
.LBB182:
.LBB183:
.LBB184:
.LBB185:
.LBB186:
	.file 5 "/opt/devkitpro/libctru/include/c3d/uniforms.h"
	.loc 5 19 31 is_stmt 0 view .LVU632
	mov	r2, #1
	ldr	r3, .L129+40
.LBE186:
.LBE185:
.LBE184:
.LBE183:
.LBE182:
	.loc 1 262 2 view .LVU633
	ldr	r1, [r5, #20]
.LVL152:
.LBB195:
.LBI182:
	.loc 5 38 20 is_stmt 1 view .LVU634
	.loc 5 40 2 view .LVU635
.LBB194:
.LBI183:
	.loc 5 30 20 view .LVU636
.LBB193:
.LBB190:
.LBB187:
	.loc 5 18 16 view .LVU637
	.loc 5 19 3 view .LVU638
.LBE187:
.LBE190:
	.loc 5 35 10 is_stmt 0 view .LVU639
	ldr	lr, .L129+44
.LBB191:
.LBB188:
	.loc 5 19 31 view .LVU640
	strb	r2, [r3, r1]!
	.loc 5 18 26 is_stmt 1 view .LVU641
.LVL153:
	.loc 5 18 16 view .LVU642
	.loc 5 19 3 view .LVU643
.LBE188:
.LBE191:
	.loc 5 35 10 is_stmt 0 view .LVU644
	add	lr, lr, r1, lsl #4
	add	ip, sp, #32
.LBB192:
.LBB189:
	.loc 5 19 31 view .LVU645
	strb	r2, [r3, #1]
	.loc 5 18 26 is_stmt 1 view .LVU646
.LVL154:
	.loc 5 18 16 view .LVU647
	.loc 5 19 3 view .LVU648
	.loc 5 19 31 is_stmt 0 view .LVU649
	strb	r2, [r3, #2]
	.loc 5 18 26 is_stmt 1 view .LVU650
.LVL155:
	.loc 5 18 16 view .LVU651
	.loc 5 19 3 view .LVU652
	.loc 5 19 31 is_stmt 0 view .LVU653
	strb	r2, [r3, #3]
	.loc 5 18 26 is_stmt 1 view .LVU654
.LVL156:
	.loc 5 18 16 view .LVU655
	.loc 5 20 2 view .LVU656
	.loc 5 20 2 is_stmt 0 view .LVU657
.LBE189:
.LBE192:
	.loc 5 34 2 is_stmt 1 view .LVU658
	.loc 5 34 16 view .LVU659
	.loc 5 35 10 is_stmt 0 view .LVU660
	ldmia	ip!, {r0, r1, r2, r3}
.LVL157:
	.loc 5 35 10 view .LVU661
	stmia	lr!, {r0, r1, r2, r3}
	ldmia	ip!, {r0, r1, r2, r3}
	stmia	lr!, {r0, r1, r2, r3}
	ldmia	ip!, {r0, r1, r2, r3}
	stmia	lr!, {r0, r1, r2, r3}
	ldm	ip, {r0, r1, r2, r3}
	stm	lr, {r0, r1, r2, r3}
.LVL158:
	.loc 5 35 10 view .LVU662
.LBE193:
.LBE194:
.LBE195:
	.loc 1 264 2 is_stmt 1 view .LVU663
	mov	r2, #31
	mov	r1, #6
	mov	r0, #0
	bl	C3D_DepthTest
.LVL159:
	.loc 1 266 2 view .LVU664
	.loc 1 271 13 is_stmt 0 view .LVU665
	add	r4, r5, r4, lsl #2
	.loc 1 266 20 view .LVU666
	mov	r0, #0
	bl	C3D_GetTexEnv
.LVL160:
	.loc 1 271 13 view .LVU667
	ldr	r1, [r4, #12]
.LBB196:
.LBB197:
	.file 6 "/opt/devkitpro/libctru/include/c3d/texenv.h"
	.loc 6 35 13 view .LVU668
	mov	r3, #0
.LBE197:
.LBE196:
	.loc 1 271 13 view .LVU669
	str	r1, [sp, #24]
.LBB202:
.LBB198:
	.loc 6 38 13 view .LVU670
	mvn	r1, #0
.LBE198:
.LBE202:
	.loc 1 276 16 view .LVU671
	ldr	fp, [r5, #4]
.LBB203:
.LBB204:
	.loc 6 56 15 view .LVU672
	ldr	r2, .L129+48
.LBE204:
.LBE203:
.LBB206:
.LBB207:
	.loc 6 80 16 view .LVU673
	ldr	ip, .L129+52
.LVL161:
	.loc 6 80 16 view .LVU674
.LBE207:
.LBE206:
	.loc 1 267 2 is_stmt 1 view .LVU675
.LBB210:
.LBI196:
	.loc 6 31 20 view .LVU676
.LBB199:
	.loc 6 33 2 view .LVU677
	.loc 6 34 2 view .LVU678
	.loc 6 35 2 view .LVU679
	.loc 6 36 2 view .LVU680
	.loc 6 37 2 view .LVU681
	.loc 6 38 2 view .LVU682
	.loc 6 39 2 view .LVU683
	.loc 6 40 2 view .LVU684
	.loc 6 40 2 is_stmt 0 view .LVU685
.LBE199:
.LBE210:
	.loc 1 268 2 is_stmt 1 view .LVU686
.LBB211:
.LBI203:
	.loc 6 49 20 view .LVU687
.LBB205:
	.loc 6 54 2 view .LVU688
	.loc 6 55 2 view .LVU689
	.loc 6 56 3 view .LVU690
	.loc 6 57 2 view .LVU691
	.loc 6 58 3 view .LVU692
	.loc 6 58 3 is_stmt 0 view .LVU693
.LBE205:
.LBE211:
	.loc 1 269 2 is_stmt 1 view .LVU694
.LBB212:
.LBI206:
	.loc 6 77 20 view .LVU695
.LBB208:
	.loc 6 79 2 view .LVU696
	.loc 6 80 3 view .LVU697
	.loc 6 81 2 view .LVU698
	.loc 6 82 3 view .LVU699
.LBE208:
.LBE212:
	.loc 1 276 24 is_stmt 0 view .LVU700
	cmp	fp, r3
.LBB213:
.LBB200:
	.loc 6 35 13 view .LVU701
	strd	r2, [r0]
.LBE200:
.LBE213:
.LBB214:
.LBB209:
	.loc 6 80 16 view .LVU702
	str	ip, [r0, #8]
.LBE209:
.LBE214:
.LBB215:
.LBB201:
	.loc 6 38 13 view .LVU703
	str	r1, [r0, #12]
	.loc 6 39 16 view .LVU704
	str	r3, [r0, #16]
.LVL162:
	.loc 6 39 16 view .LVU705
.LBE201:
.LBE215:
	.loc 1 271 2 is_stmt 1 view .LVU706
	.loc 1 273 2 view .LVU707
	.loc 1 275 2 view .LVU708
	.loc 1 276 2 view .LVU709
	.loc 1 276 24 view .LVU710
	ble	.L122
.LBB216:
	.loc 1 280 20 is_stmt 0 view .LVU711
	vldr.32	s19, .L129+24
	.loc 1 280 9 view .LVU712
	vldr.32	s18, .L129+28
.LBB217:
	.loc 1 289 26 view .LVU713
	mov	r10, r3
.LBE217:
	.loc 1 302 3 view .LVU714
	vldr.64	d8, .L129+8	@ int
	mov	r9, fp
.LBE216:
	.loc 1 275 9 view .LVU715
	str	r3, [sp, #20]
.LVL163:
.L118:
.LBB224:
	.loc 1 277 3 is_stmt 1 view .LVU716
	.loc 1 279 3 view .LVU717
	.loc 1 279 32 is_stmt 0 view .LVU718
	ldr	r3, .L129+32
	ldr	r0, [sp, #20]
	ldr	r2, [r3]
	.loc 1 279 38 view .LVU719
	add	r3, r9, r9, lsl #3
	.loc 1 279 12 view .LVU720
	add	r2, r2, r3, lsl #2
	ldr	r1, [r2, #-32]
	add	r3, r0, r0, lsl #1
	.loc 1 280 29 view .LVU721
	ldrh	ip, [r1, #10]
	.loc 1 279 12 view .LVU722
	str	r1, [sp, #16]
.LVL164:
	.loc 1 280 3 is_stmt 1 view .LVU723
	.loc 1 280 69 is_stmt 0 view .LVU724
	ldrh	r1, [r1, #8]
.LVL165:
	.loc 1 280 29 view .LVU725
	vmov	s14, ip	@ int
	.loc 1 280 69 view .LVU726
	vmov	s15, r1	@ int
	.loc 1 280 20 view .LVU727
	vcvt.f32.s32	s14, s14
	.loc 1 280 60 view .LVU728
	vcvt.f32.s32	s15, s15
	.loc 1 280 20 view .LVU729
	vdiv.f32	s10, s19, s14
	.loc 1 280 60 view .LVU730
	vdiv.f32	s11, s19, s15
	lsl	r1, r0, #1
	str	r1, [sp, #28]
	ldr	r1, [sp, #24]
	.loc 1 280 49 view .LVU731
	mov	fp, r0
	.loc 1 280 9 view .LVU732
	vmul.f32	s10, s10, s18
.LVL166:
	.loc 1 280 49 view .LVU733
	vmul.f32	s11, s11, s18
.LVL167:
	.loc 1 282 3 is_stmt 1 view .LVU734
	.loc 1 282 29 view .LVU735
	add	r3, r1, r3, lsl #2
	b	.L119
.LVL168:
.L121:
.LBB218:
	.loc 1 286 27 is_stmt 0 view .LVU736
	ldrsh	r0, [r2, #-12]
	.loc 1 283 11 view .LVU737
	ldrsh	r1, [r2, #-20]
	.loc 1 286 27 view .LVU738
	vmov	s12, r0	@ int
	.loc 1 286 65 view .LVU739
	ldrsh	r0, [r2, #-10]
	.loc 1 286 27 view .LVU740
	vcvt.f32.s32	s12, s12
	.loc 1 286 65 view .LVU741
	vmov	s13, r0	@ int
	.loc 1 287 27 view .LVU742
	ldrsh	r0, [r2, #-8]
	.loc 1 286 65 view .LVU743
	vcvt.f32.s32	s13, s13
	.loc 1 287 27 view .LVU744
	vmov	s14, r0	@ int
	.loc 1 287 65 view .LVU745
	ldrsh	r0, [r2, #-6]
	.loc 1 286 41 view .LVU746
	vmul.f32	s12, s12, s10
	.loc 1 287 65 view .LVU747
	vmov	s15, r0	@ int
	.loc 1 287 27 view .LVU748
	vcvt.f32.s32	s14, s14
	.loc 1 287 65 view .LVU749
	vcvt.f32.s32	s15, s15
	.loc 1 286 79 view .LVU750
	vmul.f32	s13, s13, s11
	.loc 1 286 12 view .LVU751
	vcvt.s32.f32	s12, s12
	.loc 1 283 11 view .LVU752
	ldrsh	r0, [r2, #-18]
	ldrsh	ip, [r2, #-24]
	ldr	lr, .L129+32
	ldrsh	r8, [r2, #-28]
.LVL169:
	.loc 1 283 11 view .LVU753
	ldrsh	r7, [r2, #-26]
.LVL170:
	.loc 1 283 11 view .LVU754
	ldrsh	r6, [r2, #-16]
	ldrsh	r5, [r2, #-14]
	str	r1, [sp, #8]
	str	r0, [sp, #12]
	ldrsh	r1, [r2, #-4]
	ldrsh	r0, [r2, #-22]
.LVL171:
	.loc 1 284 4 is_stmt 1 view .LVU755
	.loc 1 286 4 view .LVU756
	.loc 1 283 11 is_stmt 0 view .LVU757
	str	r9, [lr, #4]
	.loc 1 287 41 view .LVU758
	vmul.f32	s14, s14, s10
	.loc 1 290 26 view .LVU759
	strh	ip, [r3, #12]	@ movhi
.LVL172:
	.loc 1 287 79 view .LVU760
	vmul.f32	s15, s15, s11
	.loc 1 286 12 view .LVU761
	vmov	ip, s12	@ int
.LVL173:
	.loc 1 286 50 view .LVU762
	vcvt.s32.f32	s13, s13
	.loc 1 286 12 view .LVU763
	sxth	lr, ip
.LVL174:
	.loc 1 287 12 view .LVU764
	vcvt.s32.f32	s14, s14
	.loc 1 286 50 view .LVU765
	vmov	ip, s13	@ int
	.loc 1 287 50 view .LVU766
	vcvt.s32.f32	s15, s15
	.loc 1 290 26 view .LVU767
	strh	r0, [r3, #14]	@ movhi
	.loc 1 286 50 view .LVU768
	sxth	r4, ip
.LVL175:
	.loc 1 287 4 is_stmt 1 view .LVU769
	.loc 1 287 50 is_stmt 0 view .LVU770
	vmov	r0, s15	@ int
.LVL176:
	.loc 1 287 12 view .LVU771
	vmov	ip, s14	@ int
	.loc 1 289 26 view .LVU772
	strh	r6, [r3]	@ movhi
	strh	r5, [r3, #2]	@ movhi
	strh	r10, [r3, #4]	@ movhi
	strh	r1, [r3, #10]	@ movhi
	.loc 1 290 26 view .LVU773
	strh	r10, [r3, #16]	@ movhi
	strh	r1, [r3, #22]	@ movhi
	.loc 1 291 26 view .LVU774
	strh	r8, [r3, #24]	@ movhi
	strh	r7, [r3, #26]	@ movhi
	strh	r10, [r3, #28]	@ movhi
	.loc 1 287 12 view .LVU775
	sxth	ip, ip
.LVL177:
	.loc 1 287 50 view .LVU776
	sxth	r0, r0
.LVL178:
	.loc 1 289 4 is_stmt 1 view .LVU777
	.loc 1 290 4 view .LVU778
	.loc 1 291 4 view .LVU779
	.loc 1 290 26 is_stmt 0 view .LVU780
	strh	r4, [r3, #20]	@ movhi
	.loc 1 291 26 view .LVU781
	strh	r4, [r3, #32]	@ movhi
	strh	lr, [r3, #30]	@ movhi
	.loc 1 289 26 view .LVU782
	strh	ip, [r3, #6]	@ movhi
	.loc 1 290 26 view .LVU783
	strh	ip, [r3, #18]	@ movhi
	.loc 1 289 26 view .LVU784
	strh	r0, [r3, #8]	@ movhi
	.loc 1 293 26 view .LVU785
	strh	r4, [r3, #44]	@ movhi
	.loc 1 294 26 view .LVU786
	ldr	r4, [sp, #8]
.LVL179:
	.loc 1 294 26 view .LVU787
.LBE218:
	.loc 1 282 29 view .LVU788
	cmp	r9, #0
.LBB219:
	.loc 1 294 26 view .LVU789
	strh	r4, [r3, #48]	@ movhi
	ldr	r4, [sp, #12]
.LBE219:
	.loc 1 282 29 view .LVU790
	add	r3, r3, #72
.LVL180:
.LBB220:
	.loc 1 295 22 view .LVU791
	add	fp, fp, #6
.LBE220:
	.loc 1 282 29 view .LVU792
	sub	r2, r2, #36
.LBB221:
	.loc 1 291 26 view .LVU793
	strh	r1, [r3, #-38]	@ movhi
	.loc 1 293 4 is_stmt 1 view .LVU794
	.loc 1 293 26 is_stmt 0 view .LVU795
	strh	r8, [r3, #-36]	@ movhi
	strh	r7, [r3, #-34]	@ movhi
	strh	r10, [r3, #-32]	@ movhi
	strh	lr, [r3, #-30]	@ movhi
	strh	r1, [r3, #-26]	@ movhi
	.loc 1 294 4 is_stmt 1 view .LVU796
	.loc 1 294 26 is_stmt 0 view .LVU797
	strh	r4, [r3, #-22]	@ movhi
	strh	r10, [r3, #-20]	@ movhi
	strh	lr, [r3, #-18]	@ movhi
	strh	r0, [r3, #-16]	@ movhi
	strh	r1, [r3, #-14]	@ movhi
	.loc 1 295 4 is_stmt 1 view .LVU798
.LVL181:
	.loc 1 295 26 is_stmt 0 view .LVU799
	strh	r6, [r3, #-12]	@ movhi
	strh	r5, [r3, #-10]	@ movhi
	strh	r10, [r3, #-8]	@ movhi
	strh	ip, [r3, #-6]	@ movhi
	strh	r0, [r3, #-4]	@ movhi
	strh	r1, [r3, #-2]	@ movhi
.LVL182:
	.loc 1 295 26 view .LVU800
.LBE221:
	.loc 1 282 29 is_stmt 1 view .LVU801
	beq	.L128
.LVL183:
.L119:
.LBB222:
	.loc 1 283 4 discriminator 1 view .LVU802
	.loc 1 283 4 is_stmt 0 discriminator 1 view .LVU803
.LBE222:
	.loc 1 282 29 discriminator 1 view .LVU804
	ldr	r1, [r2, #-32]
	ldr	r0, [sp, #16]
.LBB223:
	.loc 1 283 34 discriminator 1 view .LVU805
	sub	r9, r9, #1
.LBE223:
	.loc 1 282 29 discriminator 1 view .LVU806
	cmp	r1, r0
	beq	.L121
.L128:
	.loc 1 298 3 is_stmt 1 view .LVU807
	.loc 1 304 40 is_stmt 0 view .LVU808
	ldr	r3, [sp, #20]
	.loc 1 298 3 view .LVU809
	ldr	r1, [sp, #16]
	mov	r0, #0
	.loc 1 304 40 view .LVU810
	sub	r5, fp, r3
	.loc 1 298 3 view .LVU811
	bl	C3D_TexBind
.LVL184:
	.loc 1 300 3 is_stmt 1 view .LVU812
	.loc 1 300 26 is_stmt 0 view .LVU813
	bl	C3D_GetBufInfo
.LVL185:
	mov	r4, r0
.LVL186:
	.loc 1 301 3 is_stmt 1 view .LVU814
	bl	BufInfo_Init
.LVL187:
	.loc 1 302 3 view .LVU815
	.loc 1 302 39 is_stmt 0 view .LVU816
	ldr	r3, [sp, #28]
	ldr	r2, [sp, #20]
	.loc 1 302 3 view .LVU817
	vstr.64	d8, [sp]	@ int
	.loc 1 302 39 view .LVU818
	add	r1, r3, r2
	.loc 1 302 3 view .LVU819
	mov	r3, #2
	ldr	r2, [sp, #24]
	mov	r0, r4
	add	r1, r2, r1, lsl r3
	mov	r2, #12
	bl	BufInfo_Add
.LVL188:
	.loc 1 304 3 is_stmt 1 view .LVU820
	mov	r1, #0
	mov	r2, r5
	mov	r0, r1
	bl	C3D_DrawArrays
.LVL189:
	.loc 1 306 3 view .LVU821
	.loc 1 306 3 is_stmt 0 view .LVU822
.LBE224:
	.loc 1 276 24 is_stmt 1 view .LVU823
	.loc 1 276 16 is_stmt 0 view .LVU824
	ldr	r3, .L129+32
	ldr	r9, [r3, #4]
	.loc 1 276 24 view .LVU825
	cmp	r9, #0
.LVL190:
	.loc 1 276 24 view .LVU826
	strgt	fp, [sp, #20]
	bgt	.L118
.LVL191:
.L122:
	.loc 1 308 2 is_stmt 1 view .LVU827
	mov	r2, #31
	mov	r1, #6
	mov	r0, #1
	bl	C3D_DepthTest
.LVL192:
	.loc 1 310 2 view .LVU828
	.loc 1 310 17 is_stmt 0 view .LVU829
	mov	r1, #0
	.loc 1 311 11 view .LVU830
	mov	r2, #2
	ldr	r3, .L129+56
	.loc 1 310 17 view .LVU831
	ldr	r0, .L129+32
	.loc 1 311 11 view .LVU832
	str	r2, [r3]
	.loc 1 310 17 view .LVU833
	str	r1, [r0, #188]
	.loc 1 311 2 is_stmt 1 view .LVU834
	.loc 1 312 1 is_stmt 0 view .LVU835
	add	sp, sp, #100
	.cfi_def_cfa_offset 52
	@ sp needed
	vldm	sp!, {d8-d9}
	.cfi_restore 82
	.cfi_restore 83
	.cfi_restore 80
	.cfi_restore 81
	.cfi_def_cfa_offset 36
	pop	{r4, r5, r6, r7, r8, r9, r10, fp, pc}
.L130:
	.align	3
.L129:
	.word	-209982507
	.word	1068158697
	.word	16
	.word	0
	.word	0
	.word	-1082130432
	.word	1065353216
	.word	1191181824
	.word	.LANCHOR0
	.word	compareDrawCommands
	.word	C3D_FVUnifDirty
	.word	C3D_FVUnif
	.word	196611
	.word	65537
	.word	.LANCHOR1
	.cfi_endproc
.LFE224:
	.size	SpriteBatch_Render, .-SpriteBatch_Render
	.data
	.align	2
	.set	.LANCHOR1,. + 0
	.type	guiScale, %object
	.size	guiScale, 4
guiScale:
	.word	2
	.bss
	.align	2
	.set	.LANCHOR0,. + 0
	.type	cmdList, %object
	.size	cmdList, 12
cmdList:
	.space	12
	.type	vertexList, %object
	.size	vertexList, 8
vertexList:
	.space	8
	.type	projUniform, %object
	.size	projUniform, 4
projUniform:
	.space	4
	.type	font, %object
	.size	font, 4
font:
	.space	4
	.type	widgetsTex, %object
	.size	widgetsTex, 24
widgetsTex:
	.space	24
	.type	whiteTex, %object
	.size	whiteTex, 24
whiteTex:
	.space	24
	.type	menuBackgroundTex, %object
	.size	menuBackgroundTex, 24
menuBackgroundTex:
	.space	24
	.type	iconsTex, %object
	.size	iconsTex, 24
iconsTex:
	.space	24
	.type	iconModelMtx, %object
	.size	iconModelMtx, 64
iconModelMtx:
	.space	64
	.type	currentTexture, %object
	.size	currentTexture, 4
currentTexture:
	.space	4
	.type	screenWidth, %object
	.size	screenWidth, 4
screenWidth:
	.space	4
	.type	screenHeight, %object
	.size	screenHeight, 4
screenHeight:
	.space	4
	.type	rot, %object
	.size	rot, 4
rot:
	.space	4
	.text
.Letext0:
	.file 7 "/opt/devkitpro/devkitARM/arm-none-eabi/include/machine/_default_types.h"
	.file 8 "/opt/devkitpro/devkitARM/lib/gcc/arm-none-eabi/11.2.0/include/stddef.h"
	.file 9 "/opt/devkitpro/devkitARM/arm-none-eabi/include/sys/_stdint.h"
	.file 10 "/home/tobi/Dokumente/Craftus-Next/include/world/Direction.h"
	.file 11 "/home/tobi/Dokumente/Craftus-Next/include/blocks/Block.h"
	.file 12 "/opt/devkitpro/devkitARM/lib/gcc/arm-none-eabi/11.2.0/include/stdarg.h"
	.file 13 "/opt/devkitpro/devkitARM/arm-none-eabi/include/stdio.h"
	.file 14 "/opt/devkitpro/devkitARM/arm-none-eabi/include/stdlib.h"
	.file 15 "/opt/devkitpro/libctru/include/3ds/types.h"
	.file 16 "/opt/devkitpro/libctru/include/3ds/gfx.h"
	.file 17 "/opt/devkitpro/libctru/include/3ds/services/csnd.h"
	.file 18 "/opt/devkitpro/libctru/include/3ds/services/ndm.h"
	.file 19 "/opt/devkitpro/libctru/include/3ds/gpu/enums.h"
	.file 20 "/opt/devkitpro/libctru/include/3ds/ndsp/channel.h"
	.file 21 "/opt/devkitpro/libctru/include/3ds/applets/error.h"
	.file 22 "/opt/devkitpro/libctru/include/c3d/types.h"
	.file 23 "/opt/devkitpro/libctru/include/c3d/buffers.h"
	.file 24 "/home/tobi/Dokumente/Craftus-Next/include/gui/SpriteBatch.h"
	.file 25 "/home/tobi/Dokumente/Craftus-Next/include/gui/FontLoader.h"
	.file 26 "/home/tobi/Dokumente/Craftus-Next/include/rendering/VertexFmt.h"
	.file 27 "/opt/devkitpro/libctru/include/c3d/base.h"
	.file 28 "/opt/devkitpro/libctru/include/c3d/effect.h"
	.file 29 "/home/tobi/Dokumente/Craftus-Next/dependencies/vec/vec.h"
	.file 30 "/opt/devkitpro/libctru/include/3ds/allocator/linear.h"
	.file 31 "/home/tobi/Dokumente/Craftus-Next/include/rendering/TextureMap.h"
	.file 32 "/opt/devkitpro/devkitARM/arm-none-eabi/include/string.h"
	.file 33 "<built-in>"