	.arch armv6k
	.eabi_attribute 28, 1
	.eabi_attribute 20, 1
	.eabi_attribute 21, 1
	.eabi_attribute 23, 3
	.eabi_attribute 24, 1
	.eabi_attribute 25, 1
	.eabi_attribute 26, 1
	.eabi_attribute 30, 2
	.eabi_attribute 34, 1
	.eabi_attribute 18, 4
	.file	"SuperChunk.c"
	.text
.Ltext0:
	.cfi_sections	.debug_frame
	.section	.text.SuperChunk_InitPools,"ax",%progbits
	.align	2
	.global	SuperChunk_InitPools
	.syntax unified
	.arm
	.fpu vfp
	.type	SuperChunk_InitPools, %function
SuperChunk_InitPools:
.LFB147:
	.file 1 "/home/tobi/Dokumente/Craftus-Next/source/world/savegame/SuperChunk.c"
	.loc 1 18 29 view -0
	.cfi_startproc
	@ args = 0, pretend = 0, frame = 0
	@ frame_needed = 0, uses_anonymous_args = 0
	.loc 1 19 2 view .LVU1
	.loc 1 18 29 is_stmt 0 view .LVU2
	push	{r4, r5, r6, lr}
	.cfi_def_cfa_offset 16
	.cfi_offset 4, -16
	.cfi_offset 5, -12
	.cfi_offset 6, -8
	.cfi_offset 14, -4
	.loc 1 19 37 view .LVU3
	mov	r0, #32768
	bl	malloc
.LVL0:
	mov	r3, r0
	.loc 1 20 15 view .LVU4
	ldr	r5, .L4
	.loc 1 19 15 view .LVU5
	ldr	r4, .L4+4
	.loc 1 20 15 view .LVU6
	mov	r0, r5
	.loc 1 19 15 view .LVU7
	str	r3, [r4]
	.loc 1 20 2 is_stmt 1 view .LVU8
	.loc 1 20 15 is_stmt 0 view .LVU9
	bl	malloc
.LVL1:
	mov	r3, r0
	.loc 1 21 21 view .LVU10
	mov	r0, r5
	.loc 1 20 13 view .LVU11
	str	r3, [r4, #4]
	.loc 1 21 2 is_stmt 1 view .LVU12
	.loc 1 21 21 is_stmt 0 view .LVU13
	bl	malloc
.LVL2:
	.loc 1 21 19 view .LVU14
	str	r0, [r4, #8]
	.loc 1 22 1 view .LVU15
	pop	{r4, r5, r6, pc}
.L5:
	.align	2
.L4:
	.word	132440
	.word	.LANCHOR0
	.cfi_endproc
.LFE147:
	.size	SuperChunk_InitPools, .-SuperChunk_InitPools
	.section	.text.SuperChunk_DeinitPools,"ax",%progbits
	.align	2
	.global	SuperChunk_DeinitPools
	.syntax unified
	.arm
	.fpu vfp
	.type	SuperChunk_DeinitPools, %function
SuperChunk_DeinitPools:
.LFB148:
	.loc 1 23 31 is_stmt 1 view -0
	.cfi_startproc
	@ args = 0, pretend = 0, frame = 0
	@ frame_needed = 0, uses_anonymous_args = 0
	.loc 1 24 2 view .LVU17
	.loc 1 23 31 is_stmt 0 view .LVU18
	push	{r4, lr}
	.cfi_def_cfa_offset 8
	.cfi_offset 4, -8
	.cfi_offset 14, -4
	.loc 1 24 2 view .LVU19
	ldr	r4, .L8
	ldr	r0, [r4]
	bl	free
.LVL3:
	.loc 1 25 2 is_stmt 1 view .LVU20
	ldr	r0, [r4, #8]
	bl	free
.LVL4:
	.loc 1 26 2 view .LVU21
	ldr	r0, [r4, #4]
	.loc 1 27 1 is_stmt 0 view .LVU22
	pop	{r4, lr}
	.cfi_restore 14
	.cfi_restore 4
	.cfi_def_cfa_offset 0
	.loc 1 26 2 view .LVU23
	b	free
.LVL5:
.L9:
	.align	2
.L8:
	.word	.LANCHOR0
	.cfi_endproc
.LFE148:
	.size	SuperChunk_DeinitPools, .-SuperChunk_DeinitPools
	.section	.rodata.str1.4,"aMS",%progbits,1
	.align	2
.LC0:
	.ascii	"superchunks/s.%d.%d.mp\000"
	.align	2
.LC1:
	.ascii	"rb\000"
	.align	2
.LC2:
	.ascii	"chunkIndices\000"
	.align	2
.LC3:
	.ascii	"position\000"
	.align	2
.LC4:
	.ascii	"compressedSize\000"
	.align	2
.LC5:
	.ascii	"actualSize\000"
	.align	2
.LC6:
	.ascii	"blockSize\000"
	.align	2
.LC7:
	.ascii	"revision\000"
	.align	2
.LC8:
	.ascii	"MPack error %d while loading superchunk manifest %d"
	.ascii	" %d\000"
	.align	2
.LC9:
	.ascii	"superchunks/s.%d.%d.dat\000"
	.align	2
.LC10:
	.ascii	"r+b\000"
	.align	2
.LC11:
	.ascii	"w+b\000"
	.section	.text.SuperChunk_Init,"ax",%progbits
	.align	2
	.global	SuperChunk_Init
	.syntax unified
	.arm
	.fpu vfp
	.type	SuperChunk_Init, %function
SuperChunk_Init:
.LVL6:
.LFB149:
	.loc 1 29 60 is_stmt 1 view -0
	.cfi_startproc
	@ args = 0, pretend = 0, frame = 440
	@ frame_needed = 0, uses_anonymous_args = 0
	.loc 1 30 2 view .LVU25
	.loc 1 29 60 is_stmt 0 view .LVU26
	push	{r4, r5, r6, r7, r8, r9, r10, fp, lr}
	.cfi_def_cfa_offset 36
	.cfi_offset 4, -36
	.cfi_offset 5, -32
	.cfi_offset 6, -28
	.cfi_offset 7, -24
	.cfi_offset 8, -20
	.cfi_offset 9, -16
	.cfi_offset 10, -12
	.cfi_offset 11, -8
	.cfi_offset 14, -4
	vpush.64	{d8}
	.cfi_def_cfa_offset 44
	.cfi_offset 80, -44
	.cfi_offset 81, -40
	mov	r6, r0
	mov	r3, r1
	mov	ip, r2
	.loc 1 33 2 view .LVU27
	mov	r5, #0
	.loc 1 29 60 view .LVU28
	sub	sp, sp, #452
	.cfi_def_cfa_offset 496
	.loc 1 36 2 view .LVU29
	ldr	r1, .L72
.LVL7:
	.loc 1 30 16 view .LVU30
	str	r3, [r6]
	.loc 1 31 2 is_stmt 1 view .LVU31
	.loc 1 31 16 is_stmt 0 view .LVU32
	str	ip, [r6, #4]
	.loc 1 33 2 is_stmt 1 view .LVU33
	.loc 1 29 60 is_stmt 0 view .LVU34
	vmov	s16, r3	@ int
	vmov	s17, r2	@ int
	.loc 1 36 2 view .LVU35
	add	r0, sp, #192
	.loc 1 30 16 view .LVU36
	mov	r2, r3
.LVL8:
	.loc 1 33 2 view .LVU37
	str	r5, [r6, #1292]	@ unaligned
	.loc 1 31 16 view .LVU38
	mov	r3, ip
.LVL9:
	.loc 1 33 2 view .LVU39
	str	r5, [r6, #1296]	@ unaligned
	str	r5, [r6, #1300]	@ unaligned
	.loc 1 35 2 is_stmt 1 view .LVU40
	.loc 1 36 2 view .LVU41
	bl	sprintf
.LVL10:
	.loc 1 38 2 view .LVU42
	.loc 1 38 6 is_stmt 0 view .LVU43
	mov	r1, r5
	add	r0, sp, #192
	bl	access
.LVL11:
	.loc 1 38 5 view .LVU44
	cmn	r0, #1
	beq	.L11
.LBB176:
	.loc 1 39 3 is_stmt 1 view .LVU45
.LVL12:
.LBB177:
	.loc 1 41 4 view .LVU46
	.loc 1 41 14 is_stmt 0 view .LVU47
	ldr	r1, .L72+4
	add	r0, sp, #192
	bl	fopen
.LVL13:
	mov	r10, r0
.LVL14:
	.loc 1 42 4 is_stmt 1 view .LVU48
	mov	r2, #2
	mov	r1, r5
	bl	fseek
.LVL15:
	.loc 1 43 4 view .LVU49
	.loc 1 43 11 is_stmt 0 view .LVU50
	mov	r0, r10
	bl	ftell
.LVL16:
	mov	r4, r0
.LVL17:
	.loc 1 44 4 is_stmt 1 view .LVU51
	.loc 1 45 4 is_stmt 0 view .LVU52
	ldr	r7, .L72+8
	.loc 1 44 4 view .LVU53
	mov	r2, r5
	mov	r1, r5
	mov	r0, r10
.LVL18:
	.loc 1 44 4 view .LVU54
	bl	fseek
.LVL19:
	.loc 1 45 4 is_stmt 1 view .LVU55
	mov	r3, r10
	mov	r1, #1
	mov	r2, r4
	ldr	r0, [r7, #4]
	bl	fread
.LVL20:
	.loc 1 46 4 view .LVU56
	mov	r0, r10
	bl	fclose
.LVL21:
.LBE177:
	.loc 1 49 3 view .LVU57
	.loc 1 50 3 view .LVU58
	mov	r3, #2048
	str	r3, [sp]
	mov	r2, r4
	ldr	r3, [r7]
	ldr	r1, [r7, #4]
	add	r0, sp, #136
	bl	mpack_tree_init_pool
.LVL22:
	.loc 1 51 3 view .LVU59
	.loc 1 51 23 is_stmt 0 view .LVU60
	add	r1, sp, #136
	add	r0, sp, #24
	bl	mpack_tree_root
.LVL23:
	.loc 1 53 3 is_stmt 1 view .LVU61
	.loc 1 53 31 is_stmt 0 view .LVU62
	add	r2, sp, #24
	ldr	r3, .L72+12
	add	r0, sp, #32
	ldm	r2, {r1, r2}
	bl	mpack_node_map_cstr
.LVL24:
	.loc 1 54 3 is_stmt 1 view .LVU63
.LBB178:
	.loc 1 54 8 view .LVU64
	.loc 1 54 21 view .LVU65
	ldr	r3, [sp, #36]
	add	r8, r6, #1280
	str	r3, [sp, #16]
	ldr	r3, [sp, #32]
	.loc 1 54 12 is_stmt 0 view .LVU66
	mov	r9, r5
	add	r8, r8, #12
	add	fp, sp, #40
	str	r3, [sp, #20]
	b	.L32
.LVL25:
.L12:
.LBB179:
.LBB180:
.LBB181:
	.file 2 "/home/tobi/Dokumente/Craftus-Next/dependencies/mpack/mpack.h"
	.loc 2 5436 5 is_stmt 1 view .LVU67
	.loc 2 5436 8 is_stmt 0 view .LVU68
	ldr	r3, [sp, #20]
	ldrb	r3, [r3]	@ zero_extendqisi2
	cmp	r3, #10
	.loc 2 5437 9 view .LVU69
	ldr	r3, [sp, #20]
	.loc 2 5436 8 view .LVU70
	bne	.L67
	.loc 2 5441 5 is_stmt 1 view .LVU71
	.loc 2 5441 8 is_stmt 0 view .LVU72
	ldr	r3, [r3, #4]
	cmp	r9, r3
	.loc 2 5442 9 view .LVU73
	ldr	r3, [sp, #20]
	.loc 2 5441 8 view .LVU74
	bcs	.L68
	.loc 2 5446 5 is_stmt 1 view .LVU75
.LVL26:
.LBB182:
.LBI182:
	.loc 2 4521 27 view .LVU76
.LBB183:
	.loc 2 4522 5 view .LVU77
	.loc 2 4522 38 is_stmt 0 view .LVU78
	ldr	r3, [r3, #8]
	add	r3, r3, r9, lsl #4
.LVL27:
	.loc 2 4522 38 view .LVU79
.LBE183:
.LBE182:
.LBB184:
.LBI184:
	.loc 2 4514 21 is_stmt 1 view .LVU80
.LBB185:
	.loc 2 4515 5 view .LVU81
	.loc 2 4516 5 view .LVU82
	.loc 2 4517 5 view .LVU83
	.loc 2 4518 5 view .LVU84
.L13:
	.loc 2 4518 5 is_stmt 0 view .LVU85
.LBE185:
.LBE184:
.LBB186:
.LBB187:
.LBB188:
.LBB189:
	.loc 2 4518 12 view .LVU86
	str	r3, [sp, #40]
	ldr	r3, [sp, #16]
.LBE189:
.LBE188:
.LBE187:
.LBE186:
.LBE181:
.LBE180:
	.loc 1 56 30 view .LVU87
	asr	r2, r9, #3
.LBB209:
.LBB205:
.LBB196:
.LBB194:
.LBB192:
.LBB190:
	.loc 2 4518 12 view .LVU88
	str	r3, [sp, #44]
.LVL28:
	.loc 2 4518 12 view .LVU89
.LBE190:
.LBE192:
.LBE194:
.LBE196:
.LBE205:
.LBE209:
	.loc 1 56 4 is_stmt 1 view .LVU90
	.loc 1 57 20 is_stmt 0 view .LVU91
	add	r0, sp, #48
	ldr	r3, .L72+16
	.loc 1 56 30 view .LVU92
	str	r2, [sp, #12]
	.loc 1 57 20 view .LVU93
	ldm	fp, {r1, r2}
	bl	mpack_node_map_cstr
.LVL29:
.LBB210:
.LBB211:
.LBB212:
.LBB213:
.LBB214:
	.loc 2 4593 16 view .LVU94
	ldr	r3, [sp, #52]
	add	r2, sp, #48
.LBE214:
.LBE213:
.LBE212:
	.loc 2 4864 8 view .LVU95
	ldrb	r3, [r3, #32]	@ zero_extendqisi2
	ldm	r2, {r0, r1}
	cmp	r3, #0
	add	r2, sp, #120
	.loc 2 4865 16 view .LVU96
	movne	r5, #0
	stm	r2, {r0, r1}
.LVL30:
	.loc 2 4865 16 view .LVU97
.LBE211:
.LBI210:
	.loc 2 4863 17 is_stmt 1 view .LVU98
.LBB218:
	.loc 2 4864 5 view .LVU99
.LBB217:
.LBI212:
	.loc 2 4690 22 view .LVU100
	.loc 2 4691 5 view .LVU101
.LBB216:
.LBI213:
	.loc 2 4592 22 view .LVU102
.LBB215:
	.loc 2 4593 5 view .LVU103
	.loc 2 4593 5 is_stmt 0 view .LVU104
.LBE215:
.LBE216:
.LBE217:
.LBE218:
.LBE210:
	.loc 1 56 23 view .LVU105
	and	r4, r9, #7
.LBB221:
.LBB219:
	.loc 2 4864 8 view .LVU106
	bne	.L16
	.loc 2 4867 18 view .LVU107
	ldrb	r1, [r0]	@ zero_extendqisi2
.LVL31:
	.loc 2 4867 18 view .LVU108
	mov	r2, r0
	.loc 2 4867 5 is_stmt 1 view .LVU109
	.loc 2 4867 8 is_stmt 0 view .LVU110
	cmp	r1, #6
	beq	.L58
	.loc 2 4870 12 is_stmt 1 view .LVU111
	.loc 2 4870 15 is_stmt 0 view .LVU112
	cmp	r1, #5
	beq	.L58
.L18:
	.loc 2 4875 5 is_stmt 1 view .LVU113
	add	r3, sp, #120
	mov	r2, #4
	ldm	r3, {r0, r1}
.LVL32:
	.loc 2 4876 12 is_stmt 0 view .LVU114
	mov	r5, #0
	.loc 2 4875 5 view .LVU115
	bl	mpack_node_flag_error
.LVL33:
	.loc 2 4876 5 is_stmt 1 view .LVU116
.L16:
	.loc 2 4876 5 is_stmt 0 view .LVU117
.LBE219:
.LBE221:
	.loc 1 58 6 view .LVU118
	ldm	fp, {r1, r2}
	ldr	r3, .L72+20
	add	r0, sp, #56
	bl	mpack_node_map_cstr
.LVL34:
.LBB222:
.LBB223:
.LBB224:
.LBB225:
.LBB226:
	.loc 2 4593 16 view .LVU119
	ldr	r3, [sp, #60]
	add	r2, sp, #56
.LBE226:
.LBE225:
.LBE224:
	.loc 2 4864 8 view .LVU120
	ldrb	r3, [r3, #32]	@ zero_extendqisi2
	ldm	r2, {r0, r1}
	cmp	r3, #0
	add	r2, sp, #112
	stm	r2, {r0, r1}
.LVL35:
	.loc 2 4864 8 view .LVU121
.LBE223:
.LBI222:
	.loc 2 4863 17 is_stmt 1 view .LVU122
.LBB230:
	.loc 2 4864 5 view .LVU123
.LBB229:
.LBI224:
	.loc 2 4690 22 view .LVU124
	.loc 2 4691 5 view .LVU125
.LBB228:
.LBI225:
	.loc 2 4592 22 view .LVU126
.LBB227:
	.loc 2 4593 5 view .LVU127
	.loc 2 4593 5 is_stmt 0 view .LVU128
.LBE227:
.LBE228:
.LBE229:
	.loc 2 4864 8 view .LVU129
	bne	.L43
	.loc 2 4867 18 view .LVU130
	ldrb	r1, [r0]	@ zero_extendqisi2
.LVL36:
	.loc 2 4867 18 view .LVU131
	mov	r2, r0
	.loc 2 4867 5 is_stmt 1 view .LVU132
	.loc 2 4867 8 is_stmt 0 view .LVU133
	cmp	r1, #6
	beq	.L64
	.loc 2 4870 12 is_stmt 1 view .LVU134
	.loc 2 4870 15 is_stmt 0 view .LVU135
	cmp	r1, #5
	beq	.L64
.LVL37:
.L21:
	.loc 2 4875 5 is_stmt 1 view .LVU136
	.loc 2 4876 12 is_stmt 0 view .LVU137
	mov	r3, #0
	str	r3, [sp, #12]
	.loc 2 4875 5 view .LVU138
	add	r3, sp, #112
	mov	r2, #4
	ldm	r3, {r0, r1}
	bl	mpack_node_flag_error
.LVL38:
	.loc 2 4876 5 is_stmt 1 view .LVU139
.L19:
	.loc 2 4876 5 is_stmt 0 view .LVU140
.LBE230:
.LBE222:
	.loc 1 59 6 view .LVU141
	ldm	fp, {r1, r2}
	ldr	r3, .L72+24
	add	r0, sp, #64
	bl	mpack_node_map_cstr
.LVL39:
.LBB233:
.LBB234:
.LBB235:
.LBB236:
.LBB237:
	.loc 2 4593 16 view .LVU142
	ldr	r3, [sp, #68]
	add	r2, sp, #64
.LBE237:
.LBE236:
.LBE235:
	.loc 2 4864 8 view .LVU143
	ldrb	r3, [r3, #32]	@ zero_extendqisi2
	ldm	r2, {r0, r1}
	cmp	r3, #0
	add	r2, sp, #104
	.loc 2 4865 16 view .LVU144
	movne	r10, #0
	stm	r2, {r0, r1}
.LVL40:
	.loc 2 4865 16 view .LVU145
.LBE234:
.LBI233:
	.loc 2 4863 17 is_stmt 1 view .LVU146
.LBB241:
	.loc 2 4864 5 view .LVU147
.LBB240:
.LBI235:
	.loc 2 4690 22 view .LVU148
	.loc 2 4691 5 view .LVU149
.LBB239:
.LBI236:
	.loc 2 4592 22 view .LVU150
.LBB238:
	.loc 2 4593 5 view .LVU151
	.loc 2 4593 5 is_stmt 0 view .LVU152
.LBE238:
.LBE239:
.LBE240:
	.loc 2 4864 8 view .LVU153
	bne	.L22
	.loc 2 4867 18 view .LVU154
	ldrb	r1, [r0]	@ zero_extendqisi2
.LVL41:
	.loc 2 4867 18 view .LVU155
	mov	r2, r0
	.loc 2 4867 5 is_stmt 1 view .LVU156
	.loc 2 4867 8 is_stmt 0 view .LVU157
	cmp	r1, #6
	beq	.L60
	.loc 2 4870 12 is_stmt 1 view .LVU158
	.loc 2 4870 15 is_stmt 0 view .LVU159
	cmp	r1, #5
	beq	.L60
.L24:
	.loc 2 4875 5 is_stmt 1 view .LVU160
	add	r3, sp, #104
	mov	r2, #4
	ldm	r3, {r0, r1}
.LVL42:
	.loc 2 4876 12 is_stmt 0 view .LVU161
	mov	r10, #0
	.loc 2 4875 5 view .LVU162
	bl	mpack_node_flag_error
.LVL43:
	.loc 2 4876 5 is_stmt 1 view .LVU163
.L22:
	.loc 2 4876 5 is_stmt 0 view .LVU164
.LBE241:
.LBE233:
	.loc 1 60 6 view .LVU165
	ldm	fp, {r1, r2}
	ldr	r3, .L72+28
	add	r0, sp, #72
	bl	mpack_node_map_cstr
.LVL44:
.LBB243:
.LBB244:
.LBB245:
.LBB246:
.LBB247:
	.loc 2 4593 16 view .LVU166
	ldr	r3, [sp, #76]
	ldrb	r7, [r3, #32]	@ zero_extendqisi2
	add	r3, sp, #72
	ldm	r3, {r0, r1}
.LBE247:
.LBE246:
.LBE245:
	.loc 2 4784 8 view .LVU167
	cmp	r7, #0
	add	r3, sp, #96
	.loc 2 4785 16 view .LVU168
	movne	r7, #0
	stm	r3, {r0, r1}
.LVL45:
	.loc 2 4785 16 view .LVU169
.LBE244:
.LBI243:
	.loc 2 4783 16 is_stmt 1 view .LVU170
.LBB251:
	.loc 2 4784 5 view .LVU171
.LBB250:
.LBI245:
	.loc 2 4690 22 view .LVU172
	.loc 2 4691 5 view .LVU173
.LBB249:
.LBI246:
	.loc 2 4592 22 view .LVU174
.LBB248:
	.loc 2 4593 5 view .LVU175
	.loc 2 4593 5 is_stmt 0 view .LVU176
.LBE248:
.LBE249:
.LBE250:
	.loc 2 4784 8 view .LVU177
	bne	.L25
	.loc 2 4787 18 view .LVU178
	ldrb	r2, [r0]	@ zero_extendqisi2
	mov	r3, r0
	.loc 2 4787 5 is_stmt 1 view .LVU179
	.loc 2 4787 8 is_stmt 0 view .LVU180
	cmp	r2, #6
	beq	.L66
	.loc 2 4790 12 is_stmt 1 view .LVU181
	.loc 2 4790 15 is_stmt 0 view .LVU182
	cmp	r2, #5
	beq	.L66
.L27:
	.loc 2 4795 5 is_stmt 1 view .LVU183
	add	r3, sp, #96
	mov	r2, #4
	ldm	r3, {r0, r1}
.LVL46:
	.loc 2 4795 5 is_stmt 0 view .LVU184
	bl	mpack_node_flag_error
.LVL47:
	.loc 2 4796 5 is_stmt 1 view .LVU185
.L25:
	.loc 2 4796 5 is_stmt 0 view .LVU186
.LBE251:
.LBE243:
	.loc 1 61 6 view .LVU187
	ldm	fp, {r1, r2}
	ldr	r3, .L72+32
	add	r0, sp, #80
	bl	mpack_node_map_cstr
.LVL48:
.LBB253:
.LBB254:
.LBB255:
.LBB256:
.LBB257:
	.loc 2 4593 16 view .LVU188
	ldr	r3, [sp, #84]
	add	r2, sp, #80
.LBE257:
.LBE256:
.LBE255:
	.loc 2 4864 8 view .LVU189
	ldrb	r3, [r3, #32]	@ zero_extendqisi2
	ldm	r2, {r0, r1}
	cmp	r3, #0
	add	r2, sp, #88
	stm	r2, {r0, r1}
.LVL49:
	.loc 2 4864 8 view .LVU190
.LBE254:
.LBI253:
	.loc 2 4863 17 is_stmt 1 view .LVU191
.LBB261:
	.loc 2 4864 5 view .LVU192
.LBB260:
.LBI255:
	.loc 2 4690 22 view .LVU193
	.loc 2 4691 5 view .LVU194
.LBB259:
.LBI256:
	.loc 2 4592 22 view .LVU195
.LBB258:
	.loc 2 4593 5 view .LVU196
	.loc 2 4593 5 is_stmt 0 view .LVU197
.LBE258:
.LBE259:
.LBE260:
	.loc 2 4865 16 view .LVU198
	movne	r1, #0
.LVL50:
	.loc 2 4864 8 view .LVU199
	bne	.L28
	.loc 2 4867 18 view .LVU200
	ldrb	r1, [r0]	@ zero_extendqisi2
	mov	r2, r0
	.loc 2 4867 5 is_stmt 1 view .LVU201
	.loc 2 4867 8 is_stmt 0 view .LVU202
	cmp	r1, #6
	beq	.L62
	.loc 2 4870 12 is_stmt 1 view .LVU203
	.loc 2 4870 15 is_stmt 0 view .LVU204
	cmp	r1, #5
	beq	.L62
.LVL51:
.L30:
	.loc 2 4875 5 is_stmt 1 view .LVU205
	add	r3, sp, #88
	ldm	r3, {r0, r1}
	mov	r2, #4
	bl	mpack_node_flag_error
.LVL52:
	.loc 2 4876 5 view .LVU206
	.loc 2 4876 12 is_stmt 0 view .LVU207
	mov	r1, #0
.L28:
.LVL53:
	.loc 2 4876 12 view .LVU208
.LBE261:
.LBE253:
	.loc 1 56 35 view .LVU209
	add	r3, r4, r4, lsl #2
	asr	r2, r9, #3
	add	r2, r2, r2, lsl #2
	lsl	r3, r3, #5
	add	r3, r3, r2, lsl #2
	ldr	r2, [sp, #12]
	add	r3, r6, r3
.LBB263:
	.loc 1 65 8 view .LVU210
	cmp	r10, #0
.LBE263:
	.loc 1 56 35 view .LVU211
	str	r2, [r3, #16]
	str	r1, [r3, #28]
.LBB265:
	.loc 1 64 5 is_stmt 1 view .LVU212
.LVL54:
	.loc 1 65 5 view .LVU213
.LBE265:
	.loc 1 56 35 is_stmt 0 view .LVU214
	str	r10, [r3, #20]
	str	r5, [r3, #12]
	strb	r7, [r3, #24]
.LBB266:
	.loc 1 65 8 view .LVU215
	bne	.L31
.LVL55:
.L37:
	.loc 1 65 8 view .LVU216
.LBE266:
.LBE179:
	.loc 1 54 31 is_stmt 1 view .LVU217
	add	r9, r9, #1
.LVL56:
	.loc 1 54 21 view .LVU218
	cmp	r9, #64
	beq	.L69
.LVL57:
.L32:
.LBB276:
	.loc 1 55 4 view .LVU219
.LBB267:
.LBB206:
	.loc 2 5433 8 is_stmt 0 view .LVU220
	ldr	r3, [sp, #16]
	ldrb	r3, [r3, #32]	@ zero_extendqisi2
	cmp	r3, #0
	add	r3, sp, #32
	ldm	r3, {r0, r1}
	add	r3, sp, #128
	stm	r3, {r0, r1}
.LVL58:
	.loc 2 5433 8 view .LVU221
.LBE206:
.LBI180:
	.loc 2 5432 21 is_stmt 1 view .LVU222
.LBB207:
	.loc 2 5433 5 view .LVU223
.LBB197:
.LBI197:
	.loc 2 4690 22 view .LVU224
	.loc 2 4691 5 view .LVU225
.LBB198:
.LBI198:
	.loc 2 4592 22 view .LVU226
.LBB199:
	.loc 2 4593 5 view .LVU227
	.loc 2 4593 5 is_stmt 0 view .LVU228
.LBE199:
.LBE198:
.LBE197:
	.loc 2 5433 8 view .LVU229
	beq	.L12
	.loc 2 5434 9 is_stmt 1 view .LVU230
.LVL59:
.LBB200:
.LBI186:
	.loc 2 4525 21 view .LVU231
.LBB195:
	.loc 2 4526 5 view .LVU232
	.loc 2 4526 12 is_stmt 0 view .LVU233
	ldr	r3, [sp, #16]
	add	r3, r3, #16
.LVL60:
.LBB193:
.LBI188:
	.loc 2 4514 21 is_stmt 1 view .LVU234
.LBB191:
	.loc 2 4515 5 view .LVU235
	.loc 2 4516 5 view .LVU236
	.loc 2 4517 5 view .LVU237
	.loc 2 4518 5 view .LVU238
	.loc 2 4518 5 is_stmt 0 view .LVU239
.LBE191:
.LBE193:
.LBE195:
.LBE200:
	.loc 2 5434 16 view .LVU240
	b	.L13
.LVL61:
.L62:
	.loc 2 5434 16 view .LVU241
.LBE207:
.LBE267:
.LBB268:
.LBB262:
	.loc 2 4871 9 is_stmt 1 view .LVU242
	.loc 2 4871 12 is_stmt 0 view .LVU243
	mvn	r0, #0
.LVL62:
	.loc 2 4871 29 view .LVU244
	ldr	r1, [r2, #8]
	ldr	r2, [r2, #12]
.LVL63:
	.loc 2 4871 12 view .LVU245
	cmp	r0, r1
	sbcs	r2, r3, r2
	bcc	.L30
	b	.L28
.LVL64:
.L58:
	.loc 2 4871 12 view .LVU246
.LBE262:
.LBE268:
.LBB269:
.LBB220:
	.loc 2 4871 9 is_stmt 1 view .LVU247
	.loc 2 4871 12 is_stmt 0 view .LVU248
	mvn	r1, #0
	.loc 2 4871 29 view .LVU249
	ldr	r5, [r2, #8]
	ldr	r2, [r2, #12]
	.loc 2 4871 12 view .LVU250
	cmp	r1, r5
	sbcs	r2, r3, r2
	bcc	.L18
	b	.L16
.LVL65:
.L60:
	.loc 2 4871 12 view .LVU251
.LBE220:
.LBE269:
.LBB270:
.LBB242:
	.loc 2 4871 9 is_stmt 1 view .LVU252
	.loc 2 4871 12 is_stmt 0 view .LVU253
	mvn	r1, #0
	.loc 2 4871 29 view .LVU254
	ldr	r10, [r2, #8]
	ldr	r2, [r2, #12]
	.loc 2 4871 12 view .LVU255
	cmp	r1, r10
	sbcs	r2, r3, r2
	bcc	.L24
	b	.L22
.LVL66:
.L64:
	.loc 2 4871 12 view .LVU256
.LBE242:
.LBE270:
.LBB271:
.LBB231:
	.loc 2 4871 9 is_stmt 1 view .LVU257
	.loc 2 4871 12 is_stmt 0 view .LVU258
	mvn	r0, #0
.LVL67:
	.loc 2 4871 29 view .LVU259
	ldr	r1, [r2, #8]
	ldr	r2, [r2, #12]
.LVL68:
	.loc 2 4871 12 view .LVU260
	cmp	r0, r1
	sbcs	r2, r3, r2
	.loc 2 4872 20 view .LVU261
	strcs	r1, [sp, #12]
	.loc 2 4871 12 view .LVU262
	bcc	.L21
	b	.L19
.LVL69:
.L66:
	.loc 2 4871 12 view .LVU263
.LBE231:
.LBE271:
.LBB272:
.LBB252:
	.loc 2 4791 9 is_stmt 1 view .LVU264
	.loc 2 4791 29 is_stmt 0 view .LVU265
	ldrd	r2, [r3, #8]
	.loc 2 4791 12 view .LVU266
	cmp	r2, #256
	sbcs	r3, r3, #0
	.loc 2 4792 20 view .LVU267
	uxtbcc	r7, r2
	.loc 2 4791 12 view .LVU268
	bcs	.L27
	b	.L25
.LVL70:
.L43:
	.loc 2 4791 12 view .LVU269
.LBE252:
.LBE272:
.LBB273:
.LBB232:
	.loc 2 4865 16 view .LVU270
	mov	r3, #0
	str	r3, [sp, #12]
	b	.L19
.LVL71:
.L31:
	.loc 2 4865 16 view .LVU271
.LBE232:
.LBE273:
.LBB274:
	.loc 1 67 9 view .LVU272
	add	r1, r6, #1296
	.loc 1 66 32 view .LVU273
	add	r4, r7, r5
	.loc 1 67 9 view .LVU274
	add	r10, r1, #4
.LVL72:
	.loc 1 67 9 view .LVU275
	b	.L35
.LVL73:
.L36:
	.loc 1 67 9 view .LVU276
	mov	r3, #1
	mov	r2, r10
	mov	r0, r8
	str	r1, [sp, #12]
	bl	vec_expand_
.LVL74:
	.loc 1 67 172 view .LVU277
	cmp	r0, #0
	.loc 1 67 226 view .LVU278
	ldreq	r3, [r6, #1296]
	.loc 1 67 197 view .LVU279
	ldreq	r2, [r6, #1292]
	.loc 1 67 234 view .LVU280
	addeq	ip, r3, #1
	.loc 1 67 172 view .LVU281
	ldr	r1, [sp, #12]
	.loc 1 67 234 view .LVU282
	streq	ip, [r6, #1296]
	.loc 1 67 238 view .LVU283
	strbeq	r0, [r2, r3]
.L35:
	.loc 1 67 7 is_stmt 1 view .LVU284
	.loc 1 66 54 view .LVU285
	ldr	r3, [r6, #1296]
	cmp	r3, r4
	bcc	.L36
.LVL75:
.LBB264:
	.loc 1 69 24 view .LVU286
	cmp	r7, #0
	beq	.L37
	.loc 1 70 56 is_stmt 0 view .LVU287
	mov	r2, #1
.LVL76:
.L38:
	.loc 1 70 7 is_stmt 1 discriminator 3 view .LVU288
	.loc 1 70 56 is_stmt 0 discriminator 3 view .LVU289
	ldr	r3, [r6, #1292]
	strb	r2, [r3, r5]
	.loc 1 69 48 is_stmt 1 discriminator 3 view .LVU290
.LVL77:
	.loc 1 69 24 discriminator 3 view .LVU291
	add	r5, r5, #1
	cmp	r4, r5
	bne	.L38
.LVL78:
	.loc 1 69 24 is_stmt 0 discriminator 3 view .LVU292
.LBE264:
.LBE274:
.LBE276:
	.loc 1 54 31 is_stmt 1 view .LVU293
	add	r9, r9, #1
.LVL79:
	.loc 1 54 21 view .LVU294
	cmp	r9, #64
	bne	.L32
.LVL80:
.L69:
	.loc 1 54 21 is_stmt 0 view .LVU295
.LBE178:
	.loc 1 75 3 is_stmt 1 view .LVU296
	.loc 1 75 23 is_stmt 0 view .LVU297
	add	r0, sp, #136
	bl	mpack_tree_destroy
.LVL81:
	.loc 1 76 3 is_stmt 1 view .LVU298
	.loc 1 76 6 is_stmt 0 view .LVU299
	subs	r1, r0, #0
	bne	.L70
.LVL82:
.L40:
	.loc 1 76 6 view .LVU300
.LBE176:
	.loc 1 83 2 is_stmt 1 view .LVU301
	vmov	r3, s17	@ int
	vmov	r2, s16	@ int
	ldr	r1, .L72+36
	add	r0, sp, #192
	bl	sprintf
.LVL83:
	.loc 1 84 2 view .LVU302
	.loc 1 84 25 is_stmt 0 view .LVU303
	ldr	r1, .L72+40
	add	r0, sp, #192
	bl	fopen
.LVL84:
	.loc 1 85 5 view .LVU304
	cmp	r0, #0
	.loc 1 84 23 view .LVU305
	str	r0, [r6, #8]
	.loc 1 85 2 is_stmt 1 view .LVU306
	.loc 1 85 5 is_stmt 0 view .LVU307
	beq	.L71
	.loc 1 86 1 view .LVU308
	add	sp, sp, #452
	.cfi_remember_state
	.cfi_def_cfa_offset 44
	@ sp needed
	vldm	sp!, {d8}
	.cfi_restore 80
	.cfi_restore 81
	.cfi_def_cfa_offset 36
.LVL85:
	.loc 1 86 1 view .LVU309
	pop	{r4, r5, r6, r7, r8, r9, r10, fp, pc}
.LVL86:
.L67:
	.cfi_restore_state
.LBB279:
.LBB278:
.LBB277:
.LBB275:
.LBB208:
	.loc 2 5437 9 is_stmt 1 view .LVU310
	ldr	r4, [sp, #16]
	str	r3, [sp, #128]
	str	r4, [sp, #132]
	add	r3, sp, #128
	ldm	r3, {r0, r1}
.LVL87:
	.loc 2 5437 9 is_stmt 0 view .LVU311
	mov	r2, #4
	bl	mpack_node_flag_error
.LVL88:
	.loc 2 5438 9 is_stmt 1 view .LVU312
.LBB201:
.LBI201:
	.loc 2 4525 21 view .LVU313
.LBB202:
	.loc 2 4526 5 view .LVU314
	.loc 2 4526 12 is_stmt 0 view .LVU315
	add	r3, r4, #16
.LVL89:
	.loc 2 4526 12 view .LVU316
.LBE202:
.LBE201:
	.loc 2 5438 16 view .LVU317
	b	.L13
.LVL90:
.L68:
	.loc 2 5442 9 is_stmt 1 view .LVU318
	ldr	r4, [sp, #16]
	str	r3, [sp, #128]
	str	r4, [sp, #132]
	add	r3, sp, #128
	ldm	r3, {r0, r1}
.LVL91:
	.loc 2 5442 9 is_stmt 0 view .LVU319
	mov	r2, #8
	bl	mpack_node_flag_error
.LVL92:
	.loc 2 5443 9 is_stmt 1 view .LVU320
.LBB203:
.LBI203:
	.loc 2 4525 21 view .LVU321
.LBB204:
	.loc 2 4526 5 view .LVU322
	.loc 2 4526 12 is_stmt 0 view .LVU323
	add	r3, r4, #16
.LVL93:
	.loc 2 4526 12 view .LVU324
.LBE204:
.LBE203:
	.loc 2 5443 16 view .LVU325
	b	.L13
.LVL94:
.L70:
	.loc 2 5443 16 view .LVU326
.LBE208:
.LBE275:
.LBE277:
.LBE278:
	.loc 1 77 4 is_stmt 1 view .LVU327
	vmov	r3, s17	@ int
	vmov	r2, s16	@ int
	ldr	r0, .L72+44
.LVL95:
	.loc 1 77 4 is_stmt 0 view .LVU328
	bl	Crash
.LVL96:
	b	.L40
.LVL97:
.L11:
	.loc 1 77 4 view .LVU329
.LBE279:
	.loc 1 80 3 is_stmt 1 view .LVU330
	mov	r1, r5
	mov	r2, #1280
	add	r0, r6, #12
	bl	memset
.LVL98:
	b	.L40
.L71:
	.loc 1 85 35 discriminator 1 view .LVU331
	.loc 1 85 58 is_stmt 0 discriminator 1 view .LVU332
	ldr	r1, .L72+48
	add	r0, sp, #192
	bl	fopen
.LVL99:
	.loc 1 85 56 discriminator 1 view .LVU333
	str	r0, [r6, #8]
	.loc 1 86 1 discriminator 1 view .LVU334
	add	sp, sp, #452
	.cfi_def_cfa_offset 44
	@ sp needed
	vldm	sp!, {d8}
	.cfi_restore 80
	.cfi_restore 81
	.cfi_def_cfa_offset 36
.LVL100:
	.loc 1 86 1 discriminator 1 view .LVU335
	pop	{r4, r5, r6, r7, r8, r9, r10, fp, pc}
.LVL101:
.L73:
	.loc 1 86 1 discriminator 1 view .LVU336
	.align	2
.L72:
	.word	.LC0
	.word	.LC1
	.word	.LANCHOR0
	.word	.LC2
	.word	.LC3
	.word	.LC4
	.word	.LC5
	.word	.LC6
	.word	.LC7
	.word	.LC9
	.word	.LC10
	.word	.LC8
	.word	.LC11
	.cfi_endproc
.LFE149:
	.size	SuperChunk_Init, .-SuperChunk_Init
	.section	.rodata.str1.4
	.align	2
.LC12:
	.ascii	"Mpack error %d while saving superchunk index %d %d\000"
	.section	.text.SuperChunk_SaveIndex,"ax",%progbits
	.align	2
	.global	SuperChunk_SaveIndex
	.syntax unified
	.arm
	.fpu vfp
	.type	SuperChunk_SaveIndex, %function
SuperChunk_SaveIndex:
.LVL102:
.LFB151:
	.loc 1 93 51 is_stmt 1 view -0
	.cfi_startproc
	@ args = 0, pretend = 0, frame = 312
	@ frame_needed = 0, uses_anonymous_args = 0
	.loc 1 94 2 view .LVU338
	.loc 1 95 2 view .LVU339
	.loc 1 93 51 is_stmt 0 view .LVU340
	mov	r3, r0
	mov	ip, r3
	.loc 1 95 2 view .LVU341
	mov	r2, r3
	.loc 1 93 51 view .LVU342
	push	{r4, r5, r6, r7, r8, r9, r10, fp, lr}
	.cfi_def_cfa_offset 36
	.cfi_offset 4, -36
	.cfi_offset 5, -32
	.cfi_offset 6, -28
	.cfi_offset 7, -24
	.cfi_offset 8, -20
	.cfi_offset 9, -16
	.cfi_offset 10, -12
	.cfi_offset 11, -8
	.cfi_offset 14, -4
	add	ip, ip, #1440
	sub	sp, sp, #316
	.cfi_def_cfa_offset 352
	str	ip, [sp, #8]
	.loc 1 95 2 view .LVU343
	mov	ip, r2
	ldr	r2, [ip], #1280
	ldr	r1, .L85
	.loc 1 93 51 view .LVU344
	str	r3, [sp, #12]
	.loc 1 95 2 view .LVU345
	add	r0, sp, #56
	ldr	r3, [r3, #4]
	str	ip, [sp, #4]
	bl	sprintf
.LVL103:
	.loc 1 97 2 is_stmt 1 view .LVU346
	.loc 1 98 2 view .LVU347
	add	r1, sp, #56
	add	r0, sp, #16
	bl	mpack_writer_init_file
.LVL104:
	.loc 1 100 2 view .LVU348
	mov	r1, #1
	add	r0, sp, #16
	bl	mpack_start_map
.LVL105:
	.loc 1 102 2 view .LVU349
	ldr	r1, .L85+4
	add	r0, sp, #16
	bl	mpack_write_cstr
.LVL106:
	.loc 1 104 2 view .LVU350
	mov	r1, #64
	add	r0, sp, #16
.LBB280:
.LBB281:
.LBB282:
	.loc 1 110 4 is_stmt 0 view .LVU351
	ldr	fp, .L85+8
	.loc 1 112 4 view .LVU352
	ldr	r10, .L85+12
.LBE282:
.LBE281:
.LBE280:
	.loc 1 104 2 view .LVU353
	bl	mpack_start_array
.LVL107:
	.loc 1 105 2 is_stmt 1 view .LVU354
.LBB285:
	.loc 1 105 7 view .LVU355
	.loc 1 105 20 view .LVU356
.L75:
.LBB284:
	.loc 1 106 21 view .LVU357
	ldr	r3, [sp, #4]
	sub	r4, r3, #1280
.LVL108:
.L76:
.LBB283:
	.loc 1 107 4 discriminator 3 view .LVU358
	.loc 1 107 14 is_stmt 0 discriminator 3 view .LVU359
	ldr	r9, [r4, #12]
.LVL109:
	.loc 1 108 4 discriminator 3 view .LVU360
	mov	r1, #5
	add	r0, sp, #16
	.loc 1 107 14 discriminator 3 view .LVU361
	ldr	r8, [r4, #16]
.LVL110:
	.loc 1 107 14 discriminator 3 view .LVU362
	ldr	r7, [r4, #20]
.LVL111:
	.loc 1 107 14 discriminator 3 view .LVU363
	ldrb	r6, [r4, #24]	@ zero_extendqisi2
.LVL112:
	.loc 1 107 14 discriminator 3 view .LVU364
	ldr	r5, [r4, #28]
.LVL113:
	.loc 1 108 4 is_stmt 1 discriminator 3 view .LVU365
	bl	mpack_start_map
.LVL114:
	.loc 1 110 4 discriminator 3 view .LVU366
	mov	r1, fp
	add	r0, sp, #16
	bl	mpack_write_cstr
.LVL115:
	.loc 1 111 4 discriminator 3 view .LVU367
	mov	r1, r9
	add	r0, sp, #16
	bl	mpack_write_u32
.LVL116:
	.loc 1 112 4 discriminator 3 view .LVU368
	mov	r1, r10
	add	r0, sp, #16
	bl	mpack_write_cstr
.LVL117:
	.loc 1 113 4 discriminator 3 view .LVU369
	mov	r1, r8
	add	r0, sp, #16
	bl	mpack_write_u32
.LVL118:
	.loc 1 114 4 discriminator 3 view .LVU370
	ldr	r1, .L85+16
	add	r0, sp, #16
	bl	mpack_write_cstr
.LVL119:
	.loc 1 115 4 discriminator 3 view .LVU371
	mov	r1, r7
	add	r0, sp, #16
	bl	mpack_write_u32
.LVL120:
	.loc 1 116 4 discriminator 3 view .LVU372
	ldr	r1, .L85+20
	add	r0, sp, #16
	bl	mpack_write_cstr
.LVL121:
	.loc 1 117 4 discriminator 3 view .LVU373
	mov	r1, r6
	add	r0, sp, #16
	bl	mpack_write_u8
.LVL122:
	.loc 1 118 4 discriminator 3 view .LVU374
	ldr	r1, .L85+24
	add	r0, sp, #16
	bl	mpack_write_cstr
.LVL123:
	.loc 1 119 4 discriminator 3 view .LVU375
	mov	r1, r5
	add	r0, sp, #16
	bl	mpack_write_u32
.LVL124:
	.loc 1 121 4 discriminator 3 view .LVU376
	.loc 1 121 4 is_stmt 0 discriminator 3 view .LVU377
.LBE283:
	.loc 1 106 27 is_stmt 1 discriminator 3 view .LVU378
	.loc 1 106 21 discriminator 3 view .LVU379
	ldr	r3, [sp, #4]
	add	r4, r4, #160
	cmp	r4, r3
	bne	.L76
.LBE284:
	.loc 1 105 26 discriminator 2 view .LVU380
	.loc 1 105 20 discriminator 2 view .LVU381
	ldr	r2, [sp, #8]
	add	r3, r4, #20
	cmp	r3, r2
	str	r3, [sp, #4]
	bne	.L75
.LBE285:
	.loc 1 124 2 view .LVU382
	.loc 1 126 2 view .LVU383
	.loc 1 128 2 view .LVU384
	.loc 1 128 22 is_stmt 0 view .LVU385
	add	r0, sp, #16
	bl	mpack_writer_destroy
.LVL125:
	.loc 1 129 2 is_stmt 1 view .LVU386
	.loc 1 129 5 is_stmt 0 view .LVU387
	subs	r1, r0, #0
	bne	.L84
	.loc 1 132 1 view .LVU388
	add	sp, sp, #316
	.cfi_remember_state
	.cfi_def_cfa_offset 36
	@ sp needed
	pop	{r4, r5, r6, r7, r8, r9, r10, fp, pc}
.L84:
	.cfi_restore_state
	.loc 1 130 3 is_stmt 1 view .LVU389
	ldr	r2, [sp, #12]
	ldr	r0, .L85+28
.LVL126:
	.loc 1 130 3 is_stmt 0 view .LVU390
	ldr	r3, [r2, #4]
	ldr	r2, [r2]
	bl	Crash
.LVL127:
	.loc 1 132 1 view .LVU391
	add	sp, sp, #316
	.cfi_def_cfa_offset 36
	@ sp needed
	pop	{r4, r5, r6, r7, r8, r9, r10, fp, pc}
.L86:
	.align	2
.L85:
	.word	.LC0
	.word	.LC2
	.word	.LC3
	.word	.LC4
	.word	.LC5
	.word	.LC6
	.word	.LC7
	.word	.LC12
	.cfi_endproc
.LFE151:
	.size	SuperChunk_SaveIndex, .-SuperChunk_SaveIndex
	.section	.text.SuperChunk_Deinit,"ax",%progbits
	.align	2
	.global	SuperChunk_Deinit
	.syntax unified
	.arm
	.fpu vfp
	.type	SuperChunk_Deinit, %function
SuperChunk_Deinit:
.LVL128:
.LFB150:
	.loc 1 87 48 is_stmt 1 view -0
	.cfi_startproc
	@ args = 0, pretend = 0, frame = 0
	@ frame_needed = 0, uses_anonymous_args = 0
	.loc 1 88 2 view .LVU393
	.loc 1 87 48 is_stmt 0 view .LVU394
	push	{r4, lr}
	.cfi_def_cfa_offset 8
	.cfi_offset 4, -8
	.cfi_offset 14, -4
	.loc 1 87 48 view .LVU395
	mov	r4, r0
	.loc 1 88 2 view .LVU396
	bl	SuperChunk_SaveIndex
.LVL129:
	.loc 1 89 2 is_stmt 1 view .LVU397
	.loc 1 89 4 is_stmt 0 view .LVU398
	ldr	r0, [r4, #1292]
	bl	free
.LVL130:
	.loc 1 89 40 view .LVU399
	mov	r3, #0
	str	r3, [r4, #1292]	@ unaligned
	str	r3, [r4, #1296]	@ unaligned
	str	r3, [r4, #1300]	@ unaligned
	.loc 1 90 2 is_stmt 1 view .LVU400
	ldr	r0, [r4, #8]
	.loc 1 91 1 is_stmt 0 view .LVU401
	pop	{r4, lr}
	.cfi_restore 14
	.cfi_restore 4
	.cfi_def_cfa_offset 0
.LVL131:
	.loc 1 90 2 view .LVU402
	b	fclose
.LVL132:
	.cfi_endproc
.LFE150:
	.size	SuperChunk_Deinit, .-SuperChunk_Deinit
	.section	.rodata.str1.4
	.align	2
.LC13:
	.ascii	"clusters\000"
	.align	2
.LC14:
	.ascii	"empty\000"
	.align	2
.LC15:
	.ascii	"genProgress\000"
	.align	2
.LC16:
	.ascii	"heightmap\000"
	.align	2
.LC17:
	.ascii	"MPack error %d while saving chunk(%d, %d) to superc"
	.ascii	"hunk\000"
	.align	2
.LC18:
	.ascii	"Couldn't write complete chunk data to file\000"
	.align	2
.LC19:
	.ascii	"blocks\000"
	.align	2
.LC20:
	.ascii	"metadataLight\000"
	.section	.text.SuperChunk_SaveChunk,"ax",%progbits
	.align	2
	.global	SuperChunk_SaveChunk
	.syntax unified
	.arm
	.fpu vfp
	.type	SuperChunk_SaveChunk, %function
SuperChunk_SaveChunk:
.LVL133:
.LFB154:
	.loc 1 159 65 is_stmt 1 view -0
	.cfi_startproc
	@ args = 0, pretend = 0, frame = 72
	@ frame_needed = 0, uses_anonymous_args = 0
	.loc 1 160 2 view .LVU404
	.loc 1 160 10 is_stmt 0 view .LVU405
	ldr	ip, [r1, #16]
.LVL134:
.LBB309:
.LBI309:
	.file 3 "/home/tobi/Dokumente/Craftus-Next/include/world/savegame/SuperChunk.h"
	.loc 3 26 19 is_stmt 1 view .LVU406
.LBB310:
	.loc 3 26 56 view .LVU407
.LBB311:
.LBI311:
	.loc 3 25 19 view .LVU408
.LBB312:
	.loc 3 25 51 view .LVU409
	.loc 3 25 51 is_stmt 0 view .LVU410
.LBE312:
.LBE311:
.LBE310:
.LBE309:
	.loc 1 159 65 view .LVU411
	push	{r4, r5, r6, r7, r8, r9, r10, fp, lr}
	.cfi_def_cfa_offset 36
	.cfi_offset 4, -36
	.cfi_offset 5, -32
	.cfi_offset 6, -28
	.cfi_offset 7, -24
	.cfi_offset 8, -20
	.cfi_offset 9, -16
	.cfi_offset 10, -12
	.cfi_offset 11, -8
	.cfi_offset 14, -4
	mov	r6, r0
	.loc 1 161 10 view .LVU412
	ldr	r0, [r1, #20]
.LVL135:
.LBB324:
.LBB319:
.LBB316:
.LBB313:
	.loc 3 25 61 view .LVU413
	add	r3, ip, ip, lsr #31
	.loc 3 25 77 view .LVU414
	cmp	r3, #0
.LBE313:
.LBE316:
.LBE319:
.LBE324:
	.loc 1 163 46 view .LVU415
	add	lr, r1, #65536
	.loc 1 159 65 view .LVU416
	mov	r8, r1
.LBB325:
.LBB326:
.LBB327:
.LBB328:
	.loc 3 25 61 view .LVU417
	add	r1, r0, r0, lsr #31
.LVL136:
	.loc 3 25 61 view .LVU418
.LBE328:
.LBE327:
.LBE326:
.LBE325:
.LBB342:
.LBB320:
.LBB317:
.LBB314:
	.loc 3 25 77 view .LVU419
	add	r2, r3, #7
	movge	r2, r3
.LBE314:
.LBE317:
.LBE320:
.LBE342:
.LBB343:
.LBB337:
.LBB333:
.LBB329:
	cmp	r1, #0
	add	r3, r1, #7
	movge	r3, r1
.LBE329:
.LBE333:
.LBE337:
.LBE343:
.LBB344:
.LBB321:
.LBB318:
.LBB315:
	asr	r2, r2, #3
	.loc 3 25 81 view .LVU420
	sub	r2, r2, ip, lsr #31
.LBE315:
.LBE318:
.LBE321:
.LBE344:
.LBB345:
.LBB338:
.LBB334:
.LBB330:
	.loc 3 25 77 view .LVU421
	asr	r3, r3, #3
.LBE330:
.LBE334:
.LBE338:
.LBE345:
.LBB346:
.LBB322:
	.loc 3 26 65 view .LVU422
	sub	r2, ip, r2, lsl #3
.LBE322:
.LBE346:
.LBB347:
.LBB339:
.LBB335:
.LBB331:
	.loc 3 25 81 view .LVU423
	sub	r3, r3, r0, lsr #31
.LBE331:
.LBE335:
	.loc 3 26 65 view .LVU424
	sub	ip, r0, r3, lsl #3
.LVL137:
	.loc 3 26 65 view .LVU425
.LBE339:
.LBE347:
	.loc 1 163 28 view .LVU426
	mov	r0, r2
	.loc 1 159 65 view .LVU427
	sub	sp, sp, #76
	.cfi_def_cfa_offset 112
	.loc 1 163 28 view .LVU428
	add	r3, r2, r2, lsl #2
.LBB348:
.LBB323:
	.loc 3 26 65 view .LVU429
	str	r2, [sp, #12]
.LVL138:
	.loc 3 26 65 view .LVU430
.LBE323:
.LBE348:
	.loc 1 161 2 is_stmt 1 view .LVU431
.LBB349:
.LBI325:
	.loc 3 26 19 view .LVU432
.LBB340:
	.loc 3 26 56 view .LVU433
.LBB336:
.LBI327:
	.loc 3 25 19 view .LVU434
.LBB332:
	.loc 3 25 51 view .LVU435
.LBE332:
.LBE336:
.LBE340:
.LBE349:
	.loc 1 163 28 is_stmt 0 view .LVU436
	lsl	r3, r3, #5
	add	r2, ip, ip, lsl #2
	add	r3, r3, r2, lsl #2
	add	r3, r6, r3
	.loc 1 163 5 view .LVU437
	ldr	r3, [r3, #28]
	ldr	r1, [lr, #668]
	.loc 1 163 46 view .LVU438
	str	lr, [sp, #4]
	.loc 1 163 5 view .LVU439
	cmp	r3, r1
	.loc 1 163 28 view .LVU440
	lsl	r3, ip, #2
	str	r3, [sp, #16]
	lsl	r3, r0, #2
.LBB350:
.LBB341:
	.loc 3 26 65 view .LVU441
	str	ip, [sp, #8]
.LVL139:
	.loc 3 26 65 view .LVU442
.LBE341:
.LBE350:
	.loc 1 163 2 is_stmt 1 view .LVU443
	.loc 1 163 28 is_stmt 0 view .LVU444
	str	r3, [sp, #20]
	.loc 1 163 5 view .LVU445
	bne	.L129
.LVL140:
.L89:
	.loc 1 222 1 view .LVU446
	add	sp, sp, #76
	.cfi_remember_state
	.cfi_def_cfa_offset 36
	@ sp needed
	pop	{r4, r5, r6, r7, r8, r9, r10, fp, pc}
.LVL141:
.L129:
	.cfi_restore_state
.LBB351:
	.loc 1 164 3 is_stmt 1 view .LVU447
	.loc 1 165 3 view .LVU448
	ldr	r3, .L136
	ldr	r2, .L136+4
	ldr	r1, [r3, #8]
	add	r0, sp, #32
	bl	mpack_writer_init
.LVL142:
	.loc 1 167 3 view .LVU449
	mov	r1, #3
	add	r0, sp, #32
	bl	mpack_start_map
.LVL143:
	.loc 1 169 3 view .LVU450
	ldr	r1, .L136+8
	add	r0, sp, #32
	bl	mpack_write_cstr
.LVL144:
	.loc 1 170 3 view .LVU451
	add	r4, r8, #8192
	mov	r1, #8
	add	r0, sp, #32
	add	r9, r8, #73728
	bl	mpack_start_array
.LVL145:
	.loc 1 171 3 view .LVU452
.LBB352:
	.loc 1 171 8 view .LVU453
	.loc 1 171 21 view .LVU454
.LBB353:
	.loc 1 183 4 is_stmt 0 view .LVU455
	ldr	fp, .L136+12
	.loc 1 186 4 view .LVU456
	ldr	r10, .L136+16
	add	r4, r4, #28
	add	r9, r9, #412
	b	.L93
.LVL146:
.L131:
	.loc 1 174 4 view .LVU457
	mov	r1, #4
	add	r0, sp, #32
	bl	mpack_start_map
.LVL147:
	.loc 1 176 4 is_stmt 1 view .LVU458
	.loc 1 177 5 view .LVU459
	ldr	r1, .L136+20
	add	r0, sp, #32
	bl	mpack_write_cstr
.LVL148:
	.loc 1 178 5 view .LVU460
	mov	r2, #4096
	mov	r1, r5
	add	r0, sp, #32
	bl	mpack_write_bin
.LVL149:
	.loc 1 179 5 view .LVU461
	ldr	r1, .L136+24
	add	r0, sp, #32
	bl	mpack_write_cstr
.LVL150:
	.loc 1 180 5 view .LVU462
	mov	r2, #4096
	add	r0, sp, #32
	sub	r1, r4, #4096
	bl	mpack_write_bin
.LVL151:
.L109:
	.loc 1 183 4 discriminator 2 view .LVU463
	mov	r1, fp
	add	r0, sp, #32
	bl	mpack_write_cstr
.LVL152:
	.loc 1 184 4 discriminator 2 view .LVU464
	ldr	r1, [r4]
	add	r0, sp, #32
	bl	mpack_write_u32
.LVL153:
	.loc 1 186 4 discriminator 2 view .LVU465
.LBE353:
	.loc 1 171 21 is_stmt 0 discriminator 2 view .LVU466
	add	r4, r4, #8192
.LBB354:
	.loc 1 186 4 discriminator 2 view .LVU467
	mov	r1, r10
	add	r0, sp, #32
	bl	mpack_write_cstr
.LVL154:
	.loc 1 187 4 is_stmt 1 discriminator 2 view .LVU468
.LBE354:
	.loc 1 171 21 is_stmt 0 discriminator 2 view .LVU469
	add	r4, r4, #48
.LBB355:
	.loc 1 187 4 discriminator 2 view .LVU470
	mov	r1, r7
	add	r0, sp, #32
	bl	mpack_write_bool
.LVL155:
	.loc 1 189 4 is_stmt 1 discriminator 2 view .LVU471
.LBE355:
	.loc 1 171 40 discriminator 2 view .LVU472
	.loc 1 171 21 discriminator 2 view .LVU473
	cmp	r4, r9
	beq	.L130
.L93:
.LBB356:
	.loc 1 172 3 view .LVU474
	.loc 1 172 16 is_stmt 0 view .LVU475
	sub	r5, r4, #8192
	sub	r0, r5, #4
	bl	Cluster_IsEmpty
.LVL156:
	.loc 1 174 4 is_stmt 1 view .LVU476
	subs	r7, r0, #0
	beq	.L131
	mov	r1, #2
	add	r0, sp, #32
	bl	mpack_start_map
.LVL157:
	.loc 1 176 4 view .LVU477
	b	.L109
.L130:
.LBE356:
.LBE352:
	.loc 1 191 3 view .LVU478
	.loc 1 193 3 view .LVU479
	ldr	r1, .L136+28
	add	r0, sp, #32
	bl	mpack_write_cstr
.LVL158:
	.loc 1 194 3 view .LVU480
.LBB357:
.LBI357:
	.loc 2 1750 13 view .LVU481
.LBB358:
	.loc 2 1751 5 view .LVU482
	mov	r3, #0
	ldrb	r2, [r8, #12]	@ zero_extendqisi2
	add	r0, sp, #32
	bl	mpack_write_i64
.LVL159:
	.loc 2 1751 5 is_stmt 0 view .LVU483
.LBE358:
.LBE357:
	.loc 1 196 3 is_stmt 1 view .LVU484
	ldr	r1, .L136+32
	add	r0, sp, #32
	bl	mpack_write_cstr
.LVL160:
	.loc 1 197 3 view .LVU485
	ldr	r3, [sp, #4]
	mov	r2, #256
	add	r1, r3, #408
	add	r0, sp, #32
	bl	mpack_write_bin
.LVL161:
	.loc 1 199 3 view .LVU486
	.loc 1 200 3 view .LVU487
	.loc 1 200 23 is_stmt 0 view .LVU488
	add	r0, sp, #32
	bl	mpack_writer_destroy
.LVL162:
	.loc 1 201 3 is_stmt 1 view .LVU489
	.loc 1 201 6 is_stmt 0 view .LVU490
	subs	r1, r0, #0
	bne	.L132
.LVL163:
.L94:
	.loc 1 205 3 is_stmt 1 view .LVU491
.LBB359:
.LBI359:
	.loc 2 1670 15 view .LVU492
.LBB360:
	.loc 2 1671 5 view .LVU493
.LBE360:
.LBE359:
	.loc 1 207 7 is_stmt 0 view .LVU494
	ldr	r2, .L136
.LBB362:
.LBB361:
	.loc 2 1671 18 view .LVU495
	ldr	r10, [sp, #56]
.LVL164:
	.loc 2 1671 18 view .LVU496
.LBE361:
.LBE362:
	.loc 1 206 3 is_stmt 1 view .LVU497
	.loc 1 207 7 is_stmt 0 view .LVU498
	mov	r1, r2
	.loc 1 206 12 view .LVU499
	ldr	r3, .L136+4
	.loc 1 207 7 view .LVU500
	ldr	r0, [r1, #4]
	.loc 1 206 12 view .LVU501
	str	r3, [sp, #28]
	.loc 1 207 3 is_stmt 1 view .LVU502
	.loc 1 207 7 is_stmt 0 view .LVU503
	ldr	r2, [r2, #8]
	mov	r3, r10
	add	r1, sp, #28
	bl	mz_compress
.LVL165:
	.loc 1 207 6 view .LVU504
	subs	r4, r0, #0
	bne	.L89
.LBB363:
	.loc 1 208 4 is_stmt 1 view .LVU505
	.loc 1 210 30 is_stmt 0 view .LVU506
	ldr	r2, [sp, #12]
	ldr	r3, [sp, #20]
	ldr	r1, [sp, #8]
	add	r3, r3, r2
	ldr	r2, [sp, #16]
	lsl	r3, r3, #5
	add	r2, r2, r1
	add	r3, r3, r2, lsl #2
	add	r3, r6, r3
	.loc 1 208 38 view .LVU507
	ldr	r5, [sp, #28]
	.loc 1 210 7 view .LVU508
	ldr	r2, [r3, #20]
	.loc 1 208 38 view .LVU509
	lsr	r5, r5, #11
	.loc 1 210 7 view .LVU510
	cmp	r2, #0
	.loc 1 208 11 view .LVU511
	add	r5, r5, #1
.LVL166:
	.loc 1 210 4 is_stmt 1 view .LVU512
	.loc 1 210 7 is_stmt 0 view .LVU513
	bne	.L96
.L99:
	.loc 1 213 4 is_stmt 1 view .LVU514
.LVL167:
.LBB364:
.LBI364:
	.loc 1 134 17 view .LVU515
.LBB365:
	.loc 1 135 2 view .LVU516
	.loc 1 136 2 view .LVU517
	.loc 1 137 2 view .LVU518
.LBB366:
	.loc 1 137 7 view .LVU519
	.loc 1 137 20 view .LVU520
	.loc 1 137 41 is_stmt 0 view .LVU521
	ldr	r7, [r6, #1296]
	.loc 1 137 20 view .LVU522
	cmp	r7, #0
	ble	.L98
.LBE366:
	.loc 1 136 6 view .LVU523
	mvn	r1, #0
.LBB368:
	.loc 1 138 27 view .LVU524
	ldr	ip, [r6, #1292]
.LBE368:
	.loc 1 135 6 view .LVU525
	mov	r0, #0
	add	r7, r7, ip
	add	r7, r7, r1
	add	r3, ip, r1
	rsb	r9, ip, #1
	b	.L105
.LVL168:
.L134:
.LBB369:
	.loc 1 139 7 view .LVU526
	cmn	r1, #1
	moveq	r1, r8
.LVL169:
	.loc 1 140 4 is_stmt 1 view .LVU527
	.loc 1 145 3 view .LVU528
	.loc 1 145 6 is_stmt 0 view .LVU529
	cmp	r5, lr
	beq	.L133
	.loc 1 137 20 view .LVU530
	cmp	r7, r3
	mov	r0, lr
	.loc 1 137 51 is_stmt 1 view .LVU531
.LVL170:
	.loc 1 137 20 view .LVU532
	beq	.L98
.LVL171:
.L105:
	.loc 1 139 4 view .LVU533
	add	r8, r9, r3
.LVL172:
	.loc 1 138 3 view .LVU534
	.loc 1 138 6 is_stmt 0 view .LVU535
	ldrb	r2, [r3, #1]!	@ zero_extendqisi2
	.loc 1 140 19 view .LVU536
	add	lr, r0, #1
	.loc 1 138 6 view .LVU537
	cmp	r2, #0
	beq	.L134
	.loc 1 137 20 view .LVU538
	cmp	r7, r3
	.loc 1 142 20 view .LVU539
	mov	r0, #0
.LVL173:
	.loc 1 143 15 view .LVU540
	mvn	r1, #0
.LVL174:
	.loc 1 137 51 is_stmt 1 view .LVU541
	.loc 1 137 20 view .LVU542
	bne	.L105
.LVL175:
.L98:
	.loc 1 137 20 is_stmt 0 view .LVU543
.LBE369:
.LBB370:
	.loc 1 150 37 view .LVU544
	mov	r8, #1
	.loc 1 150 57 view .LVU545
	add	r7, r6, #1280
	.loc 1 150 37 view .LVU546
	add	r9, r6, #1296
	.loc 1 150 57 view .LVU547
	add	r7, r7, #12
	.loc 1 150 37 view .LVU548
	add	fp, r9, #4
.L107:
.LVL176:
	.loc 1 150 35 is_stmt 1 view .LVU549
	.loc 1 150 37 is_stmt 0 view .LVU550
	mov	r3, #1
	mov	r2, fp
	mov	r1, r9
	mov	r0, r7
	.loc 1 150 31 view .LVU551
	add	r4, r4, r3
.LVL177:
	.loc 1 150 37 view .LVU552
	bl	vec_expand_
.LVL178:
	.loc 1 150 31 is_stmt 1 view .LVU553
	.loc 1 150 20 view .LVU554
	.loc 1 150 200 is_stmt 0 view .LVU555
	cmp	r0, #0
	.loc 1 150 254 view .LVU556
	ldreq	r3, [r6, #1296]
	.loc 1 150 225 view .LVU557
	ldreq	r2, [r6, #1292]
	.loc 1 150 262 view .LVU558
	addeq	r1, r3, #1
	streq	r1, [r6, #1296]
	.loc 1 150 266 view .LVU559
	strbeq	r8, [r2, r3]
	.loc 1 150 20 view .LVU560
	cmp	r5, r4
	bgt	.L107
.LBE370:
	.loc 1 151 2 is_stmt 1 view .LVU561
	.loc 1 151 36 is_stmt 0 view .LVU562
	ldr	r4, [r6, #1296]
.LVL179:
	.loc 1 151 36 view .LVU563
	sub	r4, r4, r5
.L103:
.LVL180:
	.loc 1 151 36 view .LVU564
.LBE365:
.LBE364:
	.loc 1 215 4 is_stmt 1 view .LVU565
	mov	r2, #0
	lsl	r1, r4, #11
	ldr	r0, [r6, #8]
	bl	fseek
.LVL181:
	.loc 1 216 4 view .LVU566
	.loc 1 216 8 is_stmt 0 view .LVU567
	ldr	r3, .L136
	mov	r2, #1
	ldr	r0, [r3, #4]
	ldr	r1, [sp, #28]
	ldr	r3, [r6, #8]
	bl	fwrite
.LVL182:
	.loc 1 216 7 view .LVU568
	cmp	r0, #1
	beq	.L108
	.loc 1 217 5 is_stmt 1 view .LVU569
	ldr	r0, .L136+36
	bl	Crash
.LVL183:
.L108:
	.loc 1 219 4 view .LVU570
	.loc 1 219 27 is_stmt 0 view .LVU571
	ldr	r2, [sp, #12]
	ldr	r3, [sp, #20]
	ldr	r1, [sp, #8]
	add	r3, r3, r2
	ldr	r2, [sp, #16]
	lsl	r3, r3, #5
	add	r2, r2, r1
	add	r3, r3, r2, lsl #2
	add	r6, r6, r3
.LVL184:
	.loc 1 219 100 view .LVU572
	ldr	r3, [sp, #4]
	ldr	r3, [r3, #668]
	.loc 1 219 27 view .LVU573
	str	r4, [r6, #12]
	str	r3, [r6, #28]
	ldr	r3, [sp, #28]
	str	r10, [r6, #20]
	strb	r5, [r6, #24]
	str	r3, [r6, #16]
.LBE363:
.LBE351:
	.loc 1 222 1 view .LVU574
	add	sp, sp, #76
	.cfi_remember_state
	.cfi_def_cfa_offset 36
	@ sp needed
	pop	{r4, r5, r6, r7, r8, r9, r10, fp, pc}
.LVL185:
.L96:
	.cfi_restore_state
.LBB380:
.LBB378:
	.loc 1 211 5 is_stmt 1 view .LVU575
.LBB373:
.LBB374:
	.loc 1 154 23 is_stmt 0 view .LVU576
	ldrb	r1, [r3, #24]	@ zero_extendqisi2
.LBE374:
.LBE373:
	.loc 1 211 5 view .LVU577
	ldr	r3, [r3, #12]
.LVL186:
.LBB376:
.LBI373:
	.loc 1 153 13 is_stmt 1 view .LVU578
	.loc 1 154 2 view .LVU579
.LBB375:
	.loc 1 154 7 view .LVU580
	.loc 1 154 23 view .LVU581
	cmp	r1, #0
	beq	.L99
	.loc 1 155 41 is_stmt 0 view .LVU582
	mov	r0, r4
	add	r1, r3, r1
.LVL187:
.L100:
	.loc 1 155 3 is_stmt 1 view .LVU583
	.loc 1 155 41 is_stmt 0 view .LVU584
	ldr	r2, [r6, #1292]
	strb	r0, [r2, r3]
	.loc 1 154 32 is_stmt 1 view .LVU585
.LVL188:
	.loc 1 154 23 view .LVU586
	add	r3, r3, #1
	cmp	r3, r1
	bne	.L100
	b	.L99
.LVL189:
.L132:
	.loc 1 154 23 is_stmt 0 view .LVU587
.LBE375:
.LBE376:
.LBE378:
	.loc 1 202 4 is_stmt 1 view .LVU588
	ldr	r0, .L136+40
.LVL190:
	.loc 1 202 4 is_stmt 0 view .LVU589
	ldrd	r2, [r8, #16]
	bl	Crash
.LVL191:
	b	.L94
.LVL192:
.L133:
	.loc 1 202 4 view .LVU590
	mov	r4, r1
.LBB379:
.LBB377:
.LBB372:
.LBB371:
.LBB367:
	.loc 1 146 78 view .LVU591
	mov	r3, #1
	b	.L104
.LVL193:
.L135:
	.loc 1 146 56 view .LVU592
	ldr	ip, [r6, #1292]
	add	r2, r2, #1
.LVL194:
.L104:
	.loc 1 146 37 is_stmt 1 view .LVU593
	.loc 1 146 78 is_stmt 0 view .LVU594
	add	ip, ip, r1
	.loc 1 146 22 view .LVU595
	cmp	r0, r2
	.loc 1 146 78 view .LVU596
	strb	r3, [ip, r2]
	.loc 1 146 33 is_stmt 1 view .LVU597
.LVL195:
	.loc 1 146 22 view .LVU598
	bgt	.L135
	b	.L103
.L137:
	.align	2
.L136:
	.word	.LANCHOR0
	.word	132440
	.word	.LC13
	.word	.LC7
	.word	.LC14
	.word	.LC19
	.word	.LC20
	.word	.LC15
	.word	.LC16
	.word	.LC18
	.word	.LC17
.LBE367:
.LBE371:
.LBE372:
.LBE377:
.LBE379:
.LBE380:
	.cfi_endproc
.LFE154:
	.size	SuperChunk_SaveChunk, .-SuperChunk_SaveChunk
	.section	.rodata.str1.4
	.align	2
.LC21:
	.ascii	"Read chunk data size isn't equal to the expected si"
	.ascii	"ze\000"
	.align	2
.LC22:
	.ascii	"MPack error %d while loading chunk(%d %d) from supe"
	.ascii	"rchunk\000"
	.section	.text.SuperChunk_LoadChunk,"ax",%progbits
	.align	2
	.global	SuperChunk_LoadChunk
	.syntax unified
	.arm
	.fpu vfp
	.type	SuperChunk_LoadChunk, %function
SuperChunk_LoadChunk:
.LVL196:
.LFB155:
	.loc 1 224 65 view -0
	.cfi_startproc
	@ args = 0, pretend = 0, frame = 152
	@ frame_needed = 0, uses_anonymous_args = 0
	.loc 1 225 2 view .LVU600
	.loc 1 225 10 is_stmt 0 view .LVU601
	ldr	r3, [r1, #16]
.LVL197:
.LBB466:
.LBI466:
	.loc 3 26 19 is_stmt 1 view .LVU602
.LBB467:
	.loc 3 26 56 view .LVU603
.LBB468:
.LBI468:
	.loc 3 25 19 view .LVU604
.LBB469:
	.loc 3 25 51 view .LVU605
	.loc 3 25 51 is_stmt 0 view .LVU606
.LBE469:
.LBE468:
.LBE467:
.LBE466:
	.loc 1 224 65 view .LVU607
	push	{r4, r5, r6, r7, r8, r9, r10, fp, lr}
	.cfi_def_cfa_offset 36
	.cfi_offset 4, -36
	.cfi_offset 5, -32
	.cfi_offset 6, -28
	.cfi_offset 7, -24
	.cfi_offset 8, -20
	.cfi_offset 9, -16
	.cfi_offset 10, -12
	.cfi_offset 11, -8
	.cfi_offset 14, -4
.LBB480:
.LBB476:
.LBB473:
.LBB470:
	.loc 3 25 61 view .LVU608
	add	r2, r3, r3, lsr #31
	.loc 3 25 77 view .LVU609
	cmp	r2, #0
.LBE470:
.LBE473:
.LBE476:
.LBE480:
	.loc 1 224 65 view .LVU610
	mov	r4, r0
.LBB481:
.LBB477:
.LBB474:
.LBB471:
	.loc 3 25 77 view .LVU611
	add	r0, r2, #7
.LVL198:
	.loc 3 25 77 view .LVU612
	movge	r0, r2
.LBE471:
.LBE474:
.LBE477:
.LBE481:
	.loc 1 226 10 view .LVU613
	ldr	r2, [r1, #20]
	.loc 1 224 65 view .LVU614
	mov	r6, r1
.LBB482:
.LBB483:
.LBB484:
.LBB485:
	.loc 3 25 61 view .LVU615
	add	ip, r2, r2, lsr #31
	.loc 3 25 77 view .LVU616
	cmp	ip, #0
	add	r1, ip, #7
.LVL199:
	.loc 3 25 77 view .LVU617
	movge	r1, ip
.LBE485:
.LBE484:
.LBE483:
.LBE482:
.LBB493:
.LBB478:
.LBB475:
.LBB472:
	asr	r0, r0, #3
	.loc 3 25 81 view .LVU618
	sub	r0, r0, r3, lsr #31
.LBE472:
.LBE475:
.LBE478:
.LBE493:
.LBB494:
.LBB490:
.LBB488:
.LBB486:
	.loc 3 25 77 view .LVU619
	asr	r1, r1, #3
.LBE486:
.LBE488:
.LBE490:
.LBE494:
.LBB495:
.LBB479:
	.loc 3 26 65 view .LVU620
	sub	r3, r3, r0, lsl #3
.LVL200:
	.loc 3 26 65 view .LVU621
.LBE479:
.LBE495:
	.loc 1 226 2 is_stmt 1 view .LVU622
.LBB496:
.LBI482:
	.loc 3 26 19 view .LVU623
.LBB491:
	.loc 3 26 56 view .LVU624
.LBB489:
.LBI484:
	.loc 3 25 19 view .LVU625
.LBB487:
	.loc 3 25 51 view .LVU626
	.loc 3 25 81 is_stmt 0 view .LVU627
	sub	r1, r1, r2, lsr #31
.LBE487:
.LBE489:
.LBE491:
.LBE496:
	.loc 1 227 12 view .LVU628
	add	r3, r3, r3, lsl #2
.LVL201:
.LBB497:
.LBB492:
	.loc 3 26 65 view .LVU629
	sub	r2, r2, r1, lsl #3
.LVL202:
	.loc 3 26 65 view .LVU630
.LBE492:
.LBE497:
	.loc 1 227 2 is_stmt 1 view .LVU631
	.loc 1 228 2 view .LVU632
	.loc 1 227 12 is_stmt 0 view .LVU633
	add	r2, r2, r2, lsl #2
.LVL203:
	.loc 1 227 12 view .LVU634
	lsl	r3, r3, #5
	add	r3, r3, r2, lsl #2
	add	r3, r4, r3
	.loc 1 228 5 view .LVU635
	ldr	r2, [r3, #20]
	.loc 1 224 65 view .LVU636
	sub	sp, sp, #164
	.cfi_def_cfa_offset 200
	.loc 1 228 5 view .LVU637
	cmp	r2, #0
	bne	.L184
.LVL204:
.L138:
	.loc 1 280 1 view .LVU638
	add	sp, sp, #164
	.cfi_remember_state
	.cfi_def_cfa_offset 36
	@ sp needed
	pop	{r4, r5, r6, r7, r8, r9, r10, fp, pc}
.LVL205:
.L184:
	.cfi_restore_state
	.loc 1 227 12 view .LVU639
	ldr	r2, [r3, #28]
.LBB498:
	.loc 1 229 50 view .LVU640
	ldr	r1, [r3, #12]
.LVL206:
	.loc 1 229 50 view .LVU641
.LBE498:
	.loc 1 227 12 view .LVU642
	ldr	r7, [r3, #16]
.LBB604:
	.loc 1 230 7 view .LVU643
	ldr	r5, .L196
.LBE604:
	.loc 1 227 12 view .LVU644
	str	r2, [sp, #8]
.LBB605:
	.loc 1 229 3 is_stmt 1 view .LVU645
	lsl	r1, r1, #11
	mov	r2, #0
	ldr	r0, [r4, #8]
.LVL207:
	.loc 1 229 3 is_stmt 0 view .LVU646
	bl	fseek
.LVL208:
	.loc 1 230 3 is_stmt 1 view .LVU647
	.loc 1 230 7 is_stmt 0 view .LVU648
	mov	r2, #1
	mov	r1, r7
	ldr	r3, [r4, #8]
	ldr	r0, [r5, #4]
	bl	fread
.LVL209:
	.loc 1 230 6 view .LVU649
	cmp	r0, #1
	bne	.L185
.L140:
	.loc 1 232 3 is_stmt 1 view .LVU650
	.loc 1 232 12 is_stmt 0 view .LVU651
	ldr	r2, .L196+4
	.loc 1 234 7 view .LVU652
	mov	r3, r7
	.loc 1 232 12 view .LVU653
	str	r2, [sp, #20]
	.loc 1 234 3 is_stmt 1 view .LVU654
	.loc 1 234 7 is_stmt 0 view .LVU655
	ldr	r0, [r5, #8]
	ldr	r2, [r5, #4]
	add	r1, sp, #20
	bl	mz_uncompress
.LVL210:
	.loc 1 234 6 view .LVU656
	subs	r7, r0, #0
	bne	.L138
.LBB499:
	.loc 1 235 4 is_stmt 1 view .LVU657
	.loc 1 236 4 view .LVU658
	mov	r3, #2048
	str	r3, [sp]
	ldr	r3, [r5]
	ldr	r1, [r5, #8]
	ldr	r2, [sp, #20]
	add	r0, sp, #104
	bl	mpack_tree_init_pool
.LVL211:
	.loc 1 237 4 view .LVU659
	.loc 1 237 24 is_stmt 0 view .LVU660
	add	r1, sp, #104
	add	r0, sp, #24
	bl	mpack_tree_root
.LVL212:
	.loc 1 239 4 is_stmt 1 view .LVU661
	.loc 1 239 28 is_stmt 0 view .LVU662
	add	r2, sp, #24
	ldr	r3, .L196+8
	add	r0, sp, #32
	add	r5, r6, #8192
	ldm	r2, {r1, r2}
	bl	mpack_node_map_cstr
.LVL213:
	.loc 1 240 4 is_stmt 1 view .LVU663
.LBB500:
	.loc 1 240 9 view .LVU664
	.loc 1 240 22 view .LVU665
	add	r5, r5, #28
	ldr	r9, [sp, #36]
	ldr	r10, [sp, #32]
	add	r8, sp, #56
	add	r4, sp, #64
	add	fp, sp, #96
	b	.L155
.LVL214:
.L191:
.LBB501:
.LBB502:
.LBB503:
	.loc 2 4733 5 view .LVU666
	.loc 2 4733 21 is_stmt 0 view .LVU667
	ldrb	r0, [r1]	@ zero_extendqisi2
.LVL215:
	.loc 2 4733 21 view .LVU668
.LBE503:
.LBE502:
	.loc 1 246 8 view .LVU669
	cmp	r0, #1
	beq	.L149
	.loc 1 247 6 is_stmt 1 view .LVU670
	str	r2, [sp, #100]
	.loc 1 247 39 is_stmt 0 view .LVU671
	ldr	r2, [r5]
.LVL216:
.LBB508:
.LBB509:
	.loc 2 4754 8 view .LVU672
	cmp	r0, #2
	.loc 2 4755 32 view .LVU673
	ldrbeq	r3, [r1, #8]	@ zero_extendqisi2
	str	r1, [sp, #96]
.LBE509:
.LBE508:
	.loc 1 247 39 view .LVU674
	str	r2, [r5, #8]
	.loc 1 248 6 is_stmt 1 view .LVU675
.LBB511:
.LBI508:
	.loc 2 4750 18 view .LVU676
.LVL217:
.LBB510:
	.loc 2 4751 5 view .LVU677
	.loc 2 4754 5 view .LVU678
	.loc 2 4754 8 is_stmt 0 view .LVU679
	beq	.L152
.LVL218:
	.loc 2 4757 5 view .LVU680
	ldm	fp, {r0, r1}
.LVL219:
	.loc 2 4757 5 view .LVU681
	mov	r2, #4
	str	r3, [sp, #12]
	.loc 2 4757 5 is_stmt 1 view .LVU682
	bl	mpack_node_flag_error
.LVL220:
	.loc 2 4758 5 view .LVU683
	.loc 2 4758 11 is_stmt 0 view .LVU684
	ldr	r3, [sp, #12]
.LVL221:
.L152:
	.loc 2 4758 11 view .LVU685
.LBE510:
.LBE511:
	.loc 1 248 31 view .LVU686
	strb	r3, [r5, #6]
	.loc 1 254 5 is_stmt 1 view .LVU687
	.loc 1 254 31 is_stmt 0 view .LVU688
	add	r0, sp, #88
	ldr	r3, .L196+12
	ldm	r4, {r1, r2}
	bl	mpack_node_map_cstr_optional
.LVL222:
	.loc 1 255 5 is_stmt 1 view .LVU689
.LBB512:
.LBI512:
	.loc 2 4730 21 view .LVU690
.LBB513:
	.loc 2 4731 5 view .LVU691
.LBB514:
.LBI514:
	.loc 2 4690 22 view .LVU692
	.loc 2 4691 5 view .LVU693
.LBB515:
.LBI515:
	.loc 2 4592 22 view .LVU694
.LBB516:
	.loc 2 4593 5 view .LVU695
	.loc 2 4593 16 is_stmt 0 view .LVU696
	ldr	r3, [sp, #92]
.LBE516:
.LBE515:
.LBE514:
	.loc 2 4731 8 view .LVU697
	ldrb	r3, [r3, #32]	@ zero_extendqisi2
	cmp	r3, #0
	bne	.L153
	ldr	r3, [sp, #88]
	.loc 2 4733 5 is_stmt 1 view .LVU698
.LVL223:
	.loc 2 4733 5 is_stmt 0 view .LVU699
.LBE513:
.LBE512:
	.loc 1 255 8 view .LVU700
	ldrb	r2, [r3]	@ zero_extendqisi2
	cmp	r2, #8
	beq	.L186
.L153:
	.loc 1 257 5 is_stmt 1 view .LVU701
	.loc 1 257 33 is_stmt 0 view .LVU702
	ldm	r4, {r1, r2}
	ldr	r3, .L196+16
	mov	r0, fp
	bl	mpack_node_map_cstr_optional
.LVL224:
	.loc 1 258 5 is_stmt 1 view .LVU703
.LBB517:
.LBI517:
	.loc 2 4730 21 view .LVU704
.LBB518:
	.loc 2 4731 5 view .LVU705
.LBB519:
.LBI519:
	.loc 2 4690 22 view .LVU706
	.loc 2 4691 5 view .LVU707
.LBB520:
.LBI520:
	.loc 2 4592 22 view .LVU708
.LBB521:
	.loc 2 4593 5 view .LVU709
	.loc 2 4593 16 is_stmt 0 view .LVU710
	ldr	r3, [sp, #100]
.LBE521:
.LBE520:
.LBE519:
	.loc 2 4731 8 view .LVU711
	ldrb	r3, [r3, #32]	@ zero_extendqisi2
	cmp	r3, #0
	bne	.L154
	ldr	r3, [sp, #96]
	.loc 2 4733 5 is_stmt 1 view .LVU712
.LVL225:
	.loc 2 4733 5 is_stmt 0 view .LVU713
.LBE518:
.LBE517:
	.loc 1 258 8 view .LVU714
	ldrb	r2, [r3]	@ zero_extendqisi2
	cmp	r2, #8
	beq	.L187
.L154:
.LVL226:
	.loc 1 258 8 view .LVU715
.LBE501:
	.loc 1 240 41 is_stmt 1 discriminator 2 view .LVU716
	add	r7, r7, #1
.LVL227:
	.loc 1 240 22 discriminator 2 view .LVU717
	add	r5, r5, #8192
	cmp	r7, #8
	add	r5, r5, #48
	beq	.L188
.LVL228:
.L155:
.LBB560:
	.loc 1 241 5 view .LVU718
.LBB522:
.LBB523:
	.loc 2 5433 8 is_stmt 0 view .LVU719
	ldrb	r3, [r9, #32]	@ zero_extendqisi2
	cmp	r3, #0
	add	r3, sp, #32
	ldm	r3, {r0, r1}
	add	r3, sp, #80
	stm	r3, {r0, r1}
.LVL229:
	.loc 2 5433 8 view .LVU720
.LBE523:
.LBI522:
	.loc 2 5432 21 is_stmt 1 view .LVU721
.LBB539:
	.loc 2 5433 5 view .LVU722
.LBB524:
.LBI524:
	.loc 2 4690 22 view .LVU723
	.loc 2 4691 5 view .LVU724
.LBB525:
.LBI525:
	.loc 2 4592 22 view .LVU725
.LBB526:
	.loc 2 4593 5 view .LVU726
	.loc 2 4593 5 is_stmt 0 view .LVU727
.LBE526:
.LBE525:
.LBE524:
	.loc 2 5433 8 view .LVU728
	bne	.L181
	.loc 2 5436 5 is_stmt 1 view .LVU729
	.loc 2 5436 8 is_stmt 0 view .LVU730
	ldrb	r3, [r10]	@ zero_extendqisi2
	cmp	r3, #10
	bne	.L189
	.loc 2 5441 5 is_stmt 1 view .LVU731
	.loc 2 5441 8 is_stmt 0 view .LVU732
	ldr	r3, [r10, #4]
	cmp	r7, r3
	bcs	.L190
	.loc 2 5446 5 is_stmt 1 view .LVU733
.LVL230:
.LBB527:
.LBI527:
	.loc 2 4521 27 view .LVU734
.LBB528:
	.loc 2 4522 5 view .LVU735
	.loc 2 4522 38 is_stmt 0 view .LVU736
	ldr	r3, [r10, #8]
	add	r3, r3, r7, lsl #4
.LVL231:
	.loc 2 4522 38 view .LVU737
.LBE528:
.LBE527:
.LBB529:
.LBI529:
	.loc 2 4514 21 is_stmt 1 view .LVU738
.LBB530:
	.loc 2 4515 5 view .LVU739
	.loc 2 4516 5 view .LVU740
	.loc 2 4517 5 view .LVU741
	.loc 2 4518 5 view .LVU742
.L143:
	.loc 2 4518 5 is_stmt 0 view .LVU743
.LBE530:
.LBE529:
.LBB531:
.LBB532:
.LBB533:
.LBB534:
	.loc 2 4518 12 view .LVU744
	str	r3, [sp, #64]
	str	r9, [sp, #68]
.LVL232:
	.loc 2 4518 12 view .LVU745
.LBE534:
.LBE533:
.LBE532:
.LBE531:
.LBE539:
.LBE522:
	.loc 1 243 5 is_stmt 1 view .LVU746
	.loc 1 243 35 is_stmt 0 view .LVU747
	ldm	r4, {r1, r2}
	mov	r0, r8
	ldr	r3, .L196+20
	bl	mpack_node_map_cstr
.LVL233:
	ldm	r8, {r0, r1}
.LBB542:
.LBB543:
.LBB544:
.LBB545:
.LBB546:
	.loc 2 4593 16 view .LVU748
	ldr	r3, [sp, #60]
.LBE546:
.LBE545:
.LBE544:
	.loc 2 4864 8 view .LVU749
	ldrb	r2, [r3, #32]	@ zero_extendqisi2
	add	r3, sp, #72
	cmp	r2, #0
	stm	r3, {r0, r1}
.LVL234:
	.loc 2 4864 8 view .LVU750
.LBE543:
.LBI542:
	.loc 2 4863 17 is_stmt 1 view .LVU751
.LBB550:
	.loc 2 4864 5 view .LVU752
.LBB549:
.LBI544:
	.loc 2 4690 22 view .LVU753
	.loc 2 4691 5 view .LVU754
.LBB548:
.LBI545:
	.loc 2 4592 22 view .LVU755
.LBB547:
	.loc 2 4593 5 view .LVU756
	.loc 2 4593 5 is_stmt 0 view .LVU757
.LBE547:
.LBE548:
.LBE549:
	.loc 2 4865 16 view .LVU758
	movne	r3, #0
.LVL235:
	.loc 2 4864 8 view .LVU759
	bne	.L146
	ldr	r1, [sp, #56]
	.loc 2 4867 5 is_stmt 1 view .LVU760
	.loc 2 4867 18 is_stmt 0 view .LVU761
	ldrb	r3, [r1]	@ zero_extendqisi2
	.loc 2 4867 8 view .LVU762
	cmp	r3, #6
	beq	.L182
	.loc 2 4870 12 is_stmt 1 view .LVU763
	.loc 2 4870 15 is_stmt 0 view .LVU764
	cmp	r3, #5
	beq	.L182
.L148:
	.loc 2 4875 5 is_stmt 1 view .LVU765
	add	r3, sp, #72
	ldm	r3, {r0, r1}
	mov	r2, #4
	bl	mpack_node_flag_error
.LVL236:
	.loc 2 4876 5 view .LVU766
	.loc 2 4876 12 is_stmt 0 view .LVU767
	mov	r3, #0
.L146:
.LVL237:
	.loc 2 4876 12 view .LVU768
.LBE550:
.LBE542:
	.loc 1 245 30 view .LVU769
	ldm	r4, {r1, r2}
	.loc 1 243 33 view .LVU770
	str	r3, [r5]
	.loc 1 245 5 is_stmt 1 view .LVU771
	.loc 1 245 30 is_stmt 0 view .LVU772
	add	r0, sp, #40
	ldr	r3, .L196+24
	bl	mpack_node_map_cstr_optional
.LVL238:
	ldr	r2, [sp, #44]
	ldr	r1, [sp, #40]
.LVL239:
	.loc 1 246 5 is_stmt 1 view .LVU773
.LBB552:
.LBI502:
	.loc 2 4730 21 view .LVU774
.LBB507:
	.loc 2 4731 5 view .LVU775
.LBB504:
.LBI504:
	.loc 2 4690 22 view .LVU776
	.loc 2 4691 5 view .LVU777
.LBB505:
.LBI505:
	.loc 2 4592 22 view .LVU778
.LBB506:
	.loc 2 4593 5 view .LVU779
	.loc 2 4593 5 is_stmt 0 view .LVU780
.LBE506:
.LBE505:
.LBE504:
	.loc 2 4731 8 view .LVU781
	ldrb	r3, [r2, #32]	@ zero_extendqisi2
	cmp	r3, #0
	beq	.L191
.LVL240:
.L149:
	.loc 2 4731 8 view .LVU782
.LBE507:
.LBE552:
	.loc 1 250 6 is_stmt 1 view .LVU783
	.loc 1 250 39 is_stmt 0 view .LVU784
	mov	r3, #0
	str	r3, [r5, #8]
	.loc 1 251 6 is_stmt 1 view .LVU785
	b	.L152
.LVL241:
.L185:
	.loc 1 251 6 is_stmt 0 view .LVU786
.LBE560:
.LBE500:
.LBE499:
	.loc 1 231 4 is_stmt 1 view .LVU787
	ldr	r0, .L196+28
	bl	Crash
.LVL242:
	b	.L140
.LVL243:
.L189:
.LBB602:
.LBB563:
.LBB561:
.LBB553:
.LBB540:
	.loc 2 5437 9 view .LVU788
	str	r10, [sp, #80]
	str	r9, [sp, #84]
	add	r3, sp, #80
	mov	r2, #4
	ldm	r3, {r0, r1}
.LVL244:
	.loc 2 5437 9 is_stmt 0 view .LVU789
	bl	mpack_node_flag_error
.LVL245:
.L181:
	.loc 2 5438 9 is_stmt 1 view .LVU790
.LBB535:
.LBI535:
	.loc 2 4525 21 view .LVU791
.LBB536:
	.loc 2 4526 5 view .LVU792
	.loc 2 4526 12 is_stmt 0 view .LVU793
	add	r3, r9, #16
.LVL246:
	.loc 2 4526 12 view .LVU794
.LBE536:
.LBE535:
	.loc 2 5438 16 view .LVU795
	b	.L143
.LVL247:
.L182:
	.loc 2 5438 16 view .LVU796
.LBE540:
.LBE553:
.LBB554:
.LBB551:
	.loc 2 4871 9 is_stmt 1 view .LVU797
	.loc 2 4871 12 is_stmt 0 view .LVU798
	mvn	r0, #0
	.loc 2 4871 29 view .LVU799
	ldr	r3, [r1, #8]
	ldr	r1, [r1, #12]
.LVL248:
	.loc 2 4871 12 view .LVU800
	cmp	r0, r3
	sbcs	r1, r2, r1
	bcc	.L148
	b	.L146
.LVL249:
.L187:
	.loc 2 4871 12 view .LVU801
.LBE551:
.LBE554:
	.loc 1 259 6 is_stmt 1 view .LVU802
.LBB555:
.LBI555:
	.loc 2 5210 20 view .LVU803
.LBB556:
	.loc 2 5211 5 view .LVU804
	.loc 2 5214 5 view .LVU805
	.loc 2 5215 5 view .LVU806
	.loc 2 5216 9 view .LVU807
	.loc 2 5216 9 is_stmt 0 view .LVU808
.LBE556:
.LBE555:
	.loc 1 259 6 view .LVU809
	mov	r2, #4096
	ldr	r1, [r3, #8]
	sub	r0, r5, #4096
	bl	memcpy
.LVL250:
	b	.L154
.L186:
	.loc 1 256 6 is_stmt 1 view .LVU810
.LBB557:
.LBI557:
	.loc 2 5210 20 view .LVU811
.LVL251:
.LBB558:
	.loc 2 5211 5 view .LVU812
	.loc 2 5214 5 view .LVU813
	.loc 2 5215 5 view .LVU814
	.loc 2 5216 9 view .LVU815
	.loc 2 5216 9 is_stmt 0 view .LVU816
.LBE558:
.LBE557:
	.loc 1 256 6 view .LVU817
	mov	r2, #4096
	ldr	r1, [r3, #8]
	sub	r0, r5, #8192
	bl	memcpy
.LVL252:
	b	.L153
.LVL253:
.L188:
	.loc 1 256 6 view .LVU818
.LBE561:
.LBE563:
	.loc 1 263 4 is_stmt 1 view .LVU819
	.loc 1 263 25 is_stmt 0 view .LVU820
	add	r2, sp, #24
	mov	r0, r4
	ldm	r2, {r1, r2}
	ldr	r3, .L196+32
	bl	mpack_node_map_cstr
.LVL254:
	.loc 1 263 25 view .LVU821
	ldr	r2, [sp, #68]
.LVL255:
.LBB564:
.LBI564:
	.loc 2 4966 12 is_stmt 1 view .LVU822
.LBB565:
	.loc 2 4969 5 view .LVU823
	.loc 2 4970 9 view .LVU824
.LBB566:
.LBI566:
	.loc 2 4883 16 view .LVU825
.LBB567:
	.loc 2 4884 5 view .LVU826
.LBB568:
.LBI568:
	.loc 2 4690 22 view .LVU827
	.loc 2 4691 5 view .LVU828
.LBB569:
.LBI569:
	.loc 2 4592 22 view .LVU829
.LBB570:
	.loc 2 4593 5 view .LVU830
	.loc 2 4593 16 is_stmt 0 view .LVU831
	ldrb	r4, [r2, #32]	@ zero_extendqisi2
.LVL256:
	.loc 2 4593 16 view .LVU832
.LBE570:
.LBE569:
.LBE568:
	.loc 2 4884 8 view .LVU833
	cmp	r4, #0
	movne	r4, #0
	bne	.L156
	ldr	r3, [sp, #64]
	.loc 2 4887 5 is_stmt 1 view .LVU834
	.loc 2 4887 18 is_stmt 0 view .LVU835
	ldrb	r1, [r3]	@ zero_extendqisi2
	.loc 2 4887 8 view .LVU836
	cmp	r1, #6
	beq	.L192
	.loc 2 4890 12 is_stmt 1 view .LVU837
	.loc 2 4890 15 is_stmt 0 view .LVU838
	cmp	r1, #5
	beq	.L193
.L158:
	.loc 2 4895 5 is_stmt 1 view .LVU839
	str	r3, [sp, #88]
	str	r2, [sp, #92]
	add	r3, sp, #88
	mov	r2, #4
.LVL257:
	.loc 2 4895 5 is_stmt 0 view .LVU840
	ldm	r3, {r0, r1}
	bl	mpack_node_flag_error
.LVL258:
	.loc 2 4896 5 is_stmt 1 view .LVU841
.L156:
	.loc 2 4896 5 is_stmt 0 view .LVU842
.LBE567:
.LBE566:
.LBE565:
.LBE564:
	.loc 1 265 33 view .LVU843
	add	r2, sp, #24
	ldr	r3, .L196+36
	.loc 1 263 23 view .LVU844
	strb	r4, [r6, #12]
	.loc 1 265 4 is_stmt 1 view .LVU845
	.loc 1 265 33 is_stmt 0 view .LVU846
	add	r0, sp, #48
	ldm	r2, {r1, r2}
	bl	mpack_node_map_cstr
.LVL259:
	.loc 1 265 33 view .LVU847
	ldr	r3, [sp, #52]
.LVL260:
	.loc 1 266 4 is_stmt 1 view .LVU848
.LBB580:
.LBI580:
	.loc 2 4730 21 view .LVU849
.LBB581:
	.loc 2 4731 5 view .LVU850
.LBB582:
.LBI582:
	.loc 2 4690 22 view .LVU851
	.loc 2 4691 5 view .LVU852
.LBB583:
.LBI583:
	.loc 2 4592 22 view .LVU853
.LBB584:
	.loc 2 4593 5 view .LVU854
	.loc 2 4593 5 is_stmt 0 view .LVU855
.LBE584:
.LBE583:
.LBE582:
	.loc 2 4731 8 view .LVU856
	ldrb	r4, [r3, #32]	@ zero_extendqisi2
	cmp	r4, #0
	bne	.L165
.LBE581:
.LBE580:
	.loc 1 265 33 view .LVU857
	ldr	r1, [sp, #48]
.LBB587:
.LBB585:
	.loc 2 4733 5 is_stmt 1 view .LVU858
	.loc 2 4733 21 is_stmt 0 view .LVU859
	ldrb	r2, [r1]	@ zero_extendqisi2
.LVL261:
	.loc 2 4733 21 view .LVU860
.LBE585:
.LBE587:
	.loc 1 266 7 view .LVU861
	cmp	r2, #1
	addeq	r5, r6, #65536
	bne	.L194
.LVL262:
.L159:
	.loc 1 272 24 view .LVU862
	add	r0, sp, #104
	.loc 1 268 30 view .LVU863
	str	r4, [r5, #664]
	.loc 1 272 4 is_stmt 1 view .LVU864
	.loc 1 272 24 is_stmt 0 view .LVU865
	bl	mpack_tree_destroy
.LVL263:
	.loc 1 273 4 is_stmt 1 view .LVU866
	.loc 1 273 7 is_stmt 0 view .LVU867
	subs	r1, r0, #0
	bne	.L195
.LVL264:
.L162:
	.loc 1 277 4 is_stmt 1 view .LVU868
	.loc 1 277 20 is_stmt 0 view .LVU869
	ldr	r3, [sp, #8]
	str	r3, [r5, #668]
.LVL265:
	.loc 1 277 20 view .LVU870
.LBE602:
.LBE605:
	.loc 1 280 1 view .LVU871
	add	sp, sp, #164
	.cfi_remember_state
	.cfi_def_cfa_offset 36
	@ sp needed
	pop	{r4, r5, r6, r7, r8, r9, r10, fp, pc}
.LVL266:
.L190:
	.cfi_restore_state
.LBB606:
.LBB603:
.LBB588:
.LBB562:
.LBB559:
.LBB541:
	.loc 2 5442 9 is_stmt 1 view .LVU872
	add	r3, sp, #80
	str	r10, [sp, #80]
	str	r9, [sp, #84]
	ldm	r3, {r0, r1}
.LVL267:
	.loc 2 5442 9 is_stmt 0 view .LVU873
	mov	r2, #8
	bl	mpack_node_flag_error
.LVL268:
	.loc 2 5443 9 is_stmt 1 view .LVU874
.LBB537:
.LBI537:
	.loc 2 4525 21 view .LVU875
.LBB538:
	.loc 2 4526 5 view .LVU876
	.loc 2 4526 12 is_stmt 0 view .LVU877
	add	r3, r9, #16
.LVL269:
	.loc 2 4526 12 view .LVU878
.LBE538:
.LBE537:
	.loc 2 5443 16 view .LVU879
	b	.L143
.LVL270:
.L194:
	.loc 2 5443 16 view .LVU880
.LBE541:
.LBE559:
.LBE562:
.LBE588:
	.loc 1 267 5 is_stmt 1 view .LVU881
.LBB589:
.LBB590:
	.loc 2 5215 8 is_stmt 0 view .LVU882
	sub	r2, r2, #7
.LBE590:
.LBE589:
	.loc 1 267 17 view .LVU883
	add	r5, r6, #65536
.LBB595:
.LBB591:
	.loc 2 5215 8 view .LVU884
	cmp	r2, #2
	str	r3, [sp, #100]
.LBE591:
.LBI589:
	.loc 2 5210 20 is_stmt 1 view .LVU885
.LVL271:
.LBB592:
	.loc 2 5211 5 view .LVU886
	.loc 2 5214 5 view .LVU887
	.loc 2 5215 5 view .LVU888
	str	r1, [sp, #96]
.LBE592:
.LBE595:
	.loc 1 267 17 is_stmt 0 view .LVU889
	add	r7, r5, #408
.LVL272:
.LBB596:
.LBB593:
	.loc 2 5215 8 view .LVU890
	bhi	.L160
	.loc 2 5216 9 is_stmt 1 view .LVU891
	.loc 2 5216 32 is_stmt 0 view .LVU892
	ldr	r1, [r1, #8]
.LVL273:
.L161:
	.loc 2 5216 32 view .LVU893
.LBE593:
.LBE596:
	.loc 1 267 5 view .LVU894
	mov	r0, r7
	mov	r2, #256
	bl	memcpy
.LVL274:
	.loc 1 268 5 is_stmt 1 view .LVU895
	ldr	r4, [sp, #8]
	b	.L159
.LVL275:
.L192:
.LBB597:
.LBB577:
.LBB574:
.LBB571:
	.loc 2 4888 9 view .LVU896
	.loc 2 4888 29 is_stmt 0 view .LVU897
	ldr	r0, [r3, #8]
	ldr	r1, [r3, #12]
	.loc 2 4888 12 view .LVU898
	cmp	r0, #-2147483648
	sbcs	r1, r1, #0
	bcs	.L158
.L183:
	.loc 2 4892 13 is_stmt 1 view .LVU899
.LBE571:
.LBE574:
.LBE577:
.LBE597:
	.loc 1 263 25 is_stmt 0 view .LVU900
	uxtb	r4, r0
.LBB598:
.LBB578:
.LBB575:
.LBB572:
	.loc 2 4892 20 view .LVU901
	b	.L156
.LVL276:
.L165:
	.loc 2 4892 20 view .LVU902
.LBE572:
.LBE575:
.LBE578:
.LBE598:
.LBB599:
.LBB586:
	mov	r4, #0
	add	r5, r6, #65536
	b	.L159
.LVL277:
.L195:
	.loc 2 4892 20 view .LVU903
.LBE586:
.LBE599:
	.loc 1 274 5 is_stmt 1 view .LVU904
	ldr	r0, .L196+40
.LVL278:
	.loc 1 274 5 is_stmt 0 view .LVU905
	ldrd	r2, [r6, #16]
	bl	Crash
.LVL279:
	b	.L162
.LVL280:
.L193:
.LBB600:
.LBB579:
.LBB576:
.LBB573:
	.loc 2 4891 9 is_stmt 1 view .LVU906
	.loc 2 4891 12 is_stmt 0 view .LVU907
	mvn	lr, #0
	.loc 2 4891 29 view .LVU908
	ldrd	r0, [r3, #8]
	.loc 2 4891 44 view .LVU909
	adds	ip, r0, #-2147483648
	adc	r1, r1, #0
	.loc 2 4891 12 view .LVU910
	cmp	lr, ip
	sbcs	r1, r4, r1
	bcc	.L158
	b	.L183
.LVL281:
.L160:
	.loc 2 4891 12 view .LVU911
.LBE573:
.LBE576:
.LBE579:
.LBE600:
.LBB601:
.LBB594:
	.loc 2 5218 5 is_stmt 1 view .LVU912
	ldm	fp, {r0, r1}
.LVL282:
	.loc 2 5218 5 is_stmt 0 view .LVU913
	mov	r2, #4
	bl	mpack_node_flag_error
.LVL283:
	.loc 2 5219 5 is_stmt 1 view .LVU914
	.loc 2 5219 11 is_stmt 0 view .LVU915
	mov	r1, r4
	b	.L161
.L197:
	.align	2
.L196:
	.word	.LANCHOR0
	.word	132440
	.word	.LC13
	.word	.LC19
	.word	.LC20
	.word	.LC7
	.word	.LC14
	.word	.LC21
	.word	.LC15
	.word	.LC16
	.word	.LC22
.LBE594:
.LBE601:
.LBE603:
.LBE606:
	.cfi_endproc
.LFE155:
	.size	SuperChunk_LoadChunk, .-SuperChunk_LoadChunk
	.global	decompressBufferSize
	.section	.rodata
	.align	2
	.type	decompressBufferSize, %object
	.size	decompressBufferSize, 4
decompressBufferSize:
	.word	132440
	.bss
	.align	2
	.set	.LANCHOR0,. + 0
	.type	nodeDataPool, %object
	.size	nodeDataPool, 4
nodeDataPool:
	.space	4
	.type	fileBuffer, %object
	.size	fileBuffer, 4
fileBuffer:
	.space	4
	.type	decompressBuffer, %object
	.size	decompressBuffer, 4
decompressBuffer:
	.space	4
	.text
.Letext0:
	.file 4 "/opt/devkitpro/devkitARM/arm-none-eabi/include/machine/_default_types.h"
	.file 5 "/opt/devkitpro/devkitARM/arm-none-eabi/include/sys/_stdint.h"
	.file 6 "/home/tobi/Dokumente/Craftus-Next/include/blocks/Block.h"
	.file 7 "/opt/devkitpro/devkitARM/lib/gcc/arm-none-eabi/11.2.0/include/stddef.h"
	.file 8 "/opt/devkitpro/devkitARM/arm-none-eabi/include/machine/_types.h"
	.file 9 "/opt/devkitpro/devkitARM/arm-none-eabi/include/sys/_types.h"
	.file 10 "/opt/devkitpro/devkitARM/arm-none-eabi/include/sys/reent.h"
	.file 11 "/opt/devkitpro/devkitARM/arm-none-eabi/include/sys/lock.h"
	.file 12 "/opt/devkitpro/devkitARM/arm-none-eabi/include/stdio.h"
	.file 13 "/home/tobi/Dokumente/Craftus-Next/include/rendering/VBOCache.h"
	.file 14 "/home/tobi/Dokumente/Craftus-Next/include/world/Chunk.h"
	.file 15 "/home/tobi/Dokumente/Craftus-Next/dependencies/miniz/miniz.h"
	.file 16 "/opt/devkitpro/devkitARM/arm-none-eabi/include/string.h"
	.file 17 "/home/tobi/Dokumente/Craftus-Next/include/misc/Crash.h"
	.file 18 "/home/tobi/Dokumente/Craftus-Next/dependencies/vec/vec.h"
	.file 19 "/opt/devkitpro/devkitARM/arm-none-eabi/include/sys/unistd.h"
	.file 20 "/opt/devkitpro/devkitARM/arm-none-eabi/include/stdlib.h"
	.file 21 "<built-in>"