	.arch armv6k
	.eabi_attribute 28, 1
	.eabi_attribute 20, 1
	.eabi_attribute 21, 1
	.eabi_attribute 23, 3
	.eabi_attribute 24, 1
	.eabi_attribute 25, 1
	.eabi_attribute 26, 1
	.eabi_attribute 30, 2
	.eabi_attribute 34, 1
	.eabi_attribute 18, 4
	.file	"TextureMap.c"
	.text
.Ltext0:
	.cfi_sections	.debug_frame
	.section	.text.hash,"ax",%progbits
	.align	2
	.global	hash
	.syntax unified
	.arm
	.fpu vfp
	.type	hash, %function
hash:
.LVL0:
.LFB182:
	.file 1 "/home/tobi/Dokumente/Craftus-Next/source/rendering/TextureMap.c"
	.loc 1 14 26 view -0
	.cfi_startproc
	@ args = 0, pretend = 0, frame = 0
	@ frame_needed = 0, uses_anonymous_args = 0
	@ link register save eliminated.
	.loc 1 15 2 view .LVU1
	.loc 1 16 2 view .LVU2
	.loc 1 17 2 view .LVU3
	.loc 1 17 9 view .LVU4
	.loc 1 17 14 is_stmt 0 view .LVU5
	ldrb	r2, [r0], #1	@ zero_extendqisi2
.LVL1:
	.loc 1 15 16 view .LVU6
	ldr	r3, .L7
	.loc 1 17 9 view .LVU7
	cmp	r2, #0
	beq	.L1
.LVL2:
.L3:
	.loc 1 17 23 is_stmt 1 discriminator 2 view .LVU8
	add	r3, r3, r3, lsl #5
.LVL3:
	.loc 1 17 28 is_stmt 0 discriminator 2 view .LVU9
	add	r3, r2, r3
.LVL4:
	.loc 1 17 9 is_stmt 1 discriminator 2 view .LVU10
	.loc 1 17 14 is_stmt 0 discriminator 2 view .LVU11
	ldrb	r2, [r0], #1	@ zero_extendqisi2
.LVL5:
	.loc 1 17 9 discriminator 2 view .LVU12
	cmp	r2, #0
	bne	.L3
.LVL6:
.L1:
	.loc 1 19 1 view .LVU13
	mov	r0, r3
.LVL7:
	.loc 1 19 1 view .LVU14
	bx	lr
.L8:
	.align	2
.L7:
	.word	5381
	.cfi_endproc
.LFE182:
	.size	hash, .-hash
	.section	.text.tileImage32,"ax",%progbits
	.align	2
	.global	tileImage32
	.syntax unified
	.arm
	.fpu vfp
	.type	tileImage32, %function
tileImage32:
.LVL8:
.LFB186:
	.loc 1 84 59 is_stmt 1 view -0
	.cfi_startproc
	@ args = 0, pretend = 0, frame = 0
	@ frame_needed = 0, uses_anonymous_args = 0
	.loc 1 85 2 view .LVU16
.LBB33:
	.loc 1 85 7 view .LVU17
	.loc 1 85 20 view .LVU18
.LBE33:
	.loc 1 84 59 is_stmt 0 view .LVU19
	push	{r4, r5, r6, r7, r8, r9, r10, fp, lr}
	.cfi_def_cfa_offset 36
	.cfi_offset 4, -36
	.cfi_offset 5, -32
	.cfi_offset 6, -28
	.cfi_offset 7, -24
	.cfi_offset 8, -20
	.cfi_offset 9, -16
	.cfi_offset 10, -12
	.cfi_offset 11, -8
	.cfi_offset 14, -4
.LBB58:
	.loc 1 85 20 view .LVU20
	subs	r9, r3, #0
	pople	{r4, r5, r6, r7, r8, r9, r10, fp, pc}
	.loc 1 85 11 view .LVU21
	mov	r7, #0
	sub	r3, r9, #1
.LVL9:
	.loc 1 85 11 view .LVU22
	mul	r3, r2, r3
	rsb	r10, r2, r2, lsl #30
	sub	r3, r3, #-1073741823
.LBB34:
.LBB35:
.LBB36:
.LBB37:
.LBB38:
.LBB39:
	.loc 1 72 4 view .LVU23
	ldr	r6, .L17
	.loc 1 73 4 view .LVU24
	ldr	r5, .L17+4
	lsl	r10, r10, #2
	add	r8, r0, r3, lsl #2
.LVL10:
.L11:
	.loc 1 73 4 view .LVU25
.LBE39:
.LBE38:
.LBE37:
.LBE36:
.LBE35:
	.loc 1 86 21 is_stmt 1 view .LVU26
	cmp	r2, #0
	ble	.L14
.LBB54:
	.loc 1 88 59 is_stmt 0 view .LVU27
	mov	lr, r8
.LBE54:
	.loc 1 86 12 view .LVU28
	mov	ip, #0
.LBB55:
	.loc 1 87 8 view .LVU29
	bic	r4, r7, #7
	.loc 1 88 59 view .LVU30
	mul	r4, r2, r4
.LBB51:
.LBB48:
.LBB44:
.LBB40:
	.loc 1 71 29 view .LVU31
	lsl	r3, r7, #8
	and	r3, r3, #1792
.LVL11:
.L12:
	.loc 1 71 29 view .LVU32
.LBE40:
.LBE44:
.LBE48:
.LBE51:
	.loc 1 87 4 is_stmt 1 discriminator 3 view .LVU33
	.loc 1 88 4 discriminator 3 view .LVU34
.LBB52:
.LBI36:
	.loc 1 78 19 discriminator 3 view .LVU35
.LBB49:
	.loc 1 79 2 discriminator 3 view .LVU36
.LBB45:
.LBI38:
	.loc 1 70 19 discriminator 3 view .LVU37
.LBB41:
	.loc 1 71 2 discriminator 3 view .LVU38
	.loc 1 71 13 is_stmt 0 discriminator 3 view .LVU39
	and	r0, ip, #7
	.loc 1 71 6 discriminator 3 view .LVU40
	orr	r0, r0, r3
.LVL12:
	.loc 1 72 2 is_stmt 1 discriminator 3 view .LVU41
	.loc 1 72 9 is_stmt 0 discriminator 3 view .LVU42
	eor	r0, r0, r0, lsl #2
.LVL13:
	.loc 1 72 4 discriminator 3 view .LVU43
	and	r0, r0, r6
.LVL14:
	.loc 1 73 2 is_stmt 1 discriminator 3 view .LVU44
	.loc 1 73 9 is_stmt 0 discriminator 3 view .LVU45
	eor	r0, r0, r0, lsl #1
.LVL15:
	.loc 1 73 4 discriminator 3 view .LVU46
	and	r0, r0, r5
.LVL16:
	.loc 1 74 2 is_stmt 1 discriminator 3 view .LVU47
.LBE41:
.LBE45:
	.loc 1 80 27 is_stmt 0 discriminator 3 view .LVU48
	bic	fp, ip, #7
.LBB46:
.LBB42:
	.loc 1 74 9 discriminator 3 view .LVU49
	orr	r0, r0, r0, lsr #7
.LVL17:
	.loc 1 75 2 is_stmt 1 discriminator 3 view .LVU50
	.loc 1 75 2 is_stmt 0 discriminator 3 view .LVU51
.LBE42:
.LBE46:
	.loc 1 80 2 is_stmt 1 discriminator 3 view .LVU52
	.loc 1 81 2 discriminator 3 view .LVU53
	.loc 1 81 2 is_stmt 0 discriminator 3 view .LVU54
.LBE49:
.LBE52:
	.loc 1 90 4 is_stmt 1 discriminator 3 view .LVU55
	.loc 1 88 8 is_stmt 0 discriminator 3 view .LVU56
	add	fp, r4, fp, lsl #3
.LVL18:
.LBB53:
.LBB50:
.LBB47:
.LBB43:
	.loc 1 74 4 discriminator 3 view .LVU57
	and	r0, r0, #63
.LVL19:
	.loc 1 74 4 discriminator 3 view .LVU58
.LBE43:
.LBE47:
.LBE50:
.LBE53:
	.loc 1 88 8 discriminator 3 view .LVU59
	add	r0, fp, r0
.LBE55:
	.loc 1 86 31 discriminator 3 view .LVU60
	add	ip, ip, #1
.LVL20:
.LBB56:
	.loc 1 90 8 discriminator 3 view .LVU61
	ldr	fp, [lr, #4]!
.LVL21:
	.loc 1 91 4 is_stmt 1 discriminator 3 view .LVU62
.LBE56:
	.loc 1 86 21 is_stmt 0 discriminator 3 view .LVU63
	cmp	r2, ip
.LBB57:
	.loc 1 91 30 discriminator 3 view .LVU64
	str	fp, [r1, r0, lsl #2]
.LBE57:
	.loc 1 86 31 is_stmt 1 discriminator 3 view .LVU65
.LVL22:
	.loc 1 86 21 discriminator 3 view .LVU66
	bne	.L12
.LVL23:
.L14:
	.loc 1 86 21 is_stmt 0 discriminator 3 view .LVU67
.LBE34:
	.loc 1 85 30 is_stmt 1 view .LVU68
	add	r7, r7, #1
.LVL24:
	.loc 1 85 20 view .LVU69
	cmp	r9, r7
	add	r8, r8, r10
	bne	.L11
	pop	{r4, r5, r6, r7, r8, r9, r10, fp, pc}
.L18:
	.align	2
.L17:
	.word	4883
	.word	5397
.LBE58:
	.cfi_endproc
.LFE186:
	.size	tileImage32, .-tileImage32
	.section	.rodata.str1.4,"aMS",%progbits,1
	.align	2
.LC1:
	.ascii	"Failed to load texture %s\012\000"
	.section	.text.Texture_Load,"ax",%progbits
	.align	2
	.global	Texture_Load
	.syntax unified
	.arm
	.fpu vfp
	.type	Texture_Load, %function
Texture_Load:
.LVL25:
.LFB183:
	.loc 1 23 52 view -0
	.cfi_startproc
	@ args = 0, pretend = 0, frame = 16
	@ frame_needed = 0, uses_anonymous_args = 0
	.loc 1 24 2 view .LVU71
	.loc 1 23 52 is_stmt 0 view .LVU72
	push	{r4, r5, r6, lr}
	.cfi_def_cfa_offset 16
	.cfi_offset 4, -16
	.cfi_offset 5, -12
	.cfi_offset 6, -8
	.cfi_offset 14, -4
	.loc 1 25 15 view .LVU73
	mov	r3, #255
	.loc 1 23 52 view .LVU74
	mov	r4, r1
	.loc 1 24 12 view .LVU75
	mov	ip, #0
	.loc 1 23 52 view .LVU76
	sub	sp, sp, #24
	.cfi_def_cfa_offset 40
	.loc 1 25 15 view .LVU77
	str	r3, [sp, #16]
	.loc 1 25 28 view .LVU78
	str	r3, [sp, #20]
	.loc 1 23 52 view .LVU79
	mov	r5, r0
	.loc 1 26 19 view .LVU80
	mov	r3, r4
	add	r2, sp, #20
	add	r1, sp, #16
	add	r0, sp, #12
	.loc 1 24 12 view .LVU81
	str	ip, [sp, #12]
	.loc 1 25 2 is_stmt 1 view .LVU82
	.loc 1 26 2 view .LVU83
	.loc 1 26 19 is_stmt 0 view .LVU84
	bl	lodepng_decode32_file
.LVL26:
	.loc 1 27 2 is_stmt 1 view .LVU85
	.loc 1 27 5 is_stmt 0 view .LVU86
	cmp	r0, #0
	bne	.L20
	.loc 1 27 17 discriminator 1 view .LVU87
	ldr	r3, [sp, #12]
	cmp	r3, #0
	beq	.L20
.LBB65:
	.loc 1 28 3 is_stmt 1 view .LVU88
	.loc 1 28 56 is_stmt 0 view .LVU89
	ldr	r0, [sp, #16]
.LVL27:
	.loc 1 28 56 view .LVU90
	ldr	r3, [sp, #20]
	mul	r0, r3, r0
	.loc 1 28 38 view .LVU91
	lsl	r0, r0, #2
	bl	linearAlloc
.LVL28:
	.loc 1 30 13 view .LVU92
	ldr	r2, [sp, #16]
	.loc 1 28 38 view .LVU93
	mov	r4, r0
.LVL29:
	.loc 1 30 3 is_stmt 1 view .LVU94
	.loc 1 30 6 is_stmt 0 view .LVU95
	cmp	r2, #63
.LBB66:
	.loc 1 31 22 view .LVU96
	ldr	r6, [sp, #20]
.LBE66:
	.loc 1 30 6 view .LVU97
	bhi	.L21
.L24:
.LVL30:
.LBB68:
	.loc 1 31 22 is_stmt 1 discriminator 1 view .LVU98
	cmp	r6, #0
	beq	.L22
.LBB67:
	.loc 1 33 52 is_stmt 0 view .LVU99
	mov	r1, #0
	ldr	lr, [sp, #12]
	lsl	r0, r2, #2
.LVL31:
	.loc 1 33 52 view .LVU100
	add	lr, lr, r2, lsl #2
.LVL32:
.L23:
	.loc 1 32 23 is_stmt 1 view .LVU101
	cmp	r2, #0
	subne	r3, lr, r0
	beq	.L28
.LVL33:
.L26:
	.loc 1 33 6 discriminator 3 view .LVU102
	.loc 1 33 29 is_stmt 0 discriminator 3 view .LVU103
	ldr	ip, [r3]
	rev	ip, ip
	.loc 1 33 27 discriminator 3 view .LVU104
	str	ip, [r3], #4
	.loc 1 32 33 is_stmt 1 discriminator 3 view .LVU105
	.loc 1 32 23 discriminator 3 view .LVU106
	cmp	lr, r3
	bne	.L26
.L28:
.LBE67:
	.loc 1 31 33 view .LVU107
	add	r1, r1, #1
.LVL34:
	.loc 1 31 22 view .LVU108
	cmp	r6, r1
	add	lr, lr, r0
	bne	.L23
.LVL35:
.L22:
	.loc 1 31 22 is_stmt 0 view .LVU109
.LBE68:
	.loc 1 46 3 is_stmt 1 view .LVU110
.LBB69:
.LBI69:
	.file 2 "/opt/devkitpro/libctru/include/c3d/texture.h"
	.loc 2 112 19 view .LVU111
.LBB70:
	.loc 2 114 2 view .LVU112
	.loc 2 115 22 is_stmt 0 view .LVU113
	uxth	r2, r2
	.loc 2 114 9 view .LVU114
	orr	r2, r2, r6, lsl #16
.LVL36:
	.loc 2 114 9 view .LVU115
	mov	r3, #2048
	mov	r1, #0
	mov	r0, r5
	bl	C3D_TexInitWithParams
.LVL37:
	.loc 2 114 9 view .LVU116
.LBE70:
.LBE69:
	.loc 1 48 3 is_stmt 1 view .LVU117
	.loc 1 48 13 is_stmt 0 view .LVU118
	ldr	r2, [sp, #16]
	.loc 1 48 28 view .LVU119
	ldr	r6, [sp, #20]
	.loc 1 48 6 view .LVU120
	cmp	r2, #63
	bls	.L31
	.loc 1 48 18 discriminator 2 view .LVU121
	cmp	r6, #63
	bls	.L31
.L32:
	.loc 1 50 3 is_stmt 1 view .LVU122
	.loc 1 50 53 is_stmt 0 view .LVU123
	mul	r2, r6, r2
	.loc 1 50 3 view .LVU124
	mov	r0, r4
	lsl	r1, r2, #2
	bl	GSPGPU_FlushDataCache
.LVL38:
	.loc 1 51 3 is_stmt 1 view .LVU125
	ldr	r0, [sp, #12]
	bl	free
.LVL39:
	.loc 1 53 3 view .LVU126
	.loc 1 53 13 is_stmt 0 view .LVU127
	ldr	r2, [sp, #16]
	.loc 1 53 28 view .LVU128
	ldr	r1, [sp, #20]
	.loc 1 53 6 view .LVU129
	cmp	r2, #63
	bls	.L34
	.loc 1 53 18 discriminator 1 view .LVU130
	cmp	r1, #63
	bhi	.L35
.L34:
	.loc 1 54 4 is_stmt 1 view .LVU131
	mov	ip, #8
	mov	r3, #0
	.loc 1 54 72 is_stmt 0 view .LVU132
	mul	r1, r1, r2
	lsl	r1, r1, #2
	.loc 1 54 4 view .LVU133
	ldr	r2, [r5]
	mov	r0, r4
	str	r1, [sp]
	str	ip, [sp, #4]
	mov	r1, r3
	bl	C3D_SyncTextureCopy
.LVL40:
.L36:
	.loc 1 63 3 is_stmt 1 view .LVU134
	mov	r0, r4
	bl	linearFree
.LVL41:
.LBE65:
	.loc 1 67 1 is_stmt 0 view .LVU135
	add	sp, sp, #24
	.cfi_remember_state
	.cfi_def_cfa_offset 16
	@ sp needed
	pop	{r4, r5, r6, pc}
.LVL42:
.L20:
	.cfi_restore_state
	.loc 1 65 3 is_stmt 1 view .LVU136
	mov	r1, r4
	ldr	r0, .L47
.LVL43:
	.loc 1 65 3 is_stmt 0 view .LVU137
	bl	Crash
.LVL44:
	.loc 1 67 1 view .LVU138
	add	sp, sp, #24
	.cfi_remember_state
	.cfi_def_cfa_offset 16
	@ sp needed
	pop	{r4, r5, r6, pc}
.LVL45:
.L31:
	.cfi_restore_state
.LBB72:
	.loc 1 48 34 is_stmt 1 discriminator 3 view .LVU139
	mov	r3, r6
	mov	r1, r4
	ldr	r0, [sp, #12]
	bl	tileImage32
.LVL46:
	b	.L32
.LVL47:
.L21:
	.loc 1 30 18 is_stmt 0 discriminator 1 view .LVU140
	cmp	r6, #63
	bls	.L24
.LVL48:
.LBB71:
	.loc 1 36 22 is_stmt 1 view .LVU141
	.loc 1 36 30 is_stmt 0 view .LVU142
	mul	ip, r6, r2
	.loc 1 36 22 view .LVU143
	cmp	ip, #0
	beq	.L22
	.loc 1 42 45 view .LVU144
	ldr	r1, [sp, #12]
	sub	r0, r0, #4
.LVL49:
	.loc 1 42 45 view .LVU145
	sub	r1, r1, #4
	add	ip, r1, ip, lsl #2
.LVL50:
.L29:
	.loc 1 42 5 is_stmt 1 discriminator 3 view .LVU146
	.loc 1 42 22 is_stmt 0 discriminator 3 view .LVU147
	ldr	r3, [r1, #4]!
	rev	r3, r3
	.loc 1 36 22 discriminator 3 view .LVU148
	cmp	r1, ip
	.loc 1 42 20 discriminator 3 view .LVU149
	str	r3, [r0, #4]!
	.loc 1 36 41 is_stmt 1 discriminator 3 view .LVU150
	.loc 1 36 22 discriminator 3 view .LVU151
	bne	.L29
	b	.L22
.L35:
	.loc 1 36 22 is_stmt 0 discriminator 3 view .LVU152
.LBE71:
	.loc 1 56 4 is_stmt 1 view .LVU153
	mov	ip, #3
	.loc 1 57 56 is_stmt 0 view .LVU154
	uxth	r3, r2
	.loc 1 57 47 view .LVU155
	orr	r3, r3, r1, lsl #16
	.loc 1 56 4 view .LVU156
	ldr	r2, [r5]
	mov	r1, r3
	mov	r0, r4
	str	ip, [sp]
	bl	C3D_SyncDisplayTransfer
.LVL51:
	b	.L36
.L48:
	.align	2
.L47:
	.word	.LC1
.LBE72:
	.cfi_endproc
.LFE183:
	.size	Texture_Load, .-Texture_Load
	.section	.text.Texture_TileImage8,"ax",%progbits
	.align	2
	.global	Texture_TileImage8
	.syntax unified
	.arm
	.fpu vfp
	.type	Texture_TileImage8, %function
Texture_TileImage8:
.LVL52:
.LFB187:
	.loc 1 95 63 is_stmt 1 view -0
	.cfi_startproc
	@ args = 0, pretend = 0, frame = 0
	@ frame_needed = 0, uses_anonymous_args = 0
	.loc 1 96 2 view .LVU158
.LBB80:
	.loc 1 96 7 view .LVU159
	.loc 1 96 20 view .LVU160
.LBE80:
	.loc 1 95 63 is_stmt 0 view .LVU161
	push	{r4, r5, r6, r7, r8, r9, r10, fp, lr}
	.cfi_def_cfa_offset 36
	.cfi_offset 4, -36
	.cfi_offset 5, -32
	.cfi_offset 6, -28
	.cfi_offset 7, -24
	.cfi_offset 8, -20
	.cfi_offset 9, -16
	.cfi_offset 10, -12
	.cfi_offset 11, -8
	.cfi_offset 14, -4
.LBB107:
	.loc 1 96 20 view .LVU162
	subs	r10, r2, #0
	pople	{r4, r5, r6, r7, r8, r9, r10, fp, pc}
	.loc 1 96 11 view .LVU163
	mov	r8, #0
.LBB81:
.LBB82:
	.loc 1 101 25 view .LVU164
	sub	r3, r10, #1
	mul	r3, r10, r3
.LBB83:
.LBB84:
.LBB85:
.LBB86:
	.loc 1 72 4 view .LVU165
	ldr	r7, .L55
	add	r4, r3, r0
	.loc 1 73 4 view .LVU166
	ldr	r6, .L55+4
	add	r0, r0, r10
.LVL53:
	.loc 1 73 4 view .LVU167
	add	r9, r0, r3
	rsb	r4, r4, #0
.LVL54:
.L51:
	.loc 1 73 4 view .LVU168
.LBE86:
.LBE85:
.LBE84:
.LBE83:
.LBE82:
	.loc 1 97 21 is_stmt 1 view .LVU169
	mov	r5, r9
	sub	r9, r9, r10
.LBB105:
	.loc 1 99 59 is_stmt 0 view .LVU170
	mov	ip, r9
	.loc 1 98 8 view .LVU171
	bic	r2, r8, #7
	.loc 1 99 59 view .LVU172
	mul	r2, r10, r2
.LBB101:
.LBB97:
.LBB92:
.LBB87:
	.loc 1 71 29 view .LVU173
	lsl	lr, r8, #8
	and	lr, lr, #1792
.LVL55:
.L52:
	.loc 1 71 29 view .LVU174
.LBE87:
.LBE92:
.LBE97:
.LBE101:
	.loc 1 98 4 is_stmt 1 discriminator 3 view .LVU175
	.loc 1 99 4 discriminator 3 view .LVU176
	add	r0, ip, r4
.LVL56:
.LBB102:
.LBI83:
	.loc 1 78 19 discriminator 3 view .LVU177
.LBB98:
	.loc 1 79 2 discriminator 3 view .LVU178
.LBB93:
.LBI85:
	.loc 1 70 19 discriminator 3 view .LVU179
.LBB88:
	.loc 1 71 2 discriminator 3 view .LVU180
	.loc 1 71 13 is_stmt 0 discriminator 3 view .LVU181
	and	r3, r0, #7
	.loc 1 71 6 discriminator 3 view .LVU182
	orr	r3, r3, lr
.LVL57:
	.loc 1 72 2 is_stmt 1 discriminator 3 view .LVU183
	.loc 1 72 9 is_stmt 0 discriminator 3 view .LVU184
	eor	r3, r3, r3, lsl #2
.LVL58:
	.loc 1 72 4 discriminator 3 view .LVU185
	and	r3, r3, r7
.LVL59:
	.loc 1 73 2 is_stmt 1 discriminator 3 view .LVU186
	.loc 1 73 9 is_stmt 0 discriminator 3 view .LVU187
	eor	r3, r3, r3, lsl #1
.LVL60:
	.loc 1 73 9 discriminator 3 view .LVU188
.LBE88:
.LBE93:
.LBE98:
.LBE102:
	.loc 1 101 7 discriminator 3 view .LVU189
	ldrb	fp, [ip], #1	@ zero_extendqisi2
.LBB103:
.LBB99:
.LBB94:
.LBB89:
	.loc 1 73 4 discriminator 3 view .LVU190
	and	r3, r3, r6
.LVL61:
	.loc 1 74 2 is_stmt 1 discriminator 3 view .LVU191
.LBE89:
.LBE94:
	.loc 1 80 27 is_stmt 0 discriminator 3 view .LVU192
	bic	r0, r0, #7
.LVL62:
.LBB95:
.LBB90:
	.loc 1 74 9 discriminator 3 view .LVU193
	orr	r3, r3, r3, lsr #7
.LVL63:
	.loc 1 75 2 is_stmt 1 discriminator 3 view .LVU194
	.loc 1 75 2 is_stmt 0 discriminator 3 view .LVU195
.LBE90:
.LBE95:
	.loc 1 80 2 is_stmt 1 discriminator 3 view .LVU196
	.loc 1 81 2 discriminator 3 view .LVU197
	.loc 1 81 2 is_stmt 0 discriminator 3 view .LVU198
.LBE99:
.LBE103:
	.loc 1 101 4 is_stmt 1 discriminator 3 view .LVU199
	.loc 1 102 4 discriminator 3 view .LVU200
	.loc 1 102 24 is_stmt 0 discriminator 3 view .LVU201
	add	r0, r1, r0, lsl #3
.LBB104:
.LBB100:
.LBB96:
.LBB91:
	.loc 1 74 4 discriminator 3 view .LVU202
	and	r3, r3, #63
.LVL64:
	.loc 1 74 4 discriminator 3 view .LVU203
.LBE91:
.LBE96:
.LBE100:
.LBE104:
	.loc 1 102 24 discriminator 3 view .LVU204
	add	r0, r0, r2
.LBE105:
	.loc 1 97 21 discriminator 3 view .LVU205
	cmp	r5, ip
.LBB106:
	.loc 1 102 24 discriminator 3 view .LVU206
	strb	fp, [r0, r3]
.LBE106:
	.loc 1 97 30 is_stmt 1 discriminator 3 view .LVU207
	.loc 1 97 21 discriminator 3 view .LVU208
	bne	.L52
.LBE81:
	.loc 1 96 29 discriminator 2 view .LVU209
	add	r8, r8, #1
.LVL65:
	.loc 1 96 20 discriminator 2 view .LVU210
	cmp	r10, r8
	add	r4, r4, r10
.LVL66:
	.loc 1 96 20 is_stmt 0 discriminator 2 view .LVU211
	bne	.L51
	pop	{r4, r5, r6, r7, r8, r9, r10, fp, pc}
.L56:
	.align	2
.L55:
	.word	4883
	.word	5397
.LBE107:
	.cfi_endproc
.LFE187:
	.size	Texture_TileImage8, .-Texture_TileImage8
	.section	.text.downscaleImage,"ax",%progbits
	.align	2
	.global	downscaleImage
	.syntax unified
	.arm
	.fpu vfp
	.type	downscaleImage, %function
downscaleImage:
.LVL67:
.LFB188:
	.loc 1 106 41 is_stmt 1 view -0
	.cfi_startproc
	@ args = 0, pretend = 0, frame = 8
	@ frame_needed = 0, uses_anonymous_args = 0
	.loc 1 107 2 view .LVU213
	.loc 1 108 2 view .LVU214
	.loc 1 108 16 view .LVU215
	.loc 1 106 41 is_stmt 0 view .LVU216
	push	{r4, r5, r6, r7, r8, r9, r10, fp, lr}
	.cfi_def_cfa_offset 36
	.cfi_offset 4, -36
	.cfi_offset 5, -32
	.cfi_offset 6, -28
	.cfi_offset 7, -24
	.cfi_offset 8, -20
	.cfi_offset 9, -16
	.cfi_offset 10, -12
	.cfi_offset 11, -8
	.cfi_offset 14, -4
	.loc 1 108 16 view .LVU217
	subs	r8, r1, #0
	.loc 1 106 41 view .LVU218
	sub	sp, sp, #12
	.cfi_def_cfa_offset 48
	.loc 1 108 16 view .LVU219
	ble	.L57
.LBB108:
	.loc 1 113 40 view .LVU220
	mov	r5, #0
	lsl	r3, r8, #4
	str	r3, [sp, #4]
.LBE108:
	.loc 1 108 9 view .LVU221
	mov	r6, r5
.LBB109:
	.loc 1 113 40 view .LVU222
	mov	r3, r0
	.loc 1 113 35 view .LVU223
	lsl	r10, r8, #3
	.loc 1 112 96 view .LVU224
	mov	r9, r10
	add	r4, r0, r8, lsl #3
	.loc 1 113 40 view .LVU225
	add	r10, r10, #4
.LVL68:
.L59:
	.loc 1 113 40 view .LVU226
.LBE109:
	.loc 1 109 17 is_stmt 1 view .LVU227
	add	r7, r9, r3
	.loc 1 106 41 is_stmt 0 view .LVU228
	mov	lr, r7
	add	ip, r10, r3
	add	r1, r0, r5, lsl #2
.LVL69:
.L60:
.LBB110:
	.loc 1 110 4 is_stmt 1 discriminator 3 view .LVU229
	.loc 1 111 4 discriminator 3 view .LVU230
	.loc 1 112 4 discriminator 3 view .LVU231
	.loc 1 112 52 is_stmt 0 discriminator 3 view .LVU232
	ldrb	fp, [r3, #4]	@ zero_extendqisi2
	.loc 1 112 28 discriminator 3 view .LVU233
	ldrb	r2, [r3]	@ zero_extendqisi2
.LBE110:
	.loc 1 109 17 discriminator 3 view .LVU234
	add	r3, r3, #8
.LVL70:
.LBB111:
	.loc 1 112 46 discriminator 3 view .LVU235
	add	r2, r2, fp
	.loc 1 112 76 discriminator 3 view .LVU236
	ldrb	fp, [lr]	@ zero_extendqisi2
.LBE111:
	.loc 1 109 17 discriminator 3 view .LVU237
	add	ip, ip, #8
.LBB112:
	.loc 1 112 70 discriminator 3 view .LVU238
	add	r2, r2, fp
	.loc 1 113 14 discriminator 3 view .LVU239
	ldrb	fp, [ip, #-8]	@ zero_extendqisi2
.LBE112:
	.loc 1 109 17 discriminator 3 view .LVU240
	add	lr, lr, #8
.LBB113:
	.loc 1 112 105 discriminator 3 view .LVU241
	add	r2, r2, fp
	.loc 1 113 50 discriminator 3 view .LVU242
	asr	r2, r2, #2
	.loc 1 112 21 discriminator 3 view .LVU243
	strb	r2, [r1]
	.loc 1 115 4 is_stmt 1 discriminator 3 view .LVU244
	.loc 1 115 52 is_stmt 0 discriminator 3 view .LVU245
	ldrb	fp, [r3, #-3]	@ zero_extendqisi2
	.loc 1 115 28 discriminator 3 view .LVU246
	ldrb	r2, [r3, #-7]	@ zero_extendqisi2
.LBE113:
	.loc 1 109 17 discriminator 3 view .LVU247
	add	r1, r1, #4
.LVL71:
.LBB114:
	.loc 1 115 46 discriminator 3 view .LVU248
	add	r2, r2, fp
	.loc 1 115 76 discriminator 3 view .LVU249
	ldrb	fp, [lr, #-7]	@ zero_extendqisi2
	.loc 1 115 70 discriminator 3 view .LVU250
	add	r2, r2, fp
	.loc 1 116 14 discriminator 3 view .LVU251
	ldrb	fp, [ip, #-7]	@ zero_extendqisi2
	.loc 1 115 105 discriminator 3 view .LVU252
	add	r2, r2, fp
	.loc 1 116 50 discriminator 3 view .LVU253
	asr	r2, r2, #2
	.loc 1 115 21 discriminator 3 view .LVU254
	strb	r2, [r1, #-3]
	.loc 1 118 4 is_stmt 1 discriminator 3 view .LVU255
	.loc 1 118 52 is_stmt 0 discriminator 3 view .LVU256
	ldrb	fp, [r3, #-2]	@ zero_extendqisi2
	.loc 1 118 28 discriminator 3 view .LVU257
	ldrb	r2, [r3, #-6]	@ zero_extendqisi2
	.loc 1 118 46 discriminator 3 view .LVU258
	add	r2, r2, fp
	.loc 1 118 76 discriminator 3 view .LVU259
	ldrb	fp, [lr, #-6]	@ zero_extendqisi2
	.loc 1 118 70 discriminator 3 view .LVU260
	add	r2, r2, fp
	.loc 1 119 14 discriminator 3 view .LVU261
	ldrb	fp, [ip, #-6]	@ zero_extendqisi2
	.loc 1 118 105 discriminator 3 view .LVU262
	add	r2, r2, fp
	.loc 1 119 50 discriminator 3 view .LVU263
	asr	r2, r2, #2
	.loc 1 118 21 discriminator 3 view .LVU264
	strb	r2, [r1, #-2]
	.loc 1 121 4 is_stmt 1 discriminator 3 view .LVU265
	.loc 1 121 52 is_stmt 0 discriminator 3 view .LVU266
	ldrb	fp, [r3, #-1]	@ zero_extendqisi2
	.loc 1 121 28 discriminator 3 view .LVU267
	ldrb	r2, [r3, #-5]	@ zero_extendqisi2
.LBE114:
	.loc 1 109 17 discriminator 3 view .LVU268
	cmp	r4, r3
.LBB115:
	.loc 1 121 46 discriminator 3 view .LVU269
	add	r2, r2, fp
	.loc 1 121 76 discriminator 3 view .LVU270
	ldrb	fp, [lr, #-5]	@ zero_extendqisi2
	.loc 1 121 70 discriminator 3 view .LVU271
	add	r2, r2, fp
	.loc 1 122 14 discriminator 3 view .LVU272
	ldrb	fp, [ip, #-5]	@ zero_extendqisi2
	.loc 1 121 105 discriminator 3 view .LVU273
	add	r2, r2, fp
	.loc 1 122 50 discriminator 3 view .LVU274
	asr	r2, r2, #2
	.loc 1 121 21 discriminator 3 view .LVU275
	strb	r2, [r1, #-1]
.LBE115:
	.loc 1 109 26 is_stmt 1 discriminator 3 view .LVU276
	.loc 1 109 17 discriminator 3 view .LVU277
	bne	.L60
	.loc 1 108 25 discriminator 2 view .LVU278
	.loc 1 108 16 is_stmt 0 discriminator 2 view .LVU279
	ldr	r2, [sp, #4]
	.loc 1 108 25 discriminator 2 view .LVU280
	add	r6, r6, #1
.LVL72:
	.loc 1 108 16 is_stmt 1 discriminator 2 view .LVU281
	cmp	r8, r6
	add	r3, r9, r7
.LVL73:
	.loc 1 108 16 is_stmt 0 discriminator 2 view .LVU282
	add	r5, r5, r8
	add	r4, r4, r2
	bne	.L59
.LVL74:
.L57:
	.loc 1 126 1 view .LVU283
	add	sp, sp, #12
	.cfi_def_cfa_offset 36
	@ sp needed
	pop	{r4, r5, r6, r7, r8, r9, r10, fp, pc}
	.loc 1 126 1 view .LVU284
	.cfi_endproc
.LFE188:
	.size	downscaleImage, .-downscaleImage
	.section	.rodata.str1.4
	.align	2
.LC2:
	.ascii	"Image size(%d, %d) doesn't match or ptr null(intern"
	.ascii	"al error)\012'\000"
	.align	2
.LC3:
	.ascii	"Couldn't alloc texture memory\000"
	.section	.text.Texture_MapInit,"ax",%progbits
	.align	2
	.global	Texture_MapInit
	.syntax unified
	.arm
	.fpu vfp
	.type	Texture_MapInit, %function
Texture_MapInit:
.LVL75:
.LFB189:
	.loc 1 128 75 is_stmt 1 view -0
	.cfi_startproc
	@ args = 0, pretend = 0, frame = 24
	@ frame_needed = 0, uses_anonymous_args = 0
	.loc 1 129 2 view .LVU286
	.loc 1 130 2 view .LVU287
	.loc 1 134 2 view .LVU288
	.loc 1 135 2 view .LVU289
	.loc 1 137 2 view .LVU290
	.loc 1 128 75 is_stmt 0 view .LVU291
	push	{r4, r5, r6, r7, r8, r9, r10, fp, lr}
	.cfi_def_cfa_offset 36
	.cfi_offset 4, -36
	.cfi_offset 5, -32
	.cfi_offset 6, -28
	.cfi_offset 7, -24
	.cfi_offset 8, -20
	.cfi_offset 9, -16
	.cfi_offset 10, -12
	.cfi_offset 11, -8
	.cfi_offset 14, -4
	vpush.64	{d8}
	.cfi_def_cfa_offset 44
	.cfi_offset 80, -44
	.cfi_offset 81, -40
	mov	r8, r0
	sub	sp, sp, #36
	.cfi_def_cfa_offset 80
	.loc 1 137 32 view .LVU292
	mov	r0, #65536
.LVL76:
	.loc 1 128 75 view .LVU293
	mov	fp, r2
	mov	r5, r1
	.loc 1 137 32 view .LVU294
	bl	linearAlloc
.LVL77:
.LBB116:
	.loc 1 138 46 view .LVU295
	mov	ip, #255
.LBE116:
	.loc 1 137 32 view .LVU296
	mov	r7, r0
.LVL78:
	.loc 1 138 2 is_stmt 1 view .LVU297
.LBB117:
	.loc 1 138 7 view .LVU298
	.loc 1 138 20 view .LVU299
	add	r2, r0, #261120
	sub	r3, r0, #4
	add	r2, r2, #1020
.LVL79:
.L64:
	.loc 1 138 36 discriminator 3 view .LVU300
	.loc 1 138 46 is_stmt 0 discriminator 3 view .LVU301
	str	ip, [r3, #4]!
	.loc 1 138 32 is_stmt 1 discriminator 3 view .LVU302
	.loc 1 138 20 discriminator 3 view .LVU303
	cmp	r3, r2
	bne	.L64
.LBE117:
	.loc 1 140 2 view .LVU304
.LVL80:
	.loc 1 141 2 view .LVU305
	.loc 1 141 14 is_stmt 0 view .LVU306
	ldr	r10, [r5]
.LVL81:
	.loc 1 142 2 is_stmt 1 view .LVU307
	.loc 1 143 2 view .LVU308
	.loc 1 143 58 view .LVU309
	cmp	r10, #0
	cmpne	fp, #0
	ble	.L77
	.loc 1 140 6 is_stmt 0 view .LVU310
	mov	r4, #0
	mov	r6, r8
	.loc 1 129 6 view .LVU311
	vmov	s17, r7	@ int
.LBB118:
	.loc 1 167 4 view .LVU312
	ldr	r9, .L90
.LBE118:
	.loc 1 130 6 view .LVU313
	str	r4, [sp, #12]
	.loc 1 129 6 view .LVU314
	str	r4, [sp, #8]
	b	.L76
.LVL82:
.L69:
.LBB127:
	.loc 1 167 4 is_stmt 1 view .LVU315
	mov	r0, r9
.LVL83:
	.loc 1 167 4 is_stmt 0 view .LVU316
	bl	printf
.LVL84:
	.loc 1 169 3 view .LVU317
	ldr	lr, [sp, #20]
.LVL85:
.L75:
	.loc 1 169 3 is_stmt 1 discriminator 1 view .LVU318
	.loc 1 170 12 is_stmt 0 discriminator 1 view .LVU319
	add	r4, r4, #1
.LVL86:
	.loc 1 169 3 discriminator 1 view .LVU320
	mov	r0, lr
	bl	free
.LVL87:
	.loc 1 170 3 is_stmt 1 discriminator 1 view .LVU321
	.loc 1 170 3 is_stmt 0 discriminator 1 view .LVU322
.LBE127:
	.loc 1 143 58 discriminator 1 view .LVU323
	cmp	r4, #63
	movle	r3, #1
	movgt	r3, #0
	cmp	fp, r4
	movle	r3, #0
.LBB128:
	.loc 1 170 12 discriminator 1 view .LVU324
	ldr	r10, [r5, #4]!
.LVL88:
	.loc 1 171 3 is_stmt 1 discriminator 1 view .LVU325
	.loc 1 171 3 is_stmt 0 discriminator 1 view .LVU326
.LBE128:
	.loc 1 143 58 is_stmt 1 discriminator 1 view .LVU327
	add	r6, r6, #8
	cmp	r10, #0
	moveq	r3, #0
	andne	r3, r3, #1
	cmp	r3, #0
	beq	.L88
.LVL89:
.L76:
.LBB129:
	.loc 1 144 3 view .LVU328
	.loc 1 145 3 view .LVU329
	.loc 1 145 20 is_stmt 0 view .LVU330
	add	r2, sp, #28
	add	r1, sp, #24
	mov	r3, r10
	add	r0, sp, #20
	bl	lodepng_decode32_file
.LVL90:
	.loc 1 146 9 view .LVU331
	ldr	r1, [sp, #24]
	.loc 1 146 20 view .LVU332
	ldr	r2, [sp, #28]
	.loc 1 146 6 view .LVU333
	cmp	r1, #16
.LVL91:
	.loc 1 146 3 is_stmt 1 view .LVU334
	.loc 1 146 6 is_stmt 0 view .LVU335
	bne	.L69
	.loc 1 146 15 discriminator 1 view .LVU336
	cmp	r2, #16
	bne	.L69
	.loc 1 146 35 discriminator 2 view .LVU337
	ldr	lr, [sp, #20]
	.loc 1 146 70 discriminator 2 view .LVU338
	subs	r3, lr, #0
	movne	r3, #1
	cmp	r0, #0
	movne	r3, #0
	cmp	r3, #0
	beq	.L69
	ldr	r3, [sp, #8]
	ldr	r2, [sp, #12]
	mov	r7, lr
	add	ip, r3, r2, lsl #7
	vmov	r3, s17	@ int
.LBB119:
.LBB120:
	.loc 1 147 13 view .LVU339
	mov	r0, #0
.LVL92:
	.loc 1 147 13 view .LVU340
	add	ip, r3, ip, lsl #2
.L72:
.LVL93:
.LBB121:
	.loc 1 148 23 is_stmt 1 view .LVU341
.LBE121:
.LBE120:
.LBE119:
.LBE129:
	.loc 1 129 6 is_stmt 0 view .LVU342
	mov	r1, r7
.LBB130:
.LBB126:
.LBB123:
.LBB122:
	.loc 1 148 14 view .LVU343
	mov	r3, #0
.LVL94:
.L71:
	.loc 1 149 6 is_stmt 1 discriminator 3 view .LVU344
	.loc 1 150 10 is_stmt 0 discriminator 3 view .LVU345
	ldr	r2, [r1, #960]
	.loc 1 148 23 discriminator 3 view .LVU346
	sub	r1, r1, #64
	.loc 1 150 10 discriminator 3 view .LVU347
	rev	r2, r2
	.loc 1 149 46 discriminator 3 view .LVU348
	str	r2, [ip, r3, lsl #9]
	.loc 1 148 30 is_stmt 1 discriminator 3 view .LVU349
	add	r3, r3, #1
.LVL95:
	.loc 1 148 23 discriminator 3 view .LVU350
	cmp	r3, #16
	bne	.L71
.LBE122:
	.loc 1 147 29 discriminator 2 view .LVU351
	add	r0, r0, #1
.LVL96:
	.loc 1 147 22 discriminator 2 view .LVU352
	cmp	r0, #16
	add	r7, r7, #4
	add	ip, ip, #4
	bne	.L72
.LVL97:
	.loc 1 147 22 is_stmt 0 discriminator 2 view .LVU353
.LBE123:
.LBB124:
.LBB125:
	.loc 1 17 9 is_stmt 1 view .LVU354
	.loc 1 17 14 is_stmt 0 view .LVU355
	ldrb	r2, [r10], #1	@ zero_extendqisi2
.LVL98:
	.loc 1 15 16 view .LVU356
	ldr	r3, .L90+4
.LVL99:
	.loc 1 17 9 view .LVU357
	cmp	r2, #0
	beq	.L74
.LVL100:
.L73:
	.loc 1 17 23 is_stmt 1 view .LVU358
	add	r3, r3, r3, lsl #5
.LVL101:
	.loc 1 17 28 is_stmt 0 view .LVU359
	add	r3, r2, r3
.LVL102:
	.loc 1 17 9 is_stmt 1 view .LVU360
	.loc 1 17 14 is_stmt 0 view .LVU361
	ldrb	r2, [r10], #1	@ zero_extendqisi2
.LVL103:
	.loc 1 17 9 view .LVU362
	cmp	r2, #0
	bne	.L73
.LVL104:
.L74:
	.loc 1 18 2 is_stmt 1 view .LVU363
	.loc 1 18 2 is_stmt 0 view .LVU364
.LBE125:
.LBE124:
	.loc 1 156 12 view .LVU365
	ldr	r2, [sp, #8]
	.loc 1 155 22 view .LVU366
	str	r3, [r6, #24]
	.loc 1 156 4 is_stmt 1 view .LVU367
	.loc 1 156 12 is_stmt 0 view .LVU368
	lsl	r3, r2, #8
	strh	r3, [r6, #28]	@ movhi
	.loc 1 157 4 is_stmt 1 view .LVU369
	.loc 1 161 9 is_stmt 0 view .LVU370
	add	r3, r2, #16
	str	r3, [sp, #8]
.LVL105:
	.loc 1 162 7 view .LVU371
	cmp	r3, #128
	.loc 1 157 12 view .LVU372
	ldr	r3, [sp, #12]
	lsl	r3, r3, #8
	strh	r3, [r6, #30]	@ movhi
	.loc 1 161 4 is_stmt 1 view .LVU373
.LVL106:
	.loc 1 162 4 view .LVU374
	.loc 1 162 7 is_stmt 0 view .LVU375
	bne	.L75
	.loc 1 163 5 is_stmt 1 view .LVU376
	.loc 1 163 10 is_stmt 0 view .LVU377
	ldr	r3, [sp, #12]
	add	r3, r3, #16
	str	r3, [sp, #12]
.LVL107:
	.loc 1 164 5 is_stmt 1 view .LVU378
	.loc 1 164 10 is_stmt 0 view .LVU379
	mov	r3, #0
.LVL108:
	.loc 1 164 10 view .LVU380
	str	r3, [sp, #8]
	b	.L75
.LVL109:
.L88:
	.loc 1 164 10 view .LVU381
.LBE126:
.LBE130:
	vmov	r7, s17	@ int
.LVL110:
.L77:
	.loc 1 174 2 is_stmt 1 view .LVU382
	mov	r1, #65536
	mov	r0, r7
	bl	GSPGPU_FlushDataCache
.LVL111:
	.loc 1 175 2 view .LVU383
.LBB131:
	.loc 1 176 27 is_stmt 0 view .LVU384
	ldr	r3, .L90+8
	.loc 1 175 7 view .LVU385
	mov	r1, #0
	ldrd	r2, [r3]
	mov	r0, r8
	bl	C3D_TexInitWithParams
.LVL112:
	.loc 1 175 5 view .LVU386
	cmp	r0, #0
	beq	.L89
.L66:
.LBE131:
	.loc 1 178 2 is_stmt 1 view .LVU387
.LVL113:
.LBB132:
.LBI132:
	.loc 2 157 20 view .LVU388
.LBB133:
	.loc 2 159 2 view .LVU389
	.loc 2 160 2 view .LVU390
.LBE133:
.LBE132:
	.loc 1 180 2 is_stmt 0 view .LVU391
	mov	ip, #3
	.loc 1 186 12 view .LVU392
	mov	r6, #16384
.LBB136:
.LBB134:
	.loc 2 159 13 view .LVU393
	ldr	r2, [r8, #12]
.LBE134:
.LBE136:
	.loc 1 180 2 view .LVU394
	ldr	r3, .L90+12
.LBB137:
.LBB135:
	.loc 2 159 13 view .LVU395
	bic	r2, r2, #6
	.loc 2 160 13 view .LVU396
	str	r2, [r8, #12]
.LVL114:
	.loc 2 160 13 view .LVU397
.LBE135:
.LBE137:
	.loc 1 180 2 is_stmt 1 view .LVU398
	mov	r1, r3
	ldr	r2, [r8]
	mov	r0, r7
	str	ip, [sp]
	bl	C3D_SyncDisplayTransfer
.LVL115:
	.loc 1 185 2 view .LVU399
	.loc 1 186 2 view .LVU400
	.loc 1 188 2 view .LVU401
	.loc 1 188 20 is_stmt 0 view .LVU402
	mov	r0, r6
	bl	linearAlloc
.LVL116:
	mov	r10, #2
.LVL117:
	.loc 1 185 6 view .LVU403
	mov	r4, #64
	.loc 1 188 20 view .LVU404
	mov	r5, r0
.LVL118:
	.loc 1 190 2 is_stmt 1 view .LVU405
.LBB138:
	.loc 1 190 7 view .LVU406
	.loc 1 190 20 view .LVU407
.L78:
	.loc 1 191 3 discriminator 3 view .LVU408
	.loc 1 195 42 is_stmt 0 discriminator 3 view .LVU409
	mul	r9, r4, r4
	.loc 1 191 3 discriminator 3 view .LVU410
	mov	r0, r7
	mov	r1, r4
	bl	downscaleImage
.LVL119:
	.loc 1 193 3 is_stmt 1 discriminator 3 view .LVU411
	mov	r3, r4
	mov	r2, r4
	mov	r1, r5
	bl	tileImage32
.LVL120:
	.loc 1 195 3 discriminator 3 view .LVU412
	.loc 1 195 49 is_stmt 0 discriminator 3 view .LVU413
	lsl	r2, r9, #2
	.loc 1 195 3 discriminator 3 view .LVU414
	mov	r1, r2
	mov	r0, r5
	str	r2, [sp, #8]
	bl	GSPGPU_FlushDataCache
.LVL121:
	.loc 1 197 3 is_stmt 1 discriminator 3 view .LVU415
	ldr	r1, [r8]
	ldr	r2, [sp, #8]
	add	r1, r1, r6, lsl #2
	mov	r0, r5
	bl	GX_RequestDma
.LVL122:
	.loc 1 198 3 discriminator 3 view .LVU416
	.loc 1 201 8 is_stmt 0 discriminator 3 view .LVU417
	add	r4, r4, r4, lsr #31
.LVL123:
	.loc 1 198 3 discriminator 3 view .LVU418
	bl	gspWaitForAnyEvent
.LVL124:
	.loc 1 200 3 is_stmt 1 discriminator 3 view .LVU419
	.loc 1 190 20 is_stmt 0 discriminator 3 view .LVU420
	cmp	r10, #1
	.loc 1 200 10 discriminator 3 view .LVU421
	add	r6, r6, r9
.LVL125:
	.loc 1 201 3 is_stmt 1 discriminator 3 view .LVU422
	.loc 1 201 8 is_stmt 0 discriminator 3 view .LVU423
	asr	r4, r4, #1
.LVL126:
	.loc 1 190 37 is_stmt 1 discriminator 3 view .LVU424
	.loc 1 190 20 discriminator 3 view .LVU425
	bne	.L80
.LBE138:
	.loc 1 204 2 view .LVU426
	mov	r0, r5
	bl	linearFree
.LVL127:
	.loc 1 205 2 view .LVU427
	mov	r0, r7
	.loc 1 206 1 is_stmt 0 view .LVU428
	add	sp, sp, #36
	.cfi_remember_state
	.cfi_def_cfa_offset 44
	@ sp needed
	vldm	sp!, {d8}
	.cfi_restore 80
	.cfi_restore 81
	.cfi_def_cfa_offset 36
	pop	{r4, r5, r6, r7, r8, r9, r10, fp, lr}
	.cfi_restore 14
	.cfi_restore 11
	.cfi_restore 10
	.cfi_restore 9
	.cfi_restore 8
	.cfi_restore 7
	.cfi_restore 6
	.cfi_restore 5
	.cfi_restore 4
	.cfi_def_cfa_offset 0
.LVL128:
	.loc 1 205 2 view .LVU429
	b	linearFree
.LVL129:
.L80:
	.cfi_restore_state
.LBB139:
	.loc 1 205 2 view .LVU430
	mov	r10, #1
.LVL130:
	.loc 1 205 2 view .LVU431
	b	.L78
.LVL131:
.L89:
	.loc 1 205 2 view .LVU432
.LBE139:
.LBB140:
	.loc 1 177 3 is_stmt 1 view .LVU433
	ldr	r0, .L90+16
	bl	puts
.LVL132:
	b	.L66
.L91:
	.align	2
.L90:
	.word	.LC2
	.word	5381
	.word	.LANCHOR0
	.word	8388736
	.word	.LC3
.LBE140:
	.cfi_endproc
.LFE189:
	.size	Texture_MapInit, .-Texture_MapInit
	.section	.text.Texture_MapGetIcon,"ax",%progbits
	.align	2
	.global	Texture_MapGetIcon
	.syntax unified
	.arm
	.fpu vfp
	.type	Texture_MapGetIcon, %function
Texture_MapGetIcon:
.LVL133:
.LFB190:
	.loc 1 208 70 view -0
	.cfi_startproc
	@ args = 0, pretend = 0, frame = 0
	@ frame_needed = 0, uses_anonymous_args = 0
	.loc 1 209 2 view .LVU435
.LBB141:
.LBI141:
	.loc 1 14 10 view .LVU436
.LBB142:
	.loc 1 15 2 view .LVU437
	.loc 1 16 2 view .LVU438
	.loc 1 17 2 view .LVU439
	.loc 1 17 9 view .LVU440
	.loc 1 17 9 is_stmt 0 view .LVU441
.LBE142:
.LBE141:
	.loc 1 208 70 view .LVU442
	push	{r4, lr}
	.cfi_def_cfa_offset 8
	.cfi_offset 4, -8
	.cfi_offset 14, -4
.LBB145:
.LBB143:
	.loc 1 17 14 view .LVU443
	ldrb	r3, [r2], #1	@ zero_extendqisi2
.LVL134:
	.loc 1 17 14 view .LVU444
.LBE143:
.LBE145:
	.loc 1 208 70 view .LVU445
	mov	r4, r0
.LBB146:
.LBB144:
	.loc 1 17 9 view .LVU446
	cmp	r3, #0
	.loc 1 15 16 view .LVU447
	ldr	ip, .L103
	.loc 1 17 9 view .LVU448
	beq	.L93
.LVL135:
.L94:
	.loc 1 17 23 is_stmt 1 view .LVU449
	add	ip, ip, ip, lsl #5
.LVL136:
	.loc 1 17 28 is_stmt 0 view .LVU450
	add	ip, r3, ip
.LVL137:
	.loc 1 17 9 is_stmt 1 view .LVU451
	.loc 1 17 14 is_stmt 0 view .LVU452
	ldrb	r3, [r2], #1	@ zero_extendqisi2
.LVL138:
	.loc 1 17 9 view .LVU453
	cmp	r3, #0
	bne	.L94
.LVL139:
.L93:
	.loc 1 17 9 view .LVU454
.LBE144:
.LBE146:
.LBB147:
	.loc 1 210 14 view .LVU455
	mov	r3, #0
	add	lr, r1, #24
	b	.L97
.LVL140:
.L95:
	.loc 1 210 51 discriminator 2 view .LVU456
	add	r3, r3, #1
.LVL141:
	.loc 1 210 23 is_stmt 1 discriminator 2 view .LVU457
	cmp	r3, #64
	beq	.L102
.LVL142:
.L97:
	.loc 1 211 3 view .LVU458
	.loc 1 210 51 view .LVU459
	.loc 1 211 6 is_stmt 0 view .LVU460
	ldr	r2, [lr, r3, lsl #3]
	cmp	r2, ip
	bne	.L95
	.loc 1 212 4 is_stmt 1 view .LVU461
	.loc 1 212 21 is_stmt 0 view .LVU462
	add	r3, r3, #3
.LVL143:
	.loc 1 212 21 view .LVU463
	add	r1, r1, r3, lsl #3
.LVL144:
	.loc 1 212 21 view .LVU464
	ldm	r1, {r0, r1}
.LVL145:
	.loc 1 212 21 view .LVU465
	stm	r4, {r0, r1}
.LBE147:
	.loc 1 216 1 view .LVU466
	mov	r0, r4
	pop	{r4, pc}
.LVL146:
.L102:
	.loc 1 215 2 is_stmt 1 view .LVU467
	.loc 1 215 9 is_stmt 0 view .LVU468
	mov	r3, #0
.LVL147:
	.loc 1 216 1 view .LVU469
	mov	r0, r4
.LVL148:
	.loc 1 215 9 view .LVU470
	str	r3, [r4]
	str	r3, [r4, #4]
	.loc 1 216 1 view .LVU471
	pop	{r4, pc}
.L104:
	.align	2
.L103:
	.word	5381
	.cfi_endproc
.LFE190:
	.size	Texture_MapGetIcon, .-Texture_MapGetIcon
	.section	.rodata
	.align	3
	.set	.LANCHOR0,. + 0
.LC0:
	.short	128
	.short	128
	.byte	2
	.byte	8
	.space	2
	.text
.Letext0:
	.file 3 "/opt/devkitpro/devkitARM/arm-none-eabi/include/machine/_default_types.h"
	.file 4 "/opt/devkitpro/devkitARM/arm-none-eabi/include/sys/_stdint.h"
	.file 5 "/opt/devkitpro/devkitARM/lib/gcc/arm-none-eabi/11.2.0/include/stddef.h"
	.file 6 "/opt/devkitpro/libctru/include/3ds/types.h"
	.file 7 "/opt/devkitpro/libctru/include/3ds/services/gspgpu.h"
	.file 8 "/opt/devkitpro/libctru/include/3ds/gpu/gx.h"
	.file 9 "/opt/devkitpro/libctru/include/3ds/gpu/enums.h"
	.file 10 "/home/tobi/Dokumente/Craftus-Next/include/rendering/TextureMap.h"
	.file 11 "/opt/devkitpro/devkitARM/arm-none-eabi/include/stdio.h"
	.file 12 "/home/tobi/Dokumente/Craftus-Next/include/misc/Crash.h"
	.file 13 "/opt/devkitpro/libctru/include/3ds/allocator/linear.h"
	.file 14 "/opt/devkitpro/libctru/include/c3d/renderqueue.h"
	.file 15 "/opt/devkitpro/devkitARM/arm-none-eabi/include/stdlib.h"
	.file 16 "/home/tobi/Dokumente/Craftus-Next/dependencies/lodepng/lodepng.h"
	.file 17 "<built-in>"