	.arch armv6k
	.eabi_attribute 28, 1
	.eabi_attribute 20, 1
	.eabi_attribute 21, 1
	.eabi_attribute 23, 3
	.eabi_attribute 24, 1
	.eabi_attribute 25, 1
	.eabi_attribute 26, 1
	.eabi_attribute 30, 2
	.eabi_attribute 34, 1
	.eabi_attribute 18, 4
	.file	"VBOCache.c"
	.text
.Ltext0:
	.cfi_sections	.debug_frame
	.section	.text.sort_by_size,"ax",%progbits
	.align	2
	.syntax unified
	.arm
	.fpu vfp
	.type	sort_by_size, %function
sort_by_size:
.LVL0:
.LFB103:
	.file 1 "/home/tobi/Dokumente/Craftus-Next/source/rendering/VBOCache.c"
	.loc 1 42 55 view -0
	.cfi_startproc
	@ args = 0, pretend = 0, frame = 0
	@ frame_needed = 0, uses_anonymous_args = 0
	@ link register save eliminated.
	.loc 1 42 57 view .LVU1
	.loc 1 42 86 is_stmt 0 view .LVU2
	ldr	r3, [r0]
	ldr	r0, [r1]
.LVL1:
	.loc 1 42 111 view .LVU3
	sub	r0, r0, r3
	bx	lr
	.cfi_endproc
.LFE103:
	.size	sort_by_size, .-sort_by_size
	.section	.text.VBOCache_Init,"ax",%progbits
	.align	2
	.global	VBOCache_Init
	.syntax unified
	.arm
	.fpu vfp
	.type	VBOCache_Init, %function
VBOCache_Init:
.LFB100:
	.loc 1 11 22 is_stmt 1 view -0
	.cfi_startproc
	@ args = 0, pretend = 0, frame = 0
	@ frame_needed = 0, uses_anonymous_args = 0
	@ link register save eliminated.
	.loc 1 12 2 view .LVU5
	mov	r2, #0
	ldr	r3, .L4
	.loc 1 13 2 is_stmt 0 view .LVU6
	add	r0, r3, #12
	.loc 1 12 2 view .LVU7
	str	r2, [r3]
	str	r2, [r3, #4]
	str	r2, [r3, #8]
	.loc 1 13 2 is_stmt 1 view .LVU8
	b	LightLock_Init
.LVL2:
.L5:
	.align	2
.L4:
	.word	.LANCHOR0
	.cfi_endproc
.LFE100:
	.size	VBOCache_Init, .-VBOCache_Init
	.section	.text.VBOCache_Deinit,"ax",%progbits
	.align	2
	.global	VBOCache_Deinit
	.syntax unified
	.arm
	.fpu vfp
	.type	VBOCache_Deinit, %function
VBOCache_Deinit:
.LFB101:
	.loc 1 15 24 view -0
	.cfi_startproc
	@ args = 0, pretend = 0, frame = 0
	@ frame_needed = 0, uses_anonymous_args = 0
	.loc 1 16 2 view .LVU10
	.loc 1 17 2 view .LVU11
	.loc 1 18 2 view .LVU12
	.loc 1 15 24 is_stmt 0 view .LVU13
	push	{r4, r5, r6, lr}
	.cfi_def_cfa_offset 16
	.cfi_offset 4, -16
	.cfi_offset 5, -12
	.cfi_offset 6, -8
	.cfi_offset 14, -4
	.loc 1 18 21 view .LVU14
	ldr	r5, .L11
	.loc 1 18 5 view .LVU15
	ldr	r3, [r5, #4]
	cmp	r3, #0
	ble	.L7
	.loc 1 18 46 view .LVU16
	mov	r4, #0
.L8:
.LVL3:
	.loc 1 18 136 is_stmt 1 discriminator 4 view .LVU17
	.loc 1 18 93 is_stmt 0 discriminator 4 view .LVU18
	ldr	r3, [r5]
	add	r3, r3, r4, lsl #3
	.loc 1 18 136 discriminator 4 view .LVU19
	ldr	r0, [r3, #4]
	bl	linearFree
.LVL4:
	.loc 1 18 127 is_stmt 1 discriminator 4 view .LVU20
	.loc 1 18 80 is_stmt 0 discriminator 4 view .LVU21
	ldr	r3, [r5, #4]
	.loc 1 18 127 discriminator 4 view .LVU22
	add	r4, r4, #1
.LVL5:
	.loc 1 18 80 is_stmt 1 discriminator 4 view .LVU23
	cmp	r3, r4
	bgt	.L8
.LVL6:
.L7:
	.loc 1 19 2 view .LVU24
	.loc 1 19 4 is_stmt 0 view .LVU25
	ldr	r0, [r5]
	bl	free
.LVL7:
	.loc 1 19 32 view .LVU26
	mov	r3, #0
	str	r3, [r5]
	str	r3, [r5, #4]
	str	r3, [r5, #8]
	.loc 1 20 1 view .LVU27
	pop	{r4, r5, r6, pc}
.L12:
	.align	2
.L11:
	.word	.LANCHOR0
	.cfi_endproc
.LFE101:
	.size	VBOCache_Deinit, .-VBOCache_Deinit
	.section	.text.VBO_Alloc,"ax",%progbits
	.align	2
	.global	VBO_Alloc
	.syntax unified
	.arm
	.fpu vfp
	.type	VBO_Alloc, %function
VBO_Alloc:
.LVL8:
.LFB102:
	.loc 1 22 34 is_stmt 1 view -0
	.cfi_startproc
	@ args = 0, pretend = 0, frame = 0
	@ frame_needed = 0, uses_anonymous_args = 0
	.loc 1 23 2 view .LVU29
	.loc 1 22 34 is_stmt 0 view .LVU30
	push	{r4, r5, r6, r7, lr}
	.cfi_def_cfa_offset 20
	.cfi_offset 4, -20
	.cfi_offset 5, -16
	.cfi_offset 6, -12
	.cfi_offset 7, -8
	.cfi_offset 14, -4
	.loc 1 23 2 view .LVU31
	ldr	r6, .L22
	.loc 1 22 34 view .LVU32
	mov	r5, r0
	sub	sp, sp, #12
	.cfi_def_cfa_offset 32
	.loc 1 23 2 view .LVU33
	add	r0, r6, #12
.LVL9:
	.loc 1 22 34 view .LVU34
	mov	r4, r1
	.loc 1 23 2 view .LVU35
	bl	LightLock_Lock
.LVL10:
	.loc 1 24 2 is_stmt 1 view .LVU36
	.loc 1 24 17 is_stmt 0 view .LVU37
	ldr	lr, [r6, #4]
	.loc 1 24 5 view .LVU38
	cmp	lr, #0
	ble	.L14
.LBB2:
	.loc 1 27 110 view .LVU39
	ldr	r0, [r6]
	.loc 1 27 47 view .LVU40
	mov	r3, #0
	mov	r1, r0
.L15:
.LVL11:
	.loc 1 27 94 discriminator 4 view .LVU41
	ldr	r2, [r0, r3, lsl #3]
.LVL12:
	.loc 1 28 4 is_stmt 1 discriminator 4 view .LVU42
	.loc 1 28 7 is_stmt 0 discriminator 4 view .LVU43
	cmp	r2, r4
	.loc 1 28 41 discriminator 4 view .LVU44
	sub	ip, r2, r4
	.loc 1 28 7 discriminator 4 view .LVU45
	bcc	.L16
	.loc 1 28 27 discriminator 1 view .LVU46
	cmp	ip, #2048
	bls	.L21
.L16:
	.loc 1 27 128 is_stmt 1 discriminator 3 view .LVU47
	add	r3, r3, #1
.LVL13:
	.loc 1 27 81 discriminator 3 view .LVU48
	cmp	lr, r3
	add	r1, r1, #8
.LVL14:
	.loc 1 27 81 is_stmt 0 discriminator 3 view .LVU49
	bne	.L15
.LVL15:
.L14:
	.loc 1 27 81 discriminator 3 view .LVU50
.LBE2:
	.loc 1 35 2 is_stmt 1 view .LVU51
	.loc 1 36 2 view .LVU52
	.loc 1 36 17 is_stmt 0 view .LVU53
	mov	r0, r4
	bl	linearAlloc
.LVL16:
	mov	r7, r0
	.loc 1 38 2 view .LVU54
	ldr	r0, .L22+4
.LVL17:
	.loc 1 37 2 is_stmt 1 view .LVU55
	.loc 1 38 2 view .LVU56
	bl	LightLock_Unlock
.LVL18:
	.loc 1 39 2 view .LVU57
	.loc 1 40 1 is_stmt 0 view .LVU58
	mov	r0, r5
.LBB3:
	.loc 1 31 12 view .LVU59
	stm	r5, {r4, r7}
.LVL19:
	.loc 1 31 12 view .LVU60
.LBE3:
	.loc 1 40 1 view .LVU61
	add	sp, sp, #12
	.cfi_remember_state
	.cfi_def_cfa_offset 20
	@ sp needed
	pop	{r4, r5, r6, r7, pc}
.LVL20:
.L21:
	.cfi_restore_state
.LBB4:
	.loc 1 27 94 view .LVU62
	mov	r4, r2
.LVL21:
	.loc 1 29 7 view .LVU63
	mov	r2, #1
.LVL22:
	.loc 1 27 94 view .LVU64
	ldr	r7, [r1, #4]
	.loc 1 29 5 is_stmt 1 view .LVU65
	.loc 1 29 7 is_stmt 0 view .LVU66
	str	r2, [sp, #4]
.LVL23:
	.loc 1 29 7 view .LVU67
	ldr	r2, .L22+8
	str	r3, [sp]
	sub	r0, r2, #8
	sub	r1, r2, #4
	mov	r3, #8
.LVL24:
	.loc 1 29 7 view .LVU68
	bl	vec_splice_
.LVL25:
	.loc 1 29 163 view .LVU69
	ldr	r3, [r6, #4]
	.loc 1 30 5 view .LVU70
	ldr	r0, .L22+4
	.loc 1 29 163 view .LVU71
	sub	r3, r3, #1
	str	r3, [r6, #4]
	.loc 1 30 5 is_stmt 1 view .LVU72
	bl	LightLock_Unlock
.LVL26:
	.loc 1 31 5 view .LVU73
	.loc 1 31 5 is_stmt 0 view .LVU74
.LBE4:
	.loc 1 40 1 view .LVU75
	mov	r0, r5
.LBB5:
	.loc 1 31 12 view .LVU76
	stm	r5, {r4, r7}
.LBE5:
	.loc 1 40 1 view .LVU77
	add	sp, sp, #12
	.cfi_def_cfa_offset 20
	@ sp needed
	pop	{r4, r5, r6, r7, pc}
.LVL27:
.L23:
	.loc 1 40 1 view .LVU78
	.align	2
.L22:
	.word	.LANCHOR0
	.word	.LANCHOR0+12
	.word	.LANCHOR0+8
	.cfi_endproc
.LFE102:
	.size	VBO_Alloc, .-VBO_Alloc
	.section	.text.VBO_Free,"ax",%progbits
	.align	2
	.global	VBO_Free
	.syntax unified
	.arm
	.fpu vfp
	.type	VBO_Free, %function
VBO_Free:
.LFB104:
	.loc 1 44 32 is_stmt 1 view -0
	.cfi_startproc
	@ args = 0, pretend = 0, frame = 8
	@ frame_needed = 0, uses_anonymous_args = 0
	.loc 1 45 2 view .LVU80
	.loc 1 44 32 is_stmt 0 view .LVU81
	push	{r4, r5, lr}
	.cfi_def_cfa_offset 12
	.cfi_offset 4, -12
	.cfi_offset 5, -8
	.cfi_offset 14, -4
	sub	sp, sp, #12
	.cfi_def_cfa_offset 24
	.loc 1 44 32 view .LVU82
	mov	r4, sp
	.loc 1 45 5 view .LVU83
	subs	r3, r0, #0
	.loc 1 44 32 view .LVU84
	stm	r4, {r0, r1}
	.loc 1 45 5 view .LVU85
	beq	.L24
	.loc 1 45 21 discriminator 1 view .LVU86
	cmp	r1, #0
	beq	.L24
	.loc 1 46 3 is_stmt 1 view .LVU87
	ldr	r5, .L35
	add	r0, r5, #12
	bl	LightLock_Lock
.LVL28:
	.loc 1 47 3 view .LVU88
	.loc 1 47 5 is_stmt 0 view .LVU89
	mov	r3, #8
	add	r1, r5, #4
	add	r2, r5, r3
	mov	r0, r5
	bl	vec_expand_
.LVL29:
	.loc 1 47 136 view .LVU90
	cmp	r0, #0
	.loc 1 47 153 view .LVU91
	ldrdeq	r2, [r5]
	.loc 1 47 182 view .LVU92
	addeq	ip, r3, #1
	.loc 1 47 186 view .LVU93
	addeq	r3, r2, r3, lsl #3
	.loc 1 47 174 view .LVU94
	ldmne	r5, {r2, ip}
	.loc 1 47 186 view .LVU95
	ldrdeq	r0, [r4]
	.loc 1 47 182 view .LVU96
	streq	ip, [r5, #4]
	.loc 1 47 186 view .LVU97
	strdeq	r0, [r3]
	.loc 1 48 3 is_stmt 1 view .LVU98
	mov	r0, r2
	mov	r1, ip
	mov	r2, #8
	ldr	r3, .L35+4
	bl	qsort
.LVL30:
	.loc 1 49 3 view .LVU99
	ldr	r0, .L35+8
	.loc 1 51 1 is_stmt 0 view .LVU100
	add	sp, sp, #12
	.cfi_remember_state
	.cfi_def_cfa_offset 12
	@ sp needed
	pop	{r4, r5, lr}
	.cfi_restore 14
	.cfi_restore 5
	.cfi_restore 4
	.cfi_def_cfa_offset 0
	.loc 1 49 3 view .LVU101
	b	LightLock_Unlock
.LVL31:
.L24:
	.cfi_restore_state
	.loc 1 51 1 view .LVU102
	add	sp, sp, #12
	.cfi_def_cfa_offset 12
	@ sp needed
	pop	{r4, r5, pc}
.L36:
	.align	2
.L35:
	.word	.LANCHOR0
	.word	sort_by_size
	.word	.LANCHOR0+12
	.cfi_endproc
.LFE104:
	.size	VBO_Free, .-VBO_Free
	.bss
	.align	2
	.set	.LANCHOR0,. + 0
	.type	freedBlocks, %object
	.size	freedBlocks, 12
freedBlocks:
	.space	12
	.type	lock, %object
	.size	lock, 4
lock:
	.space	4
	.text
.Letext0:
	.file 2 "/opt/devkitpro/devkitARM/arm-none-eabi/include/machine/_default_types.h"
	.file 3 "/opt/devkitpro/devkitARM/lib/gcc/arm-none-eabi/11.2.0/include/stddef.h"
	.file 4 "/opt/devkitpro/devkitARM/arm-none-eabi/include/sys/_stdint.h"
	.file 5 "/opt/devkitpro/devkitARM/arm-none-eabi/include/sys/lock.h"
	.file 6 "/home/tobi/Dokumente/Craftus-Next/include/rendering/VBOCache.h"
	.file 7 "/opt/devkitpro/devkitARM/arm-none-eabi/include/stdlib.h"
	.file 8 "/opt/devkitpro/libctru/include/3ds/synchronization.h"
	.file 9 "/opt/devkitpro/libctru/include/3ds/services/csnd.h"
	.file 10 "/opt/devkitpro/libctru/include/3ds/services/ndm.h"
	.file 11 "/opt/devkitpro/libctru/include/3ds/gpu/enums.h"
	.file 12 "/opt/devkitpro/libctru/include/3ds/ndsp/channel.h"
	.file 13 "/opt/devkitpro/libctru/include/3ds/applets/error.h"
	.file 14 "/home/tobi/Dokumente/Craftus-Next/dependencies/vec/vec.h"
	.file 15 "/opt/devkitpro/libctru/include/3ds/allocator/linear.h"
	.file 16 "/opt/devkitpro/devkitARM/arm-none-eabi/include/string.h"
	.file 17 "/opt/devkitpro/libctru/include/3ds/types.h"