	.arch armv6k
	.eabi_attribute 28, 1
	.eabi_attribute 20, 1
	.eabi_attribute 21, 1
	.eabi_attribute 23, 3
	.eabi_attribute 24, 1
	.eabi_attribute 25, 1
	.eabi_attribute 26, 1
	.eabi_attribute 30, 2
	.eabi_attribute 34, 1
	.eabi_attribute 18, 4
	.file	"vec.c"
	.text
.Ltext0:
	.cfi_sections	.debug_frame
	.section	.text.vec_expand_,"ax",%progbits
	.align	2
	.global	vec_expand_
	.syntax unified
	.arm
	.fpu vfp
	.type	vec_expand_, %function
vec_expand_:
.LVL0:
.LFB0:
	.file 1 "/home/tobi/Dokumente/Craftus-Next/dependencies/vec/vec.c"
	.loc 1 11 69 view -0
	.cfi_startproc
	@ args = 0, pretend = 0, frame = 0
	@ frame_needed = 0, uses_anonymous_args = 0
	.loc 1 12 3 view .LVU1
	.loc 1 11 69 is_stmt 0 view .LVU2
	push	{r4, r5, r6, lr}
	.cfi_def_cfa_offset 16
	.cfi_offset 4, -16
	.cfi_offset 5, -12
	.cfi_offset 6, -8
	.cfi_offset 14, -4
	.loc 1 12 6 view .LVU3
	ldr	r1, [r1]
.LVL1:
	.loc 1 11 69 view .LVU4
	mov	r4, r2
	.loc 1 12 21 view .LVU5
	ldr	r2, [r2]
.LVL2:
	.loc 1 12 6 view .LVU6
	cmp	r1, r2
	blt	.L4
.LBB6:
	.loc 1 14 34 view .LVU7
	cmp	r2, #0
	lslne	r5, r2, #1
	.loc 1 15 28 view .LVU8
	mulne	r3, r5, r3
.LVL3:
	.loc 1 15 28 view .LVU9
	mov	r6, r0
	.loc 1 13 5 is_stmt 1 view .LVU10
	.loc 1 14 5 view .LVU11
	.loc 1 15 11 is_stmt 0 view .LVU12
	mov	r1, r3
	ldr	r0, [r0]
.LVL4:
	.loc 1 14 34 view .LVU13
	moveq	r5, #1
.LVL5:
	.loc 1 15 5 is_stmt 1 view .LVU14
	.loc 1 15 11 is_stmt 0 view .LVU15
	bl	realloc
.LVL6:
	.loc 1 16 5 is_stmt 1 view .LVU16
	.loc 1 16 8 is_stmt 0 view .LVU17
	cmp	r0, #0
	.loc 1 16 8 view .LVU18
	beq	.L6
	.loc 1 17 5 is_stmt 1 view .LVU19
	.loc 1 17 11 is_stmt 0 view .LVU20
	str	r0, [r6]
	.loc 1 18 5 is_stmt 1 view .LVU21
.LBE6:
	.loc 1 20 10 is_stmt 0 view .LVU22
	mov	r0, #0
.LVL7:
.LBB7:
	.loc 1 18 15 view .LVU23
	str	r5, [r4]
	pop	{r4, r5, r6, pc}
.LVL8:
.L4:
	.loc 1 18 15 view .LVU24
.LBE7:
	.loc 1 20 10 view .LVU25
	mov	r0, #0
.LVL9:
	.loc 1 20 10 view .LVU26
	pop	{r4, r5, r6, pc}
.LVL10:
.L6:
.LBB8:
	.loc 1 16 28 view .LVU27
	mvn	r0, #0
.LVL11:
	.loc 1 16 28 view .LVU28
.LBE8:
	.loc 1 21 1 view .LVU29
	pop	{r4, r5, r6, pc}
	.cfi_endproc
.LFE0:
	.size	vec_expand_, .-vec_expand_
	.section	.text.vec_reserve_,"ax",%progbits
	.align	2
	.global	vec_reserve_
	.syntax unified
	.arm
	.fpu vfp
	.type	vec_reserve_, %function
vec_reserve_:
.LVL12:
.LFB1:
	.loc 1 24 77 is_stmt 1 view -0
	.cfi_startproc
	@ args = 4, pretend = 0, frame = 0
	@ frame_needed = 0, uses_anonymous_args = 0
	.loc 1 25 3 view .LVU31
	.loc 1 26 3 view .LVU32
	.loc 1 24 77 is_stmt 0 view .LVU33
	push	{r4, r5, r6, lr}
	.cfi_def_cfa_offset 16
	.cfi_offset 4, -16
	.cfi_offset 5, -12
	.cfi_offset 6, -8
	.cfi_offset 14, -4
	.loc 1 24 77 view .LVU34
	ldr	r6, [sp, #16]
	mov	r4, r2
	.loc 1 26 6 view .LVU35
	ldr	r2, [r2]
.LVL13:
	.loc 1 26 6 view .LVU36
	cmp	r2, r6
	blt	.L14
	.loc 1 32 10 view .LVU37
	mov	r0, #0
.LVL14:
	.loc 1 32 10 view .LVU38
	pop	{r4, r5, r6, pc}
.LVL15:
.L14:
.LBB12:
.LBI12:
	.loc 1 24 5 is_stmt 1 view .LVU39
.LBB13:
.LBB14:
	.loc 1 27 5 view .LVU40
	mov	r5, r0
	.loc 1 27 17 is_stmt 0 view .LVU41
	mul	r1, r3, r6
.LVL16:
	.loc 1 27 17 view .LVU42
	ldr	r0, [r0]
.LVL17:
	.loc 1 27 17 view .LVU43
	bl	realloc
.LVL18:
	.loc 1 28 5 is_stmt 1 view .LVU44
	.loc 1 28 8 is_stmt 0 view .LVU45
	cmp	r0, #0
	.loc 1 28 8 view .LVU46
	beq	.L12
	.loc 1 29 5 is_stmt 1 view .LVU47
	.loc 1 29 11 is_stmt 0 view .LVU48
	str	r0, [r5]
	.loc 1 30 5 is_stmt 1 view .LVU49
.LBE14:
	.loc 1 32 10 is_stmt 0 view .LVU50
	mov	r0, #0
.LVL19:
.LBB15:
	.loc 1 30 15 view .LVU51
	str	r6, [r4]
	pop	{r4, r5, r6, pc}
.LVL20:
.L12:
	.loc 1 28 28 view .LVU52
	mvn	r0, #0
.LVL21:
	.loc 1 28 28 view .LVU53
.LBE15:
.LBE13:
.LBE12:
	.loc 1 33 1 view .LVU54
	pop	{r4, r5, r6, pc}
	.cfi_endproc
.LFE1:
	.size	vec_reserve_, .-vec_reserve_
	.section	.text.vec_reserve_po2_,"ax",%progbits
	.align	2
	.global	vec_reserve_po2_
	.syntax unified
	.arm
	.fpu vfp
	.type	vec_reserve_po2_, %function
vec_reserve_po2_:
.LVL22:
.LFB2:
	.loc 1 38 3 is_stmt 1 view -0
	.cfi_startproc
	@ args = 4, pretend = 0, frame = 0
	@ frame_needed = 0, uses_anonymous_args = 0
	.loc 1 39 3 view .LVU56
	.loc 1 40 3 view .LVU57
	.loc 1 38 3 is_stmt 0 view .LVU58
	push	{r4, r5, r6, lr}
	.cfi_def_cfa_offset 16
	.cfi_offset 4, -16
	.cfi_offset 5, -12
	.cfi_offset 6, -8
	.cfi_offset 14, -4
	.loc 1 38 3 view .LVU59
	ldr	ip, [sp, #16]
	.loc 1 40 6 view .LVU60
	cmp	ip, #0
	beq	.L21
	.loc 1 41 13 view .LVU61
	cmp	ip, #1
	mov	r6, r0
	mov	r5, r2
	.loc 1 41 13 is_stmt 1 view .LVU62
	.loc 1 39 7 is_stmt 0 view .LVU63
	mov	r4, #1
	.loc 1 41 13 view .LVU64
	ble	.L17
.LVL23:
.L18:
	.loc 1 41 18 is_stmt 1 discriminator 2 view .LVU65
	.loc 1 41 21 is_stmt 0 discriminator 2 view .LVU66
	lsl	r4, r4, #1
.LVL24:
	.loc 1 41 13 is_stmt 1 discriminator 2 view .LVU67
	cmp	ip, r4
	bgt	.L18
.LVL25:
.L17:
	.loc 1 42 3 view .LVU68
.LBB21:
.LBI21:
	.loc 1 24 5 view .LVU69
.LBB22:
	.loc 1 25 3 view .LVU70
	.loc 1 26 3 view .LVU71
	.loc 1 26 6 is_stmt 0 view .LVU72
	ldr	r2, [r5]
.LVL26:
	.loc 1 26 6 view .LVU73
	cmp	r2, r4
	blt	.L25
.LVL27:
.L21:
	.loc 1 26 6 view .LVU74
.LBE22:
.LBE21:
	.loc 1 40 22 view .LVU75
	mov	r0, #0
.LVL28:
	.loc 1 40 22 view .LVU76
	pop	{r4, r5, r6, pc}
.LVL29:
.L25:
.LBB28:
.LBB27:
.LBB23:
.LBI23:
	.loc 1 24 5 is_stmt 1 view .LVU77
.LBB24:
.LBB25:
	.loc 1 27 5 view .LVU78
	.loc 1 27 17 is_stmt 0 view .LVU79
	mul	r1, r4, r3
.LVL30:
	.loc 1 27 17 view .LVU80
	ldr	r0, [r6]
.LVL31:
	.loc 1 27 17 view .LVU81
	bl	realloc
.LVL32:
	.loc 1 28 5 is_stmt 1 view .LVU82
	.loc 1 28 8 is_stmt 0 view .LVU83
	cmp	r0, #0
	.loc 1 28 8 view .LVU84
	beq	.L22
	.loc 1 29 5 is_stmt 1 view .LVU85
	.loc 1 29 11 is_stmt 0 view .LVU86
	str	r0, [r6]
	.loc 1 30 5 is_stmt 1 view .LVU87
.LBE25:
	.loc 1 32 10 is_stmt 0 view .LVU88
	mov	r0, #0
.LVL33:
.LBB26:
	.loc 1 30 15 view .LVU89
	str	r4, [r5]
	pop	{r4, r5, r6, pc}
.LVL34:
.L22:
	.loc 1 28 28 view .LVU90
	mvn	r0, #0
.LVL35:
	.loc 1 28 28 view .LVU91
.LBE26:
.LBE24:
.LBE23:
.LBE27:
.LBE28:
	.loc 1 43 1 view .LVU92
	pop	{r4, r5, r6, pc}
	.cfi_endproc
.LFE2:
	.size	vec_reserve_po2_, .-vec_reserve_po2_
	.section	.text.vec_compact_,"ax",%progbits
	.align	2
	.global	vec_compact_
	.syntax unified
	.arm
	.fpu vfp
	.type	vec_compact_, %function
vec_compact_:
.LVL36:
.LFB3:
	.loc 1 46 70 is_stmt 1 view -0
	.cfi_startproc
	@ args = 0, pretend = 0, frame = 0
	@ frame_needed = 0, uses_anonymous_args = 0
	.loc 1 47 3 view .LVU94
	.loc 1 46 70 is_stmt 0 view .LVU95
	push	{r4, r5, r6, lr}
	.cfi_def_cfa_offset 16
	.cfi_offset 4, -16
	.cfi_offset 5, -12
	.cfi_offset 6, -8
	.cfi_offset 14, -4
	.loc 1 47 7 view .LVU96
	ldr	r4, [r1]
	.loc 1 46 70 view .LVU97
	mov	r5, r0
	.loc 1 47 6 view .LVU98
	cmp	r4, #0
	.loc 1 46 70 view .LVU99
	mov	r6, r2
	.loc 1 48 5 view .LVU100
	ldr	r0, [r0]
.LVL37:
	.loc 1 47 6 view .LVU101
	beq	.L31
.LBB29:
	.loc 1 53 5 is_stmt 1 view .LVU102
	.loc 1 54 5 view .LVU103
.LVL38:
	.loc 1 55 5 view .LVU104
	.loc 1 55 11 is_stmt 0 view .LVU105
	mul	r1, r3, r4
.LVL39:
	.loc 1 55 11 view .LVU106
	bl	realloc
.LVL40:
	.loc 1 56 5 is_stmt 1 view .LVU107
	.loc 1 56 8 is_stmt 0 view .LVU108
	cmp	r0, #0
	.loc 1 57 5 is_stmt 1 view .LVU109
	.loc 1 57 15 is_stmt 0 view .LVU110
	strne	r4, [r6]
	.loc 1 58 5 is_stmt 1 view .LVU111
	.loc 1 56 28 is_stmt 0 view .LVU112
	mvneq	r4, #0
.LVL41:
	.loc 1 56 28 view .LVU113
.LBE29:
	.loc 1 60 10 view .LVU114
	movne	r4, #0
.LBB30:
	.loc 1 58 11 view .LVU115
	strne	r0, [r5]
.LBE30:
	.loc 1 60 3 is_stmt 1 view .LVU116
	.loc 1 61 1 is_stmt 0 view .LVU117
	mov	r0, r4
.LVL42:
	.loc 1 61 1 view .LVU118
	pop	{r4, r5, r6, pc}
.LVL43:
.L31:
	.loc 1 48 5 is_stmt 1 view .LVU119
	bl	free
.LVL44:
	.loc 1 49 5 view .LVU120
	.loc 1 49 11 is_stmt 0 view .LVU121
	str	r4, [r5]
	.loc 1 50 5 is_stmt 1 view .LVU122
	.loc 1 61 1 is_stmt 0 view .LVU123
	mov	r0, r4
	.loc 1 50 15 view .LVU124
	str	r4, [r6]
	.loc 1 51 5 is_stmt 1 view .LVU125
	.loc 1 61 1 is_stmt 0 view .LVU126
	pop	{r4, r5, r6, pc}
	.cfi_endproc
.LFE3:
	.size	vec_compact_, .-vec_compact_
	.section	.text.vec_insert_,"ax",%progbits
	.align	2
	.global	vec_insert_
	.syntax unified
	.arm
	.fpu vfp
	.type	vec_insert_, %function
vec_insert_:
.LVL45:
.LFB4:
	.loc 1 66 3 is_stmt 1 view -0
	.cfi_startproc
	@ args = 4, pretend = 0, frame = 0
	@ frame_needed = 0, uses_anonymous_args = 0
	.loc 1 67 3 view .LVU128
	.loc 1 66 3 is_stmt 0 view .LVU129
	push	{r4, r5, r6, r7, r8, lr}
	.cfi_def_cfa_offset 24
	.cfi_offset 4, -24
	.cfi_offset 5, -20
	.cfi_offset 6, -16
	.cfi_offset 7, -12
	.cfi_offset 8, -8
	.cfi_offset 14, -4
.LBB34:
.LBB35:
	.loc 1 12 21 view .LVU130
	ldr	ip, [r2]
	.loc 1 12 19 view .LVU131
	ldr	lr, [r1]
.LBE35:
.LBE34:
	.loc 1 66 3 view .LVU132
	mov	r4, r3
.LVL46:
.LBB41:
.LBI34:
	.loc 1 11 5 is_stmt 1 view .LVU133
.LBB39:
	.loc 1 12 3 view .LVU134
	.loc 1 12 6 is_stmt 0 view .LVU135
	cmp	lr, ip
.LBB36:
	.loc 1 15 11 view .LVU136
	ldr	r3, [r0]
.LVL47:
	.loc 1 15 11 view .LVU137
.LBE36:
	.loc 1 12 6 view .LVU138
	blt	.L33
.LBB37:
	.loc 1 14 34 view .LVU139
	cmp	ip, #0
	lslne	r5, ip, #1
	mov	r6, r1
	mov	r8, r0
	.loc 1 13 5 is_stmt 1 view .LVU140
	.loc 1 14 5 view .LVU141
	moveq	r1, r4
.LVL48:
	.loc 1 15 11 is_stmt 0 view .LVU142
	mov	r0, r3
.LVL49:
	.loc 1 15 28 view .LVU143
	mulne	r1, r5, r4
	.loc 1 14 34 view .LVU144
	moveq	r5, #1
.LVL50:
	.loc 1 15 5 is_stmt 1 view .LVU145
	mov	r7, r2
	.loc 1 15 11 is_stmt 0 view .LVU146
	bl	realloc
.LVL51:
	.loc 1 16 5 is_stmt 1 view .LVU147
	.loc 1 16 8 is_stmt 0 view .LVU148
	subs	r3, r0, #0
	beq	.L37
	.loc 1 17 5 is_stmt 1 view .LVU149
	.loc 1 17 11 is_stmt 0 view .LVU150
	str	r3, [r8]
	.loc 1 18 5 is_stmt 1 view .LVU151
	.loc 1 18 15 is_stmt 0 view .LVU152
	str	r5, [r7]
.LVL52:
	.loc 1 18 15 view .LVU153
.LBE37:
.LBE39:
.LBE41:
	.loc 1 68 3 is_stmt 1 view .LVU154
	.loc 1 71 12 is_stmt 0 view .LVU155
	ldr	lr, [r6]
.LVL53:
.L33:
	.loc 1 69 3 is_stmt 1 view .LVU156
	.loc 1 69 24 is_stmt 0 view .LVU157
	ldr	r2, [sp, #24]
	add	r0, r2, #1
	.loc 1 69 29 view .LVU158
	mul	r0, r4, r0
	.loc 1 71 20 view .LVU159
	sub	r2, lr, r2
	.loc 1 70 23 view .LVU160
	sub	r1, r0, r4
	.loc 1 69 3 view .LVU161
	mul	r2, r4, r2
	add	r1, r3, r1
	add	r0, r3, r0
	bl	memmove
.LVL54:
	.loc 1 72 3 is_stmt 1 view .LVU162
	.loc 1 72 10 is_stmt 0 view .LVU163
	mov	r0, #0
	pop	{r4, r5, r6, r7, r8, pc}
.LVL55:
.L37:
.LBB42:
.LBB40:
.LBB38:
	.loc 1 16 28 view .LVU164
	mvn	r0, #0
.LVL56:
	.loc 1 16 28 view .LVU165
.LBE38:
.LBE40:
.LBE42:
	.loc 1 73 1 view .LVU166
	pop	{r4, r5, r6, r7, r8, pc}
	.cfi_endproc
.LFE4:
	.size	vec_insert_, .-vec_insert_
	.section	.text.vec_splice_,"ax",%progbits
	.align	2
	.global	vec_splice_
	.syntax unified
	.arm
	.fpu vfp
	.type	vec_splice_, %function
vec_splice_:
.LVL57:
.LFB5:
	.loc 1 78 3 is_stmt 1 view -0
	.cfi_startproc
	@ args = 8, pretend = 0, frame = 0
	@ frame_needed = 0, uses_anonymous_args = 0
	.loc 1 79 3 view .LVU168
	.loc 1 80 3 view .LVU169
	.loc 1 78 3 is_stmt 0 view .LVU170
	push	{r4, lr}
	.cfi_def_cfa_offset 8
	.cfi_offset 4, -8
	.cfi_offset 14, -4
	.loc 1 78 3 view .LVU171
	ldr	ip, [sp, #8]
	.loc 1 82 20 view .LVU172
	ldr	r2, [r1]
.LVL58:
	.loc 1 78 3 view .LVU173
	ldr	lr, [sp, #12]
	.loc 1 80 11 view .LVU174
	ldr	r0, [r0]
.LVL59:
	.loc 1 82 20 view .LVU175
	sub	r2, r2, ip
	.loc 1 81 26 view .LVU176
	add	r4, ip, lr
	.loc 1 82 28 view .LVU177
	sub	r2, r2, lr
	.loc 1 80 3 view .LVU178
	mla	r1, r3, r4, r0
.LVL60:
	.loc 1 83 1 view .LVU179
	pop	{r4, lr}
	.cfi_restore 14
	.cfi_restore 4
	.cfi_def_cfa_offset 0
	.loc 1 80 3 view .LVU180
	mul	r2, r3, r2
	mla	r0, r3, ip, r0
	b	memmove
.LVL61:
	.loc 1 80 3 view .LVU181
	.cfi_endproc
.LFE5:
	.size	vec_splice_, .-vec_splice_
	.section	.text.vec_swapsplice_,"ax",%progbits
	.align	2
	.global	vec_swapsplice_
	.syntax unified
	.arm
	.fpu vfp
	.type	vec_swapsplice_, %function
vec_swapsplice_:
.LVL62:
.LFB6:
	.loc 1 88 3 is_stmt 1 view -0
	.cfi_startproc
	@ args = 8, pretend = 0, frame = 0
	@ frame_needed = 0, uses_anonymous_args = 0
	@ link register save eliminated.
	.loc 1 89 3 view .LVU183
	.loc 1 90 3 view .LVU184
	.loc 1 88 3 is_stmt 0 view .LVU185
	ldr	r2, [sp, #4]
.LVL63:
	.loc 1 91 28 view .LVU186
	ldr	r1, [r1]
.LVL64:
	.loc 1 90 11 view .LVU187
	ldr	r0, [r0]
.LVL65:
	.loc 1 88 3 view .LVU188
	ldr	ip, [sp]
	.loc 1 91 28 view .LVU189
	sub	r1, r1, r2
	.loc 1 90 3 view .LVU190
	mla	r1, r3, r1, r0
	mul	r2, r2, r3
	mla	r0, r3, ip, r0
	b	memmove
.LVL66:
	.loc 1 90 3 view .LVU191
	.cfi_endproc
.LFE6:
	.size	vec_swapsplice_, .-vec_swapsplice_
	.section	.text.vec_swap_,"ax",%progbits
	.align	2
	.global	vec_swap_
	.syntax unified
	.arm
	.fpu vfp
	.type	vec_swap_, %function
vec_swap_:
.LVL67:
.LFB7:
	.loc 1 98 3 is_stmt 1 view -0
	.cfi_startproc
	@ args = 8, pretend = 0, frame = 0
	@ frame_needed = 0, uses_anonymous_args = 0
	@ link register save eliminated.
	.loc 1 98 3 is_stmt 0 view .LVU193
	ldr	ip, [sp]
	ldr	r2, [sp, #4]
.LVL68:
	.loc 1 103 6 view .LVU194
	cmp	ip, r2
	.loc 1 99 3 is_stmt 1 view .LVU195
	.loc 1 100 3 view .LVU196
	.loc 1 101 3 view .LVU197
	.loc 1 102 3 view .LVU198
	.loc 1 103 3 view .LVU199
	.loc 1 103 6 is_stmt 0 view .LVU200
	bxeq	lr
	.loc 1 104 3 is_stmt 1 view .LVU201
	.loc 1 104 7 is_stmt 0 view .LVU202
	ldr	r1, [r0]
.LVL69:
	.loc 1 107 10 view .LVU203
	cmp	r3, #0
	.loc 1 104 37 view .LVU204
	mul	ip, r3, ip
.LVL70:
	.loc 1 105 3 is_stmt 1 view .LVU205
	.loc 1 105 5 is_stmt 0 view .LVU206
	mla	r2, r3, r2, r1
.LVL71:
	.loc 1 106 3 is_stmt 1 view .LVU207
	.loc 1 107 3 view .LVU208
	.loc 1 107 10 view .LVU209
	.loc 1 107 10 is_stmt 0 view .LVU210
	bxeq	lr
	sub	ip, ip, #1
.LVL72:
	.loc 1 107 10 view .LVU211
	add	r1, r1, ip
.LVL73:
	.loc 1 107 10 view .LVU212
	add	r3, r2, r3
.LVL74:
.L44:
	.loc 1 108 5 is_stmt 1 view .LVU213
	.loc 1 108 9 is_stmt 0 view .LVU214
	ldrb	r0, [r1, #1]!	@ zero_extendqisi2
.LVL75:
	.loc 1 109 5 is_stmt 1 view .LVU215
	.loc 1 109 10 is_stmt 0 view .LVU216
	ldrb	ip, [r2]	@ zero_extendqisi2
	.loc 1 109 8 view .LVU217
	strb	ip, [r1]
	.loc 1 110 5 is_stmt 1 view .LVU218
	.loc 1 110 8 is_stmt 0 view .LVU219
	strb	r0, [r2], #1
.LVL76:
	.loc 1 111 5 is_stmt 1 view .LVU220
	.loc 1 107 10 view .LVU221
	.loc 1 107 10 is_stmt 0 view .LVU222
	cmp	r2, r3
	bne	.L44
	bx	lr
	.cfi_endproc
.LFE7:
	.size	vec_swap_, .-vec_swap_
	.text
.Letext0:
	.file 2 "/opt/devkitpro/devkitARM/arm-none-eabi/include/string.h"
	.file 3 "/opt/devkitpro/devkitARM/arm-none-eabi/include/stdlib.h"
	.file 4 "/opt/devkitpro/devkitARM/lib/gcc/arm-none-eabi/11.2.0/include/stddef.h"