	.arch armv6k
	.eabi_attribute 28, 1
	.eabi_attribute 20, 1
	.eabi_attribute 21, 1
	.eabi_attribute 23, 3
	.eabi_attribute 24, 1
	.eabi_attribute 25, 1
	.eabi_attribute 26, 1
	.eabi_attribute 30, 2
	.eabi_attribute 34, 1
	.eabi_attribute 18, 4
	.file	"VertexFmt.c"
	.text
.Ltext0:
	.cfi_sections	.debug_frame
	.global	__aeabi_idiv
	.section	.text.RGB16_ToHSV,"ax",%progbits
	.align	2
	.global	RGB16_ToHSV
	.syntax unified
	.arm
	.fpu vfp
	.type	RGB16_ToHSV, %function
RGB16_ToHSV:
.LVL0:
.LFB5:
	.file 1 "/home/tobi/Dokumente/Craftus-Next/source/rendering/VertexFmt.c"
	.loc 1 5 35 view -0
	.cfi_startproc
	@ args = 0, pretend = 0, frame = 0
	@ frame_needed = 0, uses_anonymous_args = 0
	.loc 1 6 2 view .LVU1
	.loc 1 8 2 view .LVU2
	.loc 1 9 24 is_stmt 0 view .LVU3
	lsr	r2, r0, #5
	.loc 1 10 6 view .LVU4
	and	r1, r0, #31
	.loc 1 9 6 view .LVU5
	and	r2, r2, #31
	.loc 1 12 35 view .LVU6
	cmp	r2, r1
	movge	ip, r2
	movlt	ip, r1
	.loc 1 8 25 view .LVU7
	lsr	r0, r0, #10
.LVL1:
	.loc 1 8 6 view .LVU8
	and	r3, r0, #31
.LVL2:
	.loc 1 9 2 is_stmt 1 view .LVU9
	.loc 1 10 2 view .LVU10
	.loc 1 11 2 view .LVU11
	.loc 1 12 2 view .LVU12
	.loc 1 12 6 is_stmt 0 view .LVU13
	cmp	ip, r3
	.loc 1 5 35 view .LVU14
	push	{r4, r5, r6, lr}
	.cfi_def_cfa_offset 16
	.cfi_offset 4, -16
	.cfi_offset 5, -12
	.cfi_offset 6, -8
	.cfi_offset 14, -4
	.loc 1 12 6 view .LVU15
	movge	r5, ip
	movlt	r5, r3
.LVL3:
	.loc 1 13 2 is_stmt 1 view .LVU16
	.loc 1 11 6 is_stmt 0 view .LVU17
	cmp	r3, r2
	movlt	r0, r3
	movge	r0, r2
	.loc 1 13 6 view .LVU18
	cmp	r0, r1
	suble	r4, r5, r0
	subgt	r4, r5, r1
.LVL4:
	.loc 1 15 2 is_stmt 1 view .LVU19
	.loc 1 15 5 is_stmt 0 view .LVU20
	cmp	r4, #0
	beq	.L2
.LBB2:
	.loc 1 20 3 is_stmt 1 view .LVU21
	.loc 1 22 3 view .LVU22
	.loc 1 22 6 is_stmt 0 view .LVU23
	cmp	ip, r3
	bgt	.L3
	.loc 1 23 4 is_stmt 1 view .LVU24
	.loc 1 23 12 is_stmt 0 view .LVU25
	sub	r2, r2, r1
.LVL5:
	.loc 1 23 22 view .LVU26
	rsb	r2, r2, r2, lsl #4
	.loc 1 23 6 view .LVU27
	mov	r1, r4
.LVL6:
	.loc 1 23 6 view .LVU28
	lsl	r0, r2, #11
	bl	__aeabi_idiv
.LVL7:
	.loc 1 23 6 view .LVU29
	mov	r6, r0
.LVL8:
.L4:
	.loc 1 29 3 is_stmt 1 view .LVU30
	.loc 1 37 17 is_stmt 0 view .LVU31
	rsb	r4, r4, r4, lsl #5
.LVL9:
	.loc 1 29 6 view .LVU32
	cmp	r6, #0
	.loc 1 29 14 is_stmt 1 view .LVU33
	.loc 1 37 30 is_stmt 0 view .LVU34
	sub	r0, r4, #8
	mov	r1, r5
	.loc 1 29 16 view .LVU35
	addlt	r6, r6, #184320
.LVL10:
	.loc 1 31 3 is_stmt 1 view .LVU36
	.loc 1 37 3 view .LVU37
	.loc 1 37 30 is_stmt 0 view .LVU38
	bl	__aeabi_idiv
.LVL11:
.LBE2:
	.loc 1 41 69 view .LVU39
	lsl	r6, r6, #10
.LVL12:
	.loc 1 41 45 view .LVU40
	lsl	r4, r0, #5
	.loc 1 41 69 view .LVU41
	and	r6, r6, #31744
	.loc 1 41 45 view .LVU42
	and	r4, r4, #992
	orr	r4, r4, r6
.L2:
	.loc 1 39 2 is_stmt 1 view .LVU43
.LVL13:
	.loc 1 41 2 view .LVU44
	.loc 1 42 1 is_stmt 0 view .LVU45
	orr	r0, r4, r5
	pop	{r4, r5, r6, pc}
.LVL14:
.L3:
.LBB3:
	.loc 1 24 8 is_stmt 1 view .LVU46
	.loc 1 24 11 is_stmt 0 view .LVU47
	cmp	r2, r5
	beq	.L10
	.loc 1 27 4 is_stmt 1 view .LVU48
	.loc 1 27 12 is_stmt 0 view .LVU49
	sub	r3, r3, r2
.LVL15:
	.loc 1 27 22 view .LVU50
	rsb	r3, r3, r3, lsl #4
	.loc 1 27 29 view .LVU51
	mov	r1, r4
.LVL16:
	.loc 1 27 29 view .LVU52
	lsl	r0, r3, #11
	bl	__aeabi_idiv
.LVL17:
	.loc 1 27 6 view .LVU53
	add	r6, r0, #122880
.LVL18:
	.loc 1 27 6 view .LVU54
	b	.L4
.LVL19:
.L10:
	.loc 1 25 4 is_stmt 1 view .LVU55
	.loc 1 25 12 is_stmt 0 view .LVU56
	sub	r1, r1, r3
.LVL20:
	.loc 1 25 22 view .LVU57
	rsb	r0, r1, r1, lsl #4
	.loc 1 25 29 view .LVU58
	lsl	r0, r0, #11
	mov	r1, r4
	bl	__aeabi_idiv
.LVL21:
	.loc 1 25 6 view .LVU59
	add	r6, r0, #61440
.LVL22:
	.loc 1 25 6 view .LVU60
	b	.L4
.LBE3:
	.cfi_endproc
.LFE5:
	.size	RGB16_ToHSV, .-RGB16_ToHSV
	.section	.text.HSV16_ToRGB,"ax",%progbits
	.align	2
	.global	HSV16_ToRGB
	.syntax unified
	.arm
	.fpu vfp
	.type	HSV16_ToRGB, %function
HSV16_ToRGB:
.LVL23:
.LFB6:
	.loc 1 44 34 is_stmt 1 view -0
	.cfi_startproc
	@ args = 0, pretend = 0, frame = 0
	@ frame_needed = 0, uses_anonymous_args = 0
	.loc 1 45 2 view .LVU62
	.loc 1 46 2 view .LVU63
	.loc 1 46 62 is_stmt 0 view .LVU64
	asr	r2, r0, #5
.LVL24:
	.loc 1 46 71 view .LVU65
	and	r3, r0, #31
.LVL25:
	.loc 1 48 2 is_stmt 1 view .LVU66
	.loc 1 48 5 is_stmt 0 view .LVU67
	ands	r2, r2, #31
.LVL26:
.LBB4:
	.loc 1 53 7 view .LVU68
	mov	ip, r3
.LBE4:
	moveq	r2, r3
	.loc 1 44 34 view .LVU69
	str	lr, [sp, #-4]!
	.cfi_def_cfa_offset 4
	.cfi_offset 14, -4
	.loc 1 48 5 view .LVU70
	beq	.L12
.LBB10:
	.loc 1 51 3 is_stmt 1 view .LVU71
.LVL27:
	.loc 1 52 3 view .LVU72
	.loc 1 53 3 view .LVU73
	.loc 1 54 3 view .LVU74
	.loc 1 55 3 view .LVU75
.LBE10:
	.loc 1 46 32 is_stmt 0 view .LVU76
	asr	r0, r0, #10
.LVL28:
	.loc 1 46 10 view .LVU77
	and	r0, r0, #31
.LBB11:
.LBB5:
	.loc 1 77 37 view .LVU78
	smulbb	r0, r0, r2
	.loc 1 77 29 view .LVU79
	rsb	r1, r3, r3, lsl #4
	rsb	r1, r1, r1, lsl #5
.LBE5:
	.loc 1 55 25 view .LVU80
	mul	r2, r2, r3
.LVL29:
.LBB6:
	.loc 1 77 29 view .LVU81
	lsl	r1, r1, #11
	.loc 1 77 33 view .LVU82
	mla	r1, r3, r0, r1
.LBE6:
	.loc 1 55 17 view .LVU83
	rsb	lr, r3, r3, lsl #5
	.loc 1 55 21 view .LVU84
	sub	lr, lr, r2
.LBB7:
	.loc 1 77 64 view .LVU85
	sub	r2, r2, r2, lsl #4
	.loc 1 77 45 view .LVU86
	add	r2, r1, r2, lsl #11
	.loc 1 77 8 view .LVU87
	ldr	r1, .L15
	asr	r3, r2, #31
	.loc 1 77 8 view .LVU88
	smull	r1, r2, r1, r2
.LBE7:
	.loc 1 55 7 view .LVU89
	ldr	r1, .L15+4
.LBB8:
	.loc 1 77 8 view .LVU90
	rsb	r3, r3, r2, asr #15
.LBE8:
	.loc 1 55 7 view .LVU91
	smull	r0, r1, r1, lr
	asr	r2, lr, #31
	add	r1, r1, lr
	rsb	r2, r2, r1, asr #4
.LVL30:
	.loc 1 57 3 is_stmt 1 view .LVU92
.LBB9:
	.loc 1 77 4 view .LVU93
	.loc 1 78 4 view .LVU94
	.loc 1 80 6 view .LVU95
	.loc 1 81 6 view .LVU96
	.loc 1 82 6 view .LVU97
	.loc 1 83 6 view .LVU98
	.loc 1 81 8 is_stmt 0 view .LVU99
	sxth	r3, r3
.LVL31:
	.loc 1 81 8 view .LVU100
.LBE9:
.LBE11:
	.loc 1 98 14 view .LVU101
	and	r2, r2, #31
.LVL32:
.L12:
	.loc 1 98 2 is_stmt 1 view .LVU102
	.loc 1 98 37 is_stmt 0 view .LVU103
	lsl	r0, r3, #5
	and	r0, r0, #992
	.loc 1 98 43 view .LVU104
	orr	r3, r2, ip, lsl #10
	orr	r0, r0, r3
	.loc 1 99 1 view .LVU105
	sxth	r0, r0
	ldr	pc, [sp], #4
.L16:
	.align	2
.L15:
	.word	147783821
	.word	-2078209981
	.cfi_endproc
.LFE6:
	.size	HSV16_ToRGB, .-HSV16_ToRGB
	.text
.Letext0:
	.file 2 "/opt/devkitpro/devkitARM/arm-none-eabi/include/machine/_default_types.h"
	.file 3 "/opt/devkitpro/devkitARM/arm-none-eabi/include/sys/_stdint.h"