	.arch armv6k
	.eabi_attribute 28, 1
	.eabi_attribute 20, 1
	.eabi_attribute 21, 1
	.eabi_attribute 23, 3
	.eabi_attribute 24, 1
	.eabi_attribute 25, 1
	.eabi_attribute 26, 1
	.eabi_attribute 30, 2
	.eabi_attribute 34, 1
	.eabi_attribute 18, 4
	.file	"WorldSelect.c"
	.text
.Ltext0:
	.cfi_sections	.debug_frame
	.section	.rodata.str1.4,"aMS",%progbits,1
	.align	2
.LC0:
	.ascii	"%s/%s\000"
	.section	.text.delete_folder,"ax",%progbits
	.align	2
	.syntax unified
	.arm
	.fpu vfp
	.type	delete_folder, %function
delete_folder:
.LVL0:
.LFB353:
	.file 1 "/home/tobi/Dokumente/Craftus-Next/source/gui/WorldSelect.c"
	.loc 1 64 45 view -0
	.cfi_startproc
	@ args = 0, pretend = 0, frame = 0
	@ frame_needed = 1, uses_anonymous_args = 0
	.loc 1 65 2 view .LVU1
	.loc 1 64 45 is_stmt 0 view .LVU2
	push	{r3, r4, r5, r6, r7, r8, r9, r10, fp, lr}
	.cfi_def_cfa_offset 40
	.cfi_offset 3, -40
	.cfi_offset 4, -36
	.cfi_offset 5, -32
	.cfi_offset 6, -28
	.cfi_offset 7, -24
	.cfi_offset 8, -20
	.cfi_offset 9, -16
	.cfi_offset 10, -12
	.cfi_offset 11, -8
	.cfi_offset 14, -4
	add	fp, sp, #36
	.cfi_def_cfa 11, 4
	.loc 1 64 45 view .LVU3
	mov	r7, r0
	.loc 1 65 13 view .LVU4
	bl	opendir
.LVL1:
	.loc 1 65 13 view .LVU5
	mov	r6, r0
	.loc 1 68 16 view .LVU6
	mov	r0, r7
.LVL2:
	.loc 1 66 2 is_stmt 1 view .LVU7
	.loc 1 68 2 view .LVU8
	.loc 1 68 16 is_stmt 0 view .LVU9
	bl	strlen
.LVL3:
	mov	r8, r0
.LVL4:
	.loc 1 70 2 is_stmt 1 view .LVU10
	.loc 1 70 9 view .LVU11
	.loc 1 70 18 is_stmt 0 view .LVU12
	mov	r0, r6
.LVL5:
	.loc 1 70 18 view .LVU13
	bl	readdir
.LVL6:
	.loc 1 70 9 view .LVU14
	subs	r4, r0, #0
.LBB9:
	.loc 1 76 3 view .LVU15
	ldr	r9, .L19
.LBE9:
	.loc 1 70 9 view .LVU16
	beq	.L17
.L10:
.LBB10:
	.loc 1 71 8 discriminator 1 view .LVU17
	ldrb	r3, [r4, #5]	@ zero_extendqisi2
	.loc 1 70 33 discriminator 1 view .LVU18
	mov	r10, sp
	.loc 1 71 3 is_stmt 1 discriminator 1 view .LVU19
	.loc 1 71 8 is_stmt 0 discriminator 1 view .LVU20
	cmp	r3, #46
	.loc 1 71 20 discriminator 1 view .LVU21
	add	r5, r4, #5
	.loc 1 71 8 discriminator 1 view .LVU22
	bne	.L11
	.loc 1 71 8 discriminator 1 view .LVU23
	ldrb	r3, [r5, #1]	@ zero_extendqisi2
	cmp	r3, #46
	bne	.L11
	ldrb	r3, [r5, #2]	@ zero_extendqisi2
	.loc 1 71 6 discriminator 1 view .LVU24
	cmp	r3, #0
	bne	.L11
.LVL7:
.L9:
	.loc 1 71 6 discriminator 1 view .LVU25
.LBE10:
	.loc 1 70 18 view .LVU26
	mov	r0, r6
.LBB11:
	mov	sp, r10
.LBE11:
	.loc 1 70 9 is_stmt 1 view .LVU27
	.loc 1 70 18 is_stmt 0 view .LVU28
	bl	readdir
.LVL8:
	.loc 1 70 9 view .LVU29
	subs	r4, r0, #0
	bne	.L10
.L17:
	.loc 1 84 2 is_stmt 1 view .LVU30
	mov	r0, r6
.LVL9:
	.loc 1 84 2 is_stmt 0 view .LVU31
	bl	closedir
.LVL10:
	.loc 1 86 2 is_stmt 1 view .LVU32
	mov	r0, r7
	bl	rmdir
.LVL11:
	.loc 1 87 1 is_stmt 0 view .LVU33
	sub	sp, fp, #36
	.cfi_remember_state
	.cfi_def_cfa 13, 40
	@ sp needed
	pop	{r3, r4, r5, r6, r7, r8, r9, r10, fp, pc}
.LVL12:
.L11:
	.cfi_restore_state
.LBB12:
	.loc 1 71 40 discriminator 2 view .LVU34
	ldrb	r3, [r4, #5]	@ zero_extendqisi2
	cmp	r3, #46
	bne	.L6
	ldrb	r3, [r5, #1]	@ zero_extendqisi2
	.loc 1 71 36 discriminator 2 view .LVU35
	cmp	r3, #0
	beq	.L9
.L6:
	.loc 1 73 3 is_stmt 1 view .LVU36
	.loc 1 73 18 is_stmt 0 view .LVU37
	mov	r0, r5
.LVL13:
	.loc 1 73 18 view .LVU38
	bl	strlen
.LVL14:
	.loc 1 75 3 is_stmt 1 view .LVU39
	.loc 1 75 23 is_stmt 0 view .LVU40
	add	r0, r0, r8
.LVL15:
	.loc 1 75 8 view .LVU41
	add	r0, r0, #8
.LVL16:
	.loc 1 75 8 view .LVU42
	bic	r0, r0, #7
.LVL17:
	.loc 1 75 8 view .LVU43
	sub	sp, sp, r0
.LVL18:
	.loc 1 76 3 is_stmt 1 view .LVU44
	mov	r3, r5
	mov	r2, r7
	mov	r1, r9
	mov	r0, sp
	bl	sprintf
.LVL19:
	.loc 1 78 3 view .LVU45
	.loc 1 78 6 is_stmt 0 view .LVU46
	ldrb	r3, [r4, #4]	@ zero_extendqisi2
	.loc 1 79 4 view .LVU47
	mov	r0, sp
	.loc 1 78 6 view .LVU48
	cmp	r3, #4
	beq	.L18
	.loc 1 81 4 is_stmt 1 view .LVU49
	bl	unlink
.LVL20:
	b	.L9
.LVL21:
.L18:
	.loc 1 79 4 view .LVU50
	bl	delete_folder
.LVL22:
	.loc 1 79 4 is_stmt 0 view .LVU51
	b	.L9
.L20:
	.align	2
.L19:
	.word	.LC0
.LBE12:
	.cfi_endproc
.LFE353:
	.size	delete_folder, .-delete_folder
	.section	.rodata.str1.4
	.align	2
.LC1:
	.ascii	"sdmc:/craftus_redesigned/saves\000"
	.align	2
.LC2:
	.ascii	"sdmc:/craftus_redesigned/saves/%s/level.mp\000"
	.align	2
.LC3:
	.ascii	"name\000"
	.section	.text.WorldSelect_ScanWorlds,"ax",%progbits
	.align	2
	.global	WorldSelect_ScanWorlds
	.syntax unified
	.arm
	.fpu vfp
	.type	WorldSelect_ScanWorlds, %function
WorldSelect_ScanWorlds:
.LFB352:
	.loc 1 29 31 is_stmt 1 view -0
	.cfi_startproc
	@ args = 0, pretend = 0, frame = 872
	@ frame_needed = 0, uses_anonymous_args = 0
	.loc 1 30 2 view .LVU53
	.loc 1 30 21 is_stmt 0 view .LVU54
	mov	r3, #0
	.loc 1 29 31 view .LVU55
	push	{r4, r5, r6, r7, r8, r9, r10, fp, lr}
	.cfi_def_cfa_offset 36
	.cfi_offset 4, -36
	.cfi_offset 5, -32
	.cfi_offset 6, -28
	.cfi_offset 7, -24
	.cfi_offset 8, -20
	.cfi_offset 9, -16
	.cfi_offset 10, -12
	.cfi_offset 11, -8
	.cfi_offset 14, -4
	.loc 1 30 21 view .LVU56
	ldr	r7, .L31
	.loc 1 32 19 view .LVU57
	ldr	r0, .L31+4
	.loc 1 29 31 view .LVU58
	sub	sp, sp, #876
	.cfi_def_cfa_offset 912
	.loc 1 30 21 view .LVU59
	str	r3, [r7, #4]
	.loc 1 32 2 is_stmt 1 view .LVU60
	.loc 1 32 19 is_stmt 0 view .LVU61
	bl	opendir
.LVL23:
	.loc 1 39 3 view .LVU62
	ldr	r6, .L31+8
	.loc 1 32 19 view .LVU63
	mov	r5, r0
.LVL24:
	.loc 1 34 2 is_stmt 1 view .LVU64
	.loc 1 36 2 view .LVU65
	.loc 1 38 2 view .LVU66
.LBB13:
	.loc 1 46 4 is_stmt 0 view .LVU67
	ldr	r8, .L31+12
	.loc 1 57 6 view .LVU68
	add	r9, r7, #8
.LBE13:
	.loc 1 38 8 view .LVU69
	b	.L23
.LVL25:
.L26:
	.loc 1 39 3 view .LVU70
	mov	r2, r4
	mov	r1, r6
	add	r0, sp, #360
	bl	sprintf
.LVL26:
	.loc 1 40 3 is_stmt 1 view .LVU71
	.loc 1 40 7 is_stmt 0 view .LVU72
	mov	r1, #0
	add	r0, sp, #360
	bl	access
.LVL27:
	.loc 1 40 6 view .LVU73
	cmn	r0, #1
	bne	.L30
.LVL28:
.L23:
	.loc 1 38 9 is_stmt 1 view .LVU74
	.loc 1 38 18 is_stmt 0 view .LVU75
	mov	r0, r5
	bl	readdir
.LVL29:
	.loc 1 39 3 is_stmt 1 view .LVU76
	.loc 1 38 9 is_stmt 0 view .LVU77
	cmp	r0, #0
	.loc 1 39 70 view .LVU78
	add	r4, r0, #5
	.loc 1 38 9 view .LVU79
	bne	.L26
	.loc 1 61 2 is_stmt 1 view .LVU80
	mov	r0, r5
.LVL30:
	.loc 1 61 2 is_stmt 0 view .LVU81
	bl	closedir
.LVL31:
	.loc 1 62 1 view .LVU82
	add	sp, sp, #876
	.cfi_remember_state
	.cfi_def_cfa_offset 36
	@ sp needed
	pop	{r4, r5, r6, r7, r8, r9, r10, fp, pc}
.LVL32:
.L30:
	.cfi_restore_state
.LBB14:
	.loc 1 41 4 is_stmt 1 view .LVU83
	.loc 1 42 4 view .LVU84
	mov	r2, #0
	add	r1, sp, #360
	add	r0, sp, #32
	.loc 1 43 24 is_stmt 0 view .LVU85
	add	fp, sp, #4
	.loc 1 42 4 view .LVU86
	bl	mpack_tree_init_file
.LVL33:
	.loc 1 43 4 is_stmt 1 view .LVU87
	.loc 1 46 4 is_stmt 0 view .LVU88
	add	r10, sp, #12
	.loc 1 43 24 view .LVU89
	mov	r0, fp
	add	r1, sp, #32
	bl	mpack_tree_root
.LVL34:
	.loc 1 45 4 is_stmt 1 view .LVU90
	.loc 1 46 4 view .LVU91
	ldm	fp, {r1, r2}
	mov	r0, r10
	mov	r3, r8
	bl	mpack_node_map_cstr
.LVL35:
	ldm	r10, {r0, r1}
	mov	r3, #12
	add	r2, sp, #20
	bl	mpack_node_copy_utf8_cstr
.LVL36:
	.loc 1 48 4 view .LVU92
	.loc 1 48 8 is_stmt 0 view .LVU93
	add	r0, sp, #32
	bl	mpack_tree_destroy
.LVL37:
	.loc 1 48 7 view .LVU94
	subs	r10, r0, #0
	bne	.L23
	.loc 1 52 4 is_stmt 1 view .LVU95
	.loc 1 53 4 view .LVU96
	add	r1, sp, #20
	add	r0, sp, #92
	bl	strcpy
.LVL38:
	.loc 1 54 4 view .LVU97
	.loc 1 55 4 is_stmt 0 view .LVU98
	mov	r1, r4
	add	r0, sp, #104
	.loc 1 54 20 view .LVU99
	str	r10, [sp, #88]
	.loc 1 55 4 is_stmt 1 view .LVU100
	bl	strcpy
.LVL39:
	.loc 1 57 4 view .LVU101
	.loc 1 57 6 is_stmt 0 view .LVU102
	ldr	r1, .L31+16
	mov	r3, #272
	mov	r2, r9
	sub	r0, r1, #4
	bl	vec_expand_
.LVL40:
	.loc 1 57 117 view .LVU103
	cmp	r0, #0
	bne	.L23
	.loc 1 57 129 discriminator 1 view .LVU104
	ldrd	r2, [r7]
	.loc 1 57 157 discriminator 1 view .LVU105
	add	r0, r3, r3, lsl #4
	add	r1, sp, #88
	.loc 1 57 153 discriminator 1 view .LVU106
	add	r3, r3, #1
	.loc 1 57 157 discriminator 1 view .LVU107
	add	r0, r2, r0, lsl #4
	mov	r2, #272
	.loc 1 57 153 discriminator 1 view .LVU108
	str	r3, [r7, #4]
	.loc 1 57 157 discriminator 1 view .LVU109
	bl	memcpy
.LVL41:
	.loc 1 49 5 is_stmt 1 discriminator 1 view .LVU110
	b	.L23
.L32:
	.align	2
.L31:
	.word	.LANCHOR0
	.word	.LC1
	.word	.LC2
	.word	.LC3
	.word	.LANCHOR0+4
.LBE14:
	.cfi_endproc
.LFE352:
	.size	WorldSelect_ScanWorlds, .-WorldSelect_ScanWorlds
	.section	.text.WorldSelect_Init,"ax",%progbits
	.align	2
	.global	WorldSelect_Init
	.syntax unified
	.arm
	.fpu vfp
	.type	WorldSelect_Init, %function
WorldSelect_Init:
.LFB354:
	.loc 1 89 25 view -0
	.cfi_startproc
	@ args = 0, pretend = 0, frame = 0
	@ frame_needed = 0, uses_anonymous_args = 0
	@ link register save eliminated.
	.loc 1 90 2 view .LVU112
	mov	r2, #0
	ldr	r3, .L34
	str	r2, [r3]
	str	r2, [r3, #4]
	str	r2, [r3, #8]
	.loc 1 92 2 view .LVU113
	b	WorldSelect_ScanWorlds
.LVL42:
.L35:
	.align	2
.L34:
	.word	.LANCHOR0
	.cfi_endproc
.LFE354:
	.size	WorldSelect_Init, .-WorldSelect_Init
	.section	.text.WorldSelect_Deinit,"ax",%progbits
	.align	2
	.global	WorldSelect_Deinit
	.syntax unified
	.arm
	.fpu vfp
	.type	WorldSelect_Deinit, %function
WorldSelect_Deinit:
.LFB355:
	.loc 1 95 27 view -0
	.cfi_startproc
	@ args = 0, pretend = 0, frame = 0
	@ frame_needed = 0, uses_anonymous_args = 0
	.loc 1 95 29 view .LVU115
	.loc 1 95 27 is_stmt 0 view .LVU116
	push	{r4, lr}
	.cfi_def_cfa_offset 8
	.cfi_offset 4, -8
	.cfi_offset 14, -4
	.loc 1 95 45 view .LVU117
	ldr	r4, .L38
	.loc 1 95 31 view .LVU118
	ldr	r0, [r4]
	bl	free
.LVL43:
	.loc 1 95 54 view .LVU119
	mov	r3, #0
	str	r3, [r4]
	str	r3, [r4, #4]
	str	r3, [r4, #8]
	.loc 1 95 98 view .LVU120
	pop	{r4, pc}
.L39:
	.align	2
.L38:
	.word	.LANCHOR0
	.cfi_endproc
.LFE355:
	.size	WorldSelect_Deinit, .-WorldSelect_Deinit
	.section	.rodata.str1.4
	.align	2
.LC4:
	.ascii	"%s\000"
	.align	2
.LC5:
	.ascii	"Play selected world\000"
	.align	2
.LC6:
	.ascii	"New World\000"
	.align	2
.LC7:
	.ascii	"Delete World\000"
	.align	2
.LC8:
	.ascii	"Are you sure?\000"
	.align	2
.LC9:
	.ascii	"No\000"
	.align	2
.LC10:
	.ascii	"Yes\000"
	.align	2
.LC11:
	.ascii	"World type:\000"
	.align	2
.LC12:
	.ascii	"Cancel\000"
	.align	2
.LC13:
	.ascii	"Continue\000"
	.section	.text.WorldSelect_Render,"ax",%progbits
	.align	2
	.global	WorldSelect_Render
	.syntax unified
	.arm
	.fpu vfp
	.type	WorldSelect_Render, %function
WorldSelect_Render:
.LFB356:
	.loc 1 125 27 is_stmt 1 view -0
	.cfi_startproc
	@ args = 0, pretend = 0, frame = 280
	@ frame_needed = 0, uses_anonymous_args = 0
	.loc 1 126 2 view .LVU122
	.loc 1 125 27 is_stmt 0 view .LVU123
	push	{r4, r5, r6, r7, r8, r9, r10, fp, lr}
	.cfi_def_cfa_offset 36
	.cfi_offset 4, -36
	.cfi_offset 5, -32
	.cfi_offset 6, -28
	.cfi_offset 7, -24
	.cfi_offset 8, -20
	.cfi_offset 9, -16
	.cfi_offset 10, -12
	.cfi_offset 11, -8
	.cfi_offset 14, -4
	.loc 1 126 2 view .LVU124
	mov	r0, #2
	.loc 1 125 27 view .LVU125
	sub	sp, sp, #308
	.cfi_def_cfa_offset 344
	.loc 1 126 2 view .LVU126
	bl	SpriteBatch_SetScale
.LVL44:
	.loc 1 128 2 is_stmt 1 view .LVU127
	mov	r0, #4
	bl	SpriteBatch_BindGuiTexture
.LVL45:
	.loc 1 129 2 view .LVU128
.LBB15:
	.loc 1 129 7 view .LVU129
	.loc 1 129 20 view .LVU130
.LBE15:
	.loc 1 128 2 is_stmt 0 view .LVU131
	mov	r9, #0
	ldr	r4, .L92+52
.LBB22:
.LBB16:
.LBB17:
	.loc 1 132 4 view .LVU132
	ldr	r7, .L92+56
	ldr	r8, .L92+60
.LVL46:
.L41:
	.loc 1 132 4 view .LVU133
.LBE17:
	.loc 1 130 21 is_stmt 1 view .LVU134
	.loc 1 130 12 is_stmt 0 view .LVU135
	mov	r5, #0
.LVL47:
.L43:
.LBB18:
	.loc 1 131 3 is_stmt 1 view .LVU136
	.loc 1 131 25 is_stmt 0 view .LVU137
	cmp	r5, #1
	.loc 1 132 4 view .LVU138
	lsl	r1, r5, #5
	.loc 1 131 25 view .LVU139
	ble	.L70
	.loc 1 131 25 discriminator 1 view .LVU140
	ldrb	r3, [r4, #12]	@ zero_extendqisi2
	.loc 1 132 4 discriminator 1 view .LVU141
	cmp	r3, #0
	mvnne	r2, #9
	mvneq	r2, #3
	movne	ip, r7
	moveq	ip, r8
.L42:
.LVL48:
	.loc 1 132 4 discriminator 8 view .LVU142
	mov	r3, #32
	mov	r6, #0
	mov	r0, r9
	stm	sp, {r3, r6}
	str	ip, [sp, #20]
	str	r3, [sp, #16]
	str	r3, [sp, #12]
	str	r6, [sp, #8]
.LBE18:
	.loc 1 130 38 discriminator 8 view .LVU143
	add	r5, r5, #1
.LBB19:
	.loc 1 132 4 discriminator 8 view .LVU144
	bl	SpriteBatch_PushQuadColor
.LVL49:
.LBE19:
	.loc 1 130 38 is_stmt 1 discriminator 8 view .LVU145
	.loc 1 130 21 discriminator 8 view .LVU146
	cmp	r5, #4
	bne	.L43
.LBE16:
	.loc 1 129 37 discriminator 2 view .LVU147
	.loc 1 129 20 discriminator 2 view .LVU148
	add	r9, r9, #32
	cmp	r9, #192
	bne	.L41
.LBE22:
	.loc 1 137 2 view .LVU149
	.loc 1 137 16 is_stmt 0 view .LVU150
	ldrb	r5, [r4, #12]	@ zero_extendqisi2
.LVL50:
	.loc 1 137 5 view .LVU151
	cmp	r5, #0
	beq	.L87
	.loc 1 176 9 is_stmt 1 view .LVU152
	.loc 1 176 12 is_stmt 0 view .LVU153
	cmp	r5, #1
	beq	.L88
	.loc 1 187 9 is_stmt 1 view .LVU154
	.loc 1 187 12 is_stmt 0 view .LVU155
	cmp	r5, #2
	beq	.L89
	.loc 1 215 1 view .LVU156
	add	sp, sp, #308
	.cfi_remember_state
	.cfi_def_cfa_offset 36
	@ sp needed
	pop	{r4, r5, r6, r7, r8, r9, r10, fp, pc}
.LVL51:
.L70:
	.cfi_restore_state
.LBB23:
.LBB21:
.LBB20:
	.loc 1 132 4 view .LVU157
	mvn	r2, #9
	mov	ip, r7
	b	.L42
.LVL52:
.L87:
	.loc 1 132 4 view .LVU158
.LBE20:
.LBE21:
.LBE23:
.LBB24:
	.loc 1 138 3 is_stmt 1 view .LVU159
	.loc 1 139 3 is_stmt 0 view .LVU160
	add	r1, sp, #28
	add	r0, sp, #24
	.loc 1 138 7 view .LVU161
	str	r5, [sp, #24]
	.loc 1 138 22 view .LVU162
	str	r5, [sp, #28]
	.loc 1 139 3 is_stmt 1 view .LVU163
	bl	Gui_GetCursorMovement
.LVL53:
	.loc 1 140 3 view .LVU164
	.loc 1 140 7 is_stmt 0 view .LVU165
	mov	r3, #64
	mov	r2, #160
	mov	r1, r5
	mov	r0, r5
	bl	Gui_IsCursorInside
.LVL54:
	.loc 1 140 6 view .LVU166
	cmp	r0, #0
	bne	.L46
	.loc 1 141 13 view .LVU167
	vldr.32	s13, [r4, #16]
	.loc 1 145 12 view .LVU168
	vldr.32	s15, .L92
	vmul.f32	s15, s13, s15
.L47:
	.loc 1 144 3 is_stmt 1 view .LVU169
	.loc 1 144 10 is_stmt 0 view .LVU170
	vldr.32	s14, [r4, #20]	@ int
	vcvt.f32.s32	s14, s14
	.loc 1 146 51 view .LVU171
	vcmpe.f32	s15, #0
	.loc 1 144 10 view .LVU172
	vadd.f32	s14, s14, s13
	.loc 1 146 51 view .LVU173
	vmrs	APSR_nzcv, FPSCR
	.loc 1 144 10 view .LVU174
	vcvt.s32.f32	s14, s14
	vmov	r2, s14	@ int
	vstr.32	s14, [r4, #20]	@ int
	.loc 1 145 3 is_stmt 1 view .LVU175
	.loc 1 146 3 view .LVU176
	.loc 1 146 51 is_stmt 0 view .LVU177
	bmi	.L90
	.loc 1 146 51 discriminator 2 view .LVU178
	vldr.32	s14, .L92+4
	vcmpe.f32	s15, s14
	vmrs	APSR_nzcv, FPSCR
	movmi	r3, #1
	movpl	r3, #0
.L53:
	.loc 1 146 6 view .LVU179
	cmp	r3, #0
	.loc 1 146 70 view .LVU180
	movne	r3, #0
	strne	r3, [r4, #16]	@ float
	.loc 1 146 6 view .LVU181
	beq	.L91
.L67:
	.loc 1 148 3 is_stmt 1 view .LVU182
	.loc 1 148 35 is_stmt 0 view .LVU183
	ldr	r1, [r4, #4]
.LVL55:
	.loc 1 149 3 is_stmt 1 view .LVU184
	.loc 1 148 7 is_stmt 0 view .LVU185
	lsl	r3, r1, #4
.LVL56:
	.loc 1 149 16 view .LVU186
	rsb	r3, r3, #0
.LVL57:
	.loc 1 149 6 view .LVU187
	cmp	r2, r3
	.loc 1 149 30 is_stmt 1 view .LVU188
	.loc 1 149 37 is_stmt 0 view .LVU189
	movlt	r2, r3
	strlt	r3, [r4, #20]
	.loc 1 150 3 is_stmt 1 view .LVU190
	.loc 1 150 6 is_stmt 0 view .LVU191
	cmp	r2, #0
	.loc 1 150 19 is_stmt 1 view .LVU192
	.loc 1 150 26 is_stmt 0 view .LVU193
	movgt	r3, #0
.LVL58:
	.loc 1 150 26 view .LVU194
	strgt	r3, [r4, #20]
	.loc 1 152 3 is_stmt 1 view .LVU195
	.loc 1 153 3 view .LVU196
.LVL59:
	.loc 1 154 3 view .LVU197
	.loc 1 154 6 is_stmt 0 view .LVU198
	cmp	r1, #0
	ble	.L57
	mov	r7, #0
	mov	r8, #10
.LBB25:
	.loc 1 157 5 view .LVU199
	mov	fp, #1
.LBE25:
	.loc 1 154 42 view .LVU200
	mov	r6, r7
	ldr	r10, .L92+64
	b	.L56
.LVL60:
.L60:
.LBB26:
	.loc 1 162 4 is_stmt 1 view .LVU201
	.loc 1 162 8 is_stmt 0 view .LVU202
	mov	r1, r9
	mov	r3, #14
	mov	r2, #140
	mov	r0, #10
	bl	Gui_EnteredCursorInside
.LVL61:
	.loc 1 165 4 is_stmt 1 view .LVU203
	.loc 1 162 8 is_stmt 0 view .LVU204
	mov	ip, r0
	.loc 1 165 4 view .LVU205
	mov	r9, #0
	.loc 1 162 55 view .LVU206
	cmp	r5, #63
	movgt	ip, #0
	andle	ip, ip, #1
	.loc 1 165 4 view .LVU207
	mvn	lr, #-2147483648
	.loc 1 162 55 view .LVU208
	cmp	ip, r9
	.loc 1 163 5 is_stmt 1 view .LVU209
	.loc 1 165 4 is_stmt 0 view .LVU210
	add	ip, sp, #36
	str	ip, [sp, #16]
	ldr	ip, .L92+68
	ldr	r3, .L92+60
	str	ip, [sp, #12]
	ldr	ip, [sp, #28]
	mvn	r2, #5
	mov	r1, r5
	mov	r0, #20
	str	r9, [sp, #8]
	str	lr, [sp, #4]
	str	fp, [sp]
	str	ip, [sp, #20]
	.loc 1 163 19 view .LVU211
	strne	r6, [r10]
	.loc 1 165 4 view .LVU212
	bl	SpriteBatch_PushText
.LVL62:
.LBE26:
	.loc 1 154 112 is_stmt 1 view .LVU213
	.loc 1 154 71 is_stmt 0 view .LVU214
	ldr	r3, [r4, #4]
	.loc 1 154 112 view .LVU215
	add	r6, r6, #1
.LVL63:
	.loc 1 154 71 is_stmt 1 view .LVU216
	cmp	r3, r6
	add	r7, r7, #272
	add	r8, r8, #16
	ble	.L57
.LVL64:
.L56:
	.loc 1 154 83 is_stmt 0 discriminator 4 view .LVU217
	ldr	r1, [r4]
	mov	r2, #272
	add	r1, r1, r7
	add	r0, sp, #32
	bl	memcpy
.LVL65:
.LBB27:
	.loc 1 155 4 is_stmt 1 discriminator 4 view .LVU218
	.loc 1 155 8 is_stmt 0 discriminator 4 view .LVU219
	ldr	r5, [r4, #20]
	.loc 1 156 7 discriminator 4 view .LVU220
	ldr	r3, [r10]
	.loc 1 155 8 discriminator 4 view .LVU221
	add	r5, r8, r5
.LVL66:
	.loc 1 156 4 is_stmt 1 discriminator 4 view .LVU222
	.loc 1 156 7 is_stmt 0 discriminator 4 view .LVU223
	cmp	r3, r6
	.loc 1 157 5 discriminator 4 view .LVU224
	sub	r9, r5, #3
	.loc 1 156 7 discriminator 4 view .LVU225
	bne	.L60
	.loc 1 157 5 is_stmt 1 view .LVU226
	ldr	r1, .L92+72
	mov	r3, #140
	str	r1, [sp, #4]
	mvn	r2, #6
	mov	r1, r9
	mov	r0, #10
	str	fp, [sp]
	bl	SpriteBatch_PushSingleColorQuad
.LVL67:
	.loc 1 158 5 view .LVU227
	mov	r0, #10
	ldr	r1, .L92+72
	mov	r3, #140
	str	r1, [sp, #4]
	mvn	r2, #6
	add	r1, r5, r0
	str	fp, [sp]
	bl	SpriteBatch_PushSingleColorQuad
.LVL68:
	.loc 1 159 5 view .LVU228
	mov	r3, #14
	ldr	r1, .L92+72
	str	r3, [sp]
	str	r1, [sp, #4]
	mov	r3, #1
	mov	r1, r9
	mvn	r2, #6
	mov	r0, #10
	bl	SpriteBatch_PushSingleColorQuad
.LVL69:
	.loc 1 160 5 view .LVU229
	mov	r1, #14
	ldr	r3, .L92+72
	mvn	r2, #6
	stm	sp, {r1, r3}
	mov	r0, #150
	mov	r3, #1
	mov	r1, r9
	bl	SpriteBatch_PushSingleColorQuad
.LVL70:
	b	.L60
.LVL71:
.L46:
	.loc 1 160 5 is_stmt 0 view .LVU230
.LBE27:
	.loc 1 141 4 is_stmt 1 view .LVU231
	.loc 1 141 26 is_stmt 0 view .LVU232
	vldr.32	s15, [sp, #28]	@ int
	vldr.32	s12, .L92+8
	vcvt.f32.s32	s15, s15
	.loc 1 141 13 view .LVU233
	vldr.32	s13, [r4, #16]
	.loc 1 142 60 view .LVU234
	vldr.32	s14, .L92+12
	.loc 1 141 13 view .LVU235
	vmla.f32	s13, s15, s12
	.loc 1 142 4 is_stmt 1 view .LVU236
	.loc 1 142 60 is_stmt 0 view .LVU237
	vcmpe.f32	s13, s14
	vmrs	APSR_nzcv, FPSCR
	ble	.L82
	.loc 1 142 163 discriminator 4 view .LVU238
	vldr.32	s14, .L92+16
	vcmpe.f32	s13, s14
	vmrs	APSR_nzcv, FPSCR
	.loc 1 145 12 discriminator 4 view .LVU239
	vldrmi.32	s15, .L92
	vmulmi.f32	s15, s13, s15
	.loc 1 142 163 discriminator 4 view .LVU240
	vldrpl.32	s15, .L92+20
	.loc 1 142 163 view .LVU241
	vmovpl.f32	s13, s14
	b	.L47
.L89:
.LBE24:
	.loc 1 188 3 is_stmt 1 view .LVU242
	mov	r1, #10
	mov	r0, r6
	bl	Gui_Offset
.LVL72:
	.loc 1 189 3 view .LVU243
	vldr.32	s0, .L92+24
	bl	Gui_RelativeWidth
.LVL73:
	mov	r1, #3
	bl	Gui_BeginRowCenter
.LVL74:
	.loc 1 190 3 view .LVU244
	ldr	r1, .L92+76
	mov	r3, r6
	ldr	r2, .L92+60
	ldr	r0, .L92+80
	str	r1, [sp]
	.loc 1 192 7 is_stmt 0 view .LVU245
	ldr	r5, .L92+64
	.loc 1 190 3 view .LVU246
	mov	r1, #1
	bl	Gui_Label
.LVL75:
	.loc 1 191 3 is_stmt 1 view .LVU247
	vldr.32	s0, .L92+28
	bl	Gui_Space
.LVL76:
	.loc 1 192 3 view .LVU248
	.loc 1 192 7 is_stmt 0 view .LVU249
	ldrb	r2, [r5, #4]	@ zero_extendqisi2
	ldr	r3, .L92+84
	ldr	r1, .L92+68
	ldr	r2, [r3, r2, lsl #2]
	ldr	r0, .L92+80
	bl	Gui_Button
.LVL77:
	.loc 1 192 6 view .LVU250
	cmp	r0, #0
	beq	.L64
	.loc 1 193 4 is_stmt 1 view .LVU251
	.loc 1 193 16 is_stmt 0 view .LVU252
	ldrb	r3, [r5, #4]	@ zero_extendqisi2
	add	r3, r3, #1
	uxtb	r3, r3
	.loc 1 194 4 is_stmt 1 view .LVU253
	.loc 1 194 7 is_stmt 0 view .LVU254
	cmp	r3, #4
	.loc 1 193 16 view .LVU255
	strbne	r3, [r5, #4]
	.loc 1 194 45 is_stmt 1 view .LVU256
	.loc 1 194 58 is_stmt 0 view .LVU257
	strbeq	r6, [r5, #4]
.L64:
	.loc 1 196 3 is_stmt 1 view .LVU258
	bl	Gui_EndRow
.LVL78:
	.loc 1 208 3 view .LVU259
	vldr.32	s0, .L92+32
	bl	Gui_RelativeHeight
.LVL79:
	bl	Gui_VerticalSpace
.LVL80:
	.loc 1 210 3 view .LVU260
	vldr.32	s0, .L92+24
	bl	Gui_RelativeWidth
.LVL81:
	mov	r1, #3
	bl	Gui_BeginRowCenter
.LVL82:
	.loc 1 211 3 view .LVU261
	.loc 1 211 28 is_stmt 0 view .LVU262
	ldr	r1, .L92+88
	ldr	r0, .L92+80
	bl	Gui_Button
.LVL83:
	.loc 1 212 3 view .LVU263
	vldr.32	s0, .L92+28
	.loc 1 211 26 view .LVU264
	strb	r0, [r4, #29]
	.loc 1 212 3 is_stmt 1 view .LVU265
	bl	Gui_Space
.LVL84:
	.loc 1 213 3 view .LVU266
	.loc 1 213 29 is_stmt 0 view .LVU267
	ldr	r1, .L92+92
	ldr	r0, .L92+80
	bl	Gui_Button
.LVL85:
	.loc 1 213 27 view .LVU268
	strb	r0, [r4, #30]
	.loc 1 215 1 view .LVU269
	add	sp, sp, #308
	.cfi_remember_state
	.cfi_def_cfa_offset 36
	@ sp needed
	pop	{r4, r5, r6, r7, r8, r9, r10, fp, pc}
.L91:
	.cfi_restore_state
.LBB28:
	.loc 1 145 12 view .LVU270
	vstr.32	s15, [r4, #16]
	b	.L67
.L57:
	.loc 1 168 3 is_stmt 1 view .LVU271
	mov	r1, #75
	mov	r0, #0
	bl	Gui_Offset
.LVL86:
	.loc 1 169 3 view .LVU272
	vldr.32	s0, .L92+36
	bl	Gui_RelativeWidth
.LVL87:
	mov	r1, #1
	bl	Gui_BeginRowCenter
.LVL88:
	.loc 1 170 3 view .LVU273
	.loc 1 170 18 is_stmt 0 view .LVU274
	ldr	r1, .L92+96
	mov	r0, #1065353216
	bl	Gui_Button
.LVL89:
	.loc 1 170 16 view .LVU275
	strb	r0, [r4, #24]
	.loc 1 171 3 is_stmt 1 view .LVU276
	bl	Gui_EndRow
.LVL90:
	.loc 1 172 3 view .LVU277
	vldr.32	s0, .L92+36
	bl	Gui_RelativeWidth
.LVL91:
	mov	r1, #2
	bl	Gui_BeginRowCenter
.LVL92:
	.loc 1 173 3 view .LVU278
	.loc 1 173 23 is_stmt 0 view .LVU279
	ldr	r1, .L92+100
	mov	r0, #1056964608
	bl	Gui_Button
.LVL93:
	mov	r3, r0
	.loc 1 174 26 view .LVU280
	ldr	r1, .L92+104
	mov	r0, #1056964608
	.loc 1 173 21 view .LVU281
	strb	r3, [r4, #25]
	.loc 1 174 3 is_stmt 1 view .LVU282
	.loc 1 174 26 is_stmt 0 view .LVU283
	bl	Gui_Button
.LVL94:
	.loc 1 174 24 view .LVU284
	strb	r0, [r4, #26]
	.loc 1 175 3 is_stmt 1 view .LVU285
	bl	Gui_EndRow
.LVL95:
.LBE28:
	.loc 1 215 1 is_stmt 0 view .LVU286
	add	sp, sp, #308
	.cfi_remember_state
	.cfi_def_cfa_offset 36
	@ sp needed
	pop	{r4, r5, r6, r7, r8, r9, r10, fp, pc}
.L90:
	.cfi_restore_state
.LBB29:
	.loc 1 146 51 discriminator 1 view .LVU287
	vldr.32	s14, .L92+40
	vcmpe.f32	s15, s14
	vmrs	APSR_nzcv, FPSCR
	movgt	r3, #1
	movle	r3, #0
	b	.L53
.L88:
.LBE29:
	.loc 1 177 3 is_stmt 1 view .LVU288
	mov	r1, #10
	mov	r0, r6
	bl	Gui_Offset
.LVL96:
	.loc 1 178 3 view .LVU289
	bl	SpriteBatch_GetWidth
.LVL97:
	mov	r1, r5
	bl	Gui_BeginRow
.LVL98:
	.loc 1 179 3 view .LVU290
	ldr	r0, .L92+108
	mov	r3, r5
	ldr	r2, .L92+60
	mov	r1, r5
	str	r0, [sp]
	mov	r0, #0
	bl	Gui_Label
.LVL99:
	.loc 1 180 3 view .LVU291
	bl	Gui_EndRow
.LVL100:
	.loc 1 181 3 view .LVU292
	vldr.32	s0, .L92+32
	bl	Gui_RelativeHeight
.LVL101:
	bl	Gui_VerticalSpace
.LVL102:
	.loc 1 182 3 view .LVU293
	vldr.32	s0, .L92+44
	bl	Gui_RelativeWidth
.LVL103:
	mov	r1, #3
	bl	Gui_BeginRowCenter
.LVL104:
	.loc 1 183 3 view .LVU294
	.loc 1 183 23 is_stmt 0 view .LVU295
	ldr	r1, .L92+112
	ldr	r0, .L92+116
	bl	Gui_Button
.LVL105:
	.loc 1 184 3 view .LVU296
	vldr.32	s0, .L92+48
	.loc 1 183 21 view .LVU297
	strb	r0, [r4, #27]
	.loc 1 184 3 is_stmt 1 view .LVU298
	bl	Gui_Space
.LVL106:
	.loc 1 185 3 view .LVU299
	.loc 1 185 24 is_stmt 0 view .LVU300
	ldr	r1, .L92+120
	ldr	r0, .L92+116
	bl	Gui_Button
.LVL107:
	.loc 1 185 22 view .LVU301
	strb	r0, [r4, #28]
	.loc 1 186 3 is_stmt 1 view .LVU302
	.loc 1 215 1 is_stmt 0 view .LVU303
	add	sp, sp, #308
	.cfi_remember_state
	.cfi_def_cfa_offset 36
	@ sp needed
	pop	{r4, r5, r6, r7, r8, r9, r10, fp, lr}
	.cfi_restore 14
	.cfi_restore 11
	.cfi_restore 10
	.cfi_restore 9
	.cfi_restore 8
	.cfi_restore 7
	.cfi_restore 6
	.cfi_restore 5
	.cfi_restore 4
	.cfi_def_cfa_offset 0
	.loc 1 186 3 view .LVU304
	b	Gui_EndRow
.LVL108:
.L93:
	.align	2
.L92:
	.word	1061158912
	.word	981668463
	.word	1056964608
	.word	-1046478848
	.word	1101004800
	.word	1097859072
	.word	1063675494
	.word	1036831949
	.word	1053609165
	.word	1064514355
	.word	-1165815185
	.word	1061997773
	.word	1045220557
	.word	.LANCHOR0
	.word	12684
	.word	32767
	.word	.LANCHOR1
	.word	.LC4
	.word	21140
	.word	.LC11
	.word	1055286886
	.word	.LANCHOR2
	.word	.LC12
	.word	.LC13
	.word	.LC5
	.word	.LC6
	.word	.LC7
	.word	.LC8
	.word	.LC9
	.word	1053609165
	.word	.LC10
	.word	-1049624576
.L82:
	.cfi_restore_state
.LBB30:
	vldr.32	s15, .L92+124
	.loc 1 142 60 view .LVU305
	vmov.f32	s13, s14
	b	.L47
.LBE30:
	.cfi_endproc
.LFE356:
	.size	WorldSelect_Render, .-WorldSelect_Render
	.section	.rodata.str1.4
	.align	2
.LC14:
	.ascii	"Enter the world name\000"
	.align	2
.LC15:
	.ascii	"sdmc:/craftus_redesigned/saves/%s\000"
	.section	.text.WorldSelect_Update,"ax",%progbits
	.align	2
	.global	WorldSelect_Update
	.syntax unified
	.arm
	.fpu vfp
	.type	WorldSelect_Update, %function
WorldSelect_Update:
.LVL109:
.LFB357:
	.loc 1 217 102 is_stmt 1 view -0
	.cfi_startproc
	@ args = 0, pretend = 0, frame = 512
	@ frame_needed = 0, uses_anonymous_args = 0
	.loc 1 218 2 view .LVU307
	.loc 1 217 102 is_stmt 0 view .LVU308
	push	{r4, r5, r6, r7, r8, r9, r10, fp, lr}
	.cfi_def_cfa_offset 36
	.cfi_offset 4, -36
	.cfi_offset 5, -32
	.cfi_offset 6, -28
	.cfi_offset 7, -24
	.cfi_offset 8, -20
	.cfi_offset 9, -16
	.cfi_offset 10, -12
	.cfi_offset 11, -8
	.cfi_offset 14, -4
	.loc 1 218 6 view .LVU309
	ldr	r4, .L149
	.loc 1 217 102 view .LVU310
	mov	r8, r3
	.loc 1 219 3 is_stmt 1 view .LVU311
	.loc 1 218 5 is_stmt 0 view .LVU312
	ldrb	ip, [r4, #25]	@ zero_extendqisi2
	.loc 1 222 6 view .LVU313
	ldrb	r5, [r4, #30]	@ zero_extendqisi2
	.loc 1 218 5 view .LVU314
	cmp	ip, #0
	.loc 1 219 21 view .LVU315
	movne	r3, #0
.LVL110:
	.loc 1 219 21 view .LVU316
	strbne	r3, [r4, #25]
	.loc 1 220 3 is_stmt 1 view .LVU317
	.loc 1 220 13 is_stmt 0 view .LVU318
	movne	r3, #2
	strbne	r3, [r4, #12]
	.loc 1 222 2 is_stmt 1 view .LVU319
	.loc 1 222 5 is_stmt 0 view .LVU320
	cmp	r5, #0
	.loc 1 217 102 view .LVU321
	mov	r6, r0
	mov	r7, r1
	sub	sp, sp, #516
	.cfi_def_cfa_offset 552
	.loc 1 222 5 view .LVU322
	bne	.L144
.LVL111:
.L96:
	.loc 1 275 2 is_stmt 1 view .LVU323
	.loc 1 275 6 is_stmt 0 view .LVU324
	ldrb	r5, [r4, #24]	@ zero_extendqisi2
	.loc 1 275 5 view .LVU325
	cmp	r5, #0
	bne	.L145
	.loc 1 284 2 is_stmt 1 view .LVU326
	.loc 1 284 5 is_stmt 0 view .LVU327
	ldrb	r3, [r4, #26]	@ zero_extendqisi2
	cmp	r3, #0
	beq	.L108
	.loc 1 284 44 discriminator 1 view .LVU328
	ldr	r3, .L149+4
	.loc 1 284 27 discriminator 1 view .LVU329
	ldr	r3, [r3]
	cmn	r3, #1
	.loc 1 285 3 is_stmt 1 discriminator 1 view .LVU330
	.loc 1 286 13 is_stmt 0 discriminator 1 view .LVU331
	movne	r3, #1
	.loc 1 285 24 discriminator 1 view .LVU332
	strbne	r5, [r4, #26]
	.loc 1 286 3 is_stmt 1 discriminator 1 view .LVU333
	.loc 1 286 13 is_stmt 0 discriminator 1 view .LVU334
	strbne	r3, [r4, #12]
.L108:
	.loc 1 288 2 is_stmt 1 view .LVU335
	.loc 1 288 5 is_stmt 0 view .LVU336
	ldrb	r3, [r4, #28]	@ zero_extendqisi2
	cmp	r3, #0
	bne	.L146
.L109:
	.loc 1 297 2 is_stmt 1 view .LVU337
	.loc 1 297 5 is_stmt 0 view .LVU338
	ldrb	r3, [r4, #27]	@ zero_extendqisi2
	.loc 1 301 6 view .LVU339
	ldrb	r5, [r4, #29]	@ zero_extendqisi2
	.loc 1 297 5 view .LVU340
	cmp	r3, #0
	.loc 1 298 3 is_stmt 1 view .LVU341
	.loc 1 298 21 is_stmt 0 view .LVU342
	movne	r3, #0
	strbne	r3, [r4, #27]
	.loc 1 299 3 is_stmt 1 view .LVU343
	.loc 1 299 13 is_stmt 0 view .LVU344
	strbne	r3, [r4, #12]
	.loc 1 301 2 is_stmt 1 view .LVU345
	.loc 1 301 5 is_stmt 0 view .LVU346
	cmp	r5, #0
	.loc 1 302 3 is_stmt 1 view .LVU347
	.loc 1 302 26 is_stmt 0 view .LVU348
	movne	r3, #0
	.loc 1 306 8 view .LVU349
	movne	r5, r3
	.loc 1 302 26 view .LVU350
	strbne	r3, [r4, #29]
	.loc 1 303 3 is_stmt 1 view .LVU351
	.loc 1 303 13 is_stmt 0 view .LVU352
	strbne	r3, [r4, #12]
.L112:
	.loc 1 307 1 view .LVU353
	mov	r0, r5
	add	sp, sp, #516
	.cfi_remember_state
	.cfi_def_cfa_offset 36
	@ sp needed
	pop	{r4, r5, r6, r7, r8, r9, r10, fp, pc}
.LVL112:
.L145:
	.cfi_restore_state
	.loc 1 275 36 discriminator 1 view .LVU354
	ldr	r3, .L149+4
	ldr	r3, [r3]
	.loc 1 275 19 discriminator 1 view .LVU355
	cmn	r3, #1
	beq	.L108
	.loc 1 276 3 is_stmt 1 view .LVU356
	.loc 1 276 16 is_stmt 0 view .LVU357
	mov	r9, #0
	.loc 1 277 31 view .LVU358
	ldr	r1, [r4]
	add	r3, r3, r3, lsl #4
	add	r1, r1, r3, lsl #4
	.loc 1 277 3 view .LVU359
	mov	r0, r7
	add	r1, r1, #4
	.loc 1 277 31 view .LVU360
	lsl	r7, r3, #4
.LVL113:
	.loc 1 276 16 view .LVU361
	strb	r9, [r4, #24]
	.loc 1 277 3 is_stmt 1 view .LVU362
	bl	strcpy
.LVL114:
	.loc 1 278 3 view .LVU363
	.loc 1 278 36 is_stmt 0 view .LVU364
	ldr	r1, [r4]
	.loc 1 278 3 view .LVU365
	mov	r0, r6
	.loc 1 278 36 view .LVU366
	add	r1, r1, r7
	.loc 1 278 3 view .LVU367
	add	r1, r1, #16
	bl	strcpy
.LVL115:
	.loc 1 280 3 is_stmt 1 view .LVU368
	.loc 1 307 1 is_stmt 0 view .LVU369
	mov	r0, r5
	.loc 1 280 13 view .LVU370
	strb	r9, [r8]
	.loc 1 281 3 is_stmt 1 view .LVU371
	.loc 1 281 13 is_stmt 0 view .LVU372
	strb	r9, [r4, #12]
	.loc 1 282 3 is_stmt 1 view .LVU373
	.loc 1 307 1 is_stmt 0 view .LVU374
	add	sp, sp, #516
	.cfi_remember_state
	.cfi_def_cfa_offset 36
	@ sp needed
	pop	{r4, r5, r6, r7, r8, r9, r10, fp, pc}
.LVL116:
.L144:
	.cfi_restore_state
.LBB31:
	.loc 1 223 3 is_stmt 1 view .LVU375
	.loc 1 223 27 is_stmt 0 view .LVU376
	mov	r9, #0
	.loc 1 224 14 view .LVU377
	ldr	r3, .L149+4
	.loc 1 231 3 view .LVU378
	mov	r1, #3
.LVL117:
	.loc 1 224 14 view .LVU379
	ldrb	r3, [r3, #4]	@ zero_extendqisi2
	.loc 1 231 3 view .LVU380
	ldr	r0, .L149+8
.LVL118:
	.loc 1 224 14 view .LVU381
	strb	r3, [r2]
	.loc 1 231 3 view .LVU382
	mov	r2, #2
.LVL119:
	.loc 1 231 3 view .LVU383
	mov	r3, #12
	.loc 1 223 27 view .LVU384
	strb	r9, [r4, #30]
	.loc 1 224 3 is_stmt 1 view .LVU385
	.loc 1 227 3 view .LVU386
	.loc 1 228 3 view .LVU387
	.loc 1 231 3 view .LVU388
	bl	swkbdInit
.LVL120:
	.loc 1 232 3 view .LVU389
.LBB32:
.LBI32:
	.file 2 "/opt/devkitpro/libctru/include/3ds/applets/swkbd.h"
	.loc 2 213 20 view .LVU390
.LBB33:
	.loc 2 215 2 view .LVU391
	.loc 2 215 21 is_stmt 0 view .LVU392
	mov	r3, #2
.LBE33:
.LBE32:
	.loc 1 233 3 view .LVU393
	ldr	r1, .L149+12
	ldr	r0, .L149+8
.LBB36:
.LBB34:
	.loc 2 215 21 view .LVU394
	str	r3, [r4, #40]
	.loc 2 216 2 is_stmt 1 view .LVU395
	.loc 2 217 2 view .LVU396
.LVL121:
	.loc 2 217 2 is_stmt 0 view .LVU397
.LBE34:
.LBE36:
	.loc 1 233 3 is_stmt 1 view .LVU398
.LBB37:
.LBB35:
	.loc 2 216 22 is_stmt 0 view .LVU399
	str	r9, [r4, #56]
	.loc 2 217 20 view .LVU400
	strh	r9, [r4, #68]	@ movhi
.LBE35:
.LBE37:
	.loc 1 233 3 view .LVU401
	bl	swkbdSetHintText
.LVL122:
	.loc 1 235 3 is_stmt 1 view .LVU402
	.loc 1 235 16 is_stmt 0 view .LVU403
	ldr	r1, .L149+16
	mov	r2, #12
	sub	r0, r1, #1024
	bl	swkbdInputText
.LVL123:
	mov	r10, r0
	.loc 1 241 3 view .LVU404
	ldr	r1, .L149+16
	mov	r0, r7
.LVL124:
	.loc 1 241 3 is_stmt 1 view .LVU405
	bl	stpcpy
.LVL125:
	.loc 1 243 6 is_stmt 0 view .LVU406
	cmp	r10, #2
	.loc 1 242 3 is_stmt 1 view .LVU407
	.loc 1 243 3 view .LVU408
	.loc 1 242 13 is_stmt 0 view .LVU409
	strb	r9, [r4, #12]
	.loc 1 243 6 view .LVU410
	bne	.L96
.LBB38:
	.loc 1 244 4 is_stmt 1 view .LVU411
.LBE38:
	.loc 1 241 3 is_stmt 0 view .LVU412
	sub	r9, r0, r7
.LBB43:
	.loc 1 244 4 view .LVU413
	mov	r1, r7
	mov	r0, r6
	add	r2, r9, #1
	bl	memcpy
.LVL126:
	.loc 1 246 4 is_stmt 1 view .LVU414
	.loc 1 248 4 view .LVU415
.LBB39:
	.loc 1 248 9 view .LVU416
	.loc 1 248 22 view .LVU417
	cmp	r9, #0
	beq	.L97
	sub	r2, r6, #1
	.loc 1 252 23 is_stmt 0 view .LVU418
	mov	ip, #95
	mov	lr, #53
	add	r0, r2, r9
	b	.L101
.LVL127:
.L147:
	.loc 1 252 23 view .LVU419
	sub	r1, r3, #58
	uxtb	r1, r1
	cmp	r3, #57
	lsr	r1, lr, r1
	bls	.L100
	tst	r1, #1
	beq	.L100
.L98:
	strb	ip, [r2]
.L100:
	.loc 1 248 33 is_stmt 1 discriminator 2 view .LVU420
	.loc 1 248 22 discriminator 2 view .LVU421
	cmp	r0, r2
	beq	.L97
.L101:
	.loc 1 249 5 view .LVU422
	.loc 1 252 6 view .LVU423
	.loc 1 249 22 is_stmt 0 view .LVU424
	ldrb	r3, [r2, #1]!	@ zero_extendqisi2
	.loc 1 249 8 view .LVU425
	cmp	r3, #92
	cmpne	r3, #47
	beq	.L98
	cmp	r3, #63
	bls	.L147
	cmp	r3, #124
	bne	.L100
	b	.L98
.LVL128:
.L146:
	.loc 1 249 8 view .LVU426
.LBE39:
.LBE43:
.LBE31:
.LBB47:
	.loc 1 289 3 is_stmt 1 view .LVU427
	.loc 1 289 22 is_stmt 0 view .LVU428
	mov	r5, #0
	.loc 1 291 67 view .LVU429
	ldr	r3, .L149+4
	ldr	r2, [r4]
	ldr	r3, [r3]
	.loc 1 291 3 view .LVU430
	ldr	r1, .L149+20
	.loc 1 291 67 view .LVU431
	add	r3, r3, r3, lsl #4
	add	r2, r2, r3, lsl #4
	.loc 1 291 3 view .LVU432
	add	r2, r2, #16
	mov	r0, sp
	.loc 1 289 22 view .LVU433
	strb	r5, [r4, #28]
	.loc 1 290 3 is_stmt 1 view .LVU434
	.loc 1 291 3 view .LVU435
	bl	sprintf
.LVL129:
	.loc 1 292 3 view .LVU436
	mov	r0, sp
	bl	delete_folder
.LVL130:
	.loc 1 294 3 view .LVU437
	bl	WorldSelect_ScanWorlds
.LVL131:
	.loc 1 295 3 view .LVU438
	.loc 1 295 13 is_stmt 0 view .LVU439
	strb	r5, [r4, #12]
	b	.L109
.LVL132:
.L97:
	.loc 1 295 13 view .LVU440
.LBE47:
.LBB48:
.LBB44:
	.loc 1 255 4 is_stmt 1 view .LVU441
.LBB40:
	.loc 1 256 5 view .LVU442
	.loc 1 257 5 view .LVU443
	.loc 1 258 4 view .LVU444
	.loc 1 259 5 view .LVU445
	.loc 1 259 19 is_stmt 0 view .LVU446
	ldr	r7, [r4, #4]
.LVL133:
	.loc 1 259 8 view .LVU447
	cmp	r7, #0
	ble	.L102
	add	r9, r6, r9
.LVL134:
.L111:
	.loc 1 259 44 view .LVU448
	mov	fp, #0
	ldr	r1, [r4]
	add	r10, r1, #16
.L103:
.LVL135:
	.loc 1 259 122 is_stmt 1 discriminator 5 view .LVU449
	.loc 1 259 127 is_stmt 0 discriminator 5 view .LVU450
	mov	r1, r10
	mov	r0, r6
	bl	strcmp
.LVL136:
	.loc 1 259 115 is_stmt 1 discriminator 5 view .LVU451
	.loc 1 259 125 is_stmt 0 discriminator 5 view .LVU452
	cmp	r0, #0
	.loc 1 259 115 discriminator 5 view .LVU453
	add	fp, fp, #1
.LVL137:
	.loc 1 259 73 is_stmt 1 discriminator 5 view .LVU454
	add	r10, r10, #272
.LVL138:
	.loc 1 259 125 is_stmt 0 discriminator 5 view .LVU455
	beq	.L148
	.loc 1 259 73 discriminator 3 view .LVU456
	cmp	fp, r7
	blt	.L103
.LVL139:
.L102:
	.loc 1 259 73 discriminator 3 view .LVU457
.LBE40:
	.loc 1 270 4 is_stmt 1 view .LVU458
	.loc 1 270 14 is_stmt 0 view .LVU459
	mov	r3, #1
.LBE44:
.LBE48:
	.loc 1 307 1 view .LVU460
	mov	r0, r5
.LBB49:
.LBB45:
	.loc 1 270 14 view .LVU461
	strb	r3, [r8]
	.loc 1 272 4 is_stmt 1 view .LVU462
.LBE45:
.LBE49:
	.loc 1 307 1 is_stmt 0 view .LVU463
	add	sp, sp, #516
	.cfi_remember_state
	.cfi_def_cfa_offset 36
	@ sp needed
	pop	{r4, r5, r6, r7, r8, r9, r10, fp, pc}
.LVL140:
.L148:
	.cfi_restore_state
.LBB50:
.LBB46:
.LBB41:
	.loc 1 263 5 is_stmt 1 view .LVU464
	.loc 1 265 5 view .LVU465
	.loc 1 265 27 is_stmt 0 view .LVU466
	mov	r3, #95
	strb	r3, [r9]
	.loc 1 266 5 is_stmt 1 view .LVU467
	.loc 1 266 31 is_stmt 0 view .LVU468
	strb	r0, [r9, #1]!
	.loc 1 267 5 is_stmt 1 view .LVU469
	.loc 1 267 5 is_stmt 0 view .LVU470
.LBE41:
	.loc 1 255 10 is_stmt 1 view .LVU471
	.loc 1 255 4 view .LVU472
.LBB42:
	.loc 1 256 5 view .LVU473
	.loc 1 257 5 view .LVU474
	.loc 1 258 4 view .LVU475
.LVL141:
	.loc 1 259 5 view .LVU476
	.loc 1 259 19 is_stmt 0 view .LVU477
	ldr	r7, [r4, #4]
	.loc 1 259 8 view .LVU478
	cmp	r7, #0
	bgt	.L111
	b	.L102
.L150:
	.align	2
.L149:
	.word	.LANCHOR0
	.word	.LANCHOR1
	.word	.LANCHOR0+32
	.word	.LC14
	.word	.LANCHOR0+1056
	.word	.LC15
.LBE42:
.LBE46:
.LBE50:
	.cfi_endproc
.LFE357:
	.size	WorldSelect_Update, .-WorldSelect_Update
	.section	.rodata.str1.4
	.align	2
.LC16:
	.ascii	"Smea\000"
	.align	2
.LC17:
	.ascii	"Superflat\000"
	.align	2
.LC18:
	.ascii	"FlatBedrock\000"
	.align	2
.LC19:
	.ascii	"Default\000"
	.section	.rodata
	.align	2
	.set	.LANCHOR2,. + 0
	.type	worldGenTypesStr, %object
	.size	worldGenTypesStr, 16
worldGenTypesStr:
	.word	.LC16
	.word	.LC17
	.word	.LC18
	.word	.LC19
	.data
	.align	2
	.set	.LANCHOR1,. + 0
	.type	selectedWorld, %object
	.size	selectedWorld, 4
selectedWorld:
	.word	-1
	.type	worldGenType, %object
	.size	worldGenType, 1
worldGenType:
	.byte	1
	.bss
	.align	2
	.set	.LANCHOR0,. + 0
	.type	worlds, %object
	.size	worlds, 12
worlds:
	.space	12
	.type	menustate, %object
	.size	menustate, 1
menustate:
	.space	1
	.space	3
	.type	velocity, %object
	.size	velocity, 4
velocity:
	.space	4
	.type	scroll, %object
	.size	scroll, 4
scroll:
	.space	4
	.type	clicked_play, %object
	.size	clicked_play, 1
clicked_play:
	.space	1
	.type	clicked_new_world, %object
	.size	clicked_new_world, 1
clicked_new_world:
	.space	1
	.type	clicked_delete_world, %object
	.size	clicked_delete_world, 1
clicked_delete_world:
	.space	1
	.type	canceled_deletion, %object
	.size	canceled_deletion, 1
canceled_deletion:
	.space	1
	.type	confirmed_deletion, %object
	.size	confirmed_deletion, 1
confirmed_deletion:
	.space	1
	.type	canceled_world_options, %object
	.size	canceled_world_options, 1
canceled_world_options:
	.space	1
	.type	confirmed_world_options, %object
	.size	confirmed_world_options, 1
confirmed_world_options:
	.space	1
	.space	1
	.type	swkbd.1, %object
	.size	swkbd.1, 1024
swkbd.1:
	.space	1024
	.type	name.0, %object
	.size	name.0, 12
name.0:
	.space	12
	.text
.Letext0:
	.file 3 "/opt/devkitpro/devkitARM/arm-none-eabi/include/machine/_default_types.h"
	.file 4 "/opt/devkitpro/devkitARM/arm-none-eabi/include/sys/_stdint.h"
	.file 5 "/opt/devkitpro/devkitARM/lib/gcc/arm-none-eabi/11.2.0/include/stddef.h"
	.file 6 "/opt/devkitpro/devkitARM/arm-none-eabi/include/machine/_types.h"
	.file 7 "/opt/devkitpro/devkitARM/arm-none-eabi/include/sys/types.h"
	.file 8 "/opt/devkitpro/libctru/include/3ds/types.h"
	.file 9 "/home/tobi/Dokumente/Craftus-Next/include/blocks/Block.h"
	.file 10 "/opt/devkitpro/libctru/include/3ds/services/csnd.h"
	.file 11 "/opt/devkitpro/libctru/include/3ds/services/ndm.h"
	.file 12 "/opt/devkitpro/libctru/include/3ds/gpu/enums.h"
	.file 13 "/opt/devkitpro/libctru/include/3ds/ndsp/channel.h"
	.file 14 "/opt/devkitpro/libctru/include/3ds/applets/error.h"
	.file 15 "/home/tobi/Dokumente/Craftus-Next/include/world/World.h"
	.file 16 "/home/tobi/Dokumente/Craftus-Next/include/blocks/Item.h"
	.file 17 "/home/tobi/Dokumente/Craftus-Next/include/gui/SpriteBatch.h"
	.file 18 "/opt/devkitpro/devkitARM/arm-none-eabi/include/sys/iosupport.h"
	.file 19 "/opt/devkitpro/devkitARM/arm-none-eabi/include/sys/dirent.h"
	.file 20 "/home/tobi/Dokumente/Craftus-Next/dependencies/mpack/mpack.h"
	.file 21 "/opt/devkitpro/devkitARM/arm-none-eabi/include/sys/unistd.h"
	.file 22 "/opt/devkitpro/devkitARM/arm-none-eabi/include/string.h"
	.file 23 "/home/tobi/Dokumente/Craftus-Next/include/gui/Gui.h"
	.file 24 "/opt/devkitpro/devkitARM/arm-none-eabi/include/stdlib.h"
	.file 25 "/opt/devkitpro/devkitARM/arm-none-eabi/include/dirent.h"
	.file 26 "/home/tobi/Dokumente/Craftus-Next/dependencies/vec/vec.h"
	.file 27 "/opt/devkitpro/devkitARM/arm-none-eabi/include/stdio.h"
	.file 28 "<built-in>"