	.arch armv6k
	.eabi_attribute 28, 1
	.eabi_attribute 20, 1
	.eabi_attribute 21, 1
	.eabi_attribute 23, 3
	.eabi_attribute 24, 1
	.eabi_attribute 25, 1
	.eabi_attribute 26, 1
	.eabi_attribute 30, 2
	.eabi_attribute 34, 1
	.eabi_attribute 18, 4
	.file	"WorldRenderer.c"
	.text
.Ltext0:
	.cfi_sections	.debug_frame
	.section	.rodata.str1.4,"aMS",%progbits,1
	.align	2
.LC0:
	.ascii	"Clusters drawn %d with %d steps. %d vertices\000"
	.align	2
.LC1:
	.ascii	"T: %u P: %u %d\000"
	.section	.text.renderWorld,"ax",%progbits
	.align	2
	.syntax unified
	.arm
	.fpu vfp
	.type	renderWorld, %function
renderWorld:
.LFB226:
	.file 1 "/home/tobi/Dokumente/Craftus-Next/source/rendering/WorldRenderer.c"
	.loc 1 91 27 view -0
	.cfi_startproc
	@ args = 0, pretend = 0, frame = 216
	@ frame_needed = 0, uses_anonymous_args = 0
	.loc 1 93 2 view .LVU1
	.loc 1 91 27 is_stmt 0 view .LVU2
	push	{r4, r5, r6, r7, r8, r9, r10, fp, lr}
	.cfi_def_cfa_offset 36
	.cfi_offset 4, -36
	.cfi_offset 5, -32
	.cfi_offset 6, -28
	.cfi_offset 7, -24
	.cfi_offset 8, -20
	.cfi_offset 9, -16
	.cfi_offset 10, -12
	.cfi_offset 11, -8
	.cfi_offset 14, -4
	vpush.64	{d8, d9, d10, d11}
	.cfi_def_cfa_offset 68
	.cfi_offset 80, -68
	.cfi_offset 81, -64
	.cfi_offset 82, -60
	.cfi_offset 83, -56
	.cfi_offset 84, -52
	.cfi_offset 85, -48
	.cfi_offset 86, -44
	.cfi_offset 87, -40
	.loc 1 95 2 view .LVU3
	ldr	fp, .L58+20
	.loc 1 91 27 view .LVU4
	sub	sp, sp, #228
	.cfi_def_cfa_offset 296
	.loc 1 93 2 view .LVU5
	ldr	r0, .L58+24
	bl	C3D_FogColor
.LVL0:
	.loc 1 95 2 is_stmt 1 view .LVU6
	mov	r2, #648
	mov	r1, #0
	mov	r0, fp
	bl	memset
.LVL1:
	.loc 1 97 2 view .LVU7
	.loc 1 99 2 view .LVU8
	.loc 1 102 49 is_stmt 0 view .LVU9
	ldr	r3, [fp, #672]
	.loc 1 99 29 view .LVU10
	mov	r2, #0
	.loc 1 102 15 view .LVU11
	vldr.32	s10, [r3, #4]
.LBB99:
.LBB100:
	.file 2 "/home/tobi/Dokumente/Craftus-Next/include/misc/NumberUtils.h"
	.loc 2 25 47 view .LVU12
	vcvt.s32.f32	s13, s10
	.loc 2 25 58 view .LVU13
	vcvt.f32.s32	s7, s13
.LBE100:
.LBE99:
	.loc 1 104 6 view .LVU14
	vldr.32	s11, [r3]
.LBB106:
.LBB101:
	.loc 2 25 58 view .LVU15
	vcmpe.f32	s10, s7
.LBE101:
.LBE106:
.LBB107:
.LBB108:
	.loc 2 25 47 view .LVU16
	vcvt.s32.f32	s14, s11
.LBE108:
.LBE107:
	.loc 1 104 6 view .LVU17
	vldr.32	s12, [r3, #8]
.LBB115:
.LBB102:
	.loc 2 25 58 view .LVU18
	vmrs	APSR_nzcv, FPSCR
.LBE102:
.LBE115:
.LBB116:
.LBB109:
	vcvt.f32.s32	s8, s14
.LBE109:
.LBE116:
.LBB117:
.LBB118:
	.loc 2 25 47 view .LVU19
	vcvt.s32.f32	s15, s12
.LBE118:
.LBE117:
.LBB125:
.LBB103:
	.loc 2 25 58 view .LVU20
	movpl	r3, r2
	movmi	r3, #1
.LBE103:
.LBE125:
	.loc 1 99 29 view .LVU21
	str	r2, [fp, #652]
	.loc 1 100 2 is_stmt 1 view .LVU22
	.loc 1 100 34 is_stmt 0 view .LVU23
	str	r2, [fp, #664]
	.loc 1 102 2 is_stmt 1 view .LVU24
.LVL2:
.LBB126:
.LBI99:
	.loc 2 25 19 view .LVU25
.LBB104:
	.loc 2 25 40 view .LVU26
	.loc 2 25 56 is_stmt 0 view .LVU27
	vmov	r2, s13	@ int
.LBE104:
.LBE126:
.LBB127:
.LBB110:
	.loc 2 25 58 view .LVU28
	vcmpe.f32	s11, s8
.LBE110:
.LBE127:
.LBB128:
.LBB119:
	vcvt.f32.s32	s9, s15
.LBE119:
.LBE128:
.LBB129:
.LBB105:
	.loc 2 25 56 view .LVU29
	sub	r3, r2, r3
.LVL3:
	.loc 2 25 56 view .LVU30
.LBE105:
.LBE129:
.LBB130:
.LBI130:
	.file 3 "/home/tobi/Dokumente/Craftus-Next/include/world/World.h"
	.loc 3 51 19 is_stmt 1 view .LVU31
.LBB131:
	.loc 3 51 46 view .LVU32
	.loc 3 51 56 is_stmt 0 view .LVU33
	add	r2, r3, r3, lsr #31
	.loc 3 51 72 view .LVU34
	cmp	r2, #0
	add	r4, r2, #15
	movge	r4, r2
.LBE131:
.LBE130:
.LBB133:
.LBB111:
	.loc 2 25 58 view .LVU35
	vmrs	APSR_nzcv, FPSCR
.LBE111:
.LBE133:
.LBB134:
.LBB120:
	vcmpe.f32	s12, s9
.LBE120:
.LBE134:
.LBB135:
.LBB132:
	.loc 3 51 72 view .LVU36
	asr	r4, r4, #4
	.loc 3 51 79 view .LVU37
	sub	r4, r4, r3, lsr #31
.LBE132:
.LBE135:
.LBB136:
.LBB112:
	.loc 2 25 56 view .LVU38
	vmov	r2, s14	@ int
	.loc 2 25 58 view .LVU39
	movmi	r3, #1
	movpl	r3, #0
.LBE112:
.LBE136:
.LBB137:
.LBB121:
	vmrs	APSR_nzcv, FPSCR
.LBE121:
.LBE137:
.LBB138:
.LBB113:
	.loc 2 25 56 view .LVU40
	sub	r2, r2, r3
.LBE113:
.LBE138:
.LBB139:
.LBB140:
	.loc 3 51 56 view .LVU41
	add	r3, r2, r2, lsr #31
.LBE140:
.LBE139:
.LBB144:
.LBB122:
	.loc 2 25 58 view .LVU42
	movmi	ip, #1
	movpl	ip, #0
.LBE122:
.LBE144:
.LBB145:
.LBB141:
	.loc 3 51 72 view .LVU43
	cmp	r3, #0
	add	r1, r3, #15
	movge	r1, r3
.LBE141:
.LBE145:
.LBB146:
.LBB123:
	.loc 2 25 56 view .LVU44
	vmov	r3, s15	@ int
	sub	r3, r3, ip
.LBE123:
.LBE146:
.LBB147:
.LBB148:
	.loc 3 51 56 view .LVU45
	add	ip, r3, r3, lsr #31
	.loc 3 51 72 view .LVU46
	cmp	ip, #0
.LBE148:
.LBE147:
.LBB151:
.LBB142:
	asr	r1, r1, #4
.LBE142:
.LBE151:
	.loc 1 104 6 view .LVU47
	sub	r1, r1, r2, lsr #31
.LBB152:
.LBB149:
	.loc 3 51 72 view .LVU48
	add	r2, ip, #15
	movge	r2, ip
	asr	r2, r2, #4
.LBE149:
.LBE152:
	.loc 1 104 6 view .LVU49
	sub	r2, r2, r3, lsr #31
	ldr	r0, [fp, #676]
	bl	World_GetChunk
.LVL4:
	.loc 1 105 4 view .LVU50
	mov	r3, #12
	.loc 1 104 6 view .LVU51
	mov	r5, r0
	.loc 1 105 4 view .LVU52
	add	r1, fp, #652
	add	r2, fp, #656
	add	r0, fp, #648
	bl	vec_expand_
.LVL5:
	.loc 1 105 147 view .LVU53
	cmp	r0, #0
	usat	r4, #3, r4
.LVL6:
	.loc 1 103 2 is_stmt 1 view .LVU54
.LBB153:
.LBI107:
	.loc 2 25 19 view .LVU55
.LBB114:
	.loc 2 25 40 view .LVU56
	.loc 2 25 40 is_stmt 0 view .LVU57
.LBE114:
.LBE153:
.LBB154:
.LBI139:
	.loc 3 51 19 is_stmt 1 view .LVU58
.LBB143:
	.loc 3 51 46 view .LVU59
	.loc 3 51 46 is_stmt 0 view .LVU60
.LBE143:
.LBE154:
.LBB155:
.LBI117:
	.loc 2 25 19 is_stmt 1 view .LVU61
.LBB124:
	.loc 2 25 40 view .LVU62
	.loc 2 25 40 is_stmt 0 view .LVU63
.LBE124:
.LBE155:
.LBB156:
.LBI147:
	.loc 3 51 19 is_stmt 1 view .LVU64
.LBB150:
	.loc 3 51 46 view .LVU65
	.loc 3 51 46 is_stmt 0 view .LVU66
.LBE150:
.LBE156:
	.loc 1 105 2 is_stmt 1 view .LVU67
	.loc 1 105 147 is_stmt 0 view .LVU68
	beq	.L2
	.loc 1 105 191 view .LVU69
	ldr	r2, [fp, #652]
.L3:
	.loc 1 106 2 is_stmt 1 view .LVU70
	.loc 1 106 38 is_stmt 0 view .LVU71
	mov	r0, #1
	add	r4, r4, r4, lsl #3
.LVL7:
	.loc 1 108 27 view .LVU72
	ldr	r1, [fp, #672]
	.loc 1 106 38 view .LVU73
	add	r3, fp, r4
	strb	r0, [r3, #292]
	.loc 1 108 2 is_stmt 1 view .LVU74
	.loc 1 110 31 is_stmt 0 view .LVU75
	cmp	r2, #0
	.loc 1 108 9 view .LVU76
	vldr.32	s20, [r1]
.LVL8:
	.loc 1 108 9 view .LVU77
	vldr.32	s19, [r1, #4]
.LVL9:
	.loc 1 108 9 view .LVU78
	vldr.32	s18, [r1, #8]
.LVL10:
	.loc 1 110 2 is_stmt 1 view .LVU79
	.loc 1 110 31 view .LVU80
	ble	.L25
.LBB157:
.LBB158:
	.loc 1 129 6 is_stmt 0 view .LVU81
	ldr	r3, .L58+72
.LBE158:
.LBE157:
	.loc 1 97 22 view .LVU82
	mov	r1, #0
.LBB184:
.LBB159:
.LBB160:
	.loc 1 162 20 view .LVU83
	sub	r3, r3, #20
	str	r3, [sp, #36]
	.loc 1 146 7 view .LVU84
	vldr.32	s21, .L58+8
.LBE160:
.LBE159:
.LBB180:
	.loc 1 120 4 view .LVU85
	vldr.64	d8, .L58	@ int
	mov	r3, r2
.LBE180:
.LBE184:
	.loc 1 97 22 view .LVU86
	str	r1, [sp, #32]
	.loc 1 97 6 view .LVU87
	str	r1, [sp, #24]
.LVL11:
.L13:
.LBB185:
	.loc 1 111 3 is_stmt 1 view .LVU88
	.loc 1 111 38 is_stmt 0 view .LVU89
	ldr	r2, [fp, #648]
	.loc 1 111 45 view .LVU90
	sub	r3, r3, #1
	.loc 1 111 44 view .LVU91
	add	r1, r3, r3, lsl #1
	.loc 1 111 14 view .LVU92
	ldr	r0, [r2, r1, lsl #2]
	str	r3, [fp, #652]
	.loc 1 111 44 view .LVU93
	add	r3, r2, r1, lsl #2
	.loc 1 111 14 view .LVU94
	ldr	r8, [r3, #4]
	ldrb	r3, [r3, #8]	@ zero_extendqisi2
	.loc 1 115 14 view .LVU95
	add	r2, r0, #8192
	.loc 1 111 14 view .LVU96
	str	r3, [sp, #20]
	.loc 1 115 6 view .LVU97
	ldr	r3, [r2, #32]
	.loc 1 111 14 view .LVU98
	str	r0, [sp, #12]
.LVL12:
	.loc 1 112 3 is_stmt 1 view .LVU99
	.loc 1 113 3 view .LVU100
	.loc 1 115 3 view .LVU101
	.loc 1 115 6 is_stmt 0 view .LVU102
	cmp	r3, #0
	.loc 1 115 14 view .LVU103
	str	r2, [sp, #16]
	.loc 1 115 6 view .LVU104
	beq	.L5
	.loc 1 115 29 discriminator 1 view .LVU105
	ldr	r3, [r2, #16]
	cmp	r3, #0
	bne	.L54
.LVL13:
.L5:
	.loc 1 128 3 is_stmt 1 view .LVU106
	.loc 1 128 6 is_stmt 0 view .LVU107
	ldr	r2, [sp, #16]
	ldr	r3, [r2, #36]
	cmp	r3, #0
	beq	.L7
	.loc 1 128 40 discriminator 1 view .LVU108
	ldr	r3, [r2, #24]
	cmp	r3, #0
	bne	.L55
.L7:
	vldr.32	s23, .L58+12
	vldr.32	s22, .L58+16
	ldr	r3, [sp, #20]
	ldr	r4, .L58+28
	add	r7, r3, r3, lsl #1
	ldr	r3, .L58+32
	ldr	r10, .L58+36
	add	r7, r3, r7, lsl #1
.L10:
.LVL14:
.LBB181:
.LBB179:
	.loc 1 134 4 is_stmt 1 view .LVU109
	.loc 1 135 4 view .LVU110
	.loc 1 137 4 view .LVU111
	.loc 1 137 8 is_stmt 0 view .LVU112
	ldr	r2, [r4]
	.loc 1 138 20 view .LVU113
	ldr	r3, [fp, #676]
	.loc 1 137 8 view .LVU114
	ldr	r5, [r8, #16]
	.loc 1 138 20 view .LVU115
	ldr	r0, [r3, #32]
	.loc 1 137 8 view .LVU116
	add	r5, r5, r2
.LVL15:
	.loc 1 137 51 view .LVU117
	ldr	r2, [sp, #12]
	.loc 1 137 63 view .LVU118
	ldr	r1, [r4, #4]
	.loc 1 137 51 view .LVU119
	ldr	r9, [r2]
.LVL16:
	.loc 1 138 50 view .LVU120
	sub	r2, r0, #3
	.loc 1 138 7 view .LVU121
	cmp	r2, r5
	.loc 1 137 80 view .LVU122
	ldr	r6, [r8, #20]
	.loc 1 137 92 view .LVU123
	ldr	r2, [r4, #8]
.LVL17:
	.loc 1 138 4 is_stmt 1 view .LVU124
	.loc 1 138 7 is_stmt 0 view .LVU125
	bgt	.L12
	.loc 1 139 50 discriminator 2 view .LVU126
	add	ip, r0, #3
	.loc 1 138 54 discriminator 2 view .LVU127
	cmp	ip, r5
	blt	.L12
	.loc 1 140 20 view .LVU128
	ldr	ip, [r3, #36]
	.loc 1 137 68 view .LVU129
	add	r6, r6, r2
.LVL18:
	.loc 1 140 50 view .LVU130
	sub	r3, ip, #3
	.loc 1 139 54 view .LVU131
	cmp	r3, r6
	bgt	.L12
	.loc 1 141 50 view .LVU132
	add	r3, ip, #3
	.loc 1 140 54 view .LVU133
	cmp	r3, r6
	blt	.L12
	.loc 1 137 37 view .LVU134
	add	r9, r9, r1
.LVL19:
	.loc 1 141 66 view .LVU135
	cmp	r9, #7
	bhi	.L12
	.loc 1 143 4 is_stmt 1 view .LVU136
	.loc 1 143 61 is_stmt 0 view .LVU137
	lsl	r2, r9, #4
	.loc 1 143 68 view .LVU138
	add	r3, r2, #8
	vmov	s15, r3	@ int
	.loc 1 143 37 view .LVU139
	lsl	r3, r5, #4
	.loc 1 143 44 view .LVU140
	add	r1, r3, #8
	vmov	s13, r1	@ int
	.loc 1 143 18 view .LVU141
	vcvt.f32.s32	s15, s15
	.loc 1 144 16 view .LVU142
	lsl	r1, r6, #4
.LVL20:
.LBB161:
.LBI161:
	.file 4 "/home/tobi/Dokumente/Craftus-Next/include/misc/VecMath.h"
	.loc 4 17 15 is_stmt 1 view .LVU143
.LBB162:
	.loc 4 17 44 view .LVU144
.LBE162:
.LBE161:
	.loc 1 144 23 is_stmt 0 view .LVU145
	add	lr, r1, #8
	.loc 1 143 18 view .LVU146
	vcvt.f32.s32	s13, s13
.LVL21:
	.loc 1 144 23 view .LVU147
	vmov	s14, lr	@ int
.LBB166:
.LBB163:
	.loc 4 17 51 view .LVU148
	vsub.f32	s15, s15, s19
.LVL22:
	.loc 4 17 51 view .LVU149
.LBE163:
.LBE166:
	.loc 1 143 18 view .LVU150
	vcvt.f32.s32	s14, s14
.LVL23:
.LBB167:
.LBB164:
	.loc 4 17 51 view .LVU151
	vsub.f32	s13, s13, s20
.LVL24:
	.loc 4 17 51 view .LVU152
.LBE164:
.LBE167:
.LBB168:
.LBB169:
	.loc 4 20 66 view .LVU153
	vmul.f32	s15, s15, s15
.LBE169:
.LBE168:
.LBB171:
.LBB165:
	.loc 4 17 51 view .LVU154
	vsub.f32	s14, s14, s18
.LVL25:
	.loc 4 17 51 view .LVU155
.LBE165:
.LBE171:
	.loc 1 146 4 is_stmt 1 view .LVU156
.LBB172:
.LBI168:
	.loc 4 20 14 view .LVU157
.LBB170:
	.loc 4 20 43 view .LVU158
	.loc 4 20 60 is_stmt 0 view .LVU159
	vmla.f32	s15, s13, s13
	.loc 4 20 72 view .LVU160
	vmla.f32	s15, s14, s14
.LBE170:
.LBE172:
	.loc 1 146 7 view .LVU161
	vcmpe.f32	s15, s21
	vmrs	APSR_nzcv, FPSCR
	bgt	.L12
	.loc 1 150 4 is_stmt 1 view .LVU162
	.loc 1 150 27 is_stmt 0 view .LVU163
	sub	r0, r0, #4
	sub	r0, r5, r0
	.loc 1 150 74 view .LVU164
	add	lr, r9, r9, lsl #3
	add	r0, r0, r0, lsl #3
	.loc 1 150 80 view .LVU165
	sub	ip, ip, #4
	.loc 1 150 74 view .LVU166
	add	r0, lr, r0, lsl #3
	.loc 1 150 80 view .LVU167
	sub	ip, r6, ip
	.loc 1 150 74 view .LVU168
	add	r0, fp, r0
	.loc 1 150 7 view .LVU169
	ldrb	r0, [r0, ip]	@ zero_extendqisi2
	.loc 1 150 74 view .LVU170
	str	lr, [sp, #28]
	.loc 1 150 7 view .LVU171
	tst	r0, #1
	bne	.L12
	.loc 1 152 4 is_stmt 1 view .LVU172
.LVL26:
.LBB173:
.LBI173:
	.file 5 "/home/tobi/Dokumente/Craftus-Next/include/world/Chunk.h"
	.loc 5 66 12 view .LVU173
.LBB174:
	.loc 5 67 2 view .LVU174
	.loc 5 67 24 is_stmt 0 view .LVU175
	mov	lr, #1
	.loc 5 67 19 view .LVU176
	ldr	r0, [sp, #16]
	.loc 5 67 27 view .LVU177
	ldrb	ip, [r7]	@ zero_extendqisi2
	.loc 5 67 19 view .LVU178
	ldrh	r0, [r0, #8]
.LBE174:
.LBE173:
	.loc 1 152 7 view .LVU179
	and	r0, r0, lr, lsl ip
	.loc 1 152 73 view .LVU180
	ldr	ip, [sp, #20]
	subs	ip, ip, #6
	movne	ip, #1
	cmp	r0, #0
	movne	ip, #0
	cmp	ip, #0
	bne	.L12
	.loc 1 155 4 is_stmt 1 view .LVU181
.LVL27:
.LBB175:
.LBI175:
	.file 6 "/opt/devkitpro/libctru/include/c3d/maths.h"
	.loc 6 156 24 view .LVU182
	.loc 6 158 2 view .LVU183
.LBB176:
.LBI176:
	.loc 6 48 24 view .LVU184
	.loc 6 50 2 view .LVU185
	.loc 6 50 2 is_stmt 0 view .LVU186
.LBE176:
.LBE175:
	.loc 1 155 29 view .LVU187
	vmov	s15, r1	@ int
	vcvt.f32.s32	s1, s15
.LVL28:
	.loc 1 155 29 view .LVU188
	vmov	s15, r2	@ int
	vcvt.f32.s32	s2, s15
.LVL29:
	.loc 1 155 29 view .LVU189
	vmov	s15, r3	@ int
	.loc 1 156 9 view .LVU190
	vldr.32	s5, .L58+16
	vldr.32	s4, .L58+12
	.loc 1 155 29 view .LVU191
	vcvt.f32.s32	s3, s15
.LVL30:
	.loc 1 156 9 view .LVU192
	vmov.f32	s6, s5
	vmov.f32	s7, s5
	vmov.f32	s0, s4
	ldr	r0, .L58+40
	vstr.32	s23, [sp, #72]
	vstr.32	s23, [sp, #56]
	vstr.32	s22, [sp, #60]
	vstr.32	s22, [sp, #64]
	vstr.32	s22, [sp, #68]
	.loc 1 155 29 view .LVU193
	vstr.32	s1, [sp, #76]
	vstr.32	s2, [sp, #80]
	vstr.32	s3, [sp, #84]
.LVL31:
	.loc 1 156 4 is_stmt 1 view .LVU194
.LBB177:
.LBI177:
	.loc 6 156 24 view .LVU195
	.loc 6 158 2 view .LVU196
.LBB178:
.LBI178:
	.loc 6 48 24 view .LVU197
	.loc 6 50 2 view .LVU198
	.loc 6 50 2 is_stmt 0 view .LVU199
.LBE178:
.LBE177:
	.loc 1 156 9 view .LVU200
	bl	Camera_IsAABBVisible
.LVL32:
	.loc 1 156 7 view .LVU201
	cmp	r0, #0
	beq	.L12
	.loc 1 158 4 is_stmt 1 view .LVU202
	.loc 1 158 31 is_stmt 0 view .LVU203
	ldr	r0, [fp, #676]
	.loc 1 158 118 view .LVU204
	ldr	lr, [sp, #28]
	ldr	r3, [r0, #32]
	ldr	ip, [r0, #36]
	sub	r3, r3, #4
	sub	r3, r5, r3
	add	r3, r3, r3, lsl #3
	add	r3, lr, r3, lsl #3
	sub	ip, ip, #4
	add	r3, fp, r3
	.loc 1 160 22 view .LVU205
	mov	r2, r6
	.loc 1 158 118 view .LVU206
	sub	r6, r6, ip
.LVL33:
	.loc 1 158 118 view .LVU207
	ldrb	ip, [r3, r6]	@ zero_extendqisi2
	.loc 1 160 22 view .LVU208
	mov	r1, r5
	.loc 1 158 118 view .LVU209
	orr	ip, ip, #1
	strb	ip, [r3, r6]
	.loc 1 160 4 is_stmt 1 view .LVU210
	.loc 1 160 22 is_stmt 0 view .LVU211
	bl	World_GetChunk
.LVL34:
	.loc 1 161 4 is_stmt 1 view .LVU212
	.loc 1 162 7 is_stmt 0 view .LVU213
	subs	r5, r0, #0
.LVL35:
	.loc 1 161 93 view .LVU214
	ldrb	r6, [r10]	@ zero_extendqisi2
.LVL36:
	.loc 1 162 4 is_stmt 1 view .LVU215
	.loc 1 162 7 is_stmt 0 view .LVU216
	beq	.L12
	.loc 1 162 18 is_stmt 1 discriminator 1 view .LVU217
	.loc 1 162 20 is_stmt 0 discriminator 1 view .LVU218
	ldr	r1, .L58+44
	mov	r3, #12
	ldr	r0, [sp, #36]
.LVL37:
	.loc 1 162 20 discriminator 1 view .LVU219
	add	r2, r1, #4
	bl	vec_expand_
.LVL38:
	.loc 1 162 163 discriminator 1 view .LVU220
	cmp	r0, #0
	bne	.L12
	.loc 1 161 39 discriminator 2 view .LVU221
	add	r3, r9, r9, lsl #8
	.loc 1 162 207 discriminator 2 view .LVU222
	ldr	r1, [fp, #652]
	.loc 1 161 39 discriminator 2 view .LVU223
	add	r3, r9, r3, lsl #1
	.loc 1 162 183 discriminator 2 view .LVU224
	ldr	r2, [fp, #648]
	.loc 1 161 39 discriminator 2 view .LVU225
	add	r3, r5, r3, lsl #4
	.loc 1 162 189 discriminator 2 view .LVU226
	add	r0, r1, r1, lsl #1
	.loc 1 161 39 discriminator 2 view .LVU227
	add	r3, r3, #24
	.loc 1 162 215 discriminator 2 view .LVU228
	add	r1, r1, #1
	str	r1, [fp, #652]
	.loc 1 162 219 discriminator 2 view .LVU229
	str	r3, [r2, r0, lsl #2]
	.loc 1 162 189 discriminator 2 view .LVU230
	add	r3, r2, r0, lsl #2
	.loc 1 162 219 discriminator 2 view .LVU231
	str	r5, [r3, #4]
	strb	r6, [r3, #8]
.LVL39:
.L12:
	.loc 1 162 219 discriminator 2 view .LVU232
.LBE179:
	.loc 1 133 27 is_stmt 1 view .LVU233
	.loc 1 133 21 view .LVU234
	ldr	r3, .L58+48
	add	r4, r4, #12
.LVL40:
	.loc 1 133 21 is_stmt 0 view .LVU235
	cmp	r3, r4
	add	r10, r10, #1
.LVL41:
	.loc 1 133 21 view .LVU236
	add	r7, r7, #1
	bne	.L10
.LVL42:
	.loc 1 133 21 view .LVU237
.LBE181:
.LBE185:
	.loc 1 110 31 is_stmt 1 view .LVU238
	.loc 1 110 23 is_stmt 0 view .LVU239
	ldr	r3, [fp, #652]
	.loc 1 110 31 view .LVU240
	cmp	r3, #0
	bgt	.L13
.LVL43:
.L4:
.LBB186:
	.loc 1 166 11 view .LVU241
	mov	r10, #1
.LBB187:
.LBB188:
.LBB189:
.LBB190:
	.loc 1 172 14 view .LVU242
	ldr	r3, .L58+52
.LBE190:
.LBE189:
	.loc 1 168 11 view .LVU243
	ldr	r7, .L58+56
.LBB206:
.LBB193:
	.loc 1 172 14 view .LVU244
	str	r3, [sp, #12]
.L14:
.LVL44:
	.loc 1 172 14 view .LVU245
.LBE193:
.LBE206:
.LBE188:
	.loc 1 167 21 is_stmt 1 view .LVU246
	.loc 1 167 12 is_stmt 0 view .LVU247
	mov	r4, #1
.LBE187:
.LBE186:
	.loc 1 97 6 view .LVU248
	ldr	r5, [sp, #12]
.LBB216:
.LBB215:
.LBB211:
	.loc 1 168 11 view .LVU249
	add	r9, r10, r10, lsl #3
	b	.L21
.LVL45:
.L15:
	.loc 1 170 77 discriminator 3 view .LVU250
	ldr	r3, [ip]
	cmp	r3, #0
.LBB207:
.LBB194:
	.loc 1 172 14 discriminator 3 view .LVU251
	mvneq	r6, #0
	addeq	r0, r0, r5
.LBE194:
.LBE207:
	.loc 1 170 77 discriminator 3 view .LVU252
	beq	.L17
.L16:
	.loc 1 170 77 discriminator 3 view .LVU253
.LBE211:
	.loc 1 167 33 is_stmt 1 discriminator 2 view .LVU254
	add	r4, r4, #1
.LVL46:
	.loc 1 167 21 discriminator 2 view .LVU255
	cmp	r4, #8
	add	r5, r5, #4
	beq	.L56
.LVL47:
.L21:
.LBB212:
	.loc 1 168 4 view .LVU256
	.loc 1 168 24 is_stmt 0 view .LVU257
	ldr	r0, [fp, #676]
	.loc 1 168 11 view .LVU258
	add	r3, r9, r4
	add	r3, r3, r7
	ldr	ip, [r0, r3, lsl #2]
.LVL48:
	.loc 1 170 4 is_stmt 1 view .LVU259
	.loc 1 170 14 is_stmt 0 view .LVU260
	add	r3, ip, #65536
	.loc 1 170 7 view .LVU261
	ldr	r1, [r3, #668]
	ldr	r2, [r3, #672]
	cmp	r1, r2
	bne	.L15
	.loc 1 170 51 discriminator 2 view .LVU262
	ldrb	r3, [r3, #676]	@ zero_extendqisi2
	cmp	r3, #0
	beq	.L16
	b	.L15
.LVL49:
.L57:
.LBB208:
.LBB195:
	.loc 1 172 48 is_stmt 1 discriminator 2 view .LVU263
	add	r6, r6, #1
.LVL50:
	.loc 1 172 34 discriminator 2 view .LVU264
	cmp	r6, #1
	movgt	r2, #0
	andle	r2, r2, #1
.LVL51:
	.loc 1 172 34 is_stmt 0 discriminator 2 view .LVU265
	cmp	r2, #0
	add	r0, r0, #36
	beq	.L19
.LVL52:
.L17:
.LBB191:
	.loc 1 173 35 is_stmt 1 view .LVU266
.LBE191:
.LBE195:
.LBE208:
.LBE212:
	.loc 1 167 12 is_stmt 0 view .LVU267
	mov	r1, r0
.LBB213:
.LBB209:
.LBB196:
.LBB192:
	.loc 1 173 15 view .LVU268
	mvn	r3, #0
.LVL53:
.L18:
	.loc 1 174 7 is_stmt 1 view .LVU269
	.loc 1 174 38 is_stmt 0 view .LVU270
	ldr	r2, [r1], #4
	.loc 1 173 49 view .LVU271
	add	r3, r3, #1
.LVL54:
	.loc 1 174 48 view .LVU272
	ldrb	lr, [r2, #12]	@ zero_extendqisi2
	.loc 1 174 10 view .LVU273
	subs	r2, lr, #0
	movne	r2, #1
.LVL55:
	.loc 1 173 49 is_stmt 1 view .LVU274
	.loc 1 173 35 view .LVU275
	cmp	r3, #1
	movgt	r8, #0
	andle	r8, r2, #1
	cmp	r8, #0
	bne	.L18
	b	.L57
.L59:
	.align	3
.L58:
	.word	12816
	.word	0
	.word	1158676480
	.word	0
	.word	1098907648
	.word	.LANCHOR0
	.word	16767376
	.word	DirectionToOffset
	.word	_seethroughTable
	.word	DirectionOpposite
	.word	.LANCHOR0+680
	.word	.LANCHOR0+652
	.word	DirectionToOffset+72
	.word	11919640
	.word	2979910
	.word	12816
	.word	.LC0
	.word	.LC1
	.word	.LANCHOR0+668
.LVL56:
.L19:
	.loc 1 173 35 is_stmt 0 view .LVU276
.LBE192:
.LBE196:
	.loc 1 176 5 is_stmt 1 view .LVU277
	.loc 1 176 8 is_stmt 0 view .LVU278
	cmp	lr, #0
	beq	.L16
.LBB197:
	.loc 1 176 16 is_stmt 1 discriminator 1 view .LVU279
	ldr	r6, [fp, #1076]
.LVL57:
	.loc 1 176 57 is_stmt 0 discriminator 1 view .LVU280
	mov	r3, #4
.LVL58:
.LBB198:
.LBB199:
	.file 7 "/home/tobi/Dokumente/Craftus-Next/include/world/WorkQueue.h"
	.loc 7 44 2 discriminator 1 view .LVU281
	mov	lr, #1
.LVL59:
	.loc 7 44 2 discriminator 1 view .LVU282
	str	r2, [sp, #52]
	.loc 7 46 2 discriminator 1 view .LVU283
	add	r1, r6, #20
.LVL60:
	.loc 7 46 2 discriminator 1 view .LVU284
	add	r2, sp, #72
	mov	r8, r2
	vmov	s16, r1	@ int
.LBE199:
.LBE198:
	.loc 1 176 57 discriminator 1 view .LVU285
	str	r3, [sp, #44]
.LBB203:
.LBB200:
	.loc 7 45 43 discriminator 1 view .LVU286
	ldr	r3, [ip, #4]
	.loc 7 43 24 discriminator 1 view .LVU287
	ldr	r1, [ip, #8]
	.loc 7 45 43 discriminator 1 view .LVU288
	add	r3, r3, lr
	str	ip, [sp, #48]
	add	r2, sp, #44
	.loc 7 43 24 discriminator 1 view .LVU289
	str	r1, [sp, #16]
	ldm	r2, {r0, r1, r2}
	stm	r8, {r0, r1, r2}
.LVL61:
	.loc 7 43 24 discriminator 1 view .LVU290
.LBE200:
.LBI198:
	.loc 7 42 13 is_stmt 1 discriminator 1 view .LVU291
.LBB201:
	.loc 7 43 2 discriminator 1 view .LVU292
	.loc 7 44 2 discriminator 1 view .LVU293
	.loc 7 45 43 is_stmt 0 discriminator 1 view .LVU294
	str	r3, [ip, #4]
	.loc 7 46 2 discriminator 1 view .LVU295
	vmov	r0, s16	@ int
	.loc 7 44 2 discriminator 1 view .LVU296
	str	lr, [ip]
	.loc 7 45 2 is_stmt 1 discriminator 1 view .LVU297
	.loc 7 45 43 discriminator 1 view .LVU298
	.loc 7 46 2 discriminator 1 view .LVU299
	bl	LightLock_Lock
.LVL62:
	.loc 7 47 2 discriminator 1 view .LVU300
	.loc 7 47 4 is_stmt 0 discriminator 1 view .LVU301
	mov	r3, #12
	mov	r0, r6
	add	r2, r6, #8
	add	r1, r6, #4
	bl	vec_expand_
.LVL63:
	.loc 7 47 139 discriminator 1 view .LVU302
	cmp	r0, #0
	bne	.L20
	.loc 7 47 179 view .LVU303
	ldr	r2, [r6, #4]
	.loc 7 47 157 view .LVU304
	ldr	r3, [r6]
	.loc 7 47 187 view .LVU305
	add	r1, r2, #1
	str	r1, [r6, #4]
.LVL64:
	.loc 7 47 191 view .LVU306
	ldr	r1, [sp, #16]
	add	r2, r2, r2, lsl #1
	str	r1, [sp, #80]
	add	r3, r3, r2, lsl #2
	ldm	r8, {r0, r1, r2}
	stm	r3, {r0, r1, r2}
.LVL65:
.L20:
	.loc 7 48 2 is_stmt 1 view .LVU307
	vmov	r0, s16	@ int
	bl	LightLock_Unlock
.LVL66:
	.loc 7 50 2 view .LVU308
.LBE201:
.LBE203:
.LBE197:
.LBE209:
.LBE213:
	.loc 1 167 33 is_stmt 0 view .LVU309
	add	r4, r4, #1
.LVL67:
.LBB214:
.LBB210:
.LBB205:
.LBB204:
.LBB202:
	.loc 7 50 2 view .LVU310
	add	r0, r6, #12
	bl	LightEvent_Signal
.LVL68:
	.loc 7 50 2 view .LVU311
.LBE202:
.LBE204:
.LBE205:
.LBE210:
.LBE214:
	.loc 1 167 33 is_stmt 1 view .LVU312
	.loc 1 167 21 view .LVU313
	cmp	r4, #8
	add	r5, r5, #4
	bne	.L21
.LVL69:
.L56:
	.loc 1 167 21 is_stmt 0 view .LVU314
.LBE215:
	.loc 1 166 32 is_stmt 1 discriminator 2 view .LVU315
	.loc 1 166 20 is_stmt 0 discriminator 2 view .LVU316
	ldr	r3, [sp, #12]
	.loc 1 166 32 discriminator 2 view .LVU317
	add	r10, r10, #1
.LVL70:
	.loc 1 166 20 is_stmt 1 discriminator 2 view .LVU318
	add	r3, r3, #36
	cmp	r10, #8
	str	r3, [sp, #12]
	bne	.L14
.LBE216:
	.loc 1 181 2 view .LVU319
	mov	r2, #255
	mov	r1, #7
	mov	r0, #1
	bl	C3D_AlphaTest
.LVL71:
	.loc 1 183 2 view .LVU320
	.loc 1 184 2 view .LVU321
	.loc 1 185 2 view .LVU322
	.loc 1 185 29 is_stmt 0 view .LVU323
	ldr	r4, [fp, #664]
.LVL72:
	.loc 1 185 5 view .LVU324
	cmp	r4, #0
	ble	.L23
	.loc 1 185 44 is_stmt 1 discriminator 1 view .LVU325
.LBB217:
	.loc 1 188 3 is_stmt 0 discriminator 1 view .LVU326
	mov	r9, #0
	ldr	r8, .L58+60
	ldr	r7, [sp, #24]
.LBE217:
	.loc 1 185 54 discriminator 1 view .LVU327
	sub	r4, r4, #1
.LVL73:
	.loc 1 185 101 is_stmt 1 discriminator 1 view .LVU328
	add	r6, sp, #72
.L24:
	.loc 1 185 115 is_stmt 0 discriminator 4 view .LVU329
	ldr	r5, [fp, #660]
.LVL74:
.LBB218:
	.loc 1 186 3 is_stmt 1 discriminator 4 view .LVU330
	.loc 1 187 3 discriminator 4 view .LVU331
	mov	r0, r6
	bl	BufInfo_Init
.LVL75:
	.loc 1 188 3 discriminator 4 view .LVU332
	.loc 1 188 56 is_stmt 0 discriminator 4 view .LVU333
	ldr	r2, [r5, r4, lsl #3]
	.loc 1 188 3 discriminator 4 view .LVU334
	mov	r3, #4
	.loc 1 188 56 discriminator 4 view .LVU335
	add	r2, r2, #8192
	.loc 1 188 3 discriminator 4 view .LVU336
	ldr	r1, [r2, #28]
	mov	r0, r6
	mov	r2, #16
	strd	r8, [sp]
	bl	BufInfo_Add
.LVL76:
	.loc 1 189 3 is_stmt 1 discriminator 4 view .LVU337
	mov	r0, r6
	bl	C3D_SetBufInfo
.LVL77:
	.loc 1 190 3 discriminator 4 view .LVU338
	mov	r1, #0
	.loc 1 190 51 is_stmt 0 discriminator 4 view .LVU339
	ldr	r3, [r5, r4, lsl #3]
	.loc 1 190 3 discriminator 4 view .LVU340
	mov	r0, r1
	.loc 1 190 51 discriminator 4 view .LVU341
	add	r3, r3, #8192
	.loc 1 190 3 discriminator 4 view .LVU342
	ldr	r2, [r3, #36]
	bl	C3D_DrawArrays
.LVL78:
	.loc 1 192 3 is_stmt 1 discriminator 4 view .LVU343
	.loc 1 192 32 is_stmt 0 discriminator 4 view .LVU344
	ldr	r3, [r5, r4, lsl #3]
.LBE218:
	.loc 1 185 158 discriminator 4 view .LVU345
	sub	r4, r4, #1
.LVL79:
.LBB219:
	.loc 1 192 32 discriminator 4 view .LVU346
	add	r3, r3, #8192
	.loc 1 192 14 discriminator 4 view .LVU347
	ldr	r3, [r3, #36]
.LBE219:
	.loc 1 185 101 discriminator 4 view .LVU348
	cmn	r4, #1
.LBB220:
	.loc 1 192 14 discriminator 4 view .LVU349
	add	r7, r7, r3
.LVL80:
	.loc 1 192 14 discriminator 4 view .LVU350
.LBE220:
	.loc 1 185 158 is_stmt 1 discriminator 4 view .LVU351
	.loc 1 185 101 discriminator 4 view .LVU352
	bne	.L24
	str	r7, [sp, #24]
.LVL81:
.L23:
	.loc 1 194 2 view .LVU353
	mov	r2, #0
	mov	r1, #6
	mov	r0, r2
	bl	C3D_AlphaTest
.LVL82:
	.loc 1 196 2 view .LVU354
	ldr	r3, [sp, #24]
	ldr	r1, [sp, #32]
	mov	r2, #0
	ldr	r0, .L58+64
	bl	DebugUI_Text
.LVL83:
	.loc 1 197 2 view .LVU355
	.loc 1 197 59 is_stmt 0 view .LVU356
	ldr	r3, [fp, #676]
	.loc 1 197 2 view .LVU357
	ldr	r2, [fp, #1076]
	.loc 1 197 59 view .LVU358
	add	r3, r3, #11862016
	add	r3, r3, #57344
	ldr	r1, [r3, #440]
	.loc 1 197 2 view .LVU359
	ldr	r0, .L58+68
	ldr	r3, [r2, #4]
	ldrb	r2, [r1, #12]	@ zero_extendqisi2
	ldr	r1, [r1]
	.loc 1 199 1 view .LVU360
	add	sp, sp, #228
	.cfi_remember_state
	.cfi_def_cfa_offset 68
	@ sp needed
	vldm	sp!, {d8-d11}
	.cfi_restore 86
	.cfi_restore 87
	.cfi_restore 84
	.cfi_restore 85
	.cfi_restore 82
	.cfi_restore 83
	.cfi_restore 80
	.cfi_restore 81
	.cfi_def_cfa_offset 36
.LVL84:
	.loc 1 199 1 view .LVU361
	pop	{r4, r5, r6, r7, r8, r9, r10, fp, lr}
	.cfi_restore 14
	.cfi_restore 11
	.cfi_restore 10
	.cfi_restore 9
	.cfi_restore 8
	.cfi_restore 7
	.cfi_restore 6
	.cfi_restore 5
	.cfi_restore 4
	.cfi_def_cfa_offset 0
.LVL85:
	.loc 1 197 2 view .LVU362
	b	DebugUI_Text
.LVL86:
.L55:
	.cfi_restore_state
.LBB221:
.LBB182:
	.loc 1 129 4 is_stmt 1 view .LVU363
	.loc 1 129 6 is_stmt 0 view .LVU364
	ldr	r2, .L58+72
	mov	r3, #8
	sub	r1, r2, #4
	sub	r0, r2, #8
	bl	vec_expand_
.LVL87:
	.loc 1 129 169 view .LVU365
	cmp	r0, #0
	bne	.L7
	.loc 1 129 223 discriminator 1 view .LVU366
	ldr	r2, [fp, #664]
	.loc 1 129 194 discriminator 1 view .LVU367
	ldr	r3, [fp, #660]
	.loc 1 129 231 discriminator 1 view .LVU368
	add	r1, r2, #1
	str	r1, [fp, #664]
	.loc 1 129 235 discriminator 1 view .LVU369
	ldr	r1, [sp, #12]
	str	r1, [r3, r2, lsl #3]
	.loc 1 129 200 discriminator 1 view .LVU370
	add	r3, r3, r2, lsl #3
	.loc 1 129 235 discriminator 1 view .LVU371
	str	r8, [r3, #4]
	b	.L7
.LVL88:
.L54:
	.loc 1 129 235 discriminator 1 view .LVU372
.LBE182:
.LBB183:
	.loc 1 116 4 is_stmt 1 view .LVU373
	.loc 1 126 17 is_stmt 0 view .LVU374
	ldr	r3, [sp, #32]
	.loc 1 116 35 view .LVU375
	ldr	r1, [fp, #676]
	.loc 1 126 17 view .LVU376
	add	r3, r3, #1
	.loc 1 116 132 view .LVU377
	ldr	r2, [r1, #32]
	.loc 1 126 17 view .LVU378
	str	r3, [sp, #32]
.LVL89:
	.loc 1 116 132 view .LVU379
	ldr	r3, [r8, #16]
	sub	r2, r2, #4
	sub	r3, r3, r2
	add	r2, r3, r3, lsl #3
	.loc 1 116 76 view .LVU380
	ldr	r3, [r0]
	.loc 1 116 132 view .LVU381
	ldr	r1, [r1, #36]
	add	r3, r3, r3, lsl #3
	add	r3, r3, r2, lsl #3
	ldr	r2, [r8, #20]
	sub	r1, r1, #4
	add	r3, fp, r3
	sub	r2, r2, r1
	ldrb	r1, [r3, r2]	@ zero_extendqisi2
	.loc 1 119 4 view .LVU382
	add	r4, sp, #72
	.loc 1 116 132 view .LVU383
	orr	r1, r1, #2
	strb	r1, [r3, r2]
	.loc 1 118 4 is_stmt 1 view .LVU384
	.loc 1 119 4 view .LVU385
	mov	r0, r4
	bl	BufInfo_Init
.LVL90:
	.loc 1 120 4 view .LVU386
	ldr	r5, [sp, #16]
	mov	r3, #4
	ldr	r1, [r5, #20]
	mov	r2, #16
	vstr.64	d8, [sp]	@ int
	mov	r0, r4
	bl	BufInfo_Add
.LVL91:
	.loc 1 121 4 view .LVU387
	mov	r0, r4
	bl	C3D_SetBufInfo
.LVL92:
	.loc 1 122 4 view .LVU388
	mov	r1, #0
	ldr	r2, [r5, #32]
	mov	r0, r1
	bl	C3D_DrawArrays
.LVL93:
	.loc 1 124 4 view .LVU389
	.loc 1 124 15 is_stmt 0 view .LVU390
	ldr	r2, [sp, #24]
	ldr	r3, [r5, #32]
	add	r3, r2, r3
	str	r3, [sp, #24]
.LVL94:
	.loc 1 126 4 is_stmt 1 view .LVU391
	.loc 1 126 4 is_stmt 0 view .LVU392
	b	.L5
.LVL95:
.L2:
	.loc 1 126 4 view .LVU393
.LBE183:
.LBE221:
	.loc 1 105 203 discriminator 1 view .LVU394
	mov	ip, #6
	.loc 1 105 220 discriminator 1 view .LVU395
	add	r3, r4, r4, lsl #8
	.loc 1 105 191 discriminator 1 view .LVU396
	ldr	r2, [fp, #652]
	.loc 1 105 220 discriminator 1 view .LVU397
	add	r3, r4, r3, lsl #1
	.loc 1 105 167 discriminator 1 view .LVU398
	ldr	r1, [fp, #648]
	.loc 1 105 220 discriminator 1 view .LVU399
	add	r3, r5, r3, lsl #4
	.loc 1 105 173 discriminator 1 view .LVU400
	add	r0, r2, r2, lsl #1
	.loc 1 105 220 discriminator 1 view .LVU401
	add	r3, r3, #24
	.loc 1 105 199 discriminator 1 view .LVU402
	add	r2, r2, #1
	str	r2, [fp, #652]
	.loc 1 105 203 discriminator 1 view .LVU403
	str	r3, [r1, r0, lsl #2]
	.loc 1 105 173 discriminator 1 view .LVU404
	add	r3, r1, r0, lsl #2
	.loc 1 105 203 discriminator 1 view .LVU405
	str	r5, [r3, #4]
	strb	ip, [r3, #8]
	b	.L3
.LVL96:
.L25:
	.loc 1 97 22 view .LVU406
	mov	r3, #0
	str	r3, [sp, #32]
	.loc 1 97 6 view .LVU407
	str	r3, [sp, #24]
	b	.L4
	.cfi_endproc
.LFE226:
	.size	renderWorld, .-renderWorld
	.section	.text.WorldRenderer_Init,"ax",%progbits
	.align	2
	.global	WorldRenderer_Init
	.syntax unified
	.arm
	.fpu vfp
	.type	WorldRenderer_Init, %function
WorldRenderer_Init:
.LVL97:
.LFB224:
	.loc 1 50 104 is_stmt 1 view -0
	.cfi_startproc
	@ args = 0, pretend = 0, frame = 1024
	@ frame_needed = 0, uses_anonymous_args = 0
	.loc 1 51 2 view .LVU409
	.loc 1 50 104 is_stmt 0 view .LVU410
	push	{r4, r5, r6, lr}
	.cfi_def_cfa_offset 16
	.cfi_offset 4, -16
	.cfi_offset 5, -12
	.cfi_offset 6, -8
	.cfi_offset 14, -4
	.loc 1 56 2 view .LVU411
	mov	r4, #0
	.loc 1 50 104 view .LVU412
	mov	r6, r0
	.loc 1 51 8 view .LVU413
	ldr	ip, .L71+8
	.loc 1 50 104 view .LVU414
	sub	sp, sp, #1024
	.cfi_def_cfa_offset 1040
	.loc 1 59 2 view .LVU415
	add	r0, ip, #680
.LVL98:
	.loc 1 56 2 view .LVU416
	str	r4, [ip, #648]
	.loc 1 57 2 view .LVU417
	str	r4, [ip, #660]
	.loc 1 56 2 view .LVU418
	str	r4, [ip, #652]
	str	r4, [ip, #656]
	.loc 1 57 2 view .LVU419
	str	r4, [ip, #664]
	str	r4, [ip, #668]
	.loc 1 51 8 view .LVU420
	str	r1, [ip, #676]
	.loc 1 52 2 is_stmt 1 view .LVU421
	.loc 1 54 12 is_stmt 0 view .LVU422
	str	r2, [ip, #1076]
	.loc 1 53 20 view .LVU423
	str	r3, [ip, #1080]
	.loc 1 52 9 view .LVU424
	str	r6, [ip, #672]
	.loc 1 53 2 is_stmt 1 view .LVU425
	.loc 1 54 2 view .LVU426
	.loc 1 56 2 view .LVU427
	.loc 1 57 2 view .LVU428
	.loc 1 59 2 view .LVU429
	bl	Camera_Init
.LVL99:
	.loc 1 61 2 view .LVU430
	bl	Cursor_Init
.LVL100:
	.loc 1 62 2 view .LVU431
	bl	Hand_Init
.LVL101:
	.loc 1 64 2 view .LVU432
	.loc 1 65 2 view .LVU433
.LBB222:
	.loc 1 65 7 view .LVU434
	.loc 1 65 20 view .LVU435
	mov	r2, sp
.LBE222:
	.loc 1 62 2 is_stmt 0 view .LVU436
	mov	r1, #1
	mov	r3, r4
.LBB226:
.LBB223:
	.loc 1 71 24 view .LVU437
	vldr.32	s12, .L71
	vldr.32	s13, .L71+4
	mov	r0, #0
	b	.L65
.LVL102:
.L70:
	.loc 1 71 16 is_stmt 1 view .LVU438
	.loc 1 69 11 is_stmt 0 view .LVU439
	cmp	r3, #1
	beq	.L62
	.loc 1 71 6 view .LVU440
	cmp	r3, #128
	.loc 1 71 24 view .LVU441
	vstrne.32	s13, [r2]
	.loc 1 72 3 is_stmt 1 view .LVU442
	.loc 1 66 9 is_stmt 0 view .LVU443
	vmovne.f32	s15, s13
	vmoveq.f32	s15, s13
.LVL103:
.L66:
	.loc 1 72 14 is_stmt 1 discriminator 1 view .LVU444
	.loc 1 72 34 is_stmt 0 discriminator 1 view .LVU445
	vldr.32	s14, [r2, #-4]
	vsub.f32	s15, s15, s14
.LBE223:
	.loc 1 65 20 discriminator 1 view .LVU446
	cmp	r1, #129
.LBB224:
	.loc 1 72 28 discriminator 1 view .LVU447
	vstr.32	s15, [r2, #508]
.LBE224:
	.loc 1 65 29 is_stmt 1 discriminator 1 view .LVU448
.LVL104:
	.loc 1 65 20 discriminator 1 view .LVU449
	beq	.L64
.LVL105:
.L67:
	.loc 1 65 20 is_stmt 0 discriminator 1 view .LVU450
	add	r3, r3, #1
	add	r1, r1, #1
	add	r2, r2, #4
.L65:
.LVL106:
.LBB225:
	.loc 1 66 3 is_stmt 1 view .LVU451
	.loc 1 67 3 view .LVU452
	.loc 1 69 8 view .LVU453
	.loc 1 71 3 view .LVU454
	.loc 1 67 6 is_stmt 0 view .LVU455
	cmp	r3, #0
	bne	.L70
.LVL107:
	.loc 1 71 3 is_stmt 1 view .LVU456
	.loc 1 71 16 view .LVU457
	.loc 1 71 24 is_stmt 0 view .LVU458
	str	r0, [r2]	@ float
	.loc 1 72 3 is_stmt 1 view .LVU459
	.loc 1 72 3 is_stmt 0 view .LVU460
	b	.L67
.LVL108:
.L62:
	.loc 1 71 3 is_stmt 1 view .LVU461
	.loc 1 71 16 view .LVU462
	.loc 1 71 24 is_stmt 0 view .LVU463
	vstr.32	s12, [r2]
	.loc 1 72 3 is_stmt 1 view .LVU464
	.loc 1 70 8 is_stmt 0 view .LVU465
	vmov.f32	s15, s12
	b	.L66
.LVL109:
.L64:
	.loc 1 70 8 view .LVU466
.LBE225:
.LBE226:
	.loc 1 74 2 is_stmt 1 view .LVU467
	mov	r1, sp
	ldr	r0, .L71+12
	bl	FogLut_FromArray
.LVL110:
	.loc 1 75 2 view .LVU468
	mov	r2, #0
	mov	r0, #5
	mov	r1, r2
	bl	C3D_FogGasMode
.LVL111:
	.loc 1 76 2 view .LVU469
	ldr	r0, .L71+16
	bl	C3D_FogColor
.LVL112:
	.loc 1 77 2 view .LVU470
	ldr	r0, .L71+12
	bl	C3D_FogLutBind
.LVL113:
	.loc 1 79 2 view .LVU471
	bl	Clouds_Init
.LVL114:
	.loc 1 80 1 is_stmt 0 view .LVU472
	add	sp, sp, #1024
	.cfi_def_cfa_offset 16
	@ sp needed
	pop	{r4, r5, r6, pc}
.LVL115:
.L72:
	.loc 1 80 1 view .LVU473
	.align	2
.L71:
	.word	1063675494
	.word	1065353216
	.word	.LANCHOR0
	.word	.LANCHOR0+1084
	.word	16767376
	.cfi_endproc
.LFE224:
	.size	WorldRenderer_Init, .-WorldRenderer_Init
	.section	.text.WorldRenderer_Deinit,"ax",%progbits
	.align	2
	.global	WorldRenderer_Deinit
	.syntax unified
	.arm
	.fpu vfp
	.type	WorldRenderer_Deinit, %function
WorldRenderer_Deinit:
.LFB225:
	.loc 1 81 29 is_stmt 1 view -0
	.cfi_startproc
	@ args = 0, pretend = 0, frame = 0
	@ frame_needed = 0, uses_anonymous_args = 0
	.loc 1 82 2 view .LVU475
	.loc 1 81 29 is_stmt 0 view .LVU476
	push	{r4, r5, r6, r7, r8, lr}
	.cfi_def_cfa_offset 24
	.cfi_offset 4, -24
	.cfi_offset 5, -20
	.cfi_offset 6, -16
	.cfi_offset 7, -12
	.cfi_offset 8, -8
	.cfi_offset 14, -4
	.loc 1 82 26 view .LVU477
	ldr	r6, .L75
	.loc 1 82 35 view .LVU478
	mov	r4, #0
	.loc 1 82 4 view .LVU479
	mov	r7, r6
	.loc 1 83 4 view .LVU480
	mov	r5, r6
	.loc 1 82 4 view .LVU481
	ldr	r0, [r7, #648]!
	bl	free
.LVL116:
	.loc 1 83 4 view .LVU482
	ldr	r0, [r5, #660]!
	.loc 1 82 35 view .LVU483
	str	r4, [r6, #648]
	str	r4, [r7, #4]
	str	r4, [r7, #8]
	.loc 1 83 2 is_stmt 1 view .LVU484
	.loc 1 83 4 is_stmt 0 view .LVU485
	bl	free
.LVL117:
	.loc 1 83 40 view .LVU486
	str	r4, [r6, #660]
	str	r4, [r5, #4]
	str	r4, [r5, #8]
	.loc 1 84 2 is_stmt 1 view .LVU487
	bl	Cursor_Deinit
.LVL118:
	.loc 1 86 2 view .LVU488
	bl	Hand_Deinit
.LVL119:
	.loc 1 88 2 view .LVU489
	.loc 1 89 1 is_stmt 0 view .LVU490
	pop	{r4, r5, r6, r7, r8, lr}
	.cfi_restore 14
	.cfi_restore 8
	.cfi_restore 7
	.cfi_restore 6
	.cfi_restore 5
	.cfi_restore 4
	.cfi_def_cfa_offset 0
	.loc 1 88 2 view .LVU491
	b	Clouds_Deinit
.LVL120:
.L76:
	.align	2
.L75:
	.word	.LANCHOR0
	.cfi_endproc
.LFE225:
	.size	WorldRenderer_Deinit, .-WorldRenderer_Deinit
	.section	.text.WorldRenderer_Render,"ax",%progbits
	.align	2
	.global	WorldRenderer_Render
	.syntax unified
	.arm
	.fpu vfp
	.type	WorldRenderer_Render, %function
WorldRenderer_Render:
.LVL121:
.LFB227:
	.loc 1 201 38 is_stmt 1 view -0
	.cfi_startproc
	@ args = 0, pretend = 0, frame = 0
	@ frame_needed = 0, uses_anonymous_args = 0
	.loc 1 202 2 view .LVU493
	.loc 1 201 38 is_stmt 0 view .LVU494
	push	{r4, r5, lr}
	.cfi_def_cfa_offset 12
	.cfi_offset 4, -12
	.cfi_offset 5, -8
	.cfi_offset 14, -4
	.loc 1 202 2 view .LVU495
	ldr	r4, .L84
	.loc 1 201 38 view .LVU496
	sub	sp, sp, #20
	.cfi_def_cfa_offset 32
	.loc 1 202 2 view .LVU497
	ldr	r1, [r4, #672]
	add	r0, r4, #680
	bl	Camera_Update
.LVL122:
	.loc 1 204 2 is_stmt 1 view .LVU498
	.loc 1 204 17 is_stmt 0 view .LVU499
	bl	Block_GetTextureMap
.LVL123:
	mov	r1, r0
	.loc 1 204 2 view .LVU500
	mov	r0, #0
	bl	C3D_TexBind
.LVL124:
	.loc 1 206 2 is_stmt 1 view .LVU501
.LBB235:
.LBB236:
.LBB237:
	.file 8 "/opt/devkitpro/libctru/include/c3d/uniforms.h"
	.loc 8 35 10 is_stmt 0 view .LVU502
	add	r5, r4, #808
.LBB238:
.LBB239:
	.loc 8 19 31 view .LVU503
	mov	r2, #1
.LBE239:
.LBE238:
	.loc 8 35 10 view .LVU504
	mov	lr, r5
.LBB243:
.LBB240:
	.loc 8 19 31 view .LVU505
	ldr	r3, .L84+4
.LBE240:
.LBE243:
.LBE237:
.LBE236:
.LBE235:
	.loc 1 206 2 view .LVU506
	ldr	r1, [r4, #1080]
.LVL125:
.LBB248:
.LBI235:
	.loc 8 38 20 is_stmt 1 view .LVU507
	.loc 8 40 2 view .LVU508
.LBB247:
.LBI236:
	.loc 8 30 20 view .LVU509
.LBB246:
.LBB244:
.LBB241:
	.loc 8 18 16 view .LVU510
	.loc 8 19 3 view .LVU511
	.loc 8 20 9 is_stmt 0 view .LVU512
	ldr	ip, .L84+8
	.loc 8 19 31 view .LVU513
	strb	r2, [r3, r1]!
	.loc 8 18 26 is_stmt 1 view .LVU514
.LVL126:
	.loc 8 18 16 view .LVU515
	.loc 8 19 3 view .LVU516
.LBE241:
.LBE244:
	.loc 8 35 10 is_stmt 0 view .LVU517
	add	ip, ip, r1, lsl #4
.LBB245:
.LBB242:
	.loc 8 19 31 view .LVU518
	strb	r2, [r3, #1]
	.loc 8 18 26 is_stmt 1 view .LVU519
.LVL127:
	.loc 8 18 16 view .LVU520
	.loc 8 19 3 view .LVU521
	.loc 8 19 31 is_stmt 0 view .LVU522
	strb	r2, [r3, #2]
	.loc 8 18 26 is_stmt 1 view .LVU523
.LVL128:
	.loc 8 18 16 view .LVU524
	.loc 8 19 3 view .LVU525
	.loc 8 19 31 is_stmt 0 view .LVU526
	strb	r2, [r3, #3]
	.loc 8 18 26 is_stmt 1 view .LVU527
.LVL129:
	.loc 8 18 16 view .LVU528
	.loc 8 20 2 view .LVU529
	.loc 8 20 2 is_stmt 0 view .LVU530
.LBE242:
.LBE245:
	.loc 8 34 2 is_stmt 1 view .LVU531
	.loc 8 34 16 view .LVU532
	.loc 8 35 10 is_stmt 0 view .LVU533
	ldmia	lr!, {r0, r1, r2, r3}
.LVL130:
	.loc 8 35 10 view .LVU534
	stmia	ip!, {r0, r1, r2, r3}
	ldmia	lr!, {r0, r1, r2, r3}
	stmia	ip!, {r0, r1, r2, r3}
	ldmia	lr!, {r0, r1, r2, r3}
	stmia	ip!, {r0, r1, r2, r3}
	ldm	lr, {r0, r1, r2, r3}
	stm	ip, {r0, r1, r2, r3}
.LVL131:
	.loc 8 35 10 view .LVU535
.LBE246:
.LBE247:
.LBE248:
	.loc 1 208 2 is_stmt 1 view .LVU536
	bl	renderWorld
.LVL132:
	.loc 1 210 2 view .LVU537
	.loc 1 210 60 is_stmt 0 view .LVU538
	ldr	r3, [r4, #672]
	.loc 1 210 2 view .LVU539
	mov	r1, r5
	vldr.32	s1, [r3, #8]
	vldr.32	s0, [r3]
	ldr	r2, [r4, #676]
	ldr	r0, [r4, #1080]
	bl	Clouds_Render
.LVL133:
	.loc 1 211 9 is_stmt 1 view .LVU540
	.loc 1 211 64 is_stmt 0 view .LVU541
	ldr	r3, [r4, #672]
	.loc 1 211 9 view .LVU542
	ldr	r1, [r3, #136]
	add	r1, r1, r1, lsl #1
	add	r1, r3, r1
	ldrb	r0, [r1, #145]	@ zero_extendqisi2
	ldrb	r2, [r1, #144]	@ zero_extendqisi2
	ldrb	r1, [r1, #146]	@ zero_extendqisi2
	orr	r2, r2, r0, lsl #8
	orr	r2, r2, r1, lsl #16
	bic	r2, r2, #-16777216
	ldr	r0, [r4, #1080]
	add	r1, r4, #680
	bl	Hand_Draw
.LVL134:
	.loc 1 213 2 is_stmt 1 view .LVU543
	.loc 1 213 12 is_stmt 0 view .LVU544
	ldr	r2, [r4, #672]
	.loc 1 213 5 view .LVU545
	ldrb	r3, [r2, #193]	@ zero_extendqisi2
	cmp	r3, #0
	bne	.L83
	.loc 1 216 1 view .LVU546
	add	sp, sp, #20
	.cfi_remember_state
	.cfi_def_cfa_offset 12
	@ sp needed
	pop	{r4, r5, pc}
.L83:
	.cfi_restore_state
	.loc 1 214 3 is_stmt 1 view .LVU547
	ldrb	r1, [r2, #188]	@ zero_extendqisi2
	ldr	r3, [r2, #172]
	str	r1, [sp, #8]
	ldr	r1, [r2, #180]
	ldr	r0, [r4, #1080]
	str	r1, [sp, #4]
	ldr	ip, [r2, #176]
	mov	r1, r5
	ldr	r2, [r4, #676]
	str	ip, [sp]
	bl	Cursor_Draw
.LVL135:
	.loc 1 216 1 is_stmt 0 view .LVU548
	add	sp, sp, #20
	.cfi_def_cfa_offset 12
	@ sp needed
	pop	{r4, r5, pc}
.L85:
	.align	2
.L84:
	.word	.LANCHOR0
	.word	C3D_FVUnifDirty
	.word	C3D_FVUnif
	.cfi_endproc
.LFE227:
	.size	WorldRenderer_Render, .-WorldRenderer_Render
	.global	sky_time
	.bss
	.align	2
	.set	.LANCHOR0,. + 0
	.type	chunkRendered, %object
	.size	chunkRendered, 648
chunkRendered:
	.space	648
	.type	renderingQueue, %object
	.size	renderingQueue, 12
renderingQueue:
	.space	12
	.type	transparentClusters, %object
	.size	transparentClusters, 12
transparentClusters:
	.space	12
	.type	player, %object
	.size	player, 4
player:
	.space	4
	.type	world, %object
	.size	world, 4
world:
	.space	4
	.type	camera, %object
	.size	camera, 396
camera:
	.space	396
	.type	workqueue, %object
	.size	workqueue, 4
workqueue:
	.space	4
	.type	projectionUniform, %object
	.size	projectionUniform, 4
projectionUniform:
	.space	4
	.type	fogLut, %object
	.size	fogLut, 512
fogLut:
	.space	512
	.type	sky_time, %object
	.size	sky_time, 4
sky_time:
	.space	4
	.text
.Letext0:
	.file 9 "/opt/devkitpro/devkitARM/arm-none-eabi/include/machine/_default_types.h"
	.file 10 "/opt/devkitpro/devkitARM/arm-none-eabi/include/sys/_stdint.h"
	.file 11 "/home/tobi/Dokumente/Craftus-Next/include/world/Direction.h"
	.file 12 "/home/tobi/Dokumente/Craftus-Next/include/blocks/Block.h"
	.file 13 "/home/tobi/Dokumente/Craftus-Next/include/misc/Xorshift.h"
	.file 14 "/opt/devkitpro/devkitARM/lib/gcc/arm-none-eabi/11.2.0/include/stddef.h"
	.file 15 "/opt/devkitpro/devkitARM/arm-none-eabi/include/sys/lock.h"
	.file 16 "/home/tobi/Dokumente/Craftus-Next/include/rendering/VBOCache.h"
	.file 17 "/opt/devkitpro/libctru/include/3ds/types.h"
	.file 18 "/opt/devkitpro/libctru/include/3ds/synchronization.h"
	.file 19 "/opt/devkitpro/libctru/include/3ds/services/csnd.h"
	.file 20 "/opt/devkitpro/libctru/include/3ds/services/ndm.h"
	.file 21 "/opt/devkitpro/libctru/include/3ds/gpu/enums.h"
	.file 22 "/opt/devkitpro/libctru/include/3ds/ndsp/channel.h"
	.file 23 "/opt/devkitpro/libctru/include/3ds/applets/error.h"
	.file 24 "/home/tobi/Dokumente/Craftus-Next/include/blocks/Item.h"
	.file 25 "/home/tobi/Dokumente/Craftus-Next/include/inventory/ItemStack.h"
	.file 26 "/home/tobi/Dokumente/Craftus-Next/include/misc/Raycast.h"
	.file 27 "/home/tobi/Dokumente/Craftus-Next/include/entity/Player.h"
	.file 28 "/opt/devkitpro/libctru/include/c3d/types.h"
	.file 29 "/opt/devkitpro/libctru/include/c3d/buffers.h"
	.file 30 "/opt/devkitpro/libctru/include/c3d/texture.h"
	.file 31 "/opt/devkitpro/libctru/include/c3d/fog.h"
	.file 32 "/home/tobi/Dokumente/Craftus-Next/include/rendering/Camera.h"
	.file 33 "/home/tobi/Dokumente/Craftus-Next/include/gui/DebugUI.h"
	.file 34 "/opt/devkitpro/libctru/include/c3d/effect.h"
	.file 35 "/opt/devkitpro/libctru/include/c3d/base.h"
	.file 36 "/home/tobi/Dokumente/Craftus-Next/dependencies/vec/vec.h"
	.file 37 "/home/tobi/Dokumente/Craftus-Next/include/rendering/Cursor.h"
	.file 38 "/home/tobi/Dokumente/Craftus-Next/include/rendering/Hand.h"
	.file 39 "/home/tobi/Dokumente/Craftus-Next/include/rendering/Clouds.h"
	.file 40 "/opt/devkitpro/devkitARM/arm-none-eabi/include/stdlib.h"
	.file 41 "/opt/devkitpro/devkitARM/arm-none-eabi/include/string.h"
	.file 42 "<built-in>"