	.arch armv6k
	.eabi_attribute 28, 1
	.eabi_attribute 20, 1
	.eabi_attribute 21, 1
	.eabi_attribute 23, 3
	.eabi_attribute 24, 1
	.eabi_attribute 25, 1
	.eabi_attribute 26, 1
	.eabi_attribute 30, 2
	.eabi_attribute 34, 1
	.eabi_attribute 18, 4
	.file	"World.c"
	.text
.Ltext0:
	.cfi_sections	.debug_frame
	.section	.text.World_Reset,"ax",%progbits
	.align	2
	.global	World_Reset
	.syntax unified
	.arm
	.fpu vfp
	.type	World_Reset, %function
World_Reset:
.LVL0:
.LFB125:
	.file 1 "/home/tobi/Dokumente/Craftus-Next/source/world/World.c"
	.loc 1 24 32 view -0
	.cfi_startproc
	@ args = 0, pretend = 0, frame = 0
	@ frame_needed = 0, uses_anonymous_args = 0
	.loc 1 25 2 view .LVU1
	.loc 1 24 32 is_stmt 0 view .LVU2
	push	{r3, r4, r5, r6, r7, r8, r9, r10, fp, lr}
	.cfi_def_cfa_offset 40
	.cfi_offset 3, -40
	.cfi_offset 4, -36
	.cfi_offset 5, -32
	.cfi_offset 6, -28
	.cfi_offset 7, -24
	.cfi_offset 8, -20
	.cfi_offset 9, -16
	.cfi_offset 10, -12
	.cfi_offset 11, -8
	.cfi_offset 14, -4
	.loc 1 25 27 view .LVU3
	mov	r3, #0
.LBB192:
	.loc 1 31 25 view .LVU4
	mvn	r5, #-2147483648
	.loc 1 33 25 view .LVU5
	ldr	r9, .L7
	.loc 1 33 5 view .LVU6
	ldr	fp, .L7+4
	ldr	r8, .L7+8
	ldr	r7, .L7+12
.LBE192:
	.loc 1 28 32 view .LVU7
	add	r10, r0, #11862016
	add	r6, r10, #57344
	.loc 1 25 27 view .LVU8
	str	r3, [r0, #32]
	.loc 1 26 2 is_stmt 1 view .LVU9
	.loc 1 26 27 is_stmt 0 view .LVU10
	str	r3, [r0, #36]
	.loc 1 28 2 is_stmt 1 view .LVU11
.LBB193:
	.loc 1 33 25 is_stmt 0 view .LVU12
	add	r9, r0, r9
	.loc 1 33 5 view .LVU13
	add	fp, r0, fp
	add	r8, r0, r8
	add	r7, r0, r7
	add	r4, r0, #40
.LBE193:
	.loc 1 28 32 view .LVU14
	str	r3, [r6, #608]
	.loc 1 30 2 is_stmt 1 view .LVU15
.LBB194:
	.loc 1 30 7 view .LVU16
.LVL1:
	.loc 1 30 23 view .LVU17
.L3:
	.loc 1 31 3 view .LVU18
	.loc 1 33 5 is_stmt 0 view .LVU19
	mov	r3, #4
	mov	r2, r8
	mov	r1, fp
	.loc 1 31 25 view .LVU20
	str	r5, [r4, #16]
	.loc 1 32 3 is_stmt 1 view .LVU21
	.loc 1 32 25 is_stmt 0 view .LVU22
	str	r5, [r4, #20]
	.loc 1 33 3 is_stmt 1 view .LVU23
	.loc 1 33 5 is_stmt 0 view .LVU24
	mov	r0, r9
	bl	vec_expand_
.LVL2:
	.loc 1 30 63 is_stmt 1 view .LVU25
	.loc 1 30 23 view .LVU26
	.loc 1 33 160 is_stmt 0 view .LVU27
	cmp	r0, #0
	.loc 1 33 210 view .LVU28
	ldreq	r3, [r6, #608]
	.loc 1 33 183 view .LVU29
	ldreq	r2, [r6, #604]
	.loc 1 33 218 view .LVU30
	addeq	r1, r3, #1
	streq	r1, [r6, #608]
	.loc 1 33 222 view .LVU31
	streq	r4, [r2, r3, lsl #2]
	.loc 1 30 23 view .LVU32
	add	r4, r4, #65536
	add	r4, r4, #684
	cmp	r4, r7
	bne	.L3
.LBE194:
	.loc 1 36 2 is_stmt 1 view .LVU33
	.loc 1 36 23 is_stmt 0 view .LVU34
	ldr	r3, .L7+16
	add	r10, r10, #57344
	str	r3, [r10, #620]
	.loc 1 37 1 view .LVU35
	pop	{r3, r4, r5, r6, r7, r8, r9, r10, fp, pc}
.L8:
	.align	2
.L7:
	.word	11919964
	.word	11919968
	.word	11919972
	.word	11919640
	.word	314159265
	.cfi_endproc
.LFE125:
	.size	World_Reset, .-World_Reset
	.section	.rodata.str1.4,"aMS",%progbits,1
	.align	2
.LC0:
	.ascii	"TestWelt\000"
	.section	.text.World_Init,"ax",%progbits
	.align	2
	.global	World_Init
	.syntax unified
	.arm
	.fpu vfp
	.type	World_Init, %function
World_Init:
.LVL3:
.LFB124:
	.loc 1 11 53 is_stmt 1 view -0
	.cfi_startproc
	@ args = 0, pretend = 0, frame = 0
	@ frame_needed = 0, uses_anonymous_args = 0
	.loc 1 12 2 view .LVU37
	.loc 1 11 53 is_stmt 0 view .LVU38
	mov	r3, r0
	.loc 1 12 2 view .LVU39
	ldr	r2, .L11+8
	.loc 1 11 53 view .LVU40
	push	{r4, r5, lr}
	.cfi_def_cfa_offset 12
	.cfi_offset 4, -12
	.cfi_offset 5, -8
	.cfi_offset 14, -4
	.loc 1 11 53 view .LVU41
	mov	r4, r1
	.loc 1 12 2 view .LVU42
	ldmia	r2!, {r0, r1}
.LVL4:
	.loc 1 17 26 view .LVU43
	mov	lr, #1
	.loc 1 12 2 view .LVU44
	ldrb	r5, [r2]	@ zero_extendqisi2
	.loc 1 16 26 view .LVU45
	vldr.64	d7, .L11	@ int
	.loc 1 19 2 view .LVU46
	mov	r2, #0
	.loc 1 12 2 view .LVU47
	str	r1, [r3, #8]	@ unaligned
	.loc 1 19 2 view .LVU48
	ldr	ip, .L11+12
	.loc 1 14 19 view .LVU49
	add	r1, r3, #11862016
	add	r1, r1, #57344
	.loc 1 12 2 view .LVU50
	str	r0, [r3, #4]	@ unaligned
	strb	r5, [r3, #12]
	.loc 1 14 2 is_stmt 1 view .LVU51
	.loc 1 14 19 is_stmt 0 view .LVU52
	str	r4, [r1, #616]
	.loc 1 16 2 is_stmt 1 view .LVU53
	.loc 1 19 2 is_stmt 0 view .LVU54
	add	r1, r3, ip
	.loc 1 17 26 view .LVU55
	strb	lr, [r3, #24]
	.loc 1 19 2 view .LVU56
	str	r2, [r3, ip]	@ unaligned
	.loc 1 16 26 view .LVU57
	vstr.64	d7, [r3, #16]	@ int
	.loc 1 17 2 is_stmt 1 view .LVU58
	.loc 1 19 2 view .LVU59
	str	r2, [r1, #4]	@ unaligned
	str	r2, [r1, #8]	@ unaligned
	.loc 1 21 2 view .LVU60
	mov	r0, r3
	.loc 1 22 1 is_stmt 0 view .LVU61
	pop	{r4, r5, lr}
	.cfi_restore 14
	.cfi_restore 5
	.cfi_restore 4
	.cfi_def_cfa_offset 0
.LVL5:
	.loc 1 21 2 view .LVU62
	b	World_Reset
.LVL6:
.L12:
	.loc 1 21 2 view .LVU63
	.align	3
.L11:
	.word	28112000
	.word	0
	.word	.LC0
	.word	11919964
	.cfi_endproc
.LFE124:
	.size	World_Init, .-World_Init
	.section	.text.World_LoadChunk,"ax",%progbits
	.align	2
	.global	World_LoadChunk
	.syntax unified
	.arm
	.fpu vfp
	.type	World_LoadChunk, %function
World_LoadChunk:
.LVL7:
.LFB126:
	.loc 1 39 52 is_stmt 1 view -0
	.cfi_startproc
	@ args = 0, pretend = 0, frame = 24
	@ frame_needed = 0, uses_anonymous_args = 0
	.loc 1 40 2 view .LVU65
.LBB206:
	.loc 1 40 7 view .LVU66
	.loc 1 40 20 view .LVU67
.LBE206:
	.loc 1 39 52 is_stmt 0 view .LVU68
	push	{r4, r5, r6, r7, r8, r9, r10, lr}
	.cfi_def_cfa_offset 32
	.cfi_offset 4, -32
	.cfi_offset 5, -28
	.cfi_offset 6, -24
	.cfi_offset 7, -20
	.cfi_offset 8, -16
	.cfi_offset 9, -12
	.cfi_offset 10, -8
	.cfi_offset 14, -4
.LBB209:
	.loc 1 40 39 view .LVU69
	add	r8, r0, #11862016
	add	r9, r8, #57344
.LBE209:
	.loc 1 39 52 view .LVU70
	mov	r6, r1
.LBB210:
	.loc 1 40 39 view .LVU71
	ldr	r1, [r9, #608]
.LVL8:
	.loc 1 40 39 view .LVU72
.LBE210:
	.loc 1 39 52 view .LVU73
	sub	sp, sp, #32
	.cfi_def_cfa_offset 64
.LBB211:
	.loc 1 40 20 view .LVU74
	cmp	r1, #0
	ble	.L21
	mov	lr, r0
	ldr	r0, [r9, #604]
.LVL9:
	.loc 1 40 20 view .LVU75
	mov	r7, r2
	sub	r0, r0, #4
	.loc 1 41 24 view .LVU76
	mov	ip, r0
	.loc 1 40 11 view .LVU77
	mov	r3, #0
	b	.L16
.LVL10:
.L15:
	.loc 1 40 49 discriminator 2 view .LVU78
	add	r3, r3, #1
.LVL11:
	.loc 1 40 20 is_stmt 1 discriminator 2 view .LVU79
	cmp	r3, r1
	beq	.L26
.LVL12:
.L16:
	.loc 1 41 3 view .LVU80
	.loc 1 40 49 view .LVU81
	.loc 1 41 29 is_stmt 0 view .LVU82
	ldr	r4, [ip, #4]!
	.loc 1 41 6 view .LVU83
	ldr	r2, [r4, #16]
	cmp	r2, r6
	bne	.L15
	.loc 1 41 41 discriminator 1 view .LVU84
	ldr	r2, [r4, #20]
	cmp	r2, r7
	bne	.L15
.LBB207:
	.loc 1 42 4 is_stmt 1 view .LVU85
.LVL13:
	.loc 1 43 4 view .LVU86
	.loc 1 43 6 is_stmt 0 view .LVU87
	mov	ip, #1
	ldr	r2, .L27
	ldr	r1, .L27+4
	ldr	r0, .L27+8
	str	r3, [sp]
	add	r2, lr, r2
	add	r1, lr, r1
	add	r0, lr, r0
	mov	r3, #4
.LVL14:
	.loc 1 43 6 view .LVU88
	str	ip, [sp, #4]
	bl	vec_splice_
.LVL15:
	.loc 1 43 6 view .LVU89
.LBE207:
.LBE211:
	.loc 1 64 1 view .LVU90
	mov	r0, r4
.LBB212:
.LBB208:
	.loc 1 45 21 view .LVU91
	add	r1, r4, #65536
	.loc 1 43 192 view .LVU92
	ldr	r2, [r9, #608]
	.loc 1 45 21 view .LVU93
	ldr	r3, [r1, #680]
	.loc 1 43 192 view .LVU94
	sub	r2, r2, #1
	.loc 1 45 21 view .LVU95
	add	r3, r3, #1
	.loc 1 43 192 view .LVU96
	str	r2, [r9, #608]
	.loc 1 45 4 is_stmt 1 view .LVU97
	.loc 1 45 21 is_stmt 0 view .LVU98
	str	r3, [r1, #680]
	.loc 1 46 4 is_stmt 1 view .LVU99
.LBE208:
.LBE212:
	.loc 1 64 1 is_stmt 0 view .LVU100
	add	sp, sp, #32
	.cfi_remember_state
	.cfi_def_cfa_offset 32
	@ sp needed
	pop	{r4, r5, r6, r7, r8, r9, r10, pc}
.LVL16:
.L26:
	.cfi_restore_state
.LBB213:
	.loc 1 64 1 view .LVU101
	mov	r3, #0
.LVL17:
	.loc 1 64 1 view .LVU102
	b	.L20
.LVL18:
.L17:
	.loc 1 64 1 view .LVU103
.LBE213:
.LBB214:
	.loc 1 50 49 discriminator 2 view .LVU104
	add	r3, r3, #1
.LVL19:
	.loc 1 50 20 is_stmt 1 discriminator 2 view .LVU105
	cmp	r3, r1
	beq	.L21
.LVL20:
.L20:
	.loc 1 51 3 view .LVU106
	.loc 1 50 49 view .LVU107
	.loc 1 51 30 is_stmt 0 view .LVU108
	ldr	r4, [r0, #4]!
	.loc 1 51 6 view .LVU109
	ldr	r5, [r4]
	cmp	r5, #0
	bne	.L17
.LBB215:
	.loc 1 52 4 is_stmt 1 view .LVU110
.LVL21:
	.loc 1 53 4 view .LVU111
	.loc 1 53 6 is_stmt 0 view .LVU112
	mov	r10, #1
	ldr	r2, .L27
	ldr	r1, .L27+4
	ldr	r0, .L27+8
	add	r2, lr, r2
	add	r1, lr, r1
	add	r0, lr, r0
	str	r3, [sp]
	str	r10, [sp, #4]
	mov	r3, #4
.LVL22:
	.loc 1 53 6 view .LVU113
	bl	vec_splice_
.LVL23:
	.loc 1 53 192 view .LVU114
	ldr	r3, [r9, #608]
.LBB216:
.LBB217:
	.file 2 "/home/tobi/Dokumente/Craftus-Next/include/world/Chunk.h"
	.loc 2 71 2 view .LVU115
	mov	r1, r5
.LBE217:
.LBE216:
	.loc 1 53 192 view .LVU116
	sub	r3, r3, #1
.LBB234:
.LBB228:
	.loc 2 71 2 view .LVU117
	ldr	r2, .L27+12
.LBE228:
.LBE234:
	.loc 1 53 192 view .LVU118
	str	r3, [r9, #608]
	.loc 1 55 4 is_stmt 1 view .LVU119
.LVL24:
.LBB235:
.LBI216:
	.loc 2 70 13 view .LVU120
.LBB229:
	.loc 2 71 2 view .LVU121
	mov	r0, r4
	bl	memset
.LVL25:
	.loc 2 73 2 view .LVU122
	mov	r2, r4
.LBB218:
	.loc 2 77 33 is_stmt 0 view .LVU123
	mvn	r1, #0
.LBE218:
	.loc 2 74 11 view .LVU124
	strd	r6, [r4, #16]
	.loc 2 75 2 is_stmt 1 view .LVU125
.LBB219:
	.loc 2 75 7 view .LVU126
.LVL26:
	.loc 2 75 20 view .LVU127
	add	r3, r4, #8192
	add	r3, r3, #32
.LVL27:
.L18:
	.loc 2 76 3 view .LVU128
	.loc 2 76 24 is_stmt 0 view .LVU129
	str	r5, [r2, #24]
	.loc 2 77 3 is_stmt 1 view .LVU130
	.loc 2 75 39 is_stmt 0 view .LVU131
	add	r5, r5, #1
.LVL28:
	.loc 2 77 33 view .LVU132
	strh	r1, [r3]	@ movhi
	.loc 2 78 3 is_stmt 1 view .LVU133
	.loc 2 78 28 is_stmt 0 view .LVU134
	strb	r10, [r3, #2]
	.loc 2 75 39 is_stmt 1 view .LVU135
.LVL29:
	.loc 2 75 20 view .LVU136
	add	r2, r2, #8192
	add	r3, r3, #8192
	cmp	r5, #8
	add	r2, r2, #48
	add	r3, r3, #48
	bne	.L18
.LBE219:
	.loc 2 80 2 view .LVU137
.LVL30:
.LBB220:
.LBI220:
	.file 3 "/home/tobi/Dokumente/Craftus-Next/include/misc/Xorshift.h"
	.loc 3 11 17 view .LVU138
.LBB221:
	.loc 3 12 2 view .LVU139
.LBE221:
.LBE220:
.LBE229:
.LBE235:
	.loc 1 56 52 is_stmt 0 view .LVU140
	mov	r2, #0
.LBB236:
.LBB230:
.LBB225:
.LBB222:
	.loc 3 12 7 view .LVU141
	ldr	r3, .L27+16
.LBE222:
.LBE225:
.LBE230:
.LBE236:
	.loc 1 56 4 view .LVU142
	add	r8, r8, #57344
.LVL31:
.LBB237:
.LBB231:
.LBB226:
.LBB223:
	.loc 3 12 7 view .LVU143
	ldr	r5, [r3]
.LVL32:
	.loc 3 12 7 view .LVU144
.LBE223:
.LBE226:
.LBE231:
.LBE237:
	.loc 1 56 4 view .LVU145
	ldr	r6, [r8, #616]
.LVL33:
.LBB238:
.LBB232:
.LBB227:
.LBB224:
	.loc 3 12 7 view .LVU146
	eor	r5, r5, r5, lsl #13
	.loc 3 13 2 is_stmt 1 view .LVU147
	.loc 3 13 7 is_stmt 0 view .LVU148
	eor	r5, r5, r5, lsr #17
	.loc 3 14 2 is_stmt 1 view .LVU149
	.loc 3 14 7 is_stmt 0 view .LVU150
	eor	r5, r5, r5, lsl #5
	str	r5, [r3]
	.loc 3 15 2 is_stmt 1 view .LVU151
.LVL34:
	.loc 3 15 2 is_stmt 0 view .LVU152
	str	r4, [sp, #12]
	add	r3, sp, #8
.LBE224:
.LBE227:
.LBE232:
.LBE238:
	.loc 1 56 52 view .LVU153
	str	r2, [sp, #8]
	str	r2, [sp, #16]
.LBB239:
.LBB240:
	.file 4 "/home/tobi/Dokumente/Craftus-Next/include/world/WorkQueue.h"
	.loc 4 46 2 view .LVU154
	add	r8, r6, #20
.LVL35:
	.loc 4 46 2 view .LVU155
	add	r7, sp, #20
	ldm	r3, {r0, r1, r2}
	.loc 4 44 2 view .LVU156
	str	r10, [r4]
	stm	r7, {r0, r1, r2}
.LBE240:
.LBE239:
.LBB242:
.LBB233:
	.loc 2 80 14 view .LVU157
	str	r5, [r4, #8]
.LVL36:
	.loc 2 80 14 view .LVU158
.LBE233:
.LBE242:
	.loc 1 56 4 is_stmt 1 view .LVU159
.LBB243:
.LBI239:
	.loc 4 42 13 view .LVU160
.LBB241:
	.loc 4 43 2 view .LVU161
	.loc 4 44 2 view .LVU162
	.loc 4 45 2 view .LVU163
	.loc 4 46 2 view .LVU164
	mov	r0, r8
	bl	LightLock_Lock
.LVL37:
	.loc 4 47 2 view .LVU165
	.loc 4 47 4 is_stmt 0 view .LVU166
	mov	r3, #12
	mov	r0, r6
	add	r2, r6, #8
	add	r1, r6, #4
	bl	vec_expand_
.LVL38:
	.loc 4 47 139 view .LVU167
	cmp	r0, #0
	bne	.L19
.LVL39:
	.loc 4 47 179 view .LVU168
	ldr	r2, [r6, #4]
	.loc 4 47 157 view .LVU169
	ldr	r3, [r6]
	.loc 4 47 191 view .LVU170
	add	r1, r2, r2, lsl #1
	add	r3, r3, r1, lsl #2
	.loc 4 47 187 view .LVU171
	add	r2, r2, #1
	.loc 4 47 191 view .LVU172
	str	r5, [sp, #28]
	.loc 4 47 187 view .LVU173
	str	r2, [r6, #4]
.LVL40:
	.loc 4 47 191 view .LVU174
	ldm	r7, {r0, r1, r2}
	stm	r3, {r0, r1, r2}
.LVL41:
.L19:
	.loc 4 48 2 is_stmt 1 view .LVU175
	mov	r0, r8
	bl	LightLock_Unlock
.LVL42:
	.loc 4 50 2 view .LVU176
	add	r0, r6, #12
	bl	LightEvent_Signal
.LVL43:
	.loc 4 50 2 is_stmt 0 view .LVU177
.LBE241:
.LBE243:
	.loc 1 58 4 is_stmt 1 view .LVU178
.LBE215:
.LBE214:
	.loc 1 64 1 is_stmt 0 view .LVU179
	mov	r0, r4
.LBB245:
.LBB244:
	.loc 1 58 21 view .LVU180
	add	r2, r4, #65536
	ldr	r3, [r2, #680]
	add	r3, r3, #1
	str	r3, [r2, #680]
	.loc 1 59 4 is_stmt 1 view .LVU181
.LBE244:
.LBE245:
	.loc 1 64 1 is_stmt 0 view .LVU182
	add	sp, sp, #32
	.cfi_remember_state
	.cfi_def_cfa_offset 32
	@ sp needed
	pop	{r4, r5, r6, r7, r8, r9, r10, pc}
.LVL44:
.L21:
	.cfi_restore_state
	.loc 1 63 8 view .LVU183
	mov	r4, #0
	.loc 1 64 1 view .LVU184
	mov	r0, r4
	add	sp, sp, #32
	.cfi_def_cfa_offset 32
	@ sp needed
	pop	{r4, r5, r6, r7, r8, r9, r10, pc}
.LVL45:
.L28:
	.loc 1 64 1 view .LVU185
	.align	2
.L27:
	.word	11919972
	.word	11919968
	.word	11919964
	.word	66220
	.word	uuidGenerator
	.cfi_endproc
.LFE126:
	.size	World_LoadChunk, .-World_LoadChunk
	.section	.text.World_UnloadChunk,"ax",%progbits
	.align	2
	.global	World_UnloadChunk
	.syntax unified
	.arm
	.fpu vfp
	.type	World_UnloadChunk, %function
World_UnloadChunk:
.LVL46:
.LFB127:
	.loc 1 65 52 is_stmt 1 view -0
	.cfi_startproc
	@ args = 0, pretend = 0, frame = 24
	@ frame_needed = 0, uses_anonymous_args = 0
	.loc 1 66 2 view .LVU187
	.loc 1 65 52 is_stmt 0 view .LVU188
	push	{r4, r5, r6, r7, r8, r9, r10, lr}
	.cfi_def_cfa_offset 32
	.cfi_offset 4, -32
	.cfi_offset 5, -28
	.cfi_offset 6, -24
	.cfi_offset 7, -20
	.cfi_offset 8, -16
	.cfi_offset 9, -12
	.cfi_offset 10, -8
	.cfi_offset 14, -4
	mov	r2, #0
	sub	sp, sp, #24
	.cfi_def_cfa_offset 56
	.loc 1 66 50 view .LVU189
	mov	ip, #1
	mov	r3, sp
	.loc 1 66 2 view .LVU190
	add	r7, r0, #11862016
	add	r7, r7, #57344
	ldr	r5, [r7, #616]
.LVL47:
	.loc 1 66 2 view .LVU191
	str	r2, [sp, #8]
.LBB248:
.LBB249:
	.loc 4 44 2 view .LVU192
	ldr	r2, [r1]
.LBE249:
.LBE248:
	.loc 1 66 50 view .LVU193
	str	ip, [sp]
.LBB252:
.LBB250:
	.loc 4 44 2 view .LVU194
	add	r2, r2, ip
	str	r1, [sp, #4]
	add	r8, sp, #12
	.loc 4 46 2 view .LVU195
	add	r9, r5, #20
	.loc 4 43 24 view .LVU196
	ldr	r10, [r1, #8]
	.loc 4 44 2 view .LVU197
	str	r2, [r1]
.LBE250:
.LBE252:
	.loc 1 65 52 view .LVU198
	mov	r6, r0
	mov	r4, r1
	ldm	r3, {r0, r1, r2}
.LVL48:
	.loc 1 65 52 view .LVU199
	stm	r8, {r0, r1, r2}
.LVL49:
.LBB253:
.LBI248:
	.loc 4 42 13 is_stmt 1 view .LVU200
.LBB251:
	.loc 4 43 2 view .LVU201
	.loc 4 44 2 view .LVU202
	.loc 4 45 2 view .LVU203
	.loc 4 46 2 view .LVU204
	mov	r0, r9
	bl	LightLock_Lock
.LVL50:
	.loc 4 47 2 view .LVU205
	.loc 4 47 4 is_stmt 0 view .LVU206
	mov	r3, #12
	mov	r0, r5
	add	r2, r5, #8
	add	r1, r5, #4
	bl	vec_expand_
.LVL51:
	.loc 4 47 139 view .LVU207
	cmp	r0, #0
	bne	.L30
	.loc 4 47 179 view .LVU208
	ldr	r2, [r5, #4]
	.loc 4 47 157 view .LVU209
	ldr	r3, [r5]
	.loc 4 47 191 view .LVU210
	add	r1, r2, r2, lsl #1
	add	r3, r3, r1, lsl #2
	.loc 4 47 187 view .LVU211
	add	r2, r2, #1
	.loc 4 47 191 view .LVU212
	str	r10, [sp, #20]
	.loc 4 47 187 view .LVU213
	str	r2, [r5, #4]
.LVL52:
	.loc 4 47 191 view .LVU214
	ldm	r8, {r0, r1, r2}
	stm	r3, {r0, r1, r2}
.LVL53:
.L30:
	.loc 4 48 2 is_stmt 1 view .LVU215
	mov	r0, r9
	bl	LightLock_Unlock
.LVL54:
	.loc 4 50 2 view .LVU216
	add	r0, r5, #12
	bl	LightEvent_Signal
.LVL55:
	.loc 4 50 2 is_stmt 0 view .LVU217
.LBE251:
.LBE253:
	.loc 1 67 2 is_stmt 1 view .LVU218
	.loc 1 67 4 is_stmt 0 view .LVU219
	ldr	r2, .L33
	ldr	r1, .L33+4
	ldr	r0, .L33+8
	mov	r3, #4
	add	r2, r6, r2
	add	r1, r6, r1
	add	r0, r6, r0
	bl	vec_expand_
.LVL56:
	.loc 1 67 159 view .LVU220
	cmp	r0, #0
	.loc 1 67 209 view .LVU221
	ldreq	r3, [r7, #608]
	.loc 1 67 182 view .LVU222
	ldreq	r2, [r7, #604]
	.loc 1 67 217 view .LVU223
	addeq	r1, r3, #1
	streq	r1, [r7, #608]
	.loc 1 67 221 view .LVU224
	streq	r4, [r2, r3, lsl #2]
	.loc 1 68 2 is_stmt 1 view .LVU225
	.loc 1 68 19 is_stmt 0 view .LVU226
	add	r4, r4, #65536
.LVL57:
	.loc 1 68 19 view .LVU227
	ldr	r3, [r4, #680]
	sub	r3, r3, #1
	str	r3, [r4, #680]
	.loc 1 69 1 view .LVU228
	add	sp, sp, #24
	.cfi_def_cfa_offset 32
	@ sp needed
	pop	{r4, r5, r6, r7, r8, r9, r10, pc}
.LVL58:
.L34:
	.loc 1 69 1 view .LVU229
	.align	2
.L33:
	.word	11919972
	.word	11919968
	.word	11919964
	.cfi_endproc
.LFE127:
	.size	World_UnloadChunk, .-World_UnloadChunk
	.section	.text.World_GetChunk,"ax",%progbits
	.align	2
	.global	World_GetChunk
	.syntax unified
	.arm
	.fpu vfp
	.type	World_GetChunk, %function
World_GetChunk:
.LVL59:
.LFB128:
	.loc 1 71 51 is_stmt 1 view -0
	.cfi_startproc
	@ args = 0, pretend = 0, frame = 0
	@ frame_needed = 0, uses_anonymous_args = 0
	.loc 1 72 2 view .LVU231
	.loc 1 73 2 view .LVU232
	.loc 1 73 18 is_stmt 0 view .LVU233
	ldr	ip, [r0, #32]
	.loc 1 74 18 view .LVU234
	ldr	r3, [r0, #36]
	.loc 1 71 51 view .LVU235
	push	{r4, r5, lr}
	.cfi_def_cfa_offset 12
	.cfi_offset 4, -12
	.cfi_offset 5, -8
	.cfi_offset 14, -4
	.loc 1 73 6 view .LVU236
	sub	r5, ip, #4
.LVL60:
	.loc 1 74 2 is_stmt 1 view .LVU237
	.loc 1 74 6 is_stmt 0 view .LVU238
	sub	r4, r3, #4
.LVL61:
	.loc 1 75 2 is_stmt 1 view .LVU239
	.loc 1 76 2 view .LVU240
	.loc 1 77 2 view .LVU241
	.loc 1 77 5 is_stmt 0 view .LVU242
	cmp	r5, r1
	cmple	r4, r2
	movle	lr, #1
	movgt	lr, #0
	bgt	.L37
	.loc 1 76 6 discriminator 1 view .LVU243
	add	r3, r3, #4
.LVL62:
	.loc 1 75 6 discriminator 1 view .LVU244
	add	ip, ip, #4
.LVL63:
	.loc 1 77 43 discriminator 1 view .LVU245
	cmp	ip, r1
	cmpge	r3, r2
	movge	r3, #1
.LVL64:
	.loc 1 77 43 discriminator 1 view .LVU246
	movlt	r3, #0
	blt	.L38
	.loc 1 77 58 is_stmt 1 discriminator 2 view .LVU247
	.loc 1 77 85 is_stmt 0 discriminator 2 view .LVU248
	sub	r1, r1, r5
.LVL65:
	.loc 1 77 95 discriminator 2 view .LVU249
	sub	r2, r2, r4
.LVL66:
	.loc 1 77 92 discriminator 2 view .LVU250
	ldr	r3, .L40
	add	r1, r1, r1, lsl #3
	add	r1, r1, r2
	add	r3, r1, r3
	ldr	r0, [r0, r3, lsl #2]
.LVL67:
	.loc 1 77 92 discriminator 2 view .LVU251
	pop	{r4, r5, pc}
.LVL68:
.L38:
	.loc 1 78 8 view .LVU252
	mov	r0, r3
.LVL69:
	.loc 1 79 1 view .LVU253
	pop	{r4, r5, pc}
.LVL70:
.L37:
	.loc 1 78 8 view .LVU254
	mov	r0, lr
.LVL71:
	.loc 1 78 8 view .LVU255
	pop	{r4, r5, pc}
.L41:
	.align	2
.L40:
	.word	2979910
	.cfi_endproc
.LFE128:
	.size	World_GetChunk, .-World_GetChunk
	.section	.text.World_GetBlock,"ax",%progbits
	.align	2
	.global	World_GetBlock
	.syntax unified
	.arm
	.fpu vfp
	.type	World_GetBlock, %function
World_GetBlock:
.LVL72:
.LFB129:
	.loc 1 81 57 is_stmt 1 view -0
	.cfi_startproc
	@ args = 0, pretend = 0, frame = 0
	@ frame_needed = 0, uses_anonymous_args = 0
	.loc 1 82 2 view .LVU257
	.loc 1 82 5 is_stmt 0 view .LVU258
	cmp	r2, #127
	bhi	.L44
	.loc 1 83 2 is_stmt 1 view .LVU259
.LVL73:
.LBB266:
.LBI266:
	.file 5 "/home/tobi/Dokumente/Craftus-Next/include/world/World.h"
	.loc 5 51 19 view .LVU260
.LBB267:
	.loc 5 51 46 view .LVU261
	.loc 5 51 56 is_stmt 0 view .LVU262
	add	ip, r1, r1, lsr #31
.LBE267:
.LBE266:
	.loc 1 81 57 view .LVU263
	push	{r4, r5, r6, r7, r8, lr}
	.cfi_def_cfa_offset 24
	.cfi_offset 4, -24
	.cfi_offset 5, -20
	.cfi_offset 6, -16
	.cfi_offset 7, -12
	.cfi_offset 8, -8
	.cfi_offset 14, -4
.LBB272:
.LBB268:
	.loc 5 51 72 view .LVU264
	cmp	ip, #0
.LBE268:
.LBE272:
.LBB273:
.LBB274:
	.loc 5 51 56 view .LVU265
	add	lr, r3, r3, lsr #31
.LBE274:
.LBE273:
.LBB278:
.LBB269:
	.loc 5 51 72 view .LVU266
	add	r5, ip, #15
	movge	r5, ip
.LBE269:
.LBE278:
.LBB279:
.LBB275:
	cmp	lr, #0
	add	ip, lr, #15
	movge	ip, lr
.LBE275:
.LBE279:
.LBB280:
.LBB281:
	.loc 1 73 18 view .LVU267
	ldr	r8, [r0, #32]
	.loc 1 74 18 view .LVU268
	ldr	r7, [r0, #36]
.LBE281:
.LBE280:
.LBB284:
.LBB270:
	.loc 5 51 72 view .LVU269
	asr	r5, r5, #4
.LBE270:
.LBE284:
.LBB285:
.LBB276:
	asr	ip, ip, #4
.LBE276:
.LBE285:
.LBB286:
.LBB282:
	.loc 1 73 6 view .LVU270
	sub	r4, r8, #4
	.loc 1 74 6 view .LVU271
	sub	r6, r7, #4
.LBE282:
.LBE286:
.LBB287:
.LBB271:
	.loc 5 51 79 view .LVU272
	sub	r5, r5, r1, lsr #31
.LVL74:
	.loc 5 51 79 view .LVU273
.LBE271:
.LBE287:
.LBB288:
.LBI273:
	.loc 5 51 19 is_stmt 1 view .LVU274
.LBB277:
	.loc 5 51 46 view .LVU275
	.loc 5 51 79 is_stmt 0 view .LVU276
	sub	ip, ip, r3, lsr #31
.LVL75:
	.loc 5 51 79 view .LVU277
.LBE277:
.LBE288:
.LBB289:
.LBI280:
	.loc 1 71 8 is_stmt 1 view .LVU278
.LBB283:
	.loc 1 72 2 view .LVU279
	.loc 1 73 2 view .LVU280
	.loc 1 74 2 view .LVU281
	.loc 1 75 2 view .LVU282
	.loc 1 76 2 view .LVU283
	.loc 1 77 2 view .LVU284
	.loc 1 77 5 is_stmt 0 view .LVU285
	cmp	r5, r4
	cmpge	ip, r6
	movge	lr, #1
	movlt	lr, #0
	blt	.L46
	.loc 1 75 6 view .LVU286
	add	r8, r8, #4
.LVL76:
	.loc 1 76 6 view .LVU287
	add	r7, r7, #4
.LVL77:
	.loc 1 77 43 view .LVU288
	cmp	r5, r8
	cmple	ip, r7
	movle	lr, #1
	movgt	lr, #0
	bgt	.L46
	.loc 1 77 58 is_stmt 1 view .LVU289
	.loc 1 77 85 is_stmt 0 view .LVU290
	sub	r4, r5, r4
.LVL78:
	.loc 1 77 92 view .LVU291
	ldr	lr, .L52
	.loc 1 77 95 view .LVU292
	sub	r6, ip, r6
.LVL79:
	.loc 1 77 92 view .LVU293
	add	r4, r4, r4, lsl #3
	add	r4, r4, r6
	add	lr, r4, lr
	ldr	r0, [r0, lr, lsl #2]
.LVL80:
	.loc 1 77 92 view .LVU294
.LBE283:
.LBE289:
	.loc 1 84 2 is_stmt 1 view .LVU295
	.loc 1 84 5 is_stmt 0 view .LVU296
	cmp	r0, #0
	popeq	{r4, r5, r6, r7, r8, pc}
	.loc 1 84 13 is_stmt 1 view .LVU297
.LVL81:
.LBB290:
.LBI290:
	.loc 5 52 19 view .LVU298
.LBB291:
	.loc 5 52 46 view .LVU299
	.loc 5 52 46 is_stmt 0 view .LVU300
.LBE291:
.LBE290:
.LBB293:
.LBI293:
	.loc 5 52 19 is_stmt 1 view .LVU301
.LBB294:
	.loc 5 52 46 view .LVU302
	.loc 5 52 46 is_stmt 0 view .LVU303
.LBE294:
.LBE293:
.LBB296:
.LBI296:
	.loc 2 106 14 is_stmt 1 view .LVU304
.LBB297:
	.loc 2 107 2 view .LVU305
.LBE297:
.LBE296:
.LBB300:
.LBB295:
	.loc 5 52 55 is_stmt 0 view .LVU306
	sub	r3, r3, ip, lsl #4
.LVL82:
	.loc 5 52 55 view .LVU307
.LBE295:
.LBE300:
.LBB301:
.LBB298:
	.loc 2 107 27 view .LVU308
	asr	ip, r2, #4
	.loc 2 107 67 view .LVU309
	add	lr, ip, ip, lsl #8
.LBE298:
.LBE301:
.LBB302:
.LBB292:
	.loc 5 52 55 view .LVU310
	sub	r1, r1, r5, lsl #4
.LVL83:
	.loc 5 52 55 view .LVU311
.LBE292:
.LBE302:
.LBB303:
.LBB299:
	.loc 2 107 67 view .LVU312
	add	ip, ip, lr, lsl #1
	.loc 2 107 47 view .LVU313
	and	r2, r2, #15
.LVL84:
	.loc 2 107 67 view .LVU314
	add	ip, ip, r1, lsl #4
	add	ip, ip, r2
	add	r0, r0, ip, lsl #4
.LVL85:
	.loc 2 107 67 view .LVU315
	add	r3, r0, r3
.LVL86:
	.loc 2 107 67 view .LVU316
	ldrb	r0, [r3, #28]	@ zero_extendqisi2
.LVL87:
	.loc 2 107 67 view .LVU317
.LBE299:
.LBE303:
	.loc 1 84 20 view .LVU318
	pop	{r4, r5, r6, r7, r8, pc}
.LVL88:
.L46:
	.loc 1 82 34 view .LVU319
	mov	r0, lr
.LVL89:
	.loc 1 86 1 view .LVU320
	pop	{r4, r5, r6, r7, r8, pc}
.LVL90:
.L44:
	.cfi_def_cfa_offset 0
	.cfi_restore 4
	.cfi_restore 5
	.cfi_restore 6
	.cfi_restore 7
	.cfi_restore 8
	.cfi_restore 14
	.loc 1 82 34 view .LVU321
	mov	r0, #0
.LVL91:
	.loc 1 86 1 view .LVU322
	bx	lr
.L53:
	.align	2
.L52:
	.word	2979910
	.cfi_endproc
.LFE129:
	.size	World_GetBlock, .-World_GetBlock
	.section	.text.World_SetBlock,"ax",%progbits
	.align	2
	.global	World_SetBlock
	.syntax unified
	.arm
	.fpu vfp
	.type	World_SetBlock, %function
World_SetBlock:
.LVL92:
.LFB130:
	.loc 1 103 69 is_stmt 1 view -0
	.cfi_startproc
	@ args = 4, pretend = 0, frame = 8
	@ frame_needed = 0, uses_anonymous_args = 0
	.loc 1 104 2 view .LVU324
	.loc 1 103 69 is_stmt 0 view .LVU325
	push	{r4, r5, r6, r7, r8, r9, r10, fp, lr}
	.cfi_def_cfa_offset 36
	.cfi_offset 4, -36
	.cfi_offset 5, -32
	.cfi_offset 6, -28
	.cfi_offset 7, -24
	.cfi_offset 8, -20
	.cfi_offset 9, -16
	.cfi_offset 10, -12
	.cfi_offset 11, -8
	.cfi_offset 14, -4
	.loc 1 104 5 view .LVU326
	cmp	r2, #127
	.loc 1 103 69 view .LVU327
	sub	sp, sp, #12
	.cfi_def_cfa_offset 48
	.loc 1 103 69 view .LVU328
	ldrb	r10, [sp, #48]	@ zero_extendqisi2
	.loc 1 104 5 view .LVU329
	bhi	.L54
	.loc 1 105 2 is_stmt 1 view .LVU330
.LVL93:
.LBB337:
.LBI337:
	.loc 5 51 19 view .LVU331
.LBB338:
	.loc 5 51 46 view .LVU332
	mov	r6, r2
	.loc 5 51 56 is_stmt 0 view .LVU333
	add	r2, r1, r1, lsr #31
.LVL94:
	.loc 5 51 72 view .LVU334
	cmp	r2, #0
	mov	r4, r3
.LBE338:
.LBE337:
.LBB341:
.LBB342:
	.loc 5 51 56 view .LVU335
	add	r3, r3, r3, lsr #31
.LVL95:
	.loc 5 51 56 view .LVU336
.LBE342:
.LBE341:
.LBB345:
.LBB339:
	.loc 5 51 72 view .LVU337
	add	r5, r2, #15
	movge	r5, r2
.LBE339:
.LBE345:
.LBB346:
.LBB343:
	cmp	r3, #0
	add	r2, r3, #15
	movge	r2, r3
.LBE343:
.LBE346:
.LBB347:
.LBB340:
	asr	r5, r5, #4
	.loc 5 51 79 view .LVU338
	sub	r5, r5, r1, lsr #31
.LVL96:
	.loc 5 51 79 view .LVU339
.LBE340:
.LBE347:
	.loc 1 106 2 is_stmt 1 view .LVU340
.LBB348:
.LBI341:
	.loc 5 51 19 view .LVU341
.LBB344:
	.loc 5 51 46 view .LVU342
	.loc 5 51 72 is_stmt 0 view .LVU343
	asr	r2, r2, #4
	.loc 5 51 79 view .LVU344
	sub	r2, r2, r4, lsr #31
.LVL97:
	.loc 5 51 79 view .LVU345
.LBE344:
.LBE348:
	.loc 1 107 2 is_stmt 1 view .LVU346
	mov	r9, r1
	.loc 1 107 17 is_stmt 0 view .LVU347
	mov	r1, r5
.LVL98:
	.loc 1 107 17 view .LVU348
	mov	r8, r0
	str	r2, [sp, #4]
	bl	World_GetChunk
.LVL99:
	.loc 1 108 2 is_stmt 1 view .LVU349
	.loc 1 108 5 is_stmt 0 view .LVU350
	subs	r7, r0, #0
	beq	.L54
.LBB349:
	.loc 1 109 3 is_stmt 1 view .LVU351
.LVL100:
.LBB350:
.LBI350:
	.loc 5 52 19 view .LVU352
.LBB351:
	.loc 5 52 46 view .LVU353
	.loc 5 52 55 is_stmt 0 view .LVU354
	sub	r1, r9, r5, lsl #4
.LVL101:
	.loc 5 52 55 view .LVU355
.LBE351:
.LBE350:
	.loc 1 110 3 is_stmt 1 view .LVU356
.LBB352:
.LBI352:
	.loc 5 52 19 view .LVU357
.LBB353:
	.loc 5 52 46 view .LVU358
.LBE353:
.LBE352:
.LBB356:
.LBB357:
	.loc 2 111 40 is_stmt 0 view .LVU359
	asr	r9, r6, #4
.LVL102:
	.loc 2 112 47 view .LVU360
	add	r0, r9, r9, lsl #8
.LVL103:
	.loc 2 112 47 view .LVU361
	add	r0, r9, r0, lsl #1
.LBB358:
.LBB359:
	.loc 2 101 8 view .LVU362
	lsl	fp, r0, #4
.LBE359:
.LBE358:
	.loc 2 112 23 view .LVU363
	and	r3, r6, #15
	.loc 2 112 47 view .LVU364
	add	r0, r0, r1, lsl #4
.LBE357:
.LBE356:
.LBB376:
.LBB354:
	.loc 5 52 55 view .LVU365
	ldr	r2, [sp, #4]
.LBE354:
.LBE376:
.LBB377:
.LBB372:
	.loc 2 112 47 view .LVU366
	add	r0, r0, r3
.LBB366:
.LBB360:
	.loc 2 101 8 view .LVU367
	add	r3, r3, r1, lsl #4
	add	r3, fp, r3, lsl #4
.LBE360:
.LBE366:
.LBE372:
.LBE377:
.LBB378:
.LBB355:
	.loc 5 52 55 view .LVU368
	sub	r4, r4, r2, lsl #4
.LVL104:
	.loc 5 52 55 view .LVU369
.LBE355:
.LBE378:
	.loc 1 111 3 is_stmt 1 view .LVU370
.LBB379:
.LBI356:
	.loc 2 110 13 view .LVU371
.LBB373:
	.loc 2 111 2 view .LVU372
	.loc 2 112 2 view .LVU373
	.loc 2 112 47 is_stmt 0 view .LVU374
	add	r0, r7, r0, lsl #4
.LBB367:
.LBB361:
	.loc 2 101 8 view .LVU375
	add	r3, r7, r3
.LBE361:
.LBE367:
	.loc 2 112 47 view .LVU376
	add	r0, r0, r4
.LBB368:
.LBB362:
	.loc 2 101 8 view .LVU377
	add	r3, r3, r4
.LBE362:
.LBE368:
	.loc 2 112 47 view .LVU378
	strb	r10, [r0, #28]
	.loc 2 113 2 is_stmt 1 view .LVU379
.LVL105:
.LBB369:
.LBI358:
	.loc 2 97 13 view .LVU380
.LBB363:
	.loc 2 98 2 view .LVU381
	.loc 2 99 2 view .LVU382
	.loc 2 100 2 view .LVU383
	.loc 2 101 2 view .LVU384
	.loc 2 101 8 is_stmt 0 view .LVU385
	add	r3, r3, #4096
	.loc 2 101 17 view .LVU386
	ldrb	r0, [r3, #28]	@ zero_extendqisi2
	.loc 2 103 2 view .LVU387
	add	r10, r7, #65536
.LVL106:
	.loc 2 101 17 view .LVU388
	bic	r0, r0, #15
	.loc 2 101 8 view .LVU389
	strb	r0, [r3, #28]
.LVL107:
	.loc 2 102 2 is_stmt 1 view .LVU390
	add	r3, r7, fp
	add	r3, r3, #8192
	ldr	r0, [r3, #28]
.LBE363:
.LBE369:
.LBE373:
.LBE379:
	.loc 1 113 6 is_stmt 0 view .LVU391
	cmp	r1, #0
.LBB380:
.LBB374:
.LBB370:
.LBB364:
	.loc 2 102 2 view .LVU392
	add	r0, r0, #1
	str	r0, [r3, #28]
	.loc 2 103 2 is_stmt 1 view .LVU393
	ldr	r0, [r10, #668]
.LBE364:
.LBE370:
	.loc 2 112 47 is_stmt 0 view .LVU394
	lsl	r3, r9, #8
.LBB371:
.LBB365:
	.loc 2 103 2 view .LVU395
	add	r0, r0, #1
	str	r0, [r10, #668]
.LVL108:
	.loc 2 103 2 view .LVU396
.LBE365:
.LBE371:
.LBE374:
.LBE380:
	.loc 1 113 3 is_stmt 1 view .LVU397
.LBB381:
.LBB375:
	.loc 2 112 47 is_stmt 0 view .LVU398
	str	r3, [sp, #4]
.LVL109:
	.loc 2 112 47 view .LVU399
.LBE375:
.LBE381:
	.loc 1 113 6 view .LVU400
	beq	.L87
	.loc 1 113 159 is_stmt 1 discriminator 5 view .LVU401
	.loc 1 113 162 is_stmt 0 discriminator 5 view .LVU402
	cmp	r1, #15
	bne	.L59
.LBB382:
	.loc 1 113 175 is_stmt 1 discriminator 6 view .LVU403
	.loc 1 113 199 is_stmt 0 discriminator 6 view .LVU404
	mov	r0, r8
	add	r1, r5, #1
.LVL110:
	.loc 1 113 199 discriminator 6 view .LVU405
	str	r2, [sp, #4]
	bl	World_GetChunk
.LVL111:
	.loc 1 113 238 is_stmt 1 discriminator 6 view .LVU406
	.loc 1 113 241 is_stmt 0 discriminator 6 view .LVU407
	cmp	r0, #0
	.loc 1 113 241 discriminator 6 view .LVU408
	ldr	r2, [sp, #4]
	beq	.L59
.LVL112:
.L85:
	.loc 1 113 258 is_stmt 1 discriminator 8 view .LVU409
.LBB383:
.LBI383:
	.loc 2 83 13 discriminator 8 view .LVU410
.LBB384:
	.loc 2 84 2 discriminator 8 view .LVU411
	.loc 2 84 42 is_stmt 0 discriminator 8 view .LVU412
	mov	r1, #1
	add	fp, r0, fp
	add	fp, fp, #8256
	.loc 2 85 24 discriminator 8 view .LVU413
	add	r0, r0, #65536
.LVL113:
	.loc 2 84 42 discriminator 8 view .LVU414
	strb	r1, [fp, #4]
.LVL114:
	.loc 2 85 2 is_stmt 1 discriminator 8 view .LVU415
	.loc 2 85 24 is_stmt 0 discriminator 8 view .LVU416
	strb	r1, [r0, #676]
.LVL115:
.L59:
	.loc 2 85 24 discriminator 8 view .LVU417
.LBE384:
.LBE383:
.LBE382:
	.loc 1 113 315 is_stmt 1 discriminator 10 view .LVU418
	.loc 1 113 318 is_stmt 0 discriminator 10 view .LVU419
	cmp	r4, #0
	bne	.L60
.LBB385:
	.loc 1 113 330 is_stmt 1 discriminator 11 view .LVU420
	.loc 1 113 354 is_stmt 0 discriminator 11 view .LVU421
	mov	r1, r5
	mov	r0, r8
	sub	r2, r2, #1
.LVL116:
	.loc 1 113 354 discriminator 11 view .LVU422
	bl	World_GetChunk
.LVL117:
	.loc 1 113 394 is_stmt 1 discriminator 11 view .LVU423
	.loc 1 113 397 is_stmt 0 discriminator 11 view .LVU424
	cmp	r0, #0
	.loc 1 113 397 discriminator 11 view .LVU425
	beq	.L61
.LVL118:
.L86:
	.loc 1 113 397 discriminator 11 view .LVU426
.LBE385:
.LBB386:
	.loc 1 113 570 is_stmt 1 discriminator 18 view .LVU427
.LBB387:
.LBI387:
	.loc 2 83 13 discriminator 18 view .LVU428
.LBB388:
	.loc 2 84 2 discriminator 18 view .LVU429
	.loc 2 84 42 is_stmt 0 discriminator 18 view .LVU430
	mov	r1, #1
	lsl	r3, r9, #8
	add	r2, r3, r9
	add	r2, r9, r2, lsl #1
	add	r2, r0, r2, lsl #4
	add	r2, r2, #8256
	.loc 2 85 24 discriminator 18 view .LVU431
	add	r0, r0, #65536
.LVL119:
	.loc 2 84 42 discriminator 18 view .LVU432
	strb	r1, [r2, #4]
	.loc 2 85 2 is_stmt 1 discriminator 18 view .LVU433
	.loc 2 85 24 is_stmt 0 discriminator 18 view .LVU434
	strb	r1, [r0, #676]
.LVL120:
.L61:
	.loc 2 85 24 discriminator 18 view .LVU435
.LBE388:
.LBE387:
.LBE386:
	.loc 1 113 627 is_stmt 1 discriminator 20 view .LVU436
.LBB389:
.LBI389:
	.loc 5 52 19 discriminator 20 view .LVU437
.LBB390:
	.loc 5 52 46 discriminator 20 view .LVU438
.LBE390:
.LBE389:
	.loc 1 113 657 is_stmt 0 discriminator 20 view .LVU439
	cmp	r6, #15
	.loc 1 113 630 discriminator 20 view .LVU440
	lsl	r0, r9, #4
	.loc 1 113 657 discriminator 20 view .LVU441
	movle	r1, #0
	movgt	r1, #1
	cmp	r0, r6
	movne	r1, #0
	cmp	r1, #0
.LBB392:
.LBB391:
	.loc 5 52 55 discriminator 20 view .LVU442
	sub	r2, r6, r9, lsl #4
.LVL121:
	.loc 5 52 55 discriminator 20 view .LVU443
.LBE391:
.LBE392:
	.loc 1 113 657 discriminator 20 view .LVU444
	bne	.L88
.L62:
	.loc 1 113 729 is_stmt 1 discriminator 25 view .LVU445
	.loc 1 113 760 is_stmt 0 discriminator 25 view .LVU446
	cmp	r6, #111
	cmple	r2, #15
	bne	.L54
	.loc 1 113 794 is_stmt 1 discriminator 27 view .LVU447
.LVL122:
.LBB393:
.LBI393:
	.loc 2 83 13 discriminator 27 view .LVU448
.LBB394:
	.loc 2 84 2 discriminator 27 view .LVU449
	.loc 2 84 42 is_stmt 0 discriminator 27 view .LVU450
	mov	r2, #1
	add	r9, r9, r2
.LVL123:
	.loc 2 84 42 discriminator 27 view .LVU451
	add	r1, r9, r9, lsl #8
	add	r9, r9, r1, lsl r2
.LVL124:
	.loc 2 84 42 discriminator 27 view .LVU452
	add	r7, r7, r9, lsl #4
.LVL125:
	.loc 2 84 42 discriminator 27 view .LVU453
	add	r7, r7, #8256
	strb	r2, [r7, #4]
	.loc 2 85 2 is_stmt 1 discriminator 27 view .LVU454
	.loc 2 85 24 is_stmt 0 discriminator 27 view .LVU455
	strb	r2, [r10, #676]
.LVL126:
.L54:
	.loc 2 85 24 discriminator 27 view .LVU456
.LBE394:
.LBE393:
.LBE349:
	.loc 1 115 1 view .LVU457
	add	sp, sp, #12
	.cfi_remember_state
	.cfi_def_cfa_offset 36
	@ sp needed
	pop	{r4, r5, r6, r7, r8, r9, r10, fp, pc}
.LVL127:
.L87:
	.cfi_restore_state
.LBB399:
.LBB395:
	.loc 1 113 18 is_stmt 1 discriminator 1 view .LVU458
	.loc 1 113 42 is_stmt 0 discriminator 1 view .LVU459
	mov	r0, r8
	sub	r1, r5, #1
.LVL128:
	.loc 1 113 42 discriminator 1 view .LVU460
	str	r2, [sp, #4]
	bl	World_GetChunk
.LVL129:
	.loc 1 113 82 is_stmt 1 discriminator 1 view .LVU461
	.loc 1 113 85 is_stmt 0 discriminator 1 view .LVU462
	cmp	r0, #0
	.loc 1 113 85 discriminator 1 view .LVU463
	ldr	r2, [sp, #4]
	bne	.L85
.LVL130:
	.loc 1 113 85 discriminator 1 view .LVU464
	b	.L59
.LVL131:
.L60:
	.loc 1 113 85 discriminator 1 view .LVU465
.LBE395:
	.loc 1 113 471 is_stmt 1 discriminator 15 view .LVU466
	.loc 1 113 474 is_stmt 0 discriminator 15 view .LVU467
	cmp	r4, #15
	bne	.L61
.LBB396:
	.loc 1 113 487 is_stmt 1 discriminator 16 view .LVU468
	.loc 1 113 511 is_stmt 0 discriminator 16 view .LVU469
	mov	r1, r5
	mov	r0, r8
	add	r2, r2, #1
.LVL132:
	.loc 1 113 511 discriminator 16 view .LVU470
	bl	World_GetChunk
.LVL133:
	.loc 1 113 550 is_stmt 1 discriminator 16 view .LVU471
	.loc 1 113 553 is_stmt 0 discriminator 16 view .LVU472
	cmp	r0, #0
	.loc 1 113 553 discriminator 16 view .LVU473
	bne	.L86
	b	.L61
.LVL134:
.L88:
	.loc 1 113 553 discriminator 16 view .LVU474
.LBE396:
	.loc 1 113 679 is_stmt 1 discriminator 23 view .LVU475
.LBB397:
.LBI397:
	.loc 2 83 13 discriminator 23 view .LVU476
.LBB398:
	.loc 2 84 2 discriminator 23 view .LVU477
	.loc 2 84 42 is_stmt 0 discriminator 23 view .LVU478
	mov	r0, #1
	sub	r1, r9, #1
.LVL135:
	.loc 2 84 42 discriminator 23 view .LVU479
	add	ip, r1, r1, lsl #8
	add	r1, r1, ip, lsl r0
.LVL136:
	.loc 2 84 42 discriminator 23 view .LVU480
	add	r1, r7, r1, lsl #4
	add	r1, r1, #8256
	strb	r0, [r1, #4]
	.loc 2 85 2 is_stmt 1 discriminator 23 view .LVU481
	.loc 2 85 24 is_stmt 0 discriminator 23 view .LVU482
	strb	r0, [r10, #676]
	.loc 2 86 1 discriminator 23 view .LVU483
	b	.L62
.LBE398:
.LBE397:
.LBE399:
	.cfi_endproc
.LFE130:
	.size	World_SetBlock, .-World_SetBlock
	.section	.text.World_SetBlockAndMeta,"ax",%progbits
	.align	2
	.global	World_SetBlockAndMeta
	.syntax unified
	.arm
	.fpu vfp
	.type	World_SetBlockAndMeta, %function
World_SetBlockAndMeta:
.LVL137:
.LFB131:
	.loc 1 117 94 is_stmt 1 view -0
	.cfi_startproc
	@ args = 8, pretend = 0, frame = 8
	@ frame_needed = 0, uses_anonymous_args = 0
	.loc 1 118 2 view .LVU485
	.loc 1 117 94 is_stmt 0 view .LVU486
	push	{r4, r5, r6, r7, r8, r9, r10, fp, lr}
	.cfi_def_cfa_offset 36
	.cfi_offset 4, -36
	.cfi_offset 5, -32
	.cfi_offset 6, -28
	.cfi_offset 7, -24
	.cfi_offset 8, -20
	.cfi_offset 9, -16
	.cfi_offset 10, -12
	.cfi_offset 11, -8
	.cfi_offset 14, -4
	.loc 1 118 5 view .LVU487
	cmp	r2, #127
	.loc 1 117 94 view .LVU488
	sub	sp, sp, #12
	.cfi_def_cfa_offset 48
	.loc 1 117 94 view .LVU489
	ldrb	r10, [sp, #48]	@ zero_extendqisi2
	ldrb	r9, [sp, #52]	@ zero_extendqisi2
	.loc 1 118 5 view .LVU490
	bhi	.L89
	.loc 1 119 2 is_stmt 1 view .LVU491
.LVL138:
.LBB431:
.LBI431:
	.loc 5 51 19 view .LVU492
.LBB432:
	.loc 5 51 46 view .LVU493
	mov	r6, r2
	.loc 5 51 56 is_stmt 0 view .LVU494
	add	r2, r1, r1, lsr #31
.LVL139:
	.loc 5 51 72 view .LVU495
	cmp	r2, #0
	mov	r4, r3
.LBE432:
.LBE431:
.LBB435:
.LBB436:
	.loc 5 51 56 view .LVU496
	add	r3, r3, r3, lsr #31
.LVL140:
	.loc 5 51 56 view .LVU497
.LBE436:
.LBE435:
.LBB439:
.LBB433:
	.loc 5 51 72 view .LVU498
	add	r5, r2, #15
	movge	r5, r2
.LBE433:
.LBE439:
.LBB440:
.LBB437:
	cmp	r3, #0
	add	r2, r3, #15
	movge	r2, r3
.LBE437:
.LBE440:
.LBB441:
.LBB434:
	asr	r5, r5, #4
	.loc 5 51 79 view .LVU499
	sub	r5, r5, r1, lsr #31
.LVL141:
	.loc 5 51 79 view .LVU500
.LBE434:
.LBE441:
	.loc 1 120 2 is_stmt 1 view .LVU501
.LBB442:
.LBI435:
	.loc 5 51 19 view .LVU502
.LBB438:
	.loc 5 51 46 view .LVU503
	.loc 5 51 72 is_stmt 0 view .LVU504
	asr	r2, r2, #4
	.loc 5 51 79 view .LVU505
	sub	r2, r2, r4, lsr #31
.LVL142:
	.loc 5 51 79 view .LVU506
.LBE438:
.LBE442:
	.loc 1 121 2 is_stmt 1 view .LVU507
	mov	fp, r1
	.loc 1 121 17 is_stmt 0 view .LVU508
	mov	r1, r5
.LVL143:
	.loc 1 121 17 view .LVU509
	mov	r8, r0
	str	r2, [sp, #4]
	bl	World_GetChunk
.LVL144:
	.loc 1 122 2 is_stmt 1 view .LVU510
	.loc 1 122 5 is_stmt 0 view .LVU511
	subs	r7, r0, #0
	beq	.L89
.LBB443:
	.loc 1 123 3 is_stmt 1 view .LVU512
.LVL145:
.LBB444:
.LBI444:
	.loc 5 52 19 view .LVU513
.LBB445:
	.loc 5 52 46 view .LVU514
.LBE445:
.LBE444:
.LBB447:
.LBB448:
	.loc 2 120 11 is_stmt 0 view .LVU515
	and	r0, r9, #15
.LVL146:
	.loc 2 118 40 view .LVU516
	asr	r9, r6, #4
	.loc 2 119 47 view .LVU517
	add	ip, r9, r9, lsl #8
.LBE448:
.LBE447:
.LBB454:
.LBB446:
	.loc 5 52 55 view .LVU518
	sub	r1, fp, r5, lsl #4
.LVL147:
	.loc 5 52 55 view .LVU519
.LBE446:
.LBE454:
	.loc 1 124 3 is_stmt 1 view .LVU520
.LBB455:
.LBI455:
	.loc 5 52 19 view .LVU521
.LBB456:
	.loc 5 52 46 view .LVU522
.LBE456:
.LBE455:
.LBB459:
.LBB449:
	.loc 2 119 47 is_stmt 0 view .LVU523
	add	ip, r9, ip, lsl #1
	.loc 2 122 8 view .LVU524
	lsl	fp, ip, #4
.LVL148:
	.loc 2 119 23 view .LVU525
	and	r3, r6, #15
	.loc 2 119 47 view .LVU526
	add	ip, ip, r1, lsl #4
.LBE449:
.LBE459:
.LBB460:
.LBB457:
	.loc 5 52 55 view .LVU527
	ldr	r2, [sp, #4]
.LBE457:
.LBE460:
.LBB461:
.LBB450:
	.loc 2 119 47 view .LVU528
	add	ip, ip, r3
	.loc 2 122 8 view .LVU529
	add	r3, r3, r1, lsl #4
	add	r3, fp, r3, lsl #4
.LBE450:
.LBE461:
.LBB462:
.LBB458:
	.loc 5 52 55 view .LVU530
	sub	r4, r4, r2, lsl #4
.LVL149:
	.loc 5 52 55 view .LVU531
.LBE458:
.LBE462:
	.loc 1 125 3 is_stmt 1 view .LVU532
.LBB463:
.LBI447:
	.loc 2 117 13 view .LVU533
.LBB451:
	.loc 2 118 2 view .LVU534
	.loc 2 119 2 view .LVU535
	.loc 2 119 47 is_stmt 0 view .LVU536
	add	ip, r7, ip, lsl #4
	.loc 2 122 8 view .LVU537
	add	r3, r7, r3
	.loc 2 119 47 view .LVU538
	add	ip, ip, r4
	.loc 2 122 8 view .LVU539
	add	r3, r3, r4
	.loc 2 119 47 view .LVU540
	strb	r10, [ip, #28]
	.loc 2 120 2 is_stmt 1 view .LVU541
.LVL150:
	.loc 2 121 2 view .LVU542
	.loc 2 122 2 view .LVU543
	.loc 2 122 8 is_stmt 0 view .LVU544
	add	r3, r3, #4096
	.loc 2 122 17 view .LVU545
	ldrb	ip, [r3, #28]	@ zero_extendqisi2
	.loc 2 125 2 view .LVU546
	add	r10, r7, #65536
.LVL151:
	.loc 2 122 17 view .LVU547
	bic	ip, ip, #15
	.loc 2 122 25 view .LVU548
	orr	r0, ip, r0
	.loc 2 122 8 view .LVU549
	strb	r0, [r3, #28]
.LVL152:
	.loc 2 124 2 is_stmt 1 view .LVU550
	add	r3, r7, fp
	add	r3, r3, #8192
	ldr	r0, [r3, #28]
.LBE451:
.LBE463:
	.loc 1 127 6 is_stmt 0 view .LVU551
	cmp	r1, #0
.LBB464:
.LBB452:
	.loc 2 124 2 view .LVU552
	add	r0, r0, #1
	str	r0, [r3, #28]
	.loc 2 125 2 is_stmt 1 view .LVU553
	ldr	r0, [r10, #668]
	.loc 2 119 47 is_stmt 0 view .LVU554
	lsl	r3, r9, #8
	.loc 2 125 2 view .LVU555
	add	r0, r0, #1
	str	r0, [r10, #668]
.LVL153:
	.loc 2 125 2 view .LVU556
.LBE452:
.LBE464:
	.loc 1 127 3 is_stmt 1 view .LVU557
.LBB465:
.LBB453:
	.loc 2 119 47 is_stmt 0 view .LVU558
	str	r3, [sp, #4]
.LVL154:
	.loc 2 119 47 view .LVU559
.LBE453:
.LBE465:
	.loc 1 127 6 view .LVU560
	beq	.L122
	.loc 1 127 159 is_stmt 1 discriminator 5 view .LVU561
	.loc 1 127 162 is_stmt 0 discriminator 5 view .LVU562
	cmp	r1, #15
	bne	.L94
.LBB466:
	.loc 1 127 175 is_stmt 1 discriminator 6 view .LVU563
	.loc 1 127 199 is_stmt 0 discriminator 6 view .LVU564
	mov	r0, r8
	add	r1, r5, #1
.LVL155:
	.loc 1 127 199 discriminator 6 view .LVU565
	str	r2, [sp, #4]
	bl	World_GetChunk
.LVL156:
	.loc 1 127 238 is_stmt 1 discriminator 6 view .LVU566
	.loc 1 127 241 is_stmt 0 discriminator 6 view .LVU567
	cmp	r0, #0
	.loc 1 127 241 discriminator 6 view .LVU568
	ldr	r2, [sp, #4]
	beq	.L94
.LVL157:
.L120:
	.loc 1 127 258 is_stmt 1 discriminator 8 view .LVU569
.LBB467:
.LBI467:
	.loc 2 83 13 discriminator 8 view .LVU570
.LBB468:
	.loc 2 84 2 discriminator 8 view .LVU571
	.loc 2 84 42 is_stmt 0 discriminator 8 view .LVU572
	mov	r1, #1
	add	fp, r0, fp
	add	fp, fp, #8256
	.loc 2 85 24 discriminator 8 view .LVU573
	add	r0, r0, #65536
.LVL158:
	.loc 2 84 42 discriminator 8 view .LVU574
	strb	r1, [fp, #4]
.LVL159:
	.loc 2 85 2 is_stmt 1 discriminator 8 view .LVU575
	.loc 2 85 24 is_stmt 0 discriminator 8 view .LVU576
	strb	r1, [r0, #676]
.LVL160:
.L94:
	.loc 2 85 24 discriminator 8 view .LVU577
.LBE468:
.LBE467:
.LBE466:
	.loc 1 127 315 is_stmt 1 discriminator 10 view .LVU578
	.loc 1 127 318 is_stmt 0 discriminator 10 view .LVU579
	cmp	r4, #0
	bne	.L95
.LBB469:
	.loc 1 127 330 is_stmt 1 discriminator 11 view .LVU580
	.loc 1 127 354 is_stmt 0 discriminator 11 view .LVU581
	mov	r1, r5
	mov	r0, r8
	sub	r2, r2, #1
.LVL161:
	.loc 1 127 354 discriminator 11 view .LVU582
	bl	World_GetChunk
.LVL162:
	.loc 1 127 394 is_stmt 1 discriminator 11 view .LVU583
	.loc 1 127 397 is_stmt 0 discriminator 11 view .LVU584
	cmp	r0, #0
	.loc 1 127 397 discriminator 11 view .LVU585
	beq	.L96
.LVL163:
.L121:
	.loc 1 127 397 discriminator 11 view .LVU586
.LBE469:
.LBB470:
	.loc 1 127 570 is_stmt 1 discriminator 18 view .LVU587
.LBB471:
.LBI471:
	.loc 2 83 13 discriminator 18 view .LVU588
.LBB472:
	.loc 2 84 2 discriminator 18 view .LVU589
	.loc 2 84 42 is_stmt 0 discriminator 18 view .LVU590
	mov	r1, #1
	lsl	r3, r9, #8
	add	r2, r3, r9
	add	r2, r9, r2, lsl #1
	add	r2, r0, r2, lsl #4
	add	r2, r2, #8256
	.loc 2 85 24 discriminator 18 view .LVU591
	add	r0, r0, #65536
.LVL164:
	.loc 2 84 42 discriminator 18 view .LVU592
	strb	r1, [r2, #4]
	.loc 2 85 2 is_stmt 1 discriminator 18 view .LVU593
	.loc 2 85 24 is_stmt 0 discriminator 18 view .LVU594
	strb	r1, [r0, #676]
.LVL165:
.L96:
	.loc 2 85 24 discriminator 18 view .LVU595
.LBE472:
.LBE471:
.LBE470:
	.loc 1 127 627 is_stmt 1 discriminator 20 view .LVU596
.LBB473:
.LBI473:
	.loc 5 52 19 discriminator 20 view .LVU597
.LBB474:
	.loc 5 52 46 discriminator 20 view .LVU598
.LBE474:
.LBE473:
	.loc 1 127 657 is_stmt 0 discriminator 20 view .LVU599
	cmp	r6, #15
	.loc 1 127 630 discriminator 20 view .LVU600
	lsl	r0, r9, #4
	.loc 1 127 657 discriminator 20 view .LVU601
	movle	r1, #0
	movgt	r1, #1
	cmp	r0, r6
	movne	r1, #0
	cmp	r1, #0
.LBB476:
.LBB475:
	.loc 5 52 55 discriminator 20 view .LVU602
	sub	r2, r6, r9, lsl #4
.LVL166:
	.loc 5 52 55 discriminator 20 view .LVU603
.LBE475:
.LBE476:
	.loc 1 127 657 discriminator 20 view .LVU604
	bne	.L123
.L97:
	.loc 1 127 729 is_stmt 1 discriminator 25 view .LVU605
	.loc 1 127 760 is_stmt 0 discriminator 25 view .LVU606
	cmp	r6, #111
	cmple	r2, #15
	bne	.L89
	.loc 1 127 794 is_stmt 1 discriminator 27 view .LVU607
.LVL167:
.LBB477:
.LBI477:
	.loc 2 83 13 discriminator 27 view .LVU608
.LBB478:
	.loc 2 84 2 discriminator 27 view .LVU609
	.loc 2 84 42 is_stmt 0 discriminator 27 view .LVU610
	mov	r2, #1
	add	r9, r9, r2
.LVL168:
	.loc 2 84 42 discriminator 27 view .LVU611
	add	r1, r9, r9, lsl #8
	add	r9, r9, r1, lsl r2
.LVL169:
	.loc 2 84 42 discriminator 27 view .LVU612
	add	r7, r7, r9, lsl #4
.LVL170:
	.loc 2 84 42 discriminator 27 view .LVU613
	add	r7, r7, #8256
	strb	r2, [r7, #4]
	.loc 2 85 2 is_stmt 1 discriminator 27 view .LVU614
	.loc 2 85 24 is_stmt 0 discriminator 27 view .LVU615
	strb	r2, [r10, #676]
.LVL171:
.L89:
	.loc 2 85 24 discriminator 27 view .LVU616
.LBE478:
.LBE477:
.LBE443:
	.loc 1 129 1 view .LVU617
	add	sp, sp, #12
	.cfi_remember_state
	.cfi_def_cfa_offset 36
	@ sp needed
	pop	{r4, r5, r6, r7, r8, r9, r10, fp, pc}
.LVL172:
.L122:
	.cfi_restore_state
.LBB483:
.LBB479:
	.loc 1 127 18 is_stmt 1 discriminator 1 view .LVU618
	.loc 1 127 42 is_stmt 0 discriminator 1 view .LVU619
	mov	r0, r8
	sub	r1, r5, #1
.LVL173:
	.loc 1 127 42 discriminator 1 view .LVU620
	str	r2, [sp, #4]
	bl	World_GetChunk
.LVL174:
	.loc 1 127 82 is_stmt 1 discriminator 1 view .LVU621
	.loc 1 127 85 is_stmt 0 discriminator 1 view .LVU622
	cmp	r0, #0
	.loc 1 127 85 discriminator 1 view .LVU623
	ldr	r2, [sp, #4]
	bne	.L120
.LVL175:
	.loc 1 127 85 discriminator 1 view .LVU624
	b	.L94
.LVL176:
.L95:
	.loc 1 127 85 discriminator 1 view .LVU625
.LBE479:
	.loc 1 127 471 is_stmt 1 discriminator 15 view .LVU626
	.loc 1 127 474 is_stmt 0 discriminator 15 view .LVU627
	cmp	r4, #15
	bne	.L96
.LBB480:
	.loc 1 127 487 is_stmt 1 discriminator 16 view .LVU628
	.loc 1 127 511 is_stmt 0 discriminator 16 view .LVU629
	mov	r1, r5
	mov	r0, r8
	add	r2, r2, #1
.LVL177:
	.loc 1 127 511 discriminator 16 view .LVU630
	bl	World_GetChunk
.LVL178:
	.loc 1 127 550 is_stmt 1 discriminator 16 view .LVU631
	.loc 1 127 553 is_stmt 0 discriminator 16 view .LVU632
	cmp	r0, #0
	.loc 1 127 553 discriminator 16 view .LVU633
	bne	.L121
	b	.L96
.LVL179:
.L123:
	.loc 1 127 553 discriminator 16 view .LVU634
.LBE480:
	.loc 1 127 679 is_stmt 1 discriminator 23 view .LVU635
.LBB481:
.LBI481:
	.loc 2 83 13 discriminator 23 view .LVU636
.LBB482:
	.loc 2 84 2 discriminator 23 view .LVU637
	.loc 2 84 42 is_stmt 0 discriminator 23 view .LVU638
	mov	r0, #1
	sub	r1, r9, #1
.LVL180:
	.loc 2 84 42 discriminator 23 view .LVU639
	add	ip, r1, r1, lsl #8
	add	r1, r1, ip, lsl r0
.LVL181:
	.loc 2 84 42 discriminator 23 view .LVU640
	add	r1, r7, r1, lsl #4
	add	r1, r1, #8256
	strb	r0, [r1, #4]
	.loc 2 85 2 is_stmt 1 discriminator 23 view .LVU641
	.loc 2 85 24 is_stmt 0 discriminator 23 view .LVU642
	strb	r0, [r10, #676]
	.loc 2 86 1 discriminator 23 view .LVU643
	b	.L97
.LBE482:
.LBE481:
.LBE483:
	.cfi_endproc
.LFE131:
	.size	World_SetBlockAndMeta, .-World_SetBlockAndMeta
	.section	.text.World_GetMetadata,"ax",%progbits
	.align	2
	.global	World_GetMetadata
	.syntax unified
	.arm
	.fpu vfp
	.type	World_GetMetadata, %function
World_GetMetadata:
.LVL182:
.LFB132:
	.loc 1 131 62 is_stmt 1 view -0
	.cfi_startproc
	@ args = 0, pretend = 0, frame = 0
	@ frame_needed = 0, uses_anonymous_args = 0
	.loc 1 132 2 view .LVU645
	.loc 1 132 5 is_stmt 0 view .LVU646
	cmp	r2, #127
	bhi	.L126
	.loc 1 133 2 is_stmt 1 view .LVU647
.LVL183:
.LBB496:
.LBI496:
	.loc 5 51 19 view .LVU648
.LBB497:
	.loc 5 51 46 view .LVU649
	.loc 5 51 56 is_stmt 0 view .LVU650
	add	ip, r1, r1, lsr #31
.LBE497:
.LBE496:
	.loc 1 131 62 view .LVU651
	push	{r4, r5, r6, r7, r8, lr}
	.cfi_def_cfa_offset 24
	.cfi_offset 4, -24
	.cfi_offset 5, -20
	.cfi_offset 6, -16
	.cfi_offset 7, -12
	.cfi_offset 8, -8
	.cfi_offset 14, -4
.LBB502:
.LBB498:
	.loc 5 51 72 view .LVU652
	cmp	ip, #0
.LBE498:
.LBE502:
.LBB503:
.LBB504:
	.loc 5 51 56 view .LVU653
	add	lr, r3, r3, lsr #31
.LBE504:
.LBE503:
.LBB508:
.LBB499:
	.loc 5 51 72 view .LVU654
	add	r5, ip, #15
	movge	r5, ip
.LBE499:
.LBE508:
.LBB509:
.LBB505:
	cmp	lr, #0
	add	ip, lr, #15
	movge	ip, lr
.LBE505:
.LBE509:
.LBB510:
.LBB511:
	.loc 1 73 18 view .LVU655
	ldr	r8, [r0, #32]
	.loc 1 74 18 view .LVU656
	ldr	r7, [r0, #36]
.LBE511:
.LBE510:
.LBB514:
.LBB500:
	.loc 5 51 72 view .LVU657
	asr	r5, r5, #4
.LBE500:
.LBE514:
.LBB515:
.LBB506:
	asr	ip, ip, #4
.LBE506:
.LBE515:
.LBB516:
.LBB512:
	.loc 1 73 6 view .LVU658
	sub	r4, r8, #4
	.loc 1 74 6 view .LVU659
	sub	r6, r7, #4
.LBE512:
.LBE516:
.LBB517:
.LBB501:
	.loc 5 51 79 view .LVU660
	sub	r5, r5, r1, lsr #31
.LVL184:
	.loc 5 51 79 view .LVU661
.LBE501:
.LBE517:
.LBB518:
.LBI503:
	.loc 5 51 19 is_stmt 1 view .LVU662
.LBB507:
	.loc 5 51 46 view .LVU663
	.loc 5 51 79 is_stmt 0 view .LVU664
	sub	ip, ip, r3, lsr #31
.LVL185:
	.loc 5 51 79 view .LVU665
.LBE507:
.LBE518:
.LBB519:
.LBI510:
	.loc 1 71 8 is_stmt 1 view .LVU666
.LBB513:
	.loc 1 72 2 view .LVU667
	.loc 1 73 2 view .LVU668
	.loc 1 74 2 view .LVU669
	.loc 1 75 2 view .LVU670
	.loc 1 76 2 view .LVU671
	.loc 1 77 2 view .LVU672
	.loc 1 77 5 is_stmt 0 view .LVU673
	cmp	r5, r4
	cmpge	ip, r6
	movge	lr, #1
	movlt	lr, #0
	blt	.L128
	.loc 1 75 6 view .LVU674
	add	r8, r8, #4
.LVL186:
	.loc 1 76 6 view .LVU675
	add	r7, r7, #4
.LVL187:
	.loc 1 77 43 view .LVU676
	cmp	r5, r8
	cmple	ip, r7
	movle	lr, #1
	movgt	lr, #0
	bgt	.L128
	.loc 1 77 58 is_stmt 1 view .LVU677
	.loc 1 77 85 is_stmt 0 view .LVU678
	sub	r4, r5, r4
.LVL188:
	.loc 1 77 92 view .LVU679
	ldr	lr, .L134
	.loc 1 77 95 view .LVU680
	sub	r6, ip, r6
.LVL189:
	.loc 1 77 92 view .LVU681
	add	r4, r4, r4, lsl #3
	add	r4, r4, r6
	add	lr, r4, lr
	ldr	r0, [r0, lr, lsl #2]
.LVL190:
	.loc 1 77 92 view .LVU682
.LBE513:
.LBE519:
	.loc 1 134 2 is_stmt 1 view .LVU683
	.loc 1 134 5 is_stmt 0 view .LVU684
	cmp	r0, #0
	popeq	{r4, r5, r6, r7, r8, pc}
	.loc 1 134 13 is_stmt 1 view .LVU685
.LVL191:
.LBB520:
.LBI520:
	.loc 5 52 19 view .LVU686
.LBB521:
	.loc 5 52 46 view .LVU687
	.loc 5 52 46 is_stmt 0 view .LVU688
.LBE521:
.LBE520:
.LBB523:
.LBI523:
	.loc 5 52 19 is_stmt 1 view .LVU689
.LBB524:
	.loc 5 52 46 view .LVU690
	.loc 5 52 46 is_stmt 0 view .LVU691
.LBE524:
.LBE523:
.LBB526:
.LBI526:
	.loc 2 94 16 is_stmt 1 view .LVU692
.LBB527:
	.loc 2 95 2 view .LVU693
.LBE527:
.LBE526:
.LBB529:
.LBB522:
	.loc 5 52 55 is_stmt 0 view .LVU694
	sub	r1, r1, r5, lsl #4
.LVL192:
	.loc 5 52 55 view .LVU695
.LBE522:
.LBE529:
.LBB530:
.LBB525:
	sub	r3, r3, ip, lsl #4
.LVL193:
	.loc 5 52 55 view .LVU696
.LBE525:
.LBE530:
.LBB531:
.LBB528:
	.loc 2 95 27 view .LVU697
	asr	ip, r2, #4
	.loc 2 95 54 view .LVU698
	and	r2, r2, #15
.LVL194:
	.loc 2 95 74 view .LVU699
	add	r2, r2, r1, lsl #4
	add	r1, ip, ip, lsl #8
.LVL195:
	.loc 2 95 74 view .LVU700
	add	ip, ip, r1, lsl #1
	lsl	ip, ip, #4
	add	ip, ip, r2, lsl #4
	add	ip, r0, ip
	add	r3, ip, r3
.LVL196:
	.loc 2 95 74 view .LVU701
	add	r3, r3, #4096
	.loc 2 95 78 view .LVU702
	ldrb	r0, [r3, #28]	@ zero_extendqisi2
.LVL197:
	.loc 2 95 78 view .LVU703
	and	r0, r0, #15
.LVL198:
	.loc 2 95 78 view .LVU704
.LBE528:
.LBE531:
	.loc 1 134 20 view .LVU705
	pop	{r4, r5, r6, r7, r8, pc}
.LVL199:
.L128:
	.loc 1 132 34 view .LVU706
	mov	r0, lr
.LVL200:
	.loc 1 136 1 view .LVU707
	pop	{r4, r5, r6, r7, r8, pc}
.LVL201:
.L126:
	.cfi_def_cfa_offset 0
	.cfi_restore 4
	.cfi_restore 5
	.cfi_restore 6
	.cfi_restore 7
	.cfi_restore 8
	.cfi_restore 14
	.loc 1 132 34 view .LVU708
	mov	r0, #0
.LVL202:
	.loc 1 136 1 view .LVU709
	bx	lr
.L135:
	.align	2
.L134:
	.word	2979910
	.cfi_endproc
.LFE132:
	.size	World_GetMetadata, .-World_GetMetadata
	.section	.text.World_SetMetadata,"ax",%progbits
	.align	2
	.global	World_SetMetadata
	.syntax unified
	.arm
	.fpu vfp
	.type	World_SetMetadata, %function
World_SetMetadata:
.LVL203:
.LFB133:
	.loc 1 138 77 is_stmt 1 view -0
	.cfi_startproc
	@ args = 4, pretend = 0, frame = 8
	@ frame_needed = 0, uses_anonymous_args = 0
	.loc 1 139 2 view .LVU711
	.loc 1 138 77 is_stmt 0 view .LVU712
	push	{r4, r5, r6, r7, r8, r9, r10, fp, lr}
	.cfi_def_cfa_offset 36
	.cfi_offset 4, -36
	.cfi_offset 5, -32
	.cfi_offset 6, -28
	.cfi_offset 7, -24
	.cfi_offset 8, -20
	.cfi_offset 9, -16
	.cfi_offset 10, -12
	.cfi_offset 11, -8
	.cfi_offset 14, -4
	.loc 1 139 5 view .LVU713
	cmp	r2, #127
	.loc 1 138 77 view .LVU714
	sub	sp, sp, #12
	.cfi_def_cfa_offset 48
	.loc 1 138 77 view .LVU715
	ldrb	r10, [sp, #48]	@ zero_extendqisi2
	.loc 1 139 5 view .LVU716
	bhi	.L136
	.loc 1 140 2 is_stmt 1 view .LVU717
.LVL204:
.LBB563:
.LBI563:
	.loc 5 51 19 view .LVU718
.LBB564:
	.loc 5 51 46 view .LVU719
	mov	r7, r2
	.loc 5 51 56 is_stmt 0 view .LVU720
	add	r2, r1, r1, lsr #31
.LVL205:
	.loc 5 51 72 view .LVU721
	cmp	r2, #0
	mov	r4, r3
.LBE564:
.LBE563:
.LBB567:
.LBB568:
	.loc 5 51 56 view .LVU722
	add	r3, r3, r3, lsr #31
.LVL206:
	.loc 5 51 56 view .LVU723
.LBE568:
.LBE567:
.LBB571:
.LBB565:
	.loc 5 51 72 view .LVU724
	add	r6, r2, #15
	movge	r6, r2
.LBE565:
.LBE571:
.LBB572:
.LBB569:
	cmp	r3, #0
	add	r2, r3, #15
	movge	r2, r3
.LBE569:
.LBE572:
.LBB573:
.LBB566:
	asr	r6, r6, #4
	.loc 5 51 79 view .LVU725
	sub	r6, r6, r1, lsr #31
.LVL207:
	.loc 5 51 79 view .LVU726
.LBE566:
.LBE573:
	.loc 1 141 2 is_stmt 1 view .LVU727
.LBB574:
.LBI567:
	.loc 5 51 19 view .LVU728
.LBB570:
	.loc 5 51 46 view .LVU729
	.loc 5 51 72 is_stmt 0 view .LVU730
	asr	r2, r2, #4
	.loc 5 51 79 view .LVU731
	sub	r2, r2, r4, lsr #31
.LVL208:
	.loc 5 51 79 view .LVU732
.LBE570:
.LBE574:
	.loc 1 142 2 is_stmt 1 view .LVU733
	mov	r5, r1
	.loc 1 142 17 is_stmt 0 view .LVU734
	mov	r1, r6
.LVL209:
	.loc 1 142 17 view .LVU735
	mov	r9, r0
	str	r2, [sp, #4]
	bl	World_GetChunk
.LVL210:
	.loc 1 143 2 is_stmt 1 view .LVU736
	.loc 1 143 5 is_stmt 0 view .LVU737
	subs	r8, r0, #0
	beq	.L136
.LBB575:
	.loc 1 144 3 is_stmt 1 view .LVU738
.LVL211:
.LBB576:
.LBI576:
	.loc 5 52 19 view .LVU739
.LBB577:
	.loc 5 52 46 view .LVU740
.LBE577:
.LBE576:
.LBB579:
.LBB580:
	.loc 2 99 40 is_stmt 0 view .LVU741
	asr	fp, r7, #4
	.loc 2 98 11 view .LVU742
	and	r0, r10, #15
.LVL212:
	.loc 2 101 8 view .LVU743
	add	r10, fp, fp, lsl #8
.LBE580:
.LBE579:
.LBB586:
.LBB578:
	.loc 5 52 55 view .LVU744
	sub	r1, r5, r6, lsl #4
.LVL213:
	.loc 5 52 55 view .LVU745
.LBE578:
.LBE586:
	.loc 1 145 3 is_stmt 1 view .LVU746
.LBB587:
.LBI587:
	.loc 5 52 19 view .LVU747
.LBB588:
	.loc 5 52 46 view .LVU748
.LBE588:
.LBE587:
.LBB591:
.LBB581:
	.loc 2 101 8 is_stmt 0 view .LVU749
	add	r10, fp, r10, lsl #1
	.loc 2 100 47 view .LVU750
	and	r3, r7, #15
.LBE581:
.LBE591:
.LBB592:
.LBB589:
	.loc 5 52 55 view .LVU751
	ldr	r2, [sp, #4]
.LBE589:
.LBE592:
.LBB593:
.LBB582:
	.loc 2 101 8 view .LVU752
	lsl	r10, r10, #4
	add	r3, r3, r1, lsl #4
	add	r3, r10, r3, lsl #4
.LBE582:
.LBE593:
.LBB594:
.LBB590:
	.loc 5 52 55 view .LVU753
	sub	r4, r4, r2, lsl #4
.LVL214:
	.loc 5 52 55 view .LVU754
.LBE590:
.LBE594:
	.loc 1 146 3 is_stmt 1 view .LVU755
.LBB595:
.LBI579:
	.loc 2 97 13 view .LVU756
.LBB583:
	.loc 2 98 2 view .LVU757
	.loc 2 99 2 view .LVU758
	.loc 2 100 2 view .LVU759
	.loc 2 101 2 view .LVU760
	.loc 2 101 8 is_stmt 0 view .LVU761
	add	r3, r8, r3
	add	r3, r3, r4
	add	r3, r3, #4096
	.loc 2 101 17 view .LVU762
	ldrb	ip, [r3, #28]	@ zero_extendqisi2
	.loc 2 103 2 view .LVU763
	add	r5, r8, #65536
.LVL215:
	.loc 2 101 17 view .LVU764
	bic	ip, ip, #15
	.loc 2 101 25 view .LVU765
	orr	r0, ip, r0
	.loc 2 101 8 view .LVU766
	strb	r0, [r3, #28]
	.loc 2 102 2 is_stmt 1 view .LVU767
	add	r3, r8, r10
	add	r3, r3, #8192
	ldr	r0, [r3, #28]
.LBE583:
.LBE595:
	.loc 1 148 6 is_stmt 0 view .LVU768
	cmp	r1, #0
.LBB596:
.LBB584:
	.loc 2 102 2 view .LVU769
	add	r0, r0, #1
	str	r0, [r3, #28]
	.loc 2 103 2 is_stmt 1 view .LVU770
	ldr	r0, [r5, #668]
	.loc 2 101 8 is_stmt 0 view .LVU771
	lsl	r3, fp, #8
	.loc 2 103 2 view .LVU772
	add	r0, r0, #1
	str	r0, [r5, #668]
.LVL216:
	.loc 2 103 2 view .LVU773
.LBE584:
.LBE596:
	.loc 1 148 3 is_stmt 1 view .LVU774
.LBB597:
.LBB585:
	.loc 2 101 8 is_stmt 0 view .LVU775
	str	r3, [sp, #4]
.LVL217:
	.loc 2 101 8 view .LVU776
.LBE585:
.LBE597:
	.loc 1 148 6 view .LVU777
	beq	.L169
	.loc 1 148 159 is_stmt 1 discriminator 5 view .LVU778
	.loc 1 148 162 is_stmt 0 discriminator 5 view .LVU779
	cmp	r1, #15
	bne	.L141
.LBB598:
	.loc 1 148 175 is_stmt 1 discriminator 6 view .LVU780
	.loc 1 148 199 is_stmt 0 discriminator 6 view .LVU781
	mov	r0, r9
	add	r1, r6, #1
.LVL218:
	.loc 1 148 199 discriminator 6 view .LVU782
	str	r2, [sp, #4]
	bl	World_GetChunk
.LVL219:
	.loc 1 148 238 is_stmt 1 discriminator 6 view .LVU783
	.loc 1 148 241 is_stmt 0 discriminator 6 view .LVU784
	cmp	r0, #0
	.loc 1 148 241 discriminator 6 view .LVU785
	ldr	r2, [sp, #4]
	beq	.L141
.LVL220:
.L167:
	.loc 1 148 258 is_stmt 1 discriminator 8 view .LVU786
.LBB599:
.LBI599:
	.loc 2 83 13 discriminator 8 view .LVU787
.LBB600:
	.loc 2 84 2 discriminator 8 view .LVU788
	.loc 2 84 42 is_stmt 0 discriminator 8 view .LVU789
	mov	r1, #1
	add	r10, r0, r10
	add	r10, r10, #8256
	.loc 2 85 24 discriminator 8 view .LVU790
	add	r0, r0, #65536
.LVL221:
	.loc 2 84 42 discriminator 8 view .LVU791
	strb	r1, [r10, #4]
.LVL222:
	.loc 2 85 2 is_stmt 1 discriminator 8 view .LVU792
	.loc 2 85 24 is_stmt 0 discriminator 8 view .LVU793
	strb	r1, [r0, #676]
.LVL223:
.L141:
	.loc 2 85 24 discriminator 8 view .LVU794
.LBE600:
.LBE599:
.LBE598:
	.loc 1 148 315 is_stmt 1 discriminator 10 view .LVU795
	.loc 1 148 318 is_stmt 0 discriminator 10 view .LVU796
	cmp	r4, #0
	bne	.L142
.LBB601:
	.loc 1 148 330 is_stmt 1 discriminator 11 view .LVU797
	.loc 1 148 354 is_stmt 0 discriminator 11 view .LVU798
	mov	r1, r6
	mov	r0, r9
	sub	r2, r2, #1
.LVL224:
	.loc 1 148 354 discriminator 11 view .LVU799
	bl	World_GetChunk
.LVL225:
	.loc 1 148 394 is_stmt 1 discriminator 11 view .LVU800
	.loc 1 148 397 is_stmt 0 discriminator 11 view .LVU801
	cmp	r0, #0
	.loc 1 148 397 discriminator 11 view .LVU802
	beq	.L143
.LVL226:
.L168:
	.loc 1 148 397 discriminator 11 view .LVU803
.LBE601:
.LBB602:
	.loc 1 148 570 is_stmt 1 discriminator 18 view .LVU804
.LBB603:
.LBI603:
	.loc 2 83 13 discriminator 18 view .LVU805
.LBB604:
	.loc 2 84 2 discriminator 18 view .LVU806
	.loc 2 84 42 is_stmt 0 discriminator 18 view .LVU807
	mov	r1, #1
	lsl	r3, fp, #8
	add	r2, r3, fp
	add	r2, fp, r2, lsl #1
	add	r2, r0, r2, lsl #4
	add	r2, r2, #8256
	.loc 2 85 24 discriminator 18 view .LVU808
	add	r0, r0, #65536
.LVL227:
	.loc 2 84 42 discriminator 18 view .LVU809
	strb	r1, [r2, #4]
	.loc 2 85 2 is_stmt 1 discriminator 18 view .LVU810
	.loc 2 85 24 is_stmt 0 discriminator 18 view .LVU811
	strb	r1, [r0, #676]
.LVL228:
.L143:
	.loc 2 85 24 discriminator 18 view .LVU812
.LBE604:
.LBE603:
.LBE602:
	.loc 1 148 627 is_stmt 1 discriminator 20 view .LVU813
.LBB605:
.LBI605:
	.loc 5 52 19 discriminator 20 view .LVU814
.LBB606:
	.loc 5 52 46 discriminator 20 view .LVU815
.LBE606:
.LBE605:
	.loc 1 148 657 is_stmt 0 discriminator 20 view .LVU816
	cmp	r7, #15
	.loc 1 148 630 discriminator 20 view .LVU817
	lsl	r0, fp, #4
	.loc 1 148 657 discriminator 20 view .LVU818
	movle	r1, #0
	movgt	r1, #1
	cmp	r0, r7
	movne	r1, #0
	cmp	r1, #0
.LBB608:
.LBB607:
	.loc 5 52 55 discriminator 20 view .LVU819
	sub	r2, r7, fp, lsl #4
.LVL229:
	.loc 5 52 55 discriminator 20 view .LVU820
.LBE607:
.LBE608:
	.loc 1 148 657 discriminator 20 view .LVU821
	bne	.L170
.L144:
	.loc 1 148 729 is_stmt 1 discriminator 25 view .LVU822
	.loc 1 148 760 is_stmt 0 discriminator 25 view .LVU823
	cmp	r7, #111
	cmple	r2, #15
	bne	.L136
	.loc 1 148 794 is_stmt 1 discriminator 27 view .LVU824
.LVL230:
.LBB609:
.LBI609:
	.loc 2 83 13 discriminator 27 view .LVU825
.LBB610:
	.loc 2 84 2 discriminator 27 view .LVU826
	.loc 2 84 42 is_stmt 0 discriminator 27 view .LVU827
	mov	r2, #1
	add	fp, fp, r2
.LVL231:
	.loc 2 84 42 discriminator 27 view .LVU828
	add	r1, fp, fp, lsl #8
	add	fp, fp, r1, lsl r2
.LVL232:
	.loc 2 84 42 discriminator 27 view .LVU829
	add	r8, r8, fp, lsl #4
.LVL233:
	.loc 2 84 42 discriminator 27 view .LVU830
	add	r8, r8, #8256
	strb	r2, [r8, #4]
	.loc 2 85 2 is_stmt 1 discriminator 27 view .LVU831
	.loc 2 85 24 is_stmt 0 discriminator 27 view .LVU832
	strb	r2, [r5, #676]
.LVL234:
.L136:
	.loc 2 85 24 discriminator 27 view .LVU833
.LBE610:
.LBE609:
.LBE575:
	.loc 1 150 1 view .LVU834
	add	sp, sp, #12
	.cfi_remember_state
	.cfi_def_cfa_offset 36
	@ sp needed
	pop	{r4, r5, r6, r7, r8, r9, r10, fp, pc}
.LVL235:
.L169:
	.cfi_restore_state
.LBB615:
.LBB611:
	.loc 1 148 18 is_stmt 1 discriminator 1 view .LVU835
	.loc 1 148 42 is_stmt 0 discriminator 1 view .LVU836
	mov	r0, r9
	sub	r1, r6, #1
.LVL236:
	.loc 1 148 42 discriminator 1 view .LVU837
	str	r2, [sp, #4]
	bl	World_GetChunk
.LVL237:
	.loc 1 148 82 is_stmt 1 discriminator 1 view .LVU838
	.loc 1 148 85 is_stmt 0 discriminator 1 view .LVU839
	cmp	r0, #0
	.loc 1 148 85 discriminator 1 view .LVU840
	ldr	r2, [sp, #4]
	bne	.L167
.LVL238:
	.loc 1 148 85 discriminator 1 view .LVU841
	b	.L141
.LVL239:
.L142:
	.loc 1 148 85 discriminator 1 view .LVU842
.LBE611:
	.loc 1 148 471 is_stmt 1 discriminator 15 view .LVU843
	.loc 1 148 474 is_stmt 0 discriminator 15 view .LVU844
	cmp	r4, #15
	bne	.L143
.LBB612:
	.loc 1 148 487 is_stmt 1 discriminator 16 view .LVU845
	.loc 1 148 511 is_stmt 0 discriminator 16 view .LVU846
	mov	r1, r6
	mov	r0, r9
	add	r2, r2, #1
.LVL240:
	.loc 1 148 511 discriminator 16 view .LVU847
	bl	World_GetChunk
.LVL241:
	.loc 1 148 550 is_stmt 1 discriminator 16 view .LVU848
	.loc 1 148 553 is_stmt 0 discriminator 16 view .LVU849
	cmp	r0, #0
	.loc 1 148 553 discriminator 16 view .LVU850
	bne	.L168
	b	.L143
.LVL242:
.L170:
	.loc 1 148 553 discriminator 16 view .LVU851
.LBE612:
	.loc 1 148 679 is_stmt 1 discriminator 23 view .LVU852
.LBB613:
.LBI613:
	.loc 2 83 13 discriminator 23 view .LVU853
.LBB614:
	.loc 2 84 2 discriminator 23 view .LVU854
	.loc 2 84 42 is_stmt 0 discriminator 23 view .LVU855
	mov	r0, #1
	sub	r1, fp, #1
.LVL243:
	.loc 2 84 42 discriminator 23 view .LVU856
	add	ip, r1, r1, lsl #8
	add	r1, r1, ip, lsl r0
.LVL244:
	.loc 2 84 42 discriminator 23 view .LVU857
	add	r1, r8, r1, lsl #4
	add	r1, r1, #8256
	strb	r0, [r1, #4]
	.loc 2 85 2 is_stmt 1 discriminator 23 view .LVU858
	.loc 2 85 24 is_stmt 0 discriminator 23 view .LVU859
	strb	r0, [r5, #676]
	.loc 2 86 1 discriminator 23 view .LVU860
	b	.L144
.LBE614:
.LBE613:
.LBE615:
	.cfi_endproc
.LFE133:
	.size	World_SetMetadata, .-World_SetMetadata
	.section	.text.World_GetHeight,"ax",%progbits
	.align	2
	.global	World_GetHeight
	.syntax unified
	.arm
	.fpu vfp
	.type	World_GetHeight, %function
World_GetHeight:
.LVL245:
.LFB134:
	.loc 1 152 49 is_stmt 1 view -0
	.cfi_startproc
	@ args = 0, pretend = 0, frame = 0
	@ frame_needed = 0, uses_anonymous_args = 0
	.loc 1 153 2 view .LVU862
.LBB629:
.LBI629:
	.loc 5 51 19 view .LVU863
.LBB630:
	.loc 5 51 46 view .LVU864
	.loc 5 51 56 is_stmt 0 view .LVU865
	add	r3, r1, r1, lsr #31
.LBE630:
.LBE629:
.LBB635:
.LBB636:
	add	ip, r2, r2, lsr #31
.LBE636:
.LBE635:
.LBB640:
.LBB631:
	.loc 5 51 72 view .LVU866
	cmp	r3, #0
.LBE631:
.LBE640:
	.loc 1 152 49 view .LVU867
	push	{r4, r5, r6, r7, r8, lr}
	.cfi_def_cfa_offset 24
	.cfi_offset 4, -24
	.cfi_offset 5, -20
	.cfi_offset 6, -16
	.cfi_offset 7, -12
	.cfi_offset 8, -8
	.cfi_offset 14, -4
.LBB641:
.LBB632:
	.loc 5 51 72 view .LVU868
	add	r5, r3, #15
	movge	r5, r3
.LBE632:
.LBE641:
.LBB642:
.LBB637:
	cmp	ip, #0
	add	r3, ip, #15
	movge	r3, ip
.LBE637:
.LBE642:
.LBB643:
.LBB644:
	.loc 1 73 18 view .LVU869
	ldr	r7, [r0, #32]
	.loc 1 74 18 view .LVU870
	ldr	r6, [r0, #36]
.LBE644:
.LBE643:
.LBB647:
.LBB633:
	.loc 5 51 72 view .LVU871
	asr	r5, r5, #4
.LBE633:
.LBE647:
.LBB648:
.LBB638:
	asr	r3, r3, #4
.LBE638:
.LBE648:
.LBB649:
.LBB645:
	.loc 1 73 6 view .LVU872
	sub	lr, r7, #4
	.loc 1 74 6 view .LVU873
	sub	r4, r6, #4
.LBE645:
.LBE649:
.LBB650:
.LBB634:
	.loc 5 51 79 view .LVU874
	sub	r5, r5, r1, lsr #31
.LVL246:
	.loc 5 51 79 view .LVU875
.LBE634:
.LBE650:
	.loc 1 154 2 is_stmt 1 view .LVU876
.LBB651:
.LBI635:
	.loc 5 51 19 view .LVU877
.LBB639:
	.loc 5 51 46 view .LVU878
	.loc 5 51 79 is_stmt 0 view .LVU879
	sub	r3, r3, r2, lsr #31
.LVL247:
	.loc 5 51 79 view .LVU880
.LBE639:
.LBE651:
	.loc 1 155 2 is_stmt 1 view .LVU881
.LBB652:
.LBI643:
	.loc 1 71 8 view .LVU882
.LBB646:
	.loc 1 72 2 view .LVU883
	.loc 1 73 2 view .LVU884
	.loc 1 74 2 view .LVU885
	.loc 1 75 2 view .LVU886
	.loc 1 76 2 view .LVU887
	.loc 1 77 2 view .LVU888
	.loc 1 77 5 is_stmt 0 view .LVU889
	cmp	r5, lr
	cmpge	r3, r4
	movge	ip, #1
	movlt	ip, #0
	blt	.L174
	.loc 1 75 6 view .LVU890
	add	r7, r7, #4
.LVL248:
	.loc 1 76 6 view .LVU891
	add	r6, r6, #4
.LVL249:
	.loc 1 77 43 view .LVU892
	cmp	r5, r7
	cmple	r3, r6
	movle	ip, #1
	movgt	ip, #0
	bgt	.L174
	.loc 1 77 58 is_stmt 1 view .LVU893
	.loc 1 77 85 is_stmt 0 view .LVU894
	sub	lr, r5, lr
.LVL250:
	.loc 1 77 95 view .LVU895
	sub	r4, r3, r4
.LVL251:
	.loc 1 77 92 view .LVU896
	ldr	ip, .L177
	add	lr, lr, lr, lsl #3
	add	lr, lr, r4
	add	ip, lr, ip
	ldr	r4, [r0, ip, lsl #2]
.LVL252:
	.loc 1 77 92 view .LVU897
.LBE646:
.LBE652:
	.loc 1 156 2 is_stmt 1 view .LVU898
	.loc 1 156 5 is_stmt 0 view .LVU899
	cmp	r4, #0
	beq	.L175
.LBB653:
	.loc 1 157 3 is_stmt 1 view .LVU900
.LVL253:
.LBB654:
.LBI654:
	.loc 5 52 19 view .LVU901
.LBB655:
	.loc 5 52 46 view .LVU902
	.loc 5 52 55 is_stmt 0 view .LVU903
	sub	r6, r1, r5, lsl #4
.LVL254:
	.loc 5 52 55 view .LVU904
.LBE655:
.LBE654:
	.loc 1 158 3 is_stmt 1 view .LVU905
.LBB656:
.LBI656:
	.loc 5 52 19 view .LVU906
.LBB657:
	.loc 5 52 46 view .LVU907
.LBE657:
.LBE656:
.LBB659:
.LBB660:
	.loc 2 90 2 is_stmt 0 view .LVU908
	mov	r0, r4
.LVL255:
	.loc 2 90 2 view .LVU909
.LBE660:
.LBE659:
.LBB662:
.LBB658:
	.loc 5 52 55 view .LVU910
	sub	r5, r2, r3, lsl #4
.LVL256:
	.loc 5 52 55 view .LVU911
.LBE658:
.LBE662:
	.loc 1 160 3 is_stmt 1 view .LVU912
.LBB663:
.LBI659:
	.loc 2 89 16 view .LVU913
.LBB661:
	.loc 2 90 2 view .LVU914
	bl	Chunk_GenerateHeightmap
.LVL257:
	.loc 2 91 2 view .LVU915
	.loc 2 91 28 is_stmt 0 view .LVU916
	add	r0, r4, r6, lsl #4
	add	r2, r0, r5
	add	r0, r2, #65536
.LBE661:
.LBE663:
	.loc 1 160 10 view .LVU917
	ldrb	r0, [r0, #408]	@ zero_extendqisi2
	pop	{r4, r5, r6, r7, r8, pc}
.LVL258:
.L174:
	.loc 1 160 10 view .LVU918
.LBE653:
	.loc 1 162 9 view .LVU919
	mov	r0, ip
.LVL259:
	.loc 1 162 9 view .LVU920
	pop	{r4, r5, r6, r7, r8, pc}
.LVL260:
.L175:
	.loc 1 162 9 view .LVU921
	mov	r0, r4
.LVL261:
	.loc 1 163 1 view .LVU922
	pop	{r4, r5, r6, r7, r8, pc}
.L178:
	.align	2
.L177:
	.word	2979910
	.cfi_endproc
.LFE134:
	.size	World_GetHeight, .-World_GetHeight
	.section	.text.World_UpdateChunkCache,"ax",%progbits
	.align	2
	.global	World_UpdateChunkCache
	.syntax unified
	.arm
	.fpu vfp
	.type	World_UpdateChunkCache, %function
World_UpdateChunkCache:
.LVL262:
.LFB135:
	.loc 1 165 67 is_stmt 1 view -0
	.cfi_startproc
	@ args = 0, pretend = 0, frame = 360
	@ frame_needed = 0, uses_anonymous_args = 0
	.loc 1 166 2 view .LVU924
	.loc 1 165 67 is_stmt 0 view .LVU925
	push	{r4, r5, r6, r7, r8, r9, r10, fp, lr}
	.cfi_def_cfa_offset 36
	.cfi_offset 4, -36
	.cfi_offset 5, -32
	.cfi_offset 6, -28
	.cfi_offset 7, -24
	.cfi_offset 8, -20
	.cfi_offset 9, -16
	.cfi_offset 10, -12
	.cfi_offset 11, -8
	.cfi_offset 14, -4
	vpush.64	{d8}
	.cfi_def_cfa_offset 44
	.cfi_offset 80, -44
	.cfi_offset 81, -40
	.loc 1 166 21 view .LVU926
	ldr	r8, [r0, #32]
	.loc 1 165 67 view .LVU927
	sub	sp, sp, #364
	.cfi_def_cfa_offset 408
	.loc 1 166 5 view .LVU928
	cmp	r8, r1
	.loc 1 165 67 view .LVU929
	mov	r5, r0
	str	r1, [sp, #24]
	str	r2, [sp, #28]
	.loc 1 166 5 view .LVU930
	bne	.L180
	.loc 1 166 41 discriminator 1 view .LVU931
	ldr	r3, [r0, #36]
	cmp	r3, r2
	beq	.L179
.L180:
.LBB664:
	.loc 1 167 3 is_stmt 1 view .LVU932
	.loc 1 168 3 view .LVU933
	vmov	s16, r5	@ int
	ldr	r1, .L201
.LVL263:
	.loc 1 168 3 is_stmt 0 view .LVU934
	mov	r2, #324
.LVL264:
	.loc 1 168 3 view .LVU935
	add	r1, r5, r1
	add	r0, sp, #36
	bl	memcpy
.LVL265:
	.loc 1 170 3 is_stmt 1 view .LVU936
	.loc 1 173 7 is_stmt 0 view .LVU937
	ldr	r0, [sp, #24]
	ldr	r1, .L201+4
	.loc 1 171 30 view .LVU938
	ldr	r2, [r5, #36]
	.loc 1 174 7 view .LVU939
	ldr	ip, [sp, #28]
	.loc 1 173 7 view .LVU940
	sub	r3, r0, r8
	add	r1, r5, r1
	add	r3, r3, r3, lsl #3
	str	r1, [sp, #16]
	.loc 1 174 7 view .LVU941
	sub	r1, ip, r2
	add	r3, r3, r1
	add	r1, sp, #36
	add	r3, r1, r3, lsl #2
	str	r3, [sp, #8]
	.loc 1 171 7 view .LVU942
	sub	r3, r2, #4
	ldr	r6, .L201+8
	str	r3, [sp, #4]
.LBB665:
.LBB666:
.LBB667:
	.loc 1 181 12 view .LVU943
	add	r3, r2, #4
	str	r3, [sp, #12]
	sub	r3, ip, #4
.LBE667:
.LBE666:
.LBE665:
	.loc 1 170 7 view .LVU944
	sub	r7, r8, #4
.LVL266:
	.loc 1 171 3 is_stmt 1 view .LVU945
	.loc 1 173 3 view .LVU946
	.loc 1 174 3 view .LVU947
	.loc 1 176 3 view .LVU948
.LBB672:
	.loc 1 176 8 view .LVU949
	.loc 1 176 21 view .LVU950
	add	r6, r5, r6
.LBB671:
.LBB668:
	.loc 1 180 37 is_stmt 0 view .LVU951
	add	r8, r8, #4
.LVL267:
	.loc 1 180 37 view .LVU952
	sub	fp, r0, #4
	str	r3, [sp, #20]
.LVL268:
.L182:
	.loc 1 180 37 view .LVU953
.LBE668:
	.loc 1 177 22 is_stmt 1 view .LVU954
	mov	r5, r8
	ldr	r9, [sp, #20]
	vmov	r8, s16	@ int
.LVL269:
.LBB669:
	.loc 1 178 9 is_stmt 0 view .LVU955
	ldr	r10, [sp, #8]
	sub	r4, r6, #36
	b	.L185
.LVL270:
.L183:
	.loc 1 185 32 view .LVU956
	mov	r2, r9
	mov	r1, fp
	mov	r0, r8
	bl	World_LoadChunk
.LVL271:
	.loc 1 185 30 view .LVU957
	str	r0, [r4]
.L184:
	.loc 1 185 30 view .LVU958
.LBE669:
	.loc 1 177 30 is_stmt 1 discriminator 2 view .LVU959
	.loc 1 177 22 discriminator 2 view .LVU960
	add	r4, r4, #4
	cmp	r4, r6
	add	r10, r10, #4
	add	r9, r9, #1
.LVL272:
	.loc 1 177 22 is_stmt 0 discriminator 2 view .LVU961
	beq	.L200
.LVL273:
.L185:
.LBB670:
	.loc 1 178 5 is_stmt 1 view .LVU962
	.loc 1 179 5 view .LVU963
	.loc 1 180 5 view .LVU964
	.loc 1 185 6 view .LVU965
	.loc 1 180 8 is_stmt 0 view .LVU966
	cmp	fp, r7
	blt	.L183
	.loc 1 180 61 discriminator 1 view .LVU967
	ldr	r3, [sp, #4]
	cmp	r5, fp
	movlt	r2, #0
	movge	r2, #1
	cmp	r3, r9
	movgt	r2, #0
	cmp	r2, #0
	beq	.L183
	.loc 1 182 6 is_stmt 1 discriminator 3 view .LVU968
	.loc 1 180 86 is_stmt 0 discriminator 3 view .LVU969
	ldr	r3, [sp, #12]
	cmp	r3, r9
	blt	.L183
	.loc 1 183 38 view .LVU970
	mov	r3, #0
	.loc 1 182 30 view .LVU971
	ldr	r2, [r10]
	.loc 1 183 38 view .LVU972
	str	r3, [r10]
	.loc 1 182 30 view .LVU973
	str	r2, [r4]
	.loc 1 183 6 is_stmt 1 view .LVU974
	.loc 1 183 38 is_stmt 0 view .LVU975
	b	.L184
.LVL274:
.L200:
	.loc 1 183 38 view .LVU976
.LBE670:
.LBE671:
	.loc 1 176 21 discriminator 2 view .LVU977
	ldr	r3, [sp, #16]
	add	r6, r4, #36
	cmp	r6, r3
	ldr	r3, [sp, #8]
	mov	r8, r5
.LVL275:
	.loc 1 176 29 is_stmt 1 discriminator 2 view .LVU978
	.loc 1 176 21 discriminator 2 view .LVU979
	add	r3, r3, #36
	add	fp, fp, #1
	str	r3, [sp, #8]
	bne	.L182
	.loc 1 176 21 is_stmt 0 discriminator 2 view .LVU980
	vmov	r5, s16	@ int
.LVL276:
	.loc 1 176 21 discriminator 2 view .LVU981
	add	r6, sp, #72
	add	r7, sp, #396
.LVL277:
.L186:
	.loc 1 176 21 discriminator 2 view .LVU982
.LBE672:
.LBB673:
.LBB674:
	.loc 1 191 22 is_stmt 1 view .LVU983
	sub	r4, r6, #36
.LVL278:
.L188:
	.loc 1 192 5 view .LVU984
	.loc 1 193 6 view .LVU985
	.loc 1 192 21 is_stmt 0 view .LVU986
	ldr	r1, [r4], #4
	.loc 1 192 8 view .LVU987
	cmp	r1, #0
	beq	.L187
	.loc 1 193 6 view .LVU988
	mov	r0, r5
	bl	World_UnloadChunk
.LVL279:
.L187:
	.loc 1 191 30 is_stmt 1 discriminator 2 view .LVU989
	.loc 1 191 22 discriminator 2 view .LVU990
	cmp	r4, r6
	bne	.L188
.LBE674:
	.loc 1 190 29 discriminator 2 view .LVU991
	.loc 1 190 21 discriminator 2 view .LVU992
	add	r6, r4, #36
	cmp	r7, r6
	bne	.L186
.LBE673:
	.loc 1 198 3 view .LVU993
	.loc 1 198 28 is_stmt 0 view .LVU994
	ldr	r3, [sp, #24]
	str	r3, [r5, #32]
	.loc 1 199 3 is_stmt 1 view .LVU995
	.loc 1 199 28 is_stmt 0 view .LVU996
	ldr	r3, [sp, #28]
	str	r3, [r5, #36]
.LVL280:
.L179:
	.loc 1 199 28 view .LVU997
.LBE664:
	.loc 1 201 1 view .LVU998
	add	sp, sp, #364
	.cfi_def_cfa_offset 44
	@ sp needed
	vldm	sp!, {d8}
	.cfi_restore 80
	.cfi_restore 81
	.cfi_def_cfa_offset 36
	pop	{r4, r5, r6, r7, r8, r9, r10, fp, pc}
.LVL281:
.L202:
	.loc 1 201 1 view .LVU999
	.align	2
.L201:
	.word	11919640
	.word	11920000
	.word	11919676
	.cfi_endproc
.LFE135:
	.size	World_UpdateChunkCache, .-World_UpdateChunkCache
	.section	.text.World_Tick,"ax",%progbits
	.align	2
	.global	World_Tick
	.syntax unified
	.arm
	.fpu vfp
	.type	World_Tick, %function
World_Tick:
.LVL282:
.LFB136:
	.loc 1 203 31 is_stmt 1 view -0
	.cfi_startproc
	@ args = 0, pretend = 0, frame = 48
	@ frame_needed = 0, uses_anonymous_args = 0
	.loc 1 204 2 view .LVU1001
.LBB695:
	.loc 1 204 7 view .LVU1002
	.loc 1 204 20 view .LVU1003
.LBE695:
	.loc 1 203 31 is_stmt 0 view .LVU1004
	push	{r4, r5, r6, r7, r8, r9, r10, fp, lr}
	.cfi_def_cfa_offset 36
	.cfi_offset 4, -36
	.cfi_offset 5, -32
	.cfi_offset 6, -28
	.cfi_offset 7, -24
	.cfi_offset 8, -20
	.cfi_offset 9, -16
	.cfi_offset 10, -12
	.cfi_offset 11, -8
	.cfi_offset 14, -4
.LBB750:
.LBB696:
.LBB697:
.LBB698:
.LBB699:
.LBB700:
.LBB701:
	mvn	r10, #0
	mov	fp, r10
	ldr	r3, .L235
.LBE701:
.LBE700:
.LBE699:
.LBE698:
.LBE697:
.LBE696:
.LBE750:
	sub	sp, sp, #52
	.cfi_def_cfa_offset 88
	add	r2, r0, #11862016
	add	r3, r0, r3
	str	r3, [sp]
	add	r3, r2, #57344
	str	r3, [sp, #16]
.LBB751:
.LBB747:
.LBB743:
.LBB730:
.LBB707:
	.loc 1 219 16 view .LVU1005
	str	r2, [sp, #20]
.LVL283:
.L204:
	.loc 1 219 16 view .LVU1006
.LBE707:
.LBE730:
.LBE743:
	.loc 1 205 21 is_stmt 1 view .LVU1007
.LBB744:
.LBB731:
.LBB714:
	.loc 1 219 16 is_stmt 0 view .LVU1008
	ldr	r2, [sp, #20]
.LBE714:
.LBE731:
	.loc 1 211 10 view .LVU1009
	cmp	fp, #6
.LBB732:
.LBB715:
	.loc 1 219 16 view .LVU1010
	add	r2, r2, #57344
.LBE715:
.LBE732:
	.loc 1 211 10 view .LVU1011
	add	fp, fp, #1
.LVL284:
	.loc 1 211 10 view .LVU1012
	mov	r5, #0
	movhi	r9, #0
	movls	r9, #1
	ldr	r7, [sp]
.LBB733:
.LBB716:
	.loc 1 219 16 view .LVU1013
	str	r2, [sp, #4]
	str	fp, [sp, #12]
	b	.L218
.LVL285:
.L234:
	.loc 1 219 16 view .LVU1014
.LBE716:
.LBE733:
	.loc 1 208 45 discriminator 1 view .LVU1015
	ldr	r3, [r6]
	cmp	r3, #0
	beq	.L232
	.loc 1 211 4 is_stmt 1 view .LVU1016
	.loc 1 211 19 is_stmt 0 view .LVU1017
	sub	r2, r5, #1
	.loc 1 211 7 view .LVU1018
	cmp	r2, #6
	movhi	r3, #0
	andls	r3, r9, #1
	cmp	r3, #0
	bne	.L209
.L208:
	.loc 1 211 7 view .LVU1019
.LBE744:
	.loc 1 205 29 is_stmt 1 discriminator 2 view .LVU1020
.LVL286:
	.loc 1 205 21 discriminator 2 view .LVU1021
	cmp	r5, #8
	beq	.L233
.LVL287:
.L209:
	.loc 1 205 29 view .LVU1022
	.loc 1 205 21 view .LVU1023
	.loc 1 205 21 is_stmt 0 view .LVU1024
.LBE747:
.LBE751:
	.loc 1 203 31 view .LVU1025
	mov	r7, r4
	add	r5, r5, #1
.LVL288:
.L218:
.LBB752:
.LBB748:
.LBB745:
	.loc 1 206 4 is_stmt 1 view .LVU1026
	.loc 1 206 11 is_stmt 0 view .LVU1027
	mov	r4, r7
	ldr	r6, [r4], #4
.LVL289:
	.loc 1 208 4 is_stmt 1 view .LVU1028
	.loc 1 208 7 is_stmt 0 view .LVU1029
	ldrb	r3, [r6, #12]	@ zero_extendqisi2
	cmp	r3, #0
	beq	.L234
.L205:
	.loc 1 211 4 is_stmt 1 view .LVU1030
	.loc 1 211 19 is_stmt 0 view .LVU1031
	sub	r2, r5, #1
	cmp	r2, #6
	movhi	r3, #0
	andls	r3, r9, #1
	.loc 1 211 7 view .LVU1032
	cmp	r3, #0
	beq	.L208
	.loc 1 211 53 discriminator 2 view .LVU1033
	ldrb	r2, [r6, #12]	@ zero_extendqisi2
	cmp	r2, #1
	bne	.L209
	.loc 1 212 47 view .LVU1034
	ldr	r2, [r6]
	cmp	r2, #0
.LBB734:
.LBB717:
	.loc 1 214 14 view .LVU1035
	mvneq	ip, #0
	subeq	r7, r7, #28
.LBE717:
.LBE734:
	.loc 1 212 47 view .LVU1036
	bne	.L209
.L210:
.LVL290:
.LBB735:
.LBB718:
.LBB705:
	.loc 1 215 35 is_stmt 1 view .LVU1037
	sub	r2, r7, #12
.LVL291:
.L212:
.LBB702:
	.loc 1 216 7 view .LVU1038
	.loc 1 216 14 is_stmt 0 view .LVU1039
	ldr	r1, [r2], #4
.LVL292:
	.loc 1 217 7 is_stmt 1 view .LVU1040
	.loc 1 217 10 is_stmt 0 view .LVU1041
	ldrb	r0, [r1, #12]	@ zero_extendqisi2
	cmp	r0, #0
	beq	.L231
	.loc 1 217 10 view .LVU1042
.LBE702:
	.loc 1 215 49 is_stmt 1 discriminator 2 view .LVU1043
	.loc 1 215 35 discriminator 2 view .LVU1044
.LBB703:
	.loc 1 217 54 is_stmt 0 discriminator 2 view .LVU1045
	ldr	r1, [r1]
.LVL293:
	.loc 1 217 54 discriminator 2 view .LVU1046
	cmp	r1, #0
	beq	.L231
.LBE703:
	.loc 1 215 35 discriminator 2 view .LVU1047
	cmp	r7, r2
	bne	.L212
	.loc 1 215 35 discriminator 2 view .LVU1048
.LBE705:
	.loc 1 214 48 is_stmt 1 view .LVU1049
	.loc 1 214 34 is_stmt 0 view .LVU1050
	cmp	ip, #0
	add	r7, r7, #36
	.loc 1 214 48 view .LVU1051
	add	ip, ip, #1
.LVL294:
	.loc 1 214 34 is_stmt 1 view .LVU1052
	ble	.L210
.LVL295:
	.loc 1 214 34 is_stmt 0 view .LVU1053
.LBE718:
	.loc 1 219 5 is_stmt 1 view .LVU1054
	.loc 1 219 8 is_stmt 0 view .LVU1055
	cmp	r3, #0
	bne	.L228
.L231:
	ldr	r6, [sp, #16]
.LVL296:
.L213:
.LBB719:
.LBB706:
.LBB704:
	.loc 1 219 8 view .LVU1056
	mov	r2, #24
	ldr	r3, [r6, #620]
.L215:
.LVL297:
	.loc 1 219 8 view .LVU1057
.LBE704:
.LBE706:
.LBE719:
.LBB720:
	.loc 1 225 6 is_stmt 1 discriminator 3 view .LVU1058
.LBB721:
.LBI721:
	.loc 3 11 17 discriminator 3 view .LVU1059
.LBB722:
	.loc 3 12 2 discriminator 3 view .LVU1060
	.loc 3 12 7 is_stmt 0 discriminator 3 view .LVU1061
	eor	r3, r3, r3, lsl #13
	.loc 3 13 2 is_stmt 1 discriminator 3 view .LVU1062
	.loc 3 13 7 is_stmt 0 discriminator 3 view .LVU1063
	eor	r3, r3, r3, lsr #17
	.loc 3 14 2 is_stmt 1 discriminator 3 view .LVU1064
	.loc 3 14 7 is_stmt 0 discriminator 3 view .LVU1065
	eor	r3, r3, r3, lsl #5
	.loc 3 15 2 is_stmt 1 discriminator 3 view .LVU1066
	.loc 3 15 2 is_stmt 0 discriminator 3 view .LVU1067
.LBE722:
.LBE721:
	.loc 1 226 6 is_stmt 1 discriminator 3 view .LVU1068
.LVL298:
.LBB723:
.LBI723:
	.loc 3 11 17 discriminator 3 view .LVU1069
.LBB724:
	.loc 3 12 2 discriminator 3 view .LVU1070
	.loc 3 12 7 is_stmt 0 discriminator 3 view .LVU1071
	eor	r3, r3, r3, lsl #13
	.loc 3 13 2 is_stmt 1 discriminator 3 view .LVU1072
	.loc 3 13 7 is_stmt 0 discriminator 3 view .LVU1073
	eor	r3, r3, r3, lsr #17
	.loc 3 14 2 is_stmt 1 discriminator 3 view .LVU1074
	.loc 3 14 7 is_stmt 0 discriminator 3 view .LVU1075
	eor	r3, r3, r3, lsl #5
	.loc 3 15 2 is_stmt 1 discriminator 3 view .LVU1076
	.loc 3 15 2 is_stmt 0 discriminator 3 view .LVU1077
.LBE724:
.LBE723:
	.loc 1 227 6 is_stmt 1 discriminator 3 view .LVU1078
.LVL299:
.LBB725:
.LBI725:
	.loc 3 11 17 discriminator 3 view .LVU1079
.LBB726:
	.loc 3 12 2 discriminator 3 view .LVU1080
	.loc 3 12 7 is_stmt 0 discriminator 3 view .LVU1081
	eor	r3, r3, r3, lsl #13
	.loc 3 13 2 is_stmt 1 discriminator 3 view .LVU1082
	.loc 3 13 7 is_stmt 0 discriminator 3 view .LVU1083
	eor	r3, r3, r3, lsr #17
	.loc 3 14 2 is_stmt 1 discriminator 3 view .LVU1084
.LBE726:
.LBE725:
	.loc 1 224 23 is_stmt 0 discriminator 3 view .LVU1085
	subs	r2, r2, #1
.LVL300:
.LBB728:
.LBB727:
	.loc 3 14 7 discriminator 3 view .LVU1086
	eor	r3, r3, r3, lsl #5
	.loc 3 15 2 is_stmt 1 discriminator 3 view .LVU1087
	.loc 3 15 2 is_stmt 0 discriminator 3 view .LVU1088
.LBE727:
.LBE728:
	.loc 1 224 50 is_stmt 1 discriminator 3 view .LVU1089
.LVL301:
	.loc 1 224 23 discriminator 3 view .LVU1090
	bne	.L215
	str	r3, [r6, #620]
	b	.L209
.LVL302:
.L232:
	.loc 1 224 23 is_stmt 0 discriminator 3 view .LVU1091
.LBE720:
.LBE735:
.LBB736:
	.loc 1 209 5 is_stmt 1 view .LVU1092
	.loc 1 209 53 is_stmt 0 view .LVU1093
	mov	r2, #2
	str	r3, [sp, #32]
.LBB737:
.LBB738:
	.loc 4 44 2 view .LVU1094
	mov	r3, #1
.LBE738:
.LBE737:
	.loc 1 209 5 view .LVU1095
	ldr	r1, [sp, #4]
	.loc 1 209 53 view .LVU1096
	str	r2, [sp, #24]
	.loc 1 209 5 view .LVU1097
	ldr	r8, [r1, #616]
.LVL303:
.LBB741:
.LBB739:
	.loc 4 43 24 view .LVU1098
	ldr	r2, [r6, #8]
	str	r6, [sp, #28]
	.loc 4 44 2 view .LVU1099
	str	r3, [r6]
	add	r10, sp, #36
	add	r3, sp, #24
	.loc 4 46 2 view .LVU1100
	add	fp, r8, #20
	.loc 4 43 24 view .LVU1101
	str	r2, [sp, #8]
	ldm	r3, {r0, r1, r2}
	stm	r10, {r0, r1, r2}
.LVL304:
	.loc 4 43 24 view .LVU1102
.LBE739:
.LBI737:
	.loc 4 42 13 is_stmt 1 view .LVU1103
.LBB740:
	.loc 4 43 2 view .LVU1104
	.loc 4 44 2 view .LVU1105
	.loc 4 45 2 view .LVU1106
	.loc 4 46 2 view .LVU1107
	mov	r0, fp
	bl	LightLock_Lock
.LVL305:
	.loc 4 47 2 view .LVU1108
	.loc 4 47 4 is_stmt 0 view .LVU1109
	mov	r3, #12
	mov	r0, r8
	add	r2, r8, #8
	add	r1, r8, #4
	bl	vec_expand_
.LVL306:
	.loc 4 47 139 view .LVU1110
	cmp	r0, #0
	bne	.L207
	.loc 4 47 191 view .LVU1111
	ldr	r2, [sp, #8]
	.loc 4 47 157 view .LVU1112
	ldr	r3, [r8]
	.loc 4 47 191 view .LVU1113
	str	r2, [sp, #44]
	.loc 4 47 179 view .LVU1114
	ldr	r2, [r8, #4]
	.loc 4 47 191 view .LVU1115
	add	r1, r2, r2, lsl #1
	add	r3, r3, r1, lsl #2
	.loc 4 47 187 view .LVU1116
	add	r2, r2, #1
	str	r2, [r8, #4]
.LVL307:
	.loc 4 47 191 view .LVU1117
	ldm	r10, {r0, r1, r2}
	stm	r3, {r0, r1, r2}
.LVL308:
.L207:
	.loc 4 48 2 is_stmt 1 view .LVU1118
	mov	r0, fp
	bl	LightLock_Unlock
.LVL309:
	.loc 4 50 2 view .LVU1119
	add	r0, r8, #12
	bl	LightEvent_Signal
.LVL310:
	.loc 4 50 2 is_stmt 0 view .LVU1120
	b	.L205
.LVL311:
.L233:
	.loc 4 50 2 view .LVU1121
.LBE740:
.LBE741:
.LBE736:
.LBE745:
.LBE748:
	.loc 1 204 20 discriminator 2 view .LVU1122
	ldr	r3, [sp]
	ldr	fp, [sp, #12]
	.loc 1 204 28 is_stmt 1 discriminator 2 view .LVU1123
.LVL312:
	.loc 1 204 20 discriminator 2 view .LVU1124
	add	r3, r3, #36
	cmp	fp, #8
	str	r3, [sp]
	bne	.L204
.LBE752:
	.loc 1 231 1 is_stmt 0 view .LVU1125
	add	sp, sp, #52
	.cfi_remember_state
	.cfi_def_cfa_offset 36
	@ sp needed
	pop	{r4, r5, r6, r7, r8, r9, r10, fp, pc}
.LVL313:
.L228:
	.cfi_restore_state
.LBB753:
.LBB749:
.LBB746:
.LBB742:
.LBB729:
	.loc 1 219 16 is_stmt 1 discriminator 1 view .LVU1126
	.loc 1 219 64 is_stmt 0 discriminator 1 view .LVU1127
	mov	r3, #3
	str	r3, [sp, #24]
	mov	r3, #0
	str	r3, [sp, #32]
.LBB708:
.LBB709:
	.loc 4 44 2 discriminator 1 view .LVU1128
	mov	r3, #1
.LBE709:
.LBE708:
	.loc 1 219 16 discriminator 1 view .LVU1129
	ldr	r2, [sp, #4]
.LVL314:
	.loc 1 219 16 discriminator 1 view .LVU1130
	str	r6, [sp, #28]
	ldr	r7, [r2, #616]
.LVL315:
	.loc 1 219 16 discriminator 1 view .LVU1131
	add	r8, sp, #36
.LBB712:
.LBB710:
	.loc 4 44 2 discriminator 1 view .LVU1132
	str	r3, [r6]
	.loc 4 46 2 discriminator 1 view .LVU1133
	add	r10, r7, #20
	add	r3, sp, #24
	.loc 4 43 24 discriminator 1 view .LVU1134
	ldr	fp, [r6, #8]
.LBE710:
.LBE712:
	.loc 1 219 16 discriminator 1 view .LVU1135
	mov	r6, r2
.LVL316:
	.loc 1 219 16 discriminator 1 view .LVU1136
	ldm	r3, {r0, r1, r2}
	stm	r8, {r0, r1, r2}
.LVL317:
.LBB713:
.LBI708:
	.loc 4 42 13 is_stmt 1 discriminator 1 view .LVU1137
.LBB711:
	.loc 4 43 2 discriminator 1 view .LVU1138
	.loc 4 44 2 discriminator 1 view .LVU1139
	.loc 4 45 2 discriminator 1 view .LVU1140
	.loc 4 46 2 discriminator 1 view .LVU1141
	mov	r0, r10
	bl	LightLock_Lock
.LVL318:
	.loc 4 47 2 discriminator 1 view .LVU1142
	.loc 4 47 4 is_stmt 0 discriminator 1 view .LVU1143
	mov	r3, #12
	mov	r0, r7
	add	r2, r7, #8
	add	r1, r7, #4
	bl	vec_expand_
.LVL319:
	.loc 4 47 139 discriminator 1 view .LVU1144
	cmp	r0, #0
	bne	.L214
	.loc 4 47 179 view .LVU1145
	ldr	r2, [r7, #4]
	.loc 4 47 157 view .LVU1146
	ldr	r3, [r7]
	.loc 4 47 191 view .LVU1147
	add	r1, r2, r2, lsl #1
	add	r3, r3, r1, lsl #2
	.loc 4 47 187 view .LVU1148
	add	r2, r2, #1
	.loc 4 47 191 view .LVU1149
	str	fp, [sp, #44]
	.loc 4 47 187 view .LVU1150
	str	r2, [r7, #4]
.LVL320:
	.loc 4 47 191 view .LVU1151
	ldm	r8, {r0, r1, r2}
	stm	r3, {r0, r1, r2}
.LVL321:
.L214:
	.loc 4 48 2 is_stmt 1 view .LVU1152
	mov	r0, r10
	bl	LightLock_Unlock
.LVL322:
	.loc 4 50 2 view .LVU1153
	add	r0, r7, #12
	bl	LightEvent_Signal
.LVL323:
	.loc 4 50 2 is_stmt 0 view .LVU1154
	b	.L213
.L236:
	.align	2
.L235:
	.word	11919640
.LBE711:
.LBE713:
.LBE729:
.LBE742:
.LBE746:
.LBE749:
.LBE753:
	.cfi_endproc
.LFE136:
	.size	World_Tick, .-World_Tick
	.text
.Letext0:
	.file 6 "/opt/devkitpro/devkitARM/arm-none-eabi/include/machine/_default_types.h"
	.file 7 "/opt/devkitpro/devkitARM/arm-none-eabi/include/sys/_stdint.h"
	.file 8 "/home/tobi/Dokumente/Craftus-Next/include/blocks/Block.h"
	.file 9 "/opt/devkitpro/devkitARM/lib/gcc/arm-none-eabi/11.2.0/include/stddef.h"
	.file 10 "/opt/devkitpro/devkitARM/arm-none-eabi/include/sys/lock.h"
	.file 11 "/home/tobi/Dokumente/Craftus-Next/include/rendering/VBOCache.h"
	.file 12 "/opt/devkitpro/libctru/include/3ds/synchronization.h"
	.file 13 "/home/tobi/Dokumente/Craftus-Next/dependencies/vec/vec.h"
	.file 14 "/opt/devkitpro/devkitARM/arm-none-eabi/include/string.h"
	.file 15 "<built-in>"
	.file 16 "/opt/devkitpro/libctru/include/3ds/types.h"